ARM GAS  /tmp/cciZPXqp.s 			page 1


   1              		.cpu cortex-m0plus
   2              		.arch armv6s-m
   3              		.fpu softvfp
   4              		.eabi_attribute 20, 1
   5              		.eabi_attribute 21, 1
   6              		.eabi_attribute 23, 3
   7              		.eabi_attribute 24, 1
   8              		.eabi_attribute 25, 1
   9              		.eabi_attribute 26, 1
  10              		.eabi_attribute 30, 1
  11              		.eabi_attribute 34, 0
  12              		.eabi_attribute 18, 4
  13              		.file	"i2c.c"
  14              		.text
  15              	.Ltext0:
  16              		.cfi_sections	.debug_frame
  17              		.file 1 "Core/Src/i2c.c"
  18              		.section	.text.MX_I2C2_Init,"ax",%progbits
  19              		.align	1
  20              		.global	MX_I2C2_Init
  21              		.syntax unified
  22              		.code	16
  23              		.thumb_func
  25              	MX_I2C2_Init:
  26              	.LFB366:
   1:Core/Src/i2c.c **** /**
   2:Core/Src/i2c.c ****   ******************************************************************************
   3:Core/Src/i2c.c ****   * @file    i2c.c
   4:Core/Src/i2c.c ****   * @brief   This file provides code for the configuration
   5:Core/Src/i2c.c ****   *          of the I2C instances.
   6:Core/Src/i2c.c ****   ******************************************************************************
   7:Core/Src/i2c.c ****   * @attention
   8:Core/Src/i2c.c ****   *
   9:Core/Src/i2c.c ****   * <h2><center>&copy; Copyright (c) 2022 STMicroelectronics.
  10:Core/Src/i2c.c ****   * All rights reserved.</center></h2>
  11:Core/Src/i2c.c ****   *
  12:Core/Src/i2c.c ****   * This software component is licensed by ST under Ultimate Liberty license
  13:Core/Src/i2c.c ****   * SLA0044, the "License"; You may not use this file except in compliance with
  14:Core/Src/i2c.c ****   * the License. You may obtain a copy of the License at:
  15:Core/Src/i2c.c ****   *                             www.st.com/SLA0044
  16:Core/Src/i2c.c ****   *
  17:Core/Src/i2c.c ****   ******************************************************************************
  18:Core/Src/i2c.c ****   */
  19:Core/Src/i2c.c **** 
  20:Core/Src/i2c.c **** /* Includes ------------------------------------------------------------------*/
  21:Core/Src/i2c.c **** #include "i2c.h"
  22:Core/Src/i2c.c **** 
  23:Core/Src/i2c.c **** /* USER CODE BEGIN 0 */
  24:Core/Src/i2c.c **** 
  25:Core/Src/i2c.c **** /* USER CODE END 0 */
  26:Core/Src/i2c.c **** 
  27:Core/Src/i2c.c **** I2C_HandleTypeDef hi2c2;
  28:Core/Src/i2c.c **** 
  29:Core/Src/i2c.c **** /* I2C2 init function */
  30:Core/Src/i2c.c **** void MX_I2C2_Init(void)
  31:Core/Src/i2c.c **** {
  27              		.loc 1 31 1 view -0
ARM GAS  /tmp/cciZPXqp.s 			page 2


  28              		.cfi_startproc
  29              		@ args = 0, pretend = 0, frame = 0
  30              		@ frame_needed = 0, uses_anonymous_args = 0
  31 0000 10B5     		push	{r4, lr}
  32              	.LCFI0:
  33              		.cfi_def_cfa_offset 8
  34              		.cfi_offset 4, -8
  35              		.cfi_offset 14, -4
  32:Core/Src/i2c.c **** 
  33:Core/Src/i2c.c ****   /* USER CODE BEGIN I2C2_Init 0 */
  34:Core/Src/i2c.c **** 
  35:Core/Src/i2c.c ****   /* USER CODE END I2C2_Init 0 */
  36:Core/Src/i2c.c **** 
  37:Core/Src/i2c.c ****   /* USER CODE BEGIN I2C2_Init 1 */
  38:Core/Src/i2c.c **** 
  39:Core/Src/i2c.c ****   /* USER CODE END I2C2_Init 1 */
  40:Core/Src/i2c.c ****   hi2c2.Instance = I2C2;
  36              		.loc 1 40 3 view .LVU1
  37              		.loc 1 40 18 is_stmt 0 view .LVU2
  38 0002 1448     		ldr	r0, .L8
  39 0004 144B     		ldr	r3, .L8+4
  40 0006 0360     		str	r3, [r0]
  41:Core/Src/i2c.c ****   hi2c2.Init.Timing = 0x10707DBC;
  41              		.loc 1 41 3 is_stmt 1 view .LVU3
  42              		.loc 1 41 21 is_stmt 0 view .LVU4
  43 0008 144B     		ldr	r3, .L8+8
  44 000a 4360     		str	r3, [r0, #4]
  42:Core/Src/i2c.c ****   hi2c2.Init.OwnAddress1 = 0;
  45              		.loc 1 42 3 is_stmt 1 view .LVU5
  46              		.loc 1 42 26 is_stmt 0 view .LVU6
  47 000c 0023     		movs	r3, #0
  48 000e 8360     		str	r3, [r0, #8]
  43:Core/Src/i2c.c ****   hi2c2.Init.AddressingMode = I2C_ADDRESSINGMODE_7BIT;
  49              		.loc 1 43 3 is_stmt 1 view .LVU7
  50              		.loc 1 43 29 is_stmt 0 view .LVU8
  51 0010 0122     		movs	r2, #1
  52 0012 C260     		str	r2, [r0, #12]
  44:Core/Src/i2c.c ****   hi2c2.Init.DualAddressMode = I2C_DUALADDRESS_DISABLE;
  53              		.loc 1 44 3 is_stmt 1 view .LVU9
  54              		.loc 1 44 30 is_stmt 0 view .LVU10
  55 0014 0361     		str	r3, [r0, #16]
  45:Core/Src/i2c.c ****   hi2c2.Init.OwnAddress2 = 0;
  56              		.loc 1 45 3 is_stmt 1 view .LVU11
  57              		.loc 1 45 26 is_stmt 0 view .LVU12
  58 0016 4361     		str	r3, [r0, #20]
  46:Core/Src/i2c.c ****   hi2c2.Init.OwnAddress2Masks = I2C_OA2_NOMASK;
  59              		.loc 1 46 3 is_stmt 1 view .LVU13
  60              		.loc 1 46 31 is_stmt 0 view .LVU14
  61 0018 8361     		str	r3, [r0, #24]
  47:Core/Src/i2c.c ****   hi2c2.Init.GeneralCallMode = I2C_GENERALCALL_DISABLE;
  62              		.loc 1 47 3 is_stmt 1 view .LVU15
  63              		.loc 1 47 30 is_stmt 0 view .LVU16
  64 001a C361     		str	r3, [r0, #28]
  48:Core/Src/i2c.c ****   hi2c2.Init.NoStretchMode = I2C_NOSTRETCH_DISABLE;
  65              		.loc 1 48 3 is_stmt 1 view .LVU17
  66              		.loc 1 48 28 is_stmt 0 view .LVU18
  67 001c 0362     		str	r3, [r0, #32]
ARM GAS  /tmp/cciZPXqp.s 			page 3


  49:Core/Src/i2c.c ****   if (HAL_I2C_Init(&hi2c2) != HAL_OK)
  68              		.loc 1 49 3 is_stmt 1 view .LVU19
  69              		.loc 1 49 7 is_stmt 0 view .LVU20
  70 001e FFF7FEFF 		bl	HAL_I2C_Init
  71              	.LVL0:
  72              		.loc 1 49 6 view .LVU21
  73 0022 0028     		cmp	r0, #0
  74 0024 0CD1     		bne	.L5
  75              	.L2:
  50:Core/Src/i2c.c ****   {
  51:Core/Src/i2c.c ****     Error_Handler();
  52:Core/Src/i2c.c ****   }
  53:Core/Src/i2c.c ****   /** Configure Analogue filter
  54:Core/Src/i2c.c ****   */
  55:Core/Src/i2c.c ****   if (HAL_I2CEx_ConfigAnalogFilter(&hi2c2, I2C_ANALOGFILTER_ENABLE) != HAL_OK)
  76              		.loc 1 55 3 is_stmt 1 view .LVU22
  77              		.loc 1 55 7 is_stmt 0 view .LVU23
  78 0026 0B48     		ldr	r0, .L8
  79 0028 0021     		movs	r1, #0
  80 002a FFF7FEFF 		bl	HAL_I2CEx_ConfigAnalogFilter
  81              	.LVL1:
  82              		.loc 1 55 6 view .LVU24
  83 002e 0028     		cmp	r0, #0
  84 0030 09D1     		bne	.L6
  85              	.L3:
  56:Core/Src/i2c.c ****   {
  57:Core/Src/i2c.c ****     Error_Handler();
  58:Core/Src/i2c.c ****   }
  59:Core/Src/i2c.c ****   /** Configure Digital filter
  60:Core/Src/i2c.c ****   */
  61:Core/Src/i2c.c ****   if (HAL_I2CEx_ConfigDigitalFilter(&hi2c2, 0) != HAL_OK)
  86              		.loc 1 61 3 is_stmt 1 view .LVU25
  87              		.loc 1 61 7 is_stmt 0 view .LVU26
  88 0032 0848     		ldr	r0, .L8
  89 0034 0021     		movs	r1, #0
  90 0036 FFF7FEFF 		bl	HAL_I2CEx_ConfigDigitalFilter
  91              	.LVL2:
  92              		.loc 1 61 6 view .LVU27
  93 003a 0028     		cmp	r0, #0
  94 003c 06D1     		bne	.L7
  95              	.L1:
  62:Core/Src/i2c.c ****   {
  63:Core/Src/i2c.c ****     Error_Handler();
  64:Core/Src/i2c.c ****   }
  65:Core/Src/i2c.c ****   /* USER CODE BEGIN I2C2_Init 2 */
  66:Core/Src/i2c.c **** 
  67:Core/Src/i2c.c ****   /* USER CODE END I2C2_Init 2 */
  68:Core/Src/i2c.c **** 
  69:Core/Src/i2c.c **** }
  96              		.loc 1 69 1 view .LVU28
  97              		@ sp needed
  98 003e 10BD     		pop	{r4, pc}
  99              	.L5:
  51:Core/Src/i2c.c ****   }
 100              		.loc 1 51 5 is_stmt 1 view .LVU29
 101 0040 FFF7FEFF 		bl	Error_Handler
 102              	.LVL3:
ARM GAS  /tmp/cciZPXqp.s 			page 4


 103 0044 EFE7     		b	.L2
 104              	.L6:
  57:Core/Src/i2c.c ****   }
 105              		.loc 1 57 5 view .LVU30
 106 0046 FFF7FEFF 		bl	Error_Handler
 107              	.LVL4:
 108 004a F2E7     		b	.L3
 109              	.L7:
  63:Core/Src/i2c.c ****   }
 110              		.loc 1 63 5 view .LVU31
 111 004c FFF7FEFF 		bl	Error_Handler
 112              	.LVL5:
 113              		.loc 1 69 1 is_stmt 0 view .LVU32
 114 0050 F5E7     		b	.L1
 115              	.L9:
 116 0052 C046     		.align	2
 117              	.L8:
 118 0054 00000000 		.word	hi2c2
 119 0058 00580040 		.word	1073764352
 120 005c BC7D7010 		.word	275807676
 121              		.cfi_endproc
 122              	.LFE366:
 124              		.section	.text.HAL_I2C_MspInit,"ax",%progbits
 125              		.align	1
 126              		.global	HAL_I2C_MspInit
 127              		.syntax unified
 128              		.code	16
 129              		.thumb_func
 131              	HAL_I2C_MspInit:
 132              	.LVL6:
 133              	.LFB367:
  70:Core/Src/i2c.c **** 
  71:Core/Src/i2c.c **** void HAL_I2C_MspInit(I2C_HandleTypeDef* i2cHandle)
  72:Core/Src/i2c.c **** {
 134              		.loc 1 72 1 is_stmt 1 view -0
 135              		.cfi_startproc
 136              		@ args = 0, pretend = 0, frame = 32
 137              		@ frame_needed = 0, uses_anonymous_args = 0
 138              		.loc 1 72 1 is_stmt 0 view .LVU34
 139 0000 10B5     		push	{r4, lr}
 140              	.LCFI1:
 141              		.cfi_def_cfa_offset 8
 142              		.cfi_offset 4, -8
 143              		.cfi_offset 14, -4
 144 0002 88B0     		sub	sp, sp, #32
 145              	.LCFI2:
 146              		.cfi_def_cfa_offset 40
 147 0004 0400     		movs	r4, r0
  73:Core/Src/i2c.c **** 
  74:Core/Src/i2c.c ****   GPIO_InitTypeDef GPIO_InitStruct = {0};
 148              		.loc 1 74 3 is_stmt 1 view .LVU35
 149              		.loc 1 74 20 is_stmt 0 view .LVU36
 150 0006 1422     		movs	r2, #20
 151 0008 0021     		movs	r1, #0
 152 000a 03A8     		add	r0, sp, #12
 153              	.LVL7:
 154              		.loc 1 74 20 view .LVU37
ARM GAS  /tmp/cciZPXqp.s 			page 5


 155 000c FFF7FEFF 		bl	memset
 156              	.LVL8:
  75:Core/Src/i2c.c ****   if(i2cHandle->Instance==I2C2)
 157              		.loc 1 75 3 is_stmt 1 view .LVU38
 158              		.loc 1 75 15 is_stmt 0 view .LVU39
 159 0010 2268     		ldr	r2, [r4]
 160              		.loc 1 75 5 view .LVU40
 161 0012 114B     		ldr	r3, .L13
 162 0014 9A42     		cmp	r2, r3
 163 0016 01D0     		beq	.L12
 164              	.LVL9:
 165              	.L10:
  76:Core/Src/i2c.c ****   {
  77:Core/Src/i2c.c ****   /* USER CODE BEGIN I2C2_MspInit 0 */
  78:Core/Src/i2c.c **** 
  79:Core/Src/i2c.c ****   /* USER CODE END I2C2_MspInit 0 */
  80:Core/Src/i2c.c **** 
  81:Core/Src/i2c.c ****     __HAL_RCC_GPIOA_CLK_ENABLE();
  82:Core/Src/i2c.c ****     /**I2C2 GPIO Configuration
  83:Core/Src/i2c.c ****     PA6     ------> I2C2_SDA
  84:Core/Src/i2c.c ****     PA7     ------> I2C2_SCL
  85:Core/Src/i2c.c ****     */
  86:Core/Src/i2c.c ****     GPIO_InitStruct.Pin = GPIO_PIN_6|GPIO_PIN_7;
  87:Core/Src/i2c.c ****     GPIO_InitStruct.Mode = GPIO_MODE_AF_OD;
  88:Core/Src/i2c.c ****     GPIO_InitStruct.Pull = GPIO_NOPULL;
  89:Core/Src/i2c.c ****     GPIO_InitStruct.Speed = GPIO_SPEED_FREQ_LOW;
  90:Core/Src/i2c.c ****     GPIO_InitStruct.Alternate = GPIO_AF8_I2C2;
  91:Core/Src/i2c.c ****     HAL_GPIO_Init(GPIOA, &GPIO_InitStruct);
  92:Core/Src/i2c.c **** 
  93:Core/Src/i2c.c ****     /* I2C2 clock enable */
  94:Core/Src/i2c.c ****     __HAL_RCC_I2C2_CLK_ENABLE();
  95:Core/Src/i2c.c ****   /* USER CODE BEGIN I2C2_MspInit 1 */
  96:Core/Src/i2c.c **** 
  97:Core/Src/i2c.c ****   /* USER CODE END I2C2_MspInit 1 */
  98:Core/Src/i2c.c ****   }
  99:Core/Src/i2c.c **** }
 166              		.loc 1 99 1 view .LVU41
 167 0018 08B0     		add	sp, sp, #32
 168              		@ sp needed
 169 001a 10BD     		pop	{r4, pc}
 170              	.LVL10:
 171              	.L12:
  81:Core/Src/i2c.c ****     /**I2C2 GPIO Configuration
 172              		.loc 1 81 5 is_stmt 1 view .LVU42
 173              	.LBB2:
  81:Core/Src/i2c.c ****     /**I2C2 GPIO Configuration
 174              		.loc 1 81 5 view .LVU43
  81:Core/Src/i2c.c ****     /**I2C2 GPIO Configuration
 175              		.loc 1 81 5 view .LVU44
 176 001c 0F4C     		ldr	r4, .L13+4
 177              	.LVL11:
  81:Core/Src/i2c.c ****     /**I2C2 GPIO Configuration
 178              		.loc 1 81 5 is_stmt 0 view .LVU45
 179 001e 626B     		ldr	r2, [r4, #52]
 180 0020 0123     		movs	r3, #1
 181 0022 1A43     		orrs	r2, r3
 182 0024 6263     		str	r2, [r4, #52]
ARM GAS  /tmp/cciZPXqp.s 			page 6


  81:Core/Src/i2c.c ****     /**I2C2 GPIO Configuration
 183              		.loc 1 81 5 is_stmt 1 view .LVU46
 184 0026 626B     		ldr	r2, [r4, #52]
 185 0028 1340     		ands	r3, r2
 186 002a 0193     		str	r3, [sp, #4]
  81:Core/Src/i2c.c ****     /**I2C2 GPIO Configuration
 187              		.loc 1 81 5 view .LVU47
 188 002c 019B     		ldr	r3, [sp, #4]
 189              	.LBE2:
  81:Core/Src/i2c.c ****     /**I2C2 GPIO Configuration
 190              		.loc 1 81 5 view .LVU48
  86:Core/Src/i2c.c ****     GPIO_InitStruct.Mode = GPIO_MODE_AF_OD;
 191              		.loc 1 86 5 view .LVU49
  86:Core/Src/i2c.c ****     GPIO_InitStruct.Mode = GPIO_MODE_AF_OD;
 192              		.loc 1 86 25 is_stmt 0 view .LVU50
 193 002e C023     		movs	r3, #192
 194 0030 0393     		str	r3, [sp, #12]
  87:Core/Src/i2c.c ****     GPIO_InitStruct.Pull = GPIO_NOPULL;
 195              		.loc 1 87 5 is_stmt 1 view .LVU51
  87:Core/Src/i2c.c ****     GPIO_InitStruct.Pull = GPIO_NOPULL;
 196              		.loc 1 87 26 is_stmt 0 view .LVU52
 197 0032 AE3B     		subs	r3, r3, #174
 198 0034 0493     		str	r3, [sp, #16]
  88:Core/Src/i2c.c ****     GPIO_InitStruct.Speed = GPIO_SPEED_FREQ_LOW;
 199              		.loc 1 88 5 is_stmt 1 view .LVU53
  89:Core/Src/i2c.c ****     GPIO_InitStruct.Alternate = GPIO_AF8_I2C2;
 200              		.loc 1 89 5 view .LVU54
  90:Core/Src/i2c.c ****     HAL_GPIO_Init(GPIOA, &GPIO_InitStruct);
 201              		.loc 1 90 5 view .LVU55
  90:Core/Src/i2c.c ****     HAL_GPIO_Init(GPIOA, &GPIO_InitStruct);
 202              		.loc 1 90 31 is_stmt 0 view .LVU56
 203 0036 0A3B     		subs	r3, r3, #10
 204 0038 0793     		str	r3, [sp, #28]
  91:Core/Src/i2c.c **** 
 205              		.loc 1 91 5 is_stmt 1 view .LVU57
 206 003a A020     		movs	r0, #160
 207 003c 03A9     		add	r1, sp, #12
 208 003e C005     		lsls	r0, r0, #23
 209 0040 FFF7FEFF 		bl	HAL_GPIO_Init
 210              	.LVL12:
  94:Core/Src/i2c.c ****   /* USER CODE BEGIN I2C2_MspInit 1 */
 211              		.loc 1 94 5 view .LVU58
 212              	.LBB3:
  94:Core/Src/i2c.c ****   /* USER CODE BEGIN I2C2_MspInit 1 */
 213              		.loc 1 94 5 view .LVU59
  94:Core/Src/i2c.c ****   /* USER CODE BEGIN I2C2_MspInit 1 */
 214              		.loc 1 94 5 view .LVU60
 215 0044 E36B     		ldr	r3, [r4, #60]
 216 0046 8022     		movs	r2, #128
 217 0048 D203     		lsls	r2, r2, #15
 218 004a 1343     		orrs	r3, r2
 219 004c E363     		str	r3, [r4, #60]
  94:Core/Src/i2c.c ****   /* USER CODE BEGIN I2C2_MspInit 1 */
 220              		.loc 1 94 5 view .LVU61
 221 004e E36B     		ldr	r3, [r4, #60]
 222 0050 1340     		ands	r3, r2
 223 0052 0293     		str	r3, [sp, #8]
ARM GAS  /tmp/cciZPXqp.s 			page 7


  94:Core/Src/i2c.c ****   /* USER CODE BEGIN I2C2_MspInit 1 */
 224              		.loc 1 94 5 view .LVU62
 225 0054 029B     		ldr	r3, [sp, #8]
 226              	.LBE3:
  94:Core/Src/i2c.c ****   /* USER CODE BEGIN I2C2_MspInit 1 */
 227              		.loc 1 94 5 view .LVU63
 228              		.loc 1 99 1 is_stmt 0 view .LVU64
 229 0056 DFE7     		b	.L10
 230              	.L14:
 231              		.align	2
 232              	.L13:
 233 0058 00580040 		.word	1073764352
 234 005c 00100240 		.word	1073876992
 235              		.cfi_endproc
 236              	.LFE367:
 238              		.section	.text.HAL_I2C_MspDeInit,"ax",%progbits
 239              		.align	1
 240              		.global	HAL_I2C_MspDeInit
 241              		.syntax unified
 242              		.code	16
 243              		.thumb_func
 245              	HAL_I2C_MspDeInit:
 246              	.LVL13:
 247              	.LFB368:
 100:Core/Src/i2c.c **** 
 101:Core/Src/i2c.c **** void HAL_I2C_MspDeInit(I2C_HandleTypeDef* i2cHandle)
 102:Core/Src/i2c.c **** {
 248              		.loc 1 102 1 is_stmt 1 view -0
 249              		.cfi_startproc
 250              		@ args = 0, pretend = 0, frame = 0
 251              		@ frame_needed = 0, uses_anonymous_args = 0
 252              		.loc 1 102 1 is_stmt 0 view .LVU66
 253 0000 10B5     		push	{r4, lr}
 254              	.LCFI3:
 255              		.cfi_def_cfa_offset 8
 256              		.cfi_offset 4, -8
 257              		.cfi_offset 14, -4
 103:Core/Src/i2c.c **** 
 104:Core/Src/i2c.c ****   if(i2cHandle->Instance==I2C2)
 258              		.loc 1 104 3 is_stmt 1 view .LVU67
 259              		.loc 1 104 15 is_stmt 0 view .LVU68
 260 0002 0268     		ldr	r2, [r0]
 261              		.loc 1 104 5 view .LVU69
 262 0004 094B     		ldr	r3, .L18
 263 0006 9A42     		cmp	r2, r3
 264 0008 00D0     		beq	.L17
 265              	.LVL14:
 266              	.L15:
 105:Core/Src/i2c.c ****   {
 106:Core/Src/i2c.c ****   /* USER CODE BEGIN I2C2_MspDeInit 0 */
 107:Core/Src/i2c.c **** 
 108:Core/Src/i2c.c ****   /* USER CODE END I2C2_MspDeInit 0 */
 109:Core/Src/i2c.c ****     /* Peripheral clock disable */
 110:Core/Src/i2c.c ****     __HAL_RCC_I2C2_CLK_DISABLE();
 111:Core/Src/i2c.c **** 
 112:Core/Src/i2c.c ****     /**I2C2 GPIO Configuration
 113:Core/Src/i2c.c ****     PA6     ------> I2C2_SDA
ARM GAS  /tmp/cciZPXqp.s 			page 8


 114:Core/Src/i2c.c ****     PA7     ------> I2C2_SCL
 115:Core/Src/i2c.c ****     */
 116:Core/Src/i2c.c ****     HAL_GPIO_DeInit(GPIOA, GPIO_PIN_6);
 117:Core/Src/i2c.c **** 
 118:Core/Src/i2c.c ****     HAL_GPIO_DeInit(GPIOA, GPIO_PIN_7);
 119:Core/Src/i2c.c **** 
 120:Core/Src/i2c.c ****   /* USER CODE BEGIN I2C2_MspDeInit 1 */
 121:Core/Src/i2c.c **** 
 122:Core/Src/i2c.c ****   /* USER CODE END I2C2_MspDeInit 1 */
 123:Core/Src/i2c.c ****   }
 124:Core/Src/i2c.c **** }
 267              		.loc 1 124 1 view .LVU70
 268              		@ sp needed
 269 000a 10BD     		pop	{r4, pc}
 270              	.LVL15:
 271              	.L17:
 110:Core/Src/i2c.c **** 
 272              		.loc 1 110 5 is_stmt 1 view .LVU71
 273 000c 084A     		ldr	r2, .L18+4
 274 000e D36B     		ldr	r3, [r2, #60]
 275 0010 0849     		ldr	r1, .L18+8
 276 0012 0B40     		ands	r3, r1
 277 0014 D363     		str	r3, [r2, #60]
 116:Core/Src/i2c.c **** 
 278              		.loc 1 116 5 view .LVU72
 279 0016 A024     		movs	r4, #160
 280 0018 E405     		lsls	r4, r4, #23
 281 001a 4021     		movs	r1, #64
 282 001c 2000     		movs	r0, r4
 283              	.LVL16:
 116:Core/Src/i2c.c **** 
 284              		.loc 1 116 5 is_stmt 0 view .LVU73
 285 001e FFF7FEFF 		bl	HAL_GPIO_DeInit
 286              	.LVL17:
 118:Core/Src/i2c.c **** 
 287              		.loc 1 118 5 is_stmt 1 view .LVU74
 288 0022 8021     		movs	r1, #128
 289 0024 2000     		movs	r0, r4
 290 0026 FFF7FEFF 		bl	HAL_GPIO_DeInit
 291              	.LVL18:
 292              		.loc 1 124 1 is_stmt 0 view .LVU75
 293 002a EEE7     		b	.L15
 294              	.L19:
 295              		.align	2
 296              	.L18:
 297 002c 00580040 		.word	1073764352
 298 0030 00100240 		.word	1073876992
 299 0034 FFFFBFFF 		.word	-4194305
 300              		.cfi_endproc
 301              	.LFE368:
 303              		.global	hi2c2
 304              		.section	.bss.hi2c2,"aw",%nobits
 305              		.align	2
 308              	hi2c2:
 309 0000 00000000 		.space	76
 309      00000000 
 309      00000000 
ARM GAS  /tmp/cciZPXqp.s 			page 9


 309      00000000 
 309      00000000 
 310              		.text
 311              	.Letext0:
 312              		.file 2 "/usr/arm-none-eabi/include/machine/_default_types.h"
 313              		.file 3 "/usr/arm-none-eabi/include/sys/_stdint.h"
 314              		.file 4 "Drivers/CMSIS/Device/ST/STM32G0xx/Include/stm32g0b1xx.h"
 315              		.file 5 "Drivers/STM32G0xx_HAL_Driver/Inc/stm32g0xx_hal_def.h"
 316              		.file 6 "Drivers/STM32G0xx_HAL_Driver/Inc/stm32g0xx_hal_gpio.h"
 317              		.file 7 "Drivers/STM32G0xx_HAL_Driver/Inc/stm32g0xx_hal_dma.h"
 318              		.file 8 "Drivers/STM32G0xx_HAL_Driver/Inc/stm32g0xx_hal_i2c.h"
 319              		.file 9 "Drivers/STM32G0xx_HAL_Driver/Inc/stm32g0xx_hal_i2c_ex.h"
 320              		.file 10 "Drivers/STM32G0xx_HAL_Driver/Inc/stm32g0xx_ll_dma.h"
 321              		.file 11 "Core/Inc/i2c.h"
 322              		.file 12 "Core/Inc/main.h"
 323              		.file 13 "<built-in>"
ARM GAS  /tmp/cciZPXqp.s 			page 10

