ARM GAS  /tmp/cc2bLLBN.s 			page 1


   1              		.cpu cortex-m0plus
   2              		.arch armv6s-m
   3              		.fpu softvfp
   4              		.eabi_attribute 20, 1
   5              		.eabi_attribute 21, 1
   6              		.eabi_attribute 23, 3
   7              		.eabi_attribute 24, 1
   8              		.eabi_attribute 25, 1
   9              		.eabi_attribute 26, 1
  10              		.eabi_attribute 30, 1
  11              		.eabi_attribute 34, 0
  12              		.eabi_attribute 18, 4
  13              		.file	"nunchuk.c"
  14              		.text
  15              	.Ltext0:
  16              		.cfi_sections	.debug_frame
  17              		.file 1 "Middlewares/nunchuk/Src/nunchuk.c"
  18              		.section	.text.nunchuk_reg_write,"ax",%progbits
  19              		.align	1
  20              		.global	nunchuk_reg_write
  21              		.syntax unified
  22              		.code	16
  23              		.thumb_func
  25              	nunchuk_reg_write:
  26              	.LVL0:
  27              	.LFB358:
   1:Middlewares/nunchuk/Src/nunchuk.c **** #include "nunchuk.h"
   2:Middlewares/nunchuk/Src/nunchuk.c **** #include "nunchuk_devices.h"
   3:Middlewares/nunchuk/Src/nunchuk.c **** #include "main.h"
   4:Middlewares/nunchuk/Src/nunchuk.c **** #include "i2c.h"
   5:Middlewares/nunchuk/Src/nunchuk.c **** #include "string.h"
   6:Middlewares/nunchuk/Src/nunchuk.c **** #include "gpio.h"
   7:Middlewares/nunchuk/Src/nunchuk.c **** 
   8:Middlewares/nunchuk/Src/nunchuk.c **** // device ids
   9:Middlewares/nunchuk/Src/nunchuk.c **** static const uint8_t NUNCHUK_STANDARD_ID[6] = { 0x00, 0x00, 0xA4, 0x20, 0x00, 0x00 };
  10:Middlewares/nunchuk/Src/nunchuk.c **** static const uint8_t NUNCHUK_CLASSIC_ID[6] = { 0x01, 0x00, 0xA4, 0x20, 0x01, 0x01 };
  11:Middlewares/nunchuk/Src/nunchuk.c **** static const uint8_t NUNCHUK_GUITAR_HERO_ID[6] = { 0x00, 0x00, 0xA4, 0x20, 0x01, 0x03 };
  12:Middlewares/nunchuk/Src/nunchuk.c **** 
  13:Middlewares/nunchuk/Src/nunchuk.c **** HAL_StatusTypeDef nunchuk_reg_write(uint8_t addr, uint8_t data) {
  28              		.loc 1 13 65 view -0
  29              		.cfi_startproc
  30              		@ args = 0, pretend = 0, frame = 8
  31              		@ frame_needed = 0, uses_anonymous_args = 0
  32              		.loc 1 13 65 is_stmt 0 view .LVU1
  33 0000 00B5     		push	{lr}
  34              	.LCFI0:
  35              		.cfi_def_cfa_offset 4
  36              		.cfi_offset 14, -4
  37 0002 85B0     		sub	sp, sp, #20
  38              	.LCFI1:
  39              		.cfi_def_cfa_offset 24
  14:Middlewares/nunchuk/Src/nunchuk.c ****     uint8_t to_send[2] = { addr, data };
  40              		.loc 1 14 5 is_stmt 1 view .LVU2
  41              		.loc 1 14 13 is_stmt 0 view .LVU3
  42 0004 6B46     		mov	r3, sp
  43 0006 1873     		strb	r0, [r3, #12]
  44 0008 5973     		strb	r1, [r3, #13]
ARM GAS  /tmp/cc2bLLBN.s 			page 2


  15:Middlewares/nunchuk/Src/nunchuk.c **** 
  16:Middlewares/nunchuk/Src/nunchuk.c ****     // write register address and data to nunchuk
  17:Middlewares/nunchuk/Src/nunchuk.c ****     return HAL_I2C_Master_Transmit(&hi2c2, NUNCHUK_I2C_ADDR, to_send, sizeof(to_send), NUNCHUK_TX_T
  45              		.loc 1 17 5 is_stmt 1 view .LVU4
  46              		.loc 1 17 12 is_stmt 0 view .LVU5
  47 000a 0548     		ldr	r0, .L2
  48              	.LVL1:
  49              		.loc 1 17 12 view .LVU6
  50 000c FA23     		movs	r3, #250
  51              	.LVL2:
  52              		.loc 1 17 12 view .LVU7
  53 000e 9B00     		lsls	r3, r3, #2
  54 0010 0093     		str	r3, [sp]
  55 0012 0223     		movs	r3, #2
  56 0014 03AA     		add	r2, sp, #12
  57 0016 A421     		movs	r1, #164
  58              	.LVL3:
  59              		.loc 1 17 12 view .LVU8
  60 0018 FFF7FEFF 		bl	HAL_I2C_Master_Transmit
  61              	.LVL4:
  18:Middlewares/nunchuk/Src/nunchuk.c **** }
  62              		.loc 1 18 1 view .LVU9
  63 001c 05B0     		add	sp, sp, #20
  64              		@ sp needed
  65 001e 00BD     		pop	{pc}
  66              	.L3:
  67              		.align	2
  68              	.L2:
  69 0020 00000000 		.word	hi2c2
  70              		.cfi_endproc
  71              	.LFE358:
  73              		.section	.text.nunchuk_packet_read,"ax",%progbits
  74              		.align	1
  75              		.global	nunchuk_packet_read
  76              		.syntax unified
  77              		.code	16
  78              		.thumb_func
  80              	nunchuk_packet_read:
  81              	.LVL5:
  82              	.LFB359:
  19:Middlewares/nunchuk/Src/nunchuk.c **** 
  20:Middlewares/nunchuk/Src/nunchuk.c **** HAL_StatusTypeDef nunchuk_packet_read(uint8_t addr, nunchuk_packet_t* packet) {
  83              		.loc 1 20 79 is_stmt 1 view -0
  84              		.cfi_startproc
  85              		@ args = 0, pretend = 0, frame = 8
  86              		@ frame_needed = 0, uses_anonymous_args = 0
  87              		.loc 1 20 79 is_stmt 0 view .LVU11
  88 0000 10B5     		push	{r4, lr}
  89              	.LCFI2:
  90              		.cfi_def_cfa_offset 8
  91              		.cfi_offset 4, -8
  92              		.cfi_offset 14, -4
  93 0002 84B0     		sub	sp, sp, #16
  94              	.LCFI3:
  95              		.cfi_def_cfa_offset 24
  96 0004 0C00     		movs	r4, r1
  97 0006 0F22     		movs	r2, #15
ARM GAS  /tmp/cc2bLLBN.s 			page 3


  98 0008 6A44     		add	r2, r2, sp
  99 000a 1070     		strb	r0, [r2]
  21:Middlewares/nunchuk/Src/nunchuk.c ****     // write register address to nunchuk
  22:Middlewares/nunchuk/Src/nunchuk.c ****     HAL_StatusTypeDef ret = HAL_I2C_Master_Transmit(&hi2c2, NUNCHUK_I2C_ADDR, (uint8_t*) &addr, 1, 
 100              		.loc 1 22 5 is_stmt 1 view .LVU12
 101              		.loc 1 22 29 is_stmt 0 view .LVU13
 102 000c 0A48     		ldr	r0, .L7
 103              	.LVL6:
 104              		.loc 1 22 29 view .LVU14
 105 000e FA23     		movs	r3, #250
 106 0010 9B00     		lsls	r3, r3, #2
 107 0012 0093     		str	r3, [sp]
 108              	.LVL7:
 109              		.loc 1 22 29 view .LVU15
 110 0014 0123     		movs	r3, #1
 111 0016 A421     		movs	r1, #164
 112              	.LVL8:
 113              		.loc 1 22 29 view .LVU16
 114 0018 FFF7FEFF 		bl	HAL_I2C_Master_Transmit
 115              	.LVL9:
  23:Middlewares/nunchuk/Src/nunchuk.c ****     
  24:Middlewares/nunchuk/Src/nunchuk.c ****     if (ret != HAL_OK)
 116              		.loc 1 24 5 is_stmt 1 view .LVU17
 117              		.loc 1 24 8 is_stmt 0 view .LVU18
 118 001c 0028     		cmp	r0, #0
 119 001e 01D0     		beq	.L6
 120              	.LVL10:
 121              	.L5:
  25:Middlewares/nunchuk/Src/nunchuk.c ****         return ret;
  26:Middlewares/nunchuk/Src/nunchuk.c **** 
  27:Middlewares/nunchuk/Src/nunchuk.c ****     return HAL_I2C_Master_Receive(&hi2c2, NUNCHUK_I2C_ADDR, (uint8_t*) packet, NUNCHUK_PACKET_LEN, 
  28:Middlewares/nunchuk/Src/nunchuk.c **** }
 122              		.loc 1 28 1 view .LVU19
 123 0020 04B0     		add	sp, sp, #16
 124              		@ sp needed
 125              	.LVL11:
 126              		.loc 1 28 1 view .LVU20
 127 0022 10BD     		pop	{r4, pc}
 128              	.LVL12:
 129              	.L6:
  27:Middlewares/nunchuk/Src/nunchuk.c **** }
 130              		.loc 1 27 5 is_stmt 1 view .LVU21
  27:Middlewares/nunchuk/Src/nunchuk.c **** }
 131              		.loc 1 27 12 is_stmt 0 view .LVU22
 132 0024 0448     		ldr	r0, .L7
 133              	.LVL13:
  27:Middlewares/nunchuk/Src/nunchuk.c **** }
 134              		.loc 1 27 12 view .LVU23
 135 0026 FA23     		movs	r3, #250
 136 0028 9B00     		lsls	r3, r3, #2
 137 002a 0093     		str	r3, [sp]
 138 002c 0623     		movs	r3, #6
 139 002e 2200     		movs	r2, r4
 140 0030 A421     		movs	r1, #164
 141 0032 FFF7FEFF 		bl	HAL_I2C_Master_Receive
 142              	.LVL14:
 143 0036 F3E7     		b	.L5
ARM GAS  /tmp/cc2bLLBN.s 			page 4


 144              	.L8:
 145              		.align	2
 146              	.L7:
 147 0038 00000000 		.word	hi2c2
 148              		.cfi_endproc
 149              	.LFE359:
 151              		.section	.text.nunchuk_init,"ax",%progbits
 152              		.align	1
 153              		.global	nunchuk_init
 154              		.syntax unified
 155              		.code	16
 156              		.thumb_func
 158              	nunchuk_init:
 159              	.LVL15:
 160              	.LFB360:
  29:Middlewares/nunchuk/Src/nunchuk.c **** 
  30:Middlewares/nunchuk/Src/nunchuk.c **** HAL_StatusTypeDef nunchuk_init(nunchuk_device_type_t *type) {
 161              		.loc 1 30 61 is_stmt 1 view -0
 162              		.cfi_startproc
 163              		@ args = 0, pretend = 0, frame = 8
 164              		@ frame_needed = 0, uses_anonymous_args = 0
 165              		.loc 1 30 61 is_stmt 0 view .LVU25
 166 0000 30B5     		push	{r4, r5, lr}
 167              	.LCFI4:
 168              		.cfi_def_cfa_offset 12
 169              		.cfi_offset 4, -12
 170              		.cfi_offset 5, -8
 171              		.cfi_offset 14, -4
 172 0002 83B0     		sub	sp, sp, #12
 173              	.LCFI5:
 174              		.cfi_def_cfa_offset 24
 175 0004 0400     		movs	r4, r0
  31:Middlewares/nunchuk/Src/nunchuk.c ****     *type = UNKNOWN;
 176              		.loc 1 31 5 is_stmt 1 view .LVU26
 177              		.loc 1 31 11 is_stmt 0 view .LVU27
 178 0006 0023     		movs	r3, #0
 179 0008 0370     		strb	r3, [r0]
  32:Middlewares/nunchuk/Src/nunchuk.c **** 
  33:Middlewares/nunchuk/Src/nunchuk.c ****     // de-encrypt device
  34:Middlewares/nunchuk/Src/nunchuk.c ****     if (nunchuk_reg_write(0xF0, 0x55) != HAL_OK)
 180              		.loc 1 34 5 is_stmt 1 view .LVU28
 181              		.loc 1 34 9 is_stmt 0 view .LVU29
 182 000a 5521     		movs	r1, #85
 183 000c F020     		movs	r0, #240
 184              	.LVL16:
 185              		.loc 1 34 9 view .LVU30
 186 000e FFF7FEFF 		bl	nunchuk_reg_write
 187              	.LVL17:
 188              		.loc 1 34 8 view .LVU31
 189 0012 0028     		cmp	r0, #0
 190 0014 03D0     		beq	.L16
  35:Middlewares/nunchuk/Src/nunchuk.c ****         return HAL_ERROR;
 191              		.loc 1 35 16 view .LVU32
 192 0016 0125     		movs	r5, #1
 193              	.L10:
  36:Middlewares/nunchuk/Src/nunchuk.c **** 
  37:Middlewares/nunchuk/Src/nunchuk.c ****     if (nunchuk_reg_write(0xFB, 0x00) != HAL_OK)
ARM GAS  /tmp/cc2bLLBN.s 			page 5


  38:Middlewares/nunchuk/Src/nunchuk.c ****         return HAL_ERROR;
  39:Middlewares/nunchuk/Src/nunchuk.c **** 
  40:Middlewares/nunchuk/Src/nunchuk.c ****     nunchuk_packet_t packet;
  41:Middlewares/nunchuk/Src/nunchuk.c ****     // read id packet
  42:Middlewares/nunchuk/Src/nunchuk.c ****     if (nunchuk_packet_read(0xFA, &packet) != HAL_OK)
  43:Middlewares/nunchuk/Src/nunchuk.c ****         return HAL_ERROR;
  44:Middlewares/nunchuk/Src/nunchuk.c **** 
  45:Middlewares/nunchuk/Src/nunchuk.c ****     // compare raw packet with ID constants to check the ID, return the ID if it matches
  46:Middlewares/nunchuk/Src/nunchuk.c ****     if (memcmp(packet.raw, NUNCHUK_STANDARD_ID, NUNCHUK_PACKET_LEN) == 0) {
  47:Middlewares/nunchuk/Src/nunchuk.c ****         *type = STANDARD;
  48:Middlewares/nunchuk/Src/nunchuk.c ****     }
  49:Middlewares/nunchuk/Src/nunchuk.c ****     if (memcmp(packet.raw, NUNCHUK_CLASSIC_ID, NUNCHUK_PACKET_LEN) == 0) {
  50:Middlewares/nunchuk/Src/nunchuk.c ****         *type = CLASSIC;
  51:Middlewares/nunchuk/Src/nunchuk.c ****     }
  52:Middlewares/nunchuk/Src/nunchuk.c ****     if (memcmp(packet.raw, NUNCHUK_GUITAR_HERO_ID, NUNCHUK_PACKET_LEN) == 0) {
  53:Middlewares/nunchuk/Src/nunchuk.c ****         *type = GUITAR_HERO;
  54:Middlewares/nunchuk/Src/nunchuk.c ****     }
  55:Middlewares/nunchuk/Src/nunchuk.c ****     return HAL_OK; // even if the type is unknown, it still initialized successfully
  56:Middlewares/nunchuk/Src/nunchuk.c **** }
 194              		.loc 1 56 1 view .LVU33
 195 0018 2800     		movs	r0, r5
 196 001a 03B0     		add	sp, sp, #12
 197              		@ sp needed
 198              	.LVL18:
 199              		.loc 1 56 1 view .LVU34
 200 001c 30BD     		pop	{r4, r5, pc}
 201              	.LVL19:
 202              	.L16:
  37:Middlewares/nunchuk/Src/nunchuk.c ****         return HAL_ERROR;
 203              		.loc 1 37 5 is_stmt 1 view .LVU35
  37:Middlewares/nunchuk/Src/nunchuk.c ****         return HAL_ERROR;
 204              		.loc 1 37 9 is_stmt 0 view .LVU36
 205 001e 0021     		movs	r1, #0
 206 0020 FB30     		adds	r0, r0, #251
 207 0022 FFF7FEFF 		bl	nunchuk_reg_write
 208              	.LVL20:
  37:Middlewares/nunchuk/Src/nunchuk.c ****         return HAL_ERROR;
 209              		.loc 1 37 8 view .LVU37
 210 0026 0028     		cmp	r0, #0
 211 0028 01D0     		beq	.L17
  38:Middlewares/nunchuk/Src/nunchuk.c **** 
 212              		.loc 1 38 16 view .LVU38
 213 002a 0125     		movs	r5, #1
 214 002c F4E7     		b	.L10
 215              	.L17:
  40:Middlewares/nunchuk/Src/nunchuk.c ****     // read id packet
 216              		.loc 1 40 5 is_stmt 1 view .LVU39
  42:Middlewares/nunchuk/Src/nunchuk.c ****         return HAL_ERROR;
 217              		.loc 1 42 5 view .LVU40
  42:Middlewares/nunchuk/Src/nunchuk.c ****         return HAL_ERROR;
 218              		.loc 1 42 9 is_stmt 0 view .LVU41
 219 002e 6946     		mov	r1, sp
 220 0030 FA30     		adds	r0, r0, #250
 221 0032 FFF7FEFF 		bl	nunchuk_packet_read
 222              	.LVL21:
 223 0036 051E     		subs	r5, r0, #0
  42:Middlewares/nunchuk/Src/nunchuk.c ****         return HAL_ERROR;
ARM GAS  /tmp/cc2bLLBN.s 			page 6


 224              		.loc 1 42 8 view .LVU42
 225 0038 1BD1     		bne	.L15
  46:Middlewares/nunchuk/Src/nunchuk.c ****         *type = STANDARD;
 226              		.loc 1 46 5 is_stmt 1 view .LVU43
  46:Middlewares/nunchuk/Src/nunchuk.c ****         *type = STANDARD;
 227              		.loc 1 46 9 is_stmt 0 view .LVU44
 228 003a 0F49     		ldr	r1, .L18
 229 003c 0622     		movs	r2, #6
 230 003e 6846     		mov	r0, sp
 231 0040 FFF7FEFF 		bl	memcmp
 232              	.LVL22:
  46:Middlewares/nunchuk/Src/nunchuk.c ****         *type = STANDARD;
 233              		.loc 1 46 8 view .LVU45
 234 0044 0028     		cmp	r0, #0
 235 0046 01D1     		bne	.L11
  47:Middlewares/nunchuk/Src/nunchuk.c ****     }
 236              		.loc 1 47 9 is_stmt 1 view .LVU46
  47:Middlewares/nunchuk/Src/nunchuk.c ****     }
 237              		.loc 1 47 15 is_stmt 0 view .LVU47
 238 0048 0123     		movs	r3, #1
 239 004a 2370     		strb	r3, [r4]
 240              	.L11:
  49:Middlewares/nunchuk/Src/nunchuk.c ****         *type = CLASSIC;
 241              		.loc 1 49 5 is_stmt 1 view .LVU48
  49:Middlewares/nunchuk/Src/nunchuk.c ****         *type = CLASSIC;
 242              		.loc 1 49 9 is_stmt 0 view .LVU49
 243 004c 0B49     		ldr	r1, .L18+4
 244 004e 0622     		movs	r2, #6
 245 0050 6846     		mov	r0, sp
 246 0052 FFF7FEFF 		bl	memcmp
 247              	.LVL23:
  49:Middlewares/nunchuk/Src/nunchuk.c ****         *type = CLASSIC;
 248              		.loc 1 49 8 view .LVU50
 249 0056 0028     		cmp	r0, #0
 250 0058 01D1     		bne	.L12
  50:Middlewares/nunchuk/Src/nunchuk.c ****     }
 251              		.loc 1 50 9 is_stmt 1 view .LVU51
  50:Middlewares/nunchuk/Src/nunchuk.c ****     }
 252              		.loc 1 50 15 is_stmt 0 view .LVU52
 253 005a 0323     		movs	r3, #3
 254 005c 2370     		strb	r3, [r4]
 255              	.L12:
  52:Middlewares/nunchuk/Src/nunchuk.c ****         *type = GUITAR_HERO;
 256              		.loc 1 52 5 is_stmt 1 view .LVU53
  52:Middlewares/nunchuk/Src/nunchuk.c ****         *type = GUITAR_HERO;
 257              		.loc 1 52 9 is_stmt 0 view .LVU54
 258 005e 0849     		ldr	r1, .L18+8
 259 0060 0622     		movs	r2, #6
 260 0062 6846     		mov	r0, sp
 261 0064 FFF7FEFF 		bl	memcmp
 262              	.LVL24:
  52:Middlewares/nunchuk/Src/nunchuk.c ****         *type = GUITAR_HERO;
 263              		.loc 1 52 8 view .LVU55
 264 0068 0028     		cmp	r0, #0
 265 006a D5D1     		bne	.L10
  53:Middlewares/nunchuk/Src/nunchuk.c ****     }
 266              		.loc 1 53 9 is_stmt 1 view .LVU56
ARM GAS  /tmp/cc2bLLBN.s 			page 7


  53:Middlewares/nunchuk/Src/nunchuk.c ****     }
 267              		.loc 1 53 15 is_stmt 0 view .LVU57
 268 006c 0223     		movs	r3, #2
 269 006e 2370     		strb	r3, [r4]
 270 0070 D2E7     		b	.L10
 271              	.L15:
  43:Middlewares/nunchuk/Src/nunchuk.c **** 
 272              		.loc 1 43 16 view .LVU58
 273 0072 0125     		movs	r5, #1
 274 0074 D0E7     		b	.L10
 275              	.L19:
 276 0076 C046     		.align	2
 277              	.L18:
 278 0078 00000000 		.word	NUNCHUK_STANDARD_ID
 279 007c 00000000 		.word	NUNCHUK_CLASSIC_ID
 280 0080 00000000 		.word	NUNCHUK_GUITAR_HERO_ID
 281              		.cfi_endproc
 282              	.LFE360:
 284              		.section	.text.nunchuk_fill_standard,"ax",%progbits
 285              		.align	1
 286              		.global	nunchuk_fill_standard
 287              		.syntax unified
 288              		.code	16
 289              		.thumb_func
 291              	nunchuk_fill_standard:
 292              	.LVL25:
 293              	.LFB364:
  57:Middlewares/nunchuk/Src/nunchuk.c **** 
  58:Middlewares/nunchuk/Src/nunchuk.c **** HAL_StatusTypeDef nunchuk_read_standard(nunchuk_standard_t* std) {
  59:Middlewares/nunchuk/Src/nunchuk.c ****     nunchuk_packet_t packet;
  60:Middlewares/nunchuk/Src/nunchuk.c ****     HAL_StatusTypeDef ret = nunchuk_packet_read(NUNCHUK_REPORT_ADDR, &packet);
  61:Middlewares/nunchuk/Src/nunchuk.c **** 
  62:Middlewares/nunchuk/Src/nunchuk.c ****     if (ret != HAL_OK)
  63:Middlewares/nunchuk/Src/nunchuk.c ****         return ret;
  64:Middlewares/nunchuk/Src/nunchuk.c ****     
  65:Middlewares/nunchuk/Src/nunchuk.c ****     nunchuk_fill_standard(&packet, std);
  66:Middlewares/nunchuk/Src/nunchuk.c ****     return HAL_OK;
  67:Middlewares/nunchuk/Src/nunchuk.c **** }
  68:Middlewares/nunchuk/Src/nunchuk.c **** 
  69:Middlewares/nunchuk/Src/nunchuk.c **** HAL_StatusTypeDef nunchuk_read_classic(nunchuk_classic_t* cc) {
  70:Middlewares/nunchuk/Src/nunchuk.c ****     nunchuk_packet_t packet;
  71:Middlewares/nunchuk/Src/nunchuk.c ****     HAL_StatusTypeDef ret = nunchuk_packet_read(NUNCHUK_REPORT_ADDR, &packet);
  72:Middlewares/nunchuk/Src/nunchuk.c **** 
  73:Middlewares/nunchuk/Src/nunchuk.c ****     if (ret != HAL_OK)
  74:Middlewares/nunchuk/Src/nunchuk.c ****         return ret;
  75:Middlewares/nunchuk/Src/nunchuk.c ****     
  76:Middlewares/nunchuk/Src/nunchuk.c ****     nunchuk_fill_classic(&packet, cc);
  77:Middlewares/nunchuk/Src/nunchuk.c ****     return HAL_OK;
  78:Middlewares/nunchuk/Src/nunchuk.c **** }
  79:Middlewares/nunchuk/Src/nunchuk.c **** 
  80:Middlewares/nunchuk/Src/nunchuk.c **** HAL_StatusTypeDef nunchuk_read_guitar_hero(nunchuk_guitar_hero_t* gh) {
  81:Middlewares/nunchuk/Src/nunchuk.c ****     nunchuk_packet_t packet;
  82:Middlewares/nunchuk/Src/nunchuk.c ****     HAL_StatusTypeDef ret = nunchuk_packet_read(NUNCHUK_REPORT_ADDR, &packet);
  83:Middlewares/nunchuk/Src/nunchuk.c **** 
  84:Middlewares/nunchuk/Src/nunchuk.c ****     if (ret != HAL_OK)
  85:Middlewares/nunchuk/Src/nunchuk.c ****         return ret;
  86:Middlewares/nunchuk/Src/nunchuk.c ****     
ARM GAS  /tmp/cc2bLLBN.s 			page 8


  87:Middlewares/nunchuk/Src/nunchuk.c ****     nunchuk_fill_guitar_hero(&packet, gh);
  88:Middlewares/nunchuk/Src/nunchuk.c ****     return HAL_OK;
  89:Middlewares/nunchuk/Src/nunchuk.c **** }
  90:Middlewares/nunchuk/Src/nunchuk.c **** 
  91:Middlewares/nunchuk/Src/nunchuk.c **** void nunchuk_fill_standard(nunchuk_packet_t* packet, nunchuk_standard_t* std) {
 294              		.loc 1 91 79 is_stmt 1 view -0
 295              		.cfi_startproc
 296              		@ args = 0, pretend = 0, frame = 0
 297              		@ frame_needed = 0, uses_anonymous_args = 0
 298              		@ link register save eliminated.
  92:Middlewares/nunchuk/Src/nunchuk.c ****     std->ax = (packet->standard_controller.ax_9_2 << 2) |
 299              		.loc 1 92 5 view .LVU60
 300              		.loc 1 92 43 is_stmt 0 view .LVU61
 301 0000 8278     		ldrb	r2, [r0, #2]
 302              		.loc 1 92 51 view .LVU62
 303 0002 9200     		lsls	r2, r2, #2
  93:Middlewares/nunchuk/Src/nunchuk.c ****               (packet->standard_controller.ax_1_0);
 304              		.loc 1 93 43 view .LVU63
 305 0004 8379     		ldrb	r3, [r0, #6]
 306 0006 9B07     		lsls	r3, r3, #30
 307 0008 9B0F     		lsrs	r3, r3, #30
  92:Middlewares/nunchuk/Src/nunchuk.c ****     std->ax = (packet->standard_controller.ax_9_2 << 2) |
 308              		.loc 1 92 57 view .LVU64
 309 000a 1343     		orrs	r3, r2
  92:Middlewares/nunchuk/Src/nunchuk.c ****     std->ax = (packet->standard_controller.ax_9_2 << 2) |
 310              		.loc 1 92 13 view .LVU65
 311 000c 4B80     		strh	r3, [r1, #2]
  94:Middlewares/nunchuk/Src/nunchuk.c ****     std->ay = (packet->standard_controller.ay_9_2 << 2) |
 312              		.loc 1 94 5 is_stmt 1 view .LVU66
 313              		.loc 1 94 43 is_stmt 0 view .LVU67
 314 000e C278     		ldrb	r2, [r0, #3]
 315              		.loc 1 94 51 view .LVU68
 316 0010 9200     		lsls	r2, r2, #2
  95:Middlewares/nunchuk/Src/nunchuk.c ****               (packet->standard_controller.ay_1_0);
 317              		.loc 1 95 43 view .LVU69
 318 0012 8379     		ldrb	r3, [r0, #6]
 319 0014 1B07     		lsls	r3, r3, #28
 320 0016 9B0F     		lsrs	r3, r3, #30
  94:Middlewares/nunchuk/Src/nunchuk.c ****     std->ay = (packet->standard_controller.ay_9_2 << 2) |
 321              		.loc 1 94 57 view .LVU70
 322 0018 1343     		orrs	r3, r2
  94:Middlewares/nunchuk/Src/nunchuk.c ****     std->ay = (packet->standard_controller.ay_9_2 << 2) |
 323              		.loc 1 94 13 view .LVU71
 324 001a 8B80     		strh	r3, [r1, #4]
  96:Middlewares/nunchuk/Src/nunchuk.c ****     std->az = (packet->standard_controller.az_9_2 << 2) |
 325              		.loc 1 96 5 is_stmt 1 view .LVU72
 326              		.loc 1 96 43 is_stmt 0 view .LVU73
 327 001c 0279     		ldrb	r2, [r0, #4]
 328              		.loc 1 96 51 view .LVU74
 329 001e 9200     		lsls	r2, r2, #2
  97:Middlewares/nunchuk/Src/nunchuk.c ****               (packet->standard_controller.az_1_0);
 330              		.loc 1 97 43 view .LVU75
 331 0020 8379     		ldrb	r3, [r0, #6]
 332 0022 9B06     		lsls	r3, r3, #26
 333 0024 9B0F     		lsrs	r3, r3, #30
  96:Middlewares/nunchuk/Src/nunchuk.c ****     std->az = (packet->standard_controller.az_9_2 << 2) |
 334              		.loc 1 96 57 view .LVU76
ARM GAS  /tmp/cc2bLLBN.s 			page 9


 335 0026 1343     		orrs	r3, r2
  96:Middlewares/nunchuk/Src/nunchuk.c ****     std->az = (packet->standard_controller.az_9_2 << 2) |
 336              		.loc 1 96 13 view .LVU77
 337 0028 CB80     		strh	r3, [r1, #6]
  98:Middlewares/nunchuk/Src/nunchuk.c ****     
  99:Middlewares/nunchuk/Src/nunchuk.c ****     std->sx = packet->standard_controller.sx;
 338              		.loc 1 99 5 is_stmt 1 view .LVU78
 339              		.loc 1 99 42 is_stmt 0 view .LVU79
 340 002a 0023     		movs	r3, #0
 341 002c C356     		ldrsb	r3, [r0, r3]
 342              		.loc 1 99 13 view .LVU80
 343 002e 0B70     		strb	r3, [r1]
 100:Middlewares/nunchuk/Src/nunchuk.c ****     std->sy = packet->standard_controller.sy;
 344              		.loc 1 100 5 is_stmt 1 view .LVU81
 345              		.loc 1 100 42 is_stmt 0 view .LVU82
 346 0030 0123     		movs	r3, #1
 347 0032 C356     		ldrsb	r3, [r0, r3]
 348              		.loc 1 100 13 view .LVU83
 349 0034 4B70     		strb	r3, [r1, #1]
 101:Middlewares/nunchuk/Src/nunchuk.c **** 
 102:Middlewares/nunchuk/Src/nunchuk.c ****     std->buttons.c = packet->standard_controller.buttons.c;
 350              		.loc 1 102 5 is_stmt 1 view .LVU84
 351              		.loc 1 102 57 is_stmt 0 view .LVU85
 352 0036 4379     		ldrb	r3, [r0, #5]
 353 0038 9B07     		lsls	r3, r3, #30
 354 003a DB0F     		lsrs	r3, r3, #31
 355              		.loc 1 102 20 view .LVU86
 356 003c 4B72     		strb	r3, [r1, #9]
 103:Middlewares/nunchuk/Src/nunchuk.c ****     std->buttons.z = packet->standard_controller.buttons.z;
 357              		.loc 1 103 5 is_stmt 1 view .LVU87
 358              		.loc 1 103 57 is_stmt 0 view .LVU88
 359 003e 4379     		ldrb	r3, [r0, #5]
 360 0040 DB07     		lsls	r3, r3, #31
 361 0042 DB0F     		lsrs	r3, r3, #31
 362              		.loc 1 103 20 view .LVU89
 363 0044 0B72     		strb	r3, [r1, #8]
 104:Middlewares/nunchuk/Src/nunchuk.c **** }
 364              		.loc 1 104 1 view .LVU90
 365              		@ sp needed
 366 0046 7047     		bx	lr
 367              		.cfi_endproc
 368              	.LFE364:
 370              		.section	.text.nunchuk_read_standard,"ax",%progbits
 371              		.align	1
 372              		.global	nunchuk_read_standard
 373              		.syntax unified
 374              		.code	16
 375              		.thumb_func
 377              	nunchuk_read_standard:
 378              	.LVL26:
 379              	.LFB361:
  58:Middlewares/nunchuk/Src/nunchuk.c ****     nunchuk_packet_t packet;
 380              		.loc 1 58 66 is_stmt 1 view -0
 381              		.cfi_startproc
 382              		@ args = 0, pretend = 0, frame = 8
 383              		@ frame_needed = 0, uses_anonymous_args = 0
  58:Middlewares/nunchuk/Src/nunchuk.c ****     nunchuk_packet_t packet;
ARM GAS  /tmp/cc2bLLBN.s 			page 10


 384              		.loc 1 58 66 is_stmt 0 view .LVU92
 385 0000 30B5     		push	{r4, r5, lr}
 386              	.LCFI6:
 387              		.cfi_def_cfa_offset 12
 388              		.cfi_offset 4, -12
 389              		.cfi_offset 5, -8
 390              		.cfi_offset 14, -4
 391 0002 83B0     		sub	sp, sp, #12
 392              	.LCFI7:
 393              		.cfi_def_cfa_offset 24
 394 0004 0500     		movs	r5, r0
  59:Middlewares/nunchuk/Src/nunchuk.c ****     HAL_StatusTypeDef ret = nunchuk_packet_read(NUNCHUK_REPORT_ADDR, &packet);
 395              		.loc 1 59 5 is_stmt 1 view .LVU93
  60:Middlewares/nunchuk/Src/nunchuk.c **** 
 396              		.loc 1 60 5 view .LVU94
  60:Middlewares/nunchuk/Src/nunchuk.c **** 
 397              		.loc 1 60 29 is_stmt 0 view .LVU95
 398 0006 6946     		mov	r1, sp
 399 0008 0020     		movs	r0, #0
 400              	.LVL27:
  60:Middlewares/nunchuk/Src/nunchuk.c **** 
 401              		.loc 1 60 29 view .LVU96
 402 000a FFF7FEFF 		bl	nunchuk_packet_read
 403              	.LVL28:
 404 000e 041E     		subs	r4, r0, #0
 405              	.LVL29:
  62:Middlewares/nunchuk/Src/nunchuk.c ****         return ret;
 406              		.loc 1 62 5 is_stmt 1 view .LVU97
  62:Middlewares/nunchuk/Src/nunchuk.c ****         return ret;
 407              		.loc 1 62 8 is_stmt 0 view .LVU98
 408 0010 02D0     		beq	.L23
 409              	.LVL30:
 410              	.L22:
  67:Middlewares/nunchuk/Src/nunchuk.c **** 
 411              		.loc 1 67 1 view .LVU99
 412 0012 2000     		movs	r0, r4
 413 0014 03B0     		add	sp, sp, #12
 414              		@ sp needed
 415              	.LVL31:
  67:Middlewares/nunchuk/Src/nunchuk.c **** 
 416              		.loc 1 67 1 view .LVU100
 417 0016 30BD     		pop	{r4, r5, pc}
 418              	.LVL32:
 419              	.L23:
  65:Middlewares/nunchuk/Src/nunchuk.c ****     return HAL_OK;
 420              		.loc 1 65 5 is_stmt 1 view .LVU101
 421 0018 2900     		movs	r1, r5
 422 001a 6846     		mov	r0, sp
 423              	.LVL33:
  65:Middlewares/nunchuk/Src/nunchuk.c ****     return HAL_OK;
 424              		.loc 1 65 5 is_stmt 0 view .LVU102
 425 001c FFF7FEFF 		bl	nunchuk_fill_standard
 426              	.LVL34:
  66:Middlewares/nunchuk/Src/nunchuk.c **** }
 427              		.loc 1 66 5 is_stmt 1 view .LVU103
  66:Middlewares/nunchuk/Src/nunchuk.c **** }
 428              		.loc 1 66 12 is_stmt 0 view .LVU104
ARM GAS  /tmp/cc2bLLBN.s 			page 11


 429 0020 F7E7     		b	.L22
 430              		.cfi_endproc
 431              	.LFE361:
 433              		.section	.text.nunchuk_fill_guitar_hero,"ax",%progbits
 434              		.align	1
 435              		.global	nunchuk_fill_guitar_hero
 436              		.syntax unified
 437              		.code	16
 438              		.thumb_func
 440              	nunchuk_fill_guitar_hero:
 441              	.LVL35:
 442              	.LFB365:
 105:Middlewares/nunchuk/Src/nunchuk.c **** 
 106:Middlewares/nunchuk/Src/nunchuk.c **** void nunchuk_fill_guitar_hero(nunchuk_packet_t* packet, nunchuk_guitar_hero_t* gh) {
 443              		.loc 1 106 84 is_stmt 1 view -0
 444              		.cfi_startproc
 445              		@ args = 0, pretend = 0, frame = 0
 446              		@ frame_needed = 0, uses_anonymous_args = 0
 447              		@ link register save eliminated.
 107:Middlewares/nunchuk/Src/nunchuk.c ****     // if both gh3 fields are all zeros, set gh3 to 1
 108:Middlewares/nunchuk/Src/nunchuk.c ****     gh->gh3 = packet->gh_controller.gh3_0 == 0b11 && packet->gh_controller.gh3_1 == 0b11;
 448              		.loc 1 108 5 view .LVU106
 449              		.loc 1 108 43 is_stmt 0 view .LVU107
 450 0000 0378     		ldrb	r3, [r0]
 451 0002 3F22     		movs	r2, #63
 452 0004 9343     		bics	r3, r2
 453              		.loc 1 108 51 view .LVU108
 454 0006 C02B     		cmp	r3, #192
 455 0008 35D0     		beq	.L28
 456 000a 0023     		movs	r3, #0
 457              	.L25:
 458              		.loc 1 108 13 discriminator 6 view .LVU109
 459 000c 8B70     		strb	r3, [r1, #2]
 109:Middlewares/nunchuk/Src/nunchuk.c **** 
 110:Middlewares/nunchuk/Src/nunchuk.c ****     gh->sx = packet->gh_controller.sx;
 460              		.loc 1 110 5 is_stmt 1 discriminator 6 view .LVU110
 461              		.loc 1 110 35 is_stmt 0 discriminator 6 view .LVU111
 462 000e 0378     		ldrb	r3, [r0]
 463 0010 9B06     		lsls	r3, r3, #26
 464 0012 9B0E     		lsrs	r3, r3, #26
 465              		.loc 1 110 12 discriminator 6 view .LVU112
 466 0014 0B70     		strb	r3, [r1]
 111:Middlewares/nunchuk/Src/nunchuk.c ****     gh->sy = packet->gh_controller.sy;
 467              		.loc 1 111 5 is_stmt 1 discriminator 6 view .LVU113
 468              		.loc 1 111 35 is_stmt 0 discriminator 6 view .LVU114
 469 0016 4378     		ldrb	r3, [r0, #1]
 470 0018 9B06     		lsls	r3, r3, #26
 471 001a 9B0E     		lsrs	r3, r3, #26
 472              		.loc 1 111 12 discriminator 6 view .LVU115
 473 001c 4B70     		strb	r3, [r1, #1]
 112:Middlewares/nunchuk/Src/nunchuk.c **** 
 113:Middlewares/nunchuk/Src/nunchuk.c ****     gh->tb = packet->gh_controller.tb;
 474              		.loc 1 113 5 is_stmt 1 discriminator 6 view .LVU116
 475              		.loc 1 113 35 is_stmt 0 discriminator 6 view .LVU117
 476 001e 8378     		ldrb	r3, [r0, #2]
 477 0020 DB06     		lsls	r3, r3, #27
 478 0022 DB0E     		lsrs	r3, r3, #27
ARM GAS  /tmp/cc2bLLBN.s 			page 12


 479              		.loc 1 113 12 discriminator 6 view .LVU118
 480 0024 CB70     		strb	r3, [r1, #3]
 114:Middlewares/nunchuk/Src/nunchuk.c ****     gh->wb = packet->gh_controller.wb;
 481              		.loc 1 114 5 is_stmt 1 discriminator 6 view .LVU119
 482              		.loc 1 114 35 is_stmt 0 discriminator 6 view .LVU120
 483 0026 C378     		ldrb	r3, [r0, #3]
 484 0028 DB06     		lsls	r3, r3, #27
 485 002a DB0E     		lsrs	r3, r3, #27
 486              		.loc 1 114 12 discriminator 6 view .LVU121
 487 002c 0B71     		strb	r3, [r1, #4]
 115:Middlewares/nunchuk/Src/nunchuk.c **** 
 116:Middlewares/nunchuk/Src/nunchuk.c ****     gh->buttons.plus = packet->gh_controller.buttons.plus;
 488              		.loc 1 116 5 is_stmt 1 discriminator 6 view .LVU122
 489              		.loc 1 116 53 is_stmt 0 discriminator 6 view .LVU123
 490 002e 0379     		ldrb	r3, [r0, #4]
 491 0030 5B07     		lsls	r3, r3, #29
 492 0032 DB0F     		lsrs	r3, r3, #31
 493              		.loc 1 116 22 discriminator 6 view .LVU124
 494 0034 4B71     		strb	r3, [r1, #5]
 117:Middlewares/nunchuk/Src/nunchuk.c ****     gh->buttons.minus = packet->gh_controller.buttons.minus;
 495              		.loc 1 117 5 is_stmt 1 discriminator 6 view .LVU125
 496              		.loc 1 117 54 is_stmt 0 discriminator 6 view .LVU126
 497 0036 0379     		ldrb	r3, [r0, #4]
 498 0038 DB06     		lsls	r3, r3, #27
 499 003a DB0F     		lsrs	r3, r3, #31
 500              		.loc 1 117 23 discriminator 6 view .LVU127
 501 003c 8B71     		strb	r3, [r1, #6]
 118:Middlewares/nunchuk/Src/nunchuk.c ****     gh->buttons.strum_up = packet->gh_controller.buttons.u;
 502              		.loc 1 118 5 is_stmt 1 discriminator 6 view .LVU128
 503              		.loc 1 118 57 is_stmt 0 discriminator 6 view .LVU129
 504 003e 4379     		ldrb	r3, [r0, #5]
 505 0040 DB07     		lsls	r3, r3, #31
 506 0042 DB0F     		lsrs	r3, r3, #31
 507              		.loc 1 118 26 discriminator 6 view .LVU130
 508 0044 0B72     		strb	r3, [r1, #8]
 119:Middlewares/nunchuk/Src/nunchuk.c ****     gh->buttons.strum_down = packet->gh_controller.buttons.d;
 509              		.loc 1 119 5 is_stmt 1 discriminator 6 view .LVU131
 510              		.loc 1 119 59 is_stmt 0 discriminator 6 view .LVU132
 511 0046 0379     		ldrb	r3, [r0, #4]
 512 0048 5B06     		lsls	r3, r3, #25
 513 004a DB0F     		lsrs	r3, r3, #31
 514              		.loc 1 119 28 discriminator 6 view .LVU133
 515 004c CB71     		strb	r3, [r1, #7]
 120:Middlewares/nunchuk/Src/nunchuk.c ****     gh->buttons.green = packet->gh_controller.buttons.g;
 516              		.loc 1 120 5 is_stmt 1 discriminator 6 view .LVU134
 517              		.loc 1 120 54 is_stmt 0 discriminator 6 view .LVU135
 518 004e 4379     		ldrb	r3, [r0, #5]
 519 0050 DB06     		lsls	r3, r3, #27
 520 0052 DB0F     		lsrs	r3, r3, #31
 521              		.loc 1 120 23 discriminator 6 view .LVU136
 522 0054 4B72     		strb	r3, [r1, #9]
 121:Middlewares/nunchuk/Src/nunchuk.c ****     gh->buttons.red = packet->gh_controller.buttons.r;
 523              		.loc 1 121 5 is_stmt 1 discriminator 6 view .LVU137
 524              		.loc 1 121 52 is_stmt 0 discriminator 6 view .LVU138
 525 0056 4379     		ldrb	r3, [r0, #5]
 526 0058 5B06     		lsls	r3, r3, #25
 527 005a DB0F     		lsrs	r3, r3, #31
ARM GAS  /tmp/cc2bLLBN.s 			page 13


 528              		.loc 1 121 21 discriminator 6 view .LVU139
 529 005c 8B72     		strb	r3, [r1, #10]
 122:Middlewares/nunchuk/Src/nunchuk.c ****     gh->buttons.yellow = packet->gh_controller.buttons.y;
 530              		.loc 1 122 5 is_stmt 1 discriminator 6 view .LVU140
 531              		.loc 1 122 55 is_stmt 0 discriminator 6 view .LVU141
 532 005e 4379     		ldrb	r3, [r0, #5]
 533 0060 1B07     		lsls	r3, r3, #28
 534 0062 DB0F     		lsrs	r3, r3, #31
 535              		.loc 1 122 24 discriminator 6 view .LVU142
 536 0064 CB72     		strb	r3, [r1, #11]
 123:Middlewares/nunchuk/Src/nunchuk.c ****     gh->buttons.blue = packet->gh_controller.buttons.b;
 537              		.loc 1 123 5 is_stmt 1 discriminator 6 view .LVU143
 538              		.loc 1 123 53 is_stmt 0 discriminator 6 view .LVU144
 539 0066 4379     		ldrb	r3, [r0, #5]
 540 0068 9B06     		lsls	r3, r3, #26
 541 006a DB0F     		lsrs	r3, r3, #31
 542              		.loc 1 123 22 discriminator 6 view .LVU145
 543 006c 0B73     		strb	r3, [r1, #12]
 124:Middlewares/nunchuk/Src/nunchuk.c ****     gh->buttons.orange = packet->gh_controller.buttons.o;
 544              		.loc 1 124 5 is_stmt 1 discriminator 6 view .LVU146
 545              		.loc 1 124 55 is_stmt 0 discriminator 6 view .LVU147
 546 006e 4379     		ldrb	r3, [r0, #5]
 547 0070 DB09     		lsrs	r3, r3, #7
 548              		.loc 1 124 24 discriminator 6 view .LVU148
 549 0072 4B73     		strb	r3, [r1, #13]
 125:Middlewares/nunchuk/Src/nunchuk.c **** }
 550              		.loc 1 125 1 discriminator 6 view .LVU149
 551              		@ sp needed
 552 0074 7047     		bx	lr
 553              	.L28:
 108:Middlewares/nunchuk/Src/nunchuk.c **** 
 554              		.loc 1 108 82 discriminator 1 view .LVU150
 555 0076 4378     		ldrb	r3, [r0, #1]
 556 0078 9343     		bics	r3, r2
 108:Middlewares/nunchuk/Src/nunchuk.c **** 
 557              		.loc 1 108 51 discriminator 1 view .LVU151
 558 007a C02B     		cmp	r3, #192
 559 007c 01D0     		beq	.L27
 108:Middlewares/nunchuk/Src/nunchuk.c **** 
 560              		.loc 1 108 51 view .LVU152
 561 007e 0023     		movs	r3, #0
 562 0080 C4E7     		b	.L25
 563              	.L27:
 564 0082 0123     		movs	r3, #1
 565 0084 C2E7     		b	.L25
 566              		.cfi_endproc
 567              	.LFE365:
 569              		.section	.text.nunchuk_read_guitar_hero,"ax",%progbits
 570              		.align	1
 571              		.global	nunchuk_read_guitar_hero
 572              		.syntax unified
 573              		.code	16
 574              		.thumb_func
 576              	nunchuk_read_guitar_hero:
 577              	.LVL36:
 578              	.LFB363:
  80:Middlewares/nunchuk/Src/nunchuk.c ****     nunchuk_packet_t packet;
ARM GAS  /tmp/cc2bLLBN.s 			page 14


 579              		.loc 1 80 71 is_stmt 1 view -0
 580              		.cfi_startproc
 581              		@ args = 0, pretend = 0, frame = 8
 582              		@ frame_needed = 0, uses_anonymous_args = 0
  80:Middlewares/nunchuk/Src/nunchuk.c ****     nunchuk_packet_t packet;
 583              		.loc 1 80 71 is_stmt 0 view .LVU154
 584 0000 30B5     		push	{r4, r5, lr}
 585              	.LCFI8:
 586              		.cfi_def_cfa_offset 12
 587              		.cfi_offset 4, -12
 588              		.cfi_offset 5, -8
 589              		.cfi_offset 14, -4
 590 0002 83B0     		sub	sp, sp, #12
 591              	.LCFI9:
 592              		.cfi_def_cfa_offset 24
 593 0004 0500     		movs	r5, r0
  81:Middlewares/nunchuk/Src/nunchuk.c ****     HAL_StatusTypeDef ret = nunchuk_packet_read(NUNCHUK_REPORT_ADDR, &packet);
 594              		.loc 1 81 5 is_stmt 1 view .LVU155
  82:Middlewares/nunchuk/Src/nunchuk.c **** 
 595              		.loc 1 82 5 view .LVU156
  82:Middlewares/nunchuk/Src/nunchuk.c **** 
 596              		.loc 1 82 29 is_stmt 0 view .LVU157
 597 0006 6946     		mov	r1, sp
 598 0008 0020     		movs	r0, #0
 599              	.LVL37:
  82:Middlewares/nunchuk/Src/nunchuk.c **** 
 600              		.loc 1 82 29 view .LVU158
 601 000a FFF7FEFF 		bl	nunchuk_packet_read
 602              	.LVL38:
 603 000e 041E     		subs	r4, r0, #0
 604              	.LVL39:
  84:Middlewares/nunchuk/Src/nunchuk.c ****         return ret;
 605              		.loc 1 84 5 is_stmt 1 view .LVU159
  84:Middlewares/nunchuk/Src/nunchuk.c ****         return ret;
 606              		.loc 1 84 8 is_stmt 0 view .LVU160
 607 0010 02D0     		beq	.L31
 608              	.LVL40:
 609              	.L30:
  89:Middlewares/nunchuk/Src/nunchuk.c **** 
 610              		.loc 1 89 1 view .LVU161
 611 0012 2000     		movs	r0, r4
 612 0014 03B0     		add	sp, sp, #12
 613              		@ sp needed
 614              	.LVL41:
  89:Middlewares/nunchuk/Src/nunchuk.c **** 
 615              		.loc 1 89 1 view .LVU162
 616 0016 30BD     		pop	{r4, r5, pc}
 617              	.LVL42:
 618              	.L31:
  87:Middlewares/nunchuk/Src/nunchuk.c ****     return HAL_OK;
 619              		.loc 1 87 5 is_stmt 1 view .LVU163
 620 0018 2900     		movs	r1, r5
 621 001a 6846     		mov	r0, sp
 622              	.LVL43:
  87:Middlewares/nunchuk/Src/nunchuk.c ****     return HAL_OK;
 623              		.loc 1 87 5 is_stmt 0 view .LVU164
 624 001c FFF7FEFF 		bl	nunchuk_fill_guitar_hero
ARM GAS  /tmp/cc2bLLBN.s 			page 15


 625              	.LVL44:
  88:Middlewares/nunchuk/Src/nunchuk.c **** }
 626              		.loc 1 88 5 is_stmt 1 view .LVU165
  88:Middlewares/nunchuk/Src/nunchuk.c **** }
 627              		.loc 1 88 12 is_stmt 0 view .LVU166
 628 0020 F7E7     		b	.L30
 629              		.cfi_endproc
 630              	.LFE363:
 632              		.section	.text.nunchuk_fill_classic,"ax",%progbits
 633              		.align	1
 634              		.global	nunchuk_fill_classic
 635              		.syntax unified
 636              		.code	16
 637              		.thumb_func
 639              	nunchuk_fill_classic:
 640              	.LVL45:
 641              	.LFB366:
 126:Middlewares/nunchuk/Src/nunchuk.c **** 
 127:Middlewares/nunchuk/Src/nunchuk.c **** void nunchuk_fill_classic(nunchuk_packet_t* packet, nunchuk_classic_t* cc) {
 642              		.loc 1 127 76 is_stmt 1 view -0
 643              		.cfi_startproc
 644              		@ args = 0, pretend = 0, frame = 0
 645              		@ frame_needed = 0, uses_anonymous_args = 0
 646              		@ link register save eliminated.
 128:Middlewares/nunchuk/Src/nunchuk.c ****     cc->lx =  packet->classic_controller.lx;
 647              		.loc 1 128 5 view .LVU168
 648              		.loc 1 128 41 is_stmt 0 view .LVU169
 649 0000 0378     		ldrb	r3, [r0]
 650 0002 9B06     		lsls	r3, r3, #26
 651 0004 9B0E     		lsrs	r3, r3, #26
 652              		.loc 1 128 12 view .LVU170
 653 0006 0B70     		strb	r3, [r1]
 129:Middlewares/nunchuk/Src/nunchuk.c ****     cc->ly =  packet->classic_controller.ly;
 654              		.loc 1 129 5 is_stmt 1 view .LVU171
 655              		.loc 1 129 41 is_stmt 0 view .LVU172
 656 0008 4378     		ldrb	r3, [r0, #1]
 657 000a 9B06     		lsls	r3, r3, #26
 658 000c 9B0E     		lsrs	r3, r3, #26
 659              		.loc 1 129 12 view .LVU173
 660 000e 4B70     		strb	r3, [r1, #1]
 130:Middlewares/nunchuk/Src/nunchuk.c ****     cc->rx = (packet->classic_controller.rx_4_3 << 3) |
 661              		.loc 1 130 5 is_stmt 1 view .LVU174
 662              		.loc 1 130 41 is_stmt 0 view .LVU175
 663 0010 0378     		ldrb	r3, [r0]
 664 0012 9B09     		lsrs	r3, r3, #6
 665              		.loc 1 130 49 view .LVU176
 666 0014 DB00     		lsls	r3, r3, #3
 131:Middlewares/nunchuk/Src/nunchuk.c ****               (packet->classic_controller.rx_2_1 << 1) |
 667              		.loc 1 131 42 view .LVU177
 668 0016 4278     		ldrb	r2, [r0, #1]
 669 0018 9209     		lsrs	r2, r2, #6
 670              		.loc 1 131 50 view .LVU178
 671 001a 5200     		lsls	r2, r2, #1
 130:Middlewares/nunchuk/Src/nunchuk.c ****     cc->rx = (packet->classic_controller.rx_4_3 << 3) |
 672              		.loc 1 130 55 view .LVU179
 673 001c 1343     		orrs	r3, r2
 132:Middlewares/nunchuk/Src/nunchuk.c ****               (packet->classic_controller.rx_0);
ARM GAS  /tmp/cc2bLLBN.s 			page 16


 674              		.loc 1 132 42 view .LVU180
 675 001e 8278     		ldrb	r2, [r0, #2]
 676 0020 D209     		lsrs	r2, r2, #7
 131:Middlewares/nunchuk/Src/nunchuk.c ****               (packet->classic_controller.rx_2_1 << 1) |
 677              		.loc 1 131 56 view .LVU181
 678 0022 1343     		orrs	r3, r2
 130:Middlewares/nunchuk/Src/nunchuk.c ****     cc->rx = (packet->classic_controller.rx_4_3 << 3) |
 679              		.loc 1 130 12 view .LVU182
 680 0024 8B70     		strb	r3, [r1, #2]
 133:Middlewares/nunchuk/Src/nunchuk.c ****     cc->ry =  packet->classic_controller.ry;
 681              		.loc 1 133 5 is_stmt 1 view .LVU183
 682              		.loc 1 133 41 is_stmt 0 view .LVU184
 683 0026 8378     		ldrb	r3, [r0, #2]
 684 0028 DB06     		lsls	r3, r3, #27
 685 002a DB0E     		lsrs	r3, r3, #27
 686              		.loc 1 133 12 view .LVU185
 687 002c CB70     		strb	r3, [r1, #3]
 134:Middlewares/nunchuk/Src/nunchuk.c **** 
 135:Middlewares/nunchuk/Src/nunchuk.c ****     cc->left_trigger = (packet->classic_controller.lt_4_3 << 3) |
 688              		.loc 1 135 5 is_stmt 1 view .LVU186
 689              		.loc 1 135 51 is_stmt 0 view .LVU187
 690 002e 8378     		ldrb	r3, [r0, #2]
 691 0030 5B06     		lsls	r3, r3, #25
 692 0032 9B0F     		lsrs	r3, r3, #30
 693              		.loc 1 135 59 view .LVU188
 694 0034 DB00     		lsls	r3, r3, #3
 136:Middlewares/nunchuk/Src/nunchuk.c ****                         (packet->classic_controller.lt_2_0);
 695              		.loc 1 136 52 view .LVU189
 696 0036 C278     		ldrb	r2, [r0, #3]
 697 0038 5209     		lsrs	r2, r2, #5
 135:Middlewares/nunchuk/Src/nunchuk.c ****                         (packet->classic_controller.lt_2_0);
 698              		.loc 1 135 65 view .LVU190
 699 003a 1343     		orrs	r3, r2
 135:Middlewares/nunchuk/Src/nunchuk.c ****                         (packet->classic_controller.lt_2_0);
 700              		.loc 1 135 22 view .LVU191
 701 003c 0B71     		strb	r3, [r1, #4]
 137:Middlewares/nunchuk/Src/nunchuk.c ****     cc->right_trigger = packet->classic_controller.rt;
 702              		.loc 1 137 5 is_stmt 1 view .LVU192
 703              		.loc 1 137 51 is_stmt 0 view .LVU193
 704 003e C378     		ldrb	r3, [r0, #3]
 705 0040 DB06     		lsls	r3, r3, #27
 706 0042 DB0E     		lsrs	r3, r3, #27
 707              		.loc 1 137 23 view .LVU194
 708 0044 4B71     		strb	r3, [r1, #5]
 138:Middlewares/nunchuk/Src/nunchuk.c ****     
 139:Middlewares/nunchuk/Src/nunchuk.c ****     cc->buttons.a =             packet->classic_controller.buttons.a;
 709              		.loc 1 139 5 is_stmt 1 view .LVU195
 710              		.loc 1 139 67 is_stmt 0 view .LVU196
 711 0046 4379     		ldrb	r3, [r0, #5]
 712 0048 DB06     		lsls	r3, r3, #27
 713 004a DB0F     		lsrs	r3, r3, #31
 714              		.loc 1 139 19 view .LVU197
 715 004c 8B71     		strb	r3, [r1, #6]
 140:Middlewares/nunchuk/Src/nunchuk.c ****     cc->buttons.b =             packet->classic_controller.buttons.b;
 716              		.loc 1 140 5 is_stmt 1 view .LVU198
 717              		.loc 1 140 67 is_stmt 0 view .LVU199
 718 004e 4379     		ldrb	r3, [r0, #5]
ARM GAS  /tmp/cc2bLLBN.s 			page 17


 719 0050 5B06     		lsls	r3, r3, #25
 720 0052 DB0F     		lsrs	r3, r3, #31
 721              		.loc 1 140 19 view .LVU200
 722 0054 CB71     		strb	r3, [r1, #7]
 141:Middlewares/nunchuk/Src/nunchuk.c ****     cc->buttons.x =             packet->classic_controller.buttons.x;
 723              		.loc 1 141 5 is_stmt 1 view .LVU201
 724              		.loc 1 141 67 is_stmt 0 view .LVU202
 725 0056 4379     		ldrb	r3, [r0, #5]
 726 0058 1B07     		lsls	r3, r3, #28
 727 005a DB0F     		lsrs	r3, r3, #31
 728              		.loc 1 141 19 view .LVU203
 729 005c 0B72     		strb	r3, [r1, #8]
 142:Middlewares/nunchuk/Src/nunchuk.c ****     cc->buttons.y =             packet->classic_controller.buttons.y;
 730              		.loc 1 142 5 is_stmt 1 view .LVU204
 731              		.loc 1 142 67 is_stmt 0 view .LVU205
 732 005e 4379     		ldrb	r3, [r0, #5]
 733 0060 9B06     		lsls	r3, r3, #26
 734 0062 DB0F     		lsrs	r3, r3, #31
 735              		.loc 1 142 19 view .LVU206
 736 0064 4B72     		strb	r3, [r1, #9]
 143:Middlewares/nunchuk/Src/nunchuk.c ****     cc->buttons.plus =          packet->classic_controller.buttons.plus;
 737              		.loc 1 143 5 is_stmt 1 view .LVU207
 738              		.loc 1 143 67 is_stmt 0 view .LVU208
 739 0066 0379     		ldrb	r3, [r0, #4]
 740 0068 5B07     		lsls	r3, r3, #29
 741 006a DB0F     		lsrs	r3, r3, #31
 742              		.loc 1 143 22 view .LVU209
 743 006c 8B72     		strb	r3, [r1, #10]
 144:Middlewares/nunchuk/Src/nunchuk.c ****     cc->buttons.home =          packet->classic_controller.buttons.h;
 744              		.loc 1 144 5 is_stmt 1 view .LVU210
 745              		.loc 1 144 67 is_stmt 0 view .LVU211
 746 006e 0379     		ldrb	r3, [r0, #4]
 747 0070 1B07     		lsls	r3, r3, #28
 748 0072 DB0F     		lsrs	r3, r3, #31
 749              		.loc 1 144 22 view .LVU212
 750 0074 CB72     		strb	r3, [r1, #11]
 145:Middlewares/nunchuk/Src/nunchuk.c ****     cc->buttons.minus =         packet->classic_controller.buttons.minus;
 751              		.loc 1 145 5 is_stmt 1 view .LVU213
 752              		.loc 1 145 67 is_stmt 0 view .LVU214
 753 0076 0379     		ldrb	r3, [r0, #4]
 754 0078 DB06     		lsls	r3, r3, #27
 755 007a DB0F     		lsrs	r3, r3, #31
 756              		.loc 1 145 23 view .LVU215
 757 007c 0B73     		strb	r3, [r1, #12]
 146:Middlewares/nunchuk/Src/nunchuk.c ****     cc->buttons.left_trigger =  packet->classic_controller.buttons.lt;
 758              		.loc 1 146 5 is_stmt 1 view .LVU216
 759              		.loc 1 146 67 is_stmt 0 view .LVU217
 760 007e 0379     		ldrb	r3, [r0, #4]
 761 0080 9B06     		lsls	r3, r3, #26
 762 0082 DB0F     		lsrs	r3, r3, #31
 763              		.loc 1 146 30 view .LVU218
 764 0084 4B73     		strb	r3, [r1, #13]
 147:Middlewares/nunchuk/Src/nunchuk.c ****     cc->buttons.right_trigger = packet->classic_controller.buttons.rt;
 765              		.loc 1 147 5 is_stmt 1 view .LVU219
 766              		.loc 1 147 67 is_stmt 0 view .LVU220
 767 0086 0379     		ldrb	r3, [r0, #4]
 768 0088 9B07     		lsls	r3, r3, #30
ARM GAS  /tmp/cc2bLLBN.s 			page 18


 769 008a DB0F     		lsrs	r3, r3, #31
 770              		.loc 1 147 31 view .LVU221
 771 008c 8B73     		strb	r3, [r1, #14]
 148:Middlewares/nunchuk/Src/nunchuk.c ****     cc->buttons.zl =            packet->classic_controller.buttons.zl;
 772              		.loc 1 148 5 is_stmt 1 view .LVU222
 773              		.loc 1 148 67 is_stmt 0 view .LVU223
 774 008e 4379     		ldrb	r3, [r0, #5]
 775 0090 DB09     		lsrs	r3, r3, #7
 776              		.loc 1 148 20 view .LVU224
 777 0092 0B74     		strb	r3, [r1, #16]
 149:Middlewares/nunchuk/Src/nunchuk.c ****     cc->buttons.zr =            packet->classic_controller.buttons.zr;
 778              		.loc 1 149 5 is_stmt 1 view .LVU225
 779              		.loc 1 149 67 is_stmt 0 view .LVU226
 780 0094 4379     		ldrb	r3, [r0, #5]
 781 0096 5B07     		lsls	r3, r3, #29
 782 0098 DB0F     		lsrs	r3, r3, #31
 783              		.loc 1 149 20 view .LVU227
 784 009a CB73     		strb	r3, [r1, #15]
 150:Middlewares/nunchuk/Src/nunchuk.c ****     cc->buttons.dpad.down =     packet->classic_controller.buttons.dd;
 785              		.loc 1 150 5 is_stmt 1 view .LVU228
 786              		.loc 1 150 67 is_stmt 0 view .LVU229
 787 009c 0379     		ldrb	r3, [r0, #4]
 788 009e 5B06     		lsls	r3, r3, #25
 789 00a0 DB0F     		lsrs	r3, r3, #31
 790              		.loc 1 150 27 view .LVU230
 791 00a2 4B74     		strb	r3, [r1, #17]
 151:Middlewares/nunchuk/Src/nunchuk.c ****     cc->buttons.dpad.right =    packet->classic_controller.buttons.dr;
 792              		.loc 1 151 5 is_stmt 1 view .LVU231
 793              		.loc 1 151 67 is_stmt 0 view .LVU232
 794 00a4 0379     		ldrb	r3, [r0, #4]
 795 00a6 DB09     		lsrs	r3, r3, #7
 796              		.loc 1 151 28 view .LVU233
 797 00a8 8B74     		strb	r3, [r1, #18]
 152:Middlewares/nunchuk/Src/nunchuk.c ****     cc->buttons.dpad.up =       packet->classic_controller.buttons.du;
 798              		.loc 1 152 5 is_stmt 1 view .LVU234
 799              		.loc 1 152 67 is_stmt 0 view .LVU235
 800 00aa 4379     		ldrb	r3, [r0, #5]
 801 00ac DB07     		lsls	r3, r3, #31
 802 00ae DB0F     		lsrs	r3, r3, #31
 803              		.loc 1 152 25 view .LVU236
 804 00b0 CB74     		strb	r3, [r1, #19]
 153:Middlewares/nunchuk/Src/nunchuk.c ****     cc->buttons.dpad.left =     packet->classic_controller.buttons.dl;
 805              		.loc 1 153 5 is_stmt 1 view .LVU237
 806              		.loc 1 153 67 is_stmt 0 view .LVU238
 807 00b2 4379     		ldrb	r3, [r0, #5]
 808 00b4 9B07     		lsls	r3, r3, #30
 809 00b6 DB0F     		lsrs	r3, r3, #31
 810              		.loc 1 153 27 view .LVU239
 811 00b8 0B75     		strb	r3, [r1, #20]
 154:Middlewares/nunchuk/Src/nunchuk.c **** }...
 812              		.loc 1 154 1 view .LVU240
 813              		@ sp needed
 814 00ba 7047     		bx	lr
 815              		.cfi_endproc
 816              	.LFE366:
 818              		.section	.text.nunchuk_read_classic,"ax",%progbits
 819              		.align	1
ARM GAS  /tmp/cc2bLLBN.s 			page 19


 820              		.global	nunchuk_read_classic
 821              		.syntax unified
 822              		.code	16
 823              		.thumb_func
 825              	nunchuk_read_classic:
 826              	.LVL46:
 827              	.LFB362:
  69:Middlewares/nunchuk/Src/nunchuk.c **** HAL_StatusTypeDef nunchuk_read_classic(nunchuk_classic_t* cc) {
 828              		.loc 1 69 63 is_stmt 1 view -0
 829              		.cfi_startproc
 830              		@ args = 0, pretend = 0, frame = 8
 831              		@ frame_needed = 0, uses_anonymous_args = 0
  69:Middlewares/nunchuk/Src/nunchuk.c **** HAL_StatusTypeDef nunchuk_read_classic(nunchuk_classic_t* cc) {
 832              		.loc 1 69 63 is_stmt 0 view .LVU242
 833 0000 30B5     		push	{r4, r5, lr}
 834              	.LCFI10:
 835              		.cfi_def_cfa_offset 12
 836              		.cfi_offset 4, -12
 837              		.cfi_offset 5, -8
 838              		.cfi_offset 14, -4
 839 0002 83B0     		sub	sp, sp, #12
 840              	.LCFI11:
 841              		.cfi_def_cfa_offset 24
 842 0004 0500     		movs	r5, r0
  70:Middlewares/nunchuk/Src/nunchuk.c ****     nunchuk_packet_t packet;
 843              		.loc 1 70 5 is_stmt 1 view .LVU243
  71:Middlewares/nunchuk/Src/nunchuk.c ****     HAL_StatusTypeDef ret = nunchuk_packet_read(NUNCHUK_REPORT_ADDR, &packet);
 844              		.loc 1 71 5 view .LVU244
  71:Middlewares/nunchuk/Src/nunchuk.c ****     HAL_StatusTypeDef ret = nunchuk_packet_read(NUNCHUK_REPORT_ADDR, &packet);
 845              		.loc 1 71 29 is_stmt 0 view .LVU245
 846 0006 6946     		mov	r1, sp
 847 0008 0020     		movs	r0, #0
 848              	.LVL47:
  71:Middlewares/nunchuk/Src/nunchuk.c ****     HAL_StatusTypeDef ret = nunchuk_packet_read(NUNCHUK_REPORT_ADDR, &packet);
 849              		.loc 1 71 29 view .LVU246
 850 000a FFF7FEFF 		bl	nunchuk_packet_read
 851              	.LVL48:
 852 000e 041E     		subs	r4, r0, #0
 853              	.LVL49:
  73:Middlewares/nunchuk/Src/nunchuk.c ****     if (ret != HAL_OK)
 854              		.loc 1 73 5 is_stmt 1 view .LVU247
  73:Middlewares/nunchuk/Src/nunchuk.c ****     if (ret != HAL_OK)
 855              		.loc 1 73 8 is_stmt 0 view .LVU248
 856 0010 02D0     		beq	.L35
 857              	.LVL50:
 858              	.L34:
  78:Middlewares/nunchuk/Src/nunchuk.c **** }
 859              		.loc 1 78 1 view .LVU249
 860 0012 2000     		movs	r0, r4
 861 0014 03B0     		add	sp, sp, #12
 862              		@ sp needed
 863              	.LVL51:
  78:Middlewares/nunchuk/Src/nunchuk.c **** }
 864              		.loc 1 78 1 view .LVU250
 865 0016 30BD     		pop	{r4, r5, pc}
 866              	.LVL52:
 867              	.L35:
ARM GAS  /tmp/cc2bLLBN.s 			page 20


  76:Middlewares/nunchuk/Src/nunchuk.c ****     nunchuk_fill_classic(&packet, cc);
 868              		.loc 1 76 5 is_stmt 1 view .LVU251
 869 0018 2900     		movs	r1, r5
 870 001a 6846     		mov	r0, sp
 871              	.LVL53:
  76:Middlewares/nunchuk/Src/nunchuk.c ****     nunchuk_fill_classic(&packet, cc);
 872              		.loc 1 76 5 is_stmt 0 view .LVU252
 873 001c FFF7FEFF 		bl	nunchuk_fill_classic
 874              	.LVL54:
  77:Middlewares/nunchuk/Src/nunchuk.c ****     return HAL_OK;
 875              		.loc 1 77 5 is_stmt 1 view .LVU253
  77:Middlewares/nunchuk/Src/nunchuk.c ****     return HAL_OK;
 876              		.loc 1 77 12 is_stmt 0 view .LVU254
 877 0020 F7E7     		b	.L34
 878              		.cfi_endproc
 879              	.LFE362:
 881              		.section	.rodata.NUNCHUK_GUITAR_HERO_ID,"a"
 882              		.align	2
 885              	NUNCHUK_GUITAR_HERO_ID:
 886 0000 0000A420 		.ascii	"\000\000\244 \001\003"
 886      0103
 887              		.section	.rodata.NUNCHUK_CLASSIC_ID,"a"
 888              		.align	2
 891              	NUNCHUK_CLASSIC_ID:
 892 0000 0100A420 		.ascii	"\001\000\244 \001\001"
 892      0101
 893              		.section	.rodata.NUNCHUK_STANDARD_ID,"a"
 894              		.align	2
 897              	NUNCHUK_STANDARD_ID:
 898 0000 0000A420 		.ascii	"\000\000\244 \000\000"
 898      0000
 899              		.text
 900              	.Letext0:
 901              		.file 2 "/usr/arm-none-eabi/include/machine/_default_types.h"
 902              		.file 3 "/usr/arm-none-eabi/include/sys/_stdint.h"
 903              		.file 4 "Middlewares/nunchuk/Inc/nunchuk_devices.h"
 904              		.file 5 "Drivers/CMSIS/Device/ST/STM32G0xx/Include/stm32g0b1xx.h"
 905              		.file 6 "/usr/lib/gcc/arm-none-eabi/12.1.0/include/stddef.h"
 906              		.file 7 "Drivers/STM32G0xx_HAL_Driver/Inc/stm32g0xx_hal_def.h"
 907              		.file 8 "Drivers/STM32G0xx_HAL_Driver/Inc/stm32g0xx_hal_dma.h"
 908              		.file 9 "Drivers/STM32G0xx_HAL_Driver/Inc/stm32g0xx_hal_i2c.h"
 909              		.file 10 "Drivers/STM32G0xx_HAL_Driver/Inc/stm32g0xx_ll_dma.h"
 910              		.file 11 "/usr/arm-none-eabi/include/string.h"
 911              		.file 12 "Core/Inc/i2c.h"
ARM GAS  /tmp/cc2bLLBN.s 			page 21

