ARM GAS  /tmp/ccQCrB9j.s 			page 1


   1              		.cpu cortex-m0plus
   2              		.arch armv6s-m
   3              		.fpu softvfp
   4              		.eabi_attribute 20, 1
   5              		.eabi_attribute 21, 1
   6              		.eabi_attribute 23, 3
   7              		.eabi_attribute 24, 1
   8              		.eabi_attribute 25, 1
   9              		.eabi_attribute 26, 1
  10              		.eabi_attribute 30, 1
  11              		.eabi_attribute 34, 0
  12              		.eabi_attribute 18, 4
  13              		.file	"stm32g0xx_ll_usb.c"
  14              		.text
  15              	.Ltext0:
  16              		.cfi_sections	.debug_frame
  17              		.file 1 "Drivers/STM32G0xx_HAL_Driver/Src/stm32g0xx_ll_usb.c"
  18              		.section	.text.USB_CoreReset,"ax",%progbits
  19              		.align	1
  20              		.syntax unified
  21              		.code	16
  22              		.thumb_func
  24              	USB_CoreReset:
  25              	.LVL0:
  26              	.LFB366:
   1:Drivers/STM32G0xx_HAL_Driver/Src/stm32g0xx_ll_usb.c **** /**
   2:Drivers/STM32G0xx_HAL_Driver/Src/stm32g0xx_ll_usb.c ****   ******************************************************************************
   3:Drivers/STM32G0xx_HAL_Driver/Src/stm32g0xx_ll_usb.c ****   * @file    stm32g0xx_ll_usb.c
   4:Drivers/STM32G0xx_HAL_Driver/Src/stm32g0xx_ll_usb.c ****   * @author  MCD Application Team
   5:Drivers/STM32G0xx_HAL_Driver/Src/stm32g0xx_ll_usb.c ****   * @brief   USB Low Layer HAL module driver.
   6:Drivers/STM32G0xx_HAL_Driver/Src/stm32g0xx_ll_usb.c ****   *
   7:Drivers/STM32G0xx_HAL_Driver/Src/stm32g0xx_ll_usb.c ****   *          This file provides firmware functions to manage the following
   8:Drivers/STM32G0xx_HAL_Driver/Src/stm32g0xx_ll_usb.c ****   *          functionalities of the USB Peripheral Controller:
   9:Drivers/STM32G0xx_HAL_Driver/Src/stm32g0xx_ll_usb.c ****   *           + Initialization/de-initialization functions
  10:Drivers/STM32G0xx_HAL_Driver/Src/stm32g0xx_ll_usb.c ****   *           + I/O operation functions
  11:Drivers/STM32G0xx_HAL_Driver/Src/stm32g0xx_ll_usb.c ****   *           + Peripheral Control functions
  12:Drivers/STM32G0xx_HAL_Driver/Src/stm32g0xx_ll_usb.c ****   *           + Peripheral State functions
  13:Drivers/STM32G0xx_HAL_Driver/Src/stm32g0xx_ll_usb.c ****   *
  14:Drivers/STM32G0xx_HAL_Driver/Src/stm32g0xx_ll_usb.c ****   ******************************************************************************
  15:Drivers/STM32G0xx_HAL_Driver/Src/stm32g0xx_ll_usb.c ****   * @attention
  16:Drivers/STM32G0xx_HAL_Driver/Src/stm32g0xx_ll_usb.c ****   *
  17:Drivers/STM32G0xx_HAL_Driver/Src/stm32g0xx_ll_usb.c ****   * Copyright (c) 2018 STMicroelectronics.
  18:Drivers/STM32G0xx_HAL_Driver/Src/stm32g0xx_ll_usb.c ****   * All rights reserved.
  19:Drivers/STM32G0xx_HAL_Driver/Src/stm32g0xx_ll_usb.c ****   *
  20:Drivers/STM32G0xx_HAL_Driver/Src/stm32g0xx_ll_usb.c ****   * This software is licensed under terms that can be found in the LICENSE file
  21:Drivers/STM32G0xx_HAL_Driver/Src/stm32g0xx_ll_usb.c ****   * in the root directory of this software component.
  22:Drivers/STM32G0xx_HAL_Driver/Src/stm32g0xx_ll_usb.c ****   * If no LICENSE file comes with this software, it is provided AS-IS.
  23:Drivers/STM32G0xx_HAL_Driver/Src/stm32g0xx_ll_usb.c ****   *
  24:Drivers/STM32G0xx_HAL_Driver/Src/stm32g0xx_ll_usb.c ****   ******************************************************************************
  25:Drivers/STM32G0xx_HAL_Driver/Src/stm32g0xx_ll_usb.c ****   @verbatim
  26:Drivers/STM32G0xx_HAL_Driver/Src/stm32g0xx_ll_usb.c ****   ==============================================================================
  27:Drivers/STM32G0xx_HAL_Driver/Src/stm32g0xx_ll_usb.c ****                     ##### How to use this driver #####
  28:Drivers/STM32G0xx_HAL_Driver/Src/stm32g0xx_ll_usb.c ****   ==============================================================================
  29:Drivers/STM32G0xx_HAL_Driver/Src/stm32g0xx_ll_usb.c ****     [..]
  30:Drivers/STM32G0xx_HAL_Driver/Src/stm32g0xx_ll_usb.c ****       (#) Fill parameters of Init structure in USB_OTG_CfgTypeDef structure.
  31:Drivers/STM32G0xx_HAL_Driver/Src/stm32g0xx_ll_usb.c **** 
  32:Drivers/STM32G0xx_HAL_Driver/Src/stm32g0xx_ll_usb.c ****       (#) Call USB_CoreInit() API to initialize the USB Core peripheral.
ARM GAS  /tmp/ccQCrB9j.s 			page 2


  33:Drivers/STM32G0xx_HAL_Driver/Src/stm32g0xx_ll_usb.c **** 
  34:Drivers/STM32G0xx_HAL_Driver/Src/stm32g0xx_ll_usb.c ****       (#) The upper HAL HCD/PCD driver will call the right routines for its internal processes.
  35:Drivers/STM32G0xx_HAL_Driver/Src/stm32g0xx_ll_usb.c **** 
  36:Drivers/STM32G0xx_HAL_Driver/Src/stm32g0xx_ll_usb.c ****   @endverbatim
  37:Drivers/STM32G0xx_HAL_Driver/Src/stm32g0xx_ll_usb.c **** 
  38:Drivers/STM32G0xx_HAL_Driver/Src/stm32g0xx_ll_usb.c ****   ******************************************************************************
  39:Drivers/STM32G0xx_HAL_Driver/Src/stm32g0xx_ll_usb.c ****   */
  40:Drivers/STM32G0xx_HAL_Driver/Src/stm32g0xx_ll_usb.c **** 
  41:Drivers/STM32G0xx_HAL_Driver/Src/stm32g0xx_ll_usb.c **** /* Includes ------------------------------------------------------------------*/
  42:Drivers/STM32G0xx_HAL_Driver/Src/stm32g0xx_ll_usb.c **** #include "stm32g0xx_hal.h"
  43:Drivers/STM32G0xx_HAL_Driver/Src/stm32g0xx_ll_usb.c **** 
  44:Drivers/STM32G0xx_HAL_Driver/Src/stm32g0xx_ll_usb.c **** /** @addtogroup STM32G0xx_LL_USB_DRIVER
  45:Drivers/STM32G0xx_HAL_Driver/Src/stm32g0xx_ll_usb.c ****   * @{
  46:Drivers/STM32G0xx_HAL_Driver/Src/stm32g0xx_ll_usb.c ****   */
  47:Drivers/STM32G0xx_HAL_Driver/Src/stm32g0xx_ll_usb.c **** 
  48:Drivers/STM32G0xx_HAL_Driver/Src/stm32g0xx_ll_usb.c **** #if defined (HAL_PCD_MODULE_ENABLED) || defined (HAL_HCD_MODULE_ENABLED)
  49:Drivers/STM32G0xx_HAL_Driver/Src/stm32g0xx_ll_usb.c **** #if defined (USB_DRD_FS)
  50:Drivers/STM32G0xx_HAL_Driver/Src/stm32g0xx_ll_usb.c **** /* Private typedef -----------------------------------------------------------*/
  51:Drivers/STM32G0xx_HAL_Driver/Src/stm32g0xx_ll_usb.c **** /* Private define ------------------------------------------------------------*/
  52:Drivers/STM32G0xx_HAL_Driver/Src/stm32g0xx_ll_usb.c **** /* Private macro -------------------------------------------------------------*/
  53:Drivers/STM32G0xx_HAL_Driver/Src/stm32g0xx_ll_usb.c **** /* Private variables ---------------------------------------------------------*/
  54:Drivers/STM32G0xx_HAL_Driver/Src/stm32g0xx_ll_usb.c **** /* Private function prototypes -----------------------------------------------*/
  55:Drivers/STM32G0xx_HAL_Driver/Src/stm32g0xx_ll_usb.c **** /* Private functions ---------------------------------------------------------*/
  56:Drivers/STM32G0xx_HAL_Driver/Src/stm32g0xx_ll_usb.c **** 
  57:Drivers/STM32G0xx_HAL_Driver/Src/stm32g0xx_ll_usb.c **** static HAL_StatusTypeDef USB_CoreReset(USB_DRD_TypeDef *USBx);
  58:Drivers/STM32G0xx_HAL_Driver/Src/stm32g0xx_ll_usb.c **** #if (USE_USB_DOUBLE_BUFFER == 1U)
  59:Drivers/STM32G0xx_HAL_Driver/Src/stm32g0xx_ll_usb.c **** static HAL_StatusTypeDef USB_HC_BULK_DB_StartXfer(USB_DRD_TypeDef *USBx,
  60:Drivers/STM32G0xx_HAL_Driver/Src/stm32g0xx_ll_usb.c ****                                                   USB_DRD_HCTypeDef *hc,
  61:Drivers/STM32G0xx_HAL_Driver/Src/stm32g0xx_ll_usb.c ****                                                   uint32_t ch_reg,
  62:Drivers/STM32G0xx_HAL_Driver/Src/stm32g0xx_ll_usb.c ****                                                   uint32_t *len);
  63:Drivers/STM32G0xx_HAL_Driver/Src/stm32g0xx_ll_usb.c **** 
  64:Drivers/STM32G0xx_HAL_Driver/Src/stm32g0xx_ll_usb.c **** static HAL_StatusTypeDef USB_HC_ISO_DB_StartXfer(USB_DRD_TypeDef *USBx,
  65:Drivers/STM32G0xx_HAL_Driver/Src/stm32g0xx_ll_usb.c ****                                                  USB_DRD_HCTypeDef *hc,
  66:Drivers/STM32G0xx_HAL_Driver/Src/stm32g0xx_ll_usb.c ****                                                  uint32_t len);
  67:Drivers/STM32G0xx_HAL_Driver/Src/stm32g0xx_ll_usb.c **** #endif /* (USE_USB_DOUBLE_BUFFER == 1U) */
  68:Drivers/STM32G0xx_HAL_Driver/Src/stm32g0xx_ll_usb.c **** 
  69:Drivers/STM32G0xx_HAL_Driver/Src/stm32g0xx_ll_usb.c **** /**
  70:Drivers/STM32G0xx_HAL_Driver/Src/stm32g0xx_ll_usb.c ****   * @brief  Reset the USB Core (needed after USB clock settings change)
  71:Drivers/STM32G0xx_HAL_Driver/Src/stm32g0xx_ll_usb.c ****   * @param  USBx Selected device
  72:Drivers/STM32G0xx_HAL_Driver/Src/stm32g0xx_ll_usb.c ****   * @retval HAL status
  73:Drivers/STM32G0xx_HAL_Driver/Src/stm32g0xx_ll_usb.c ****   */
  74:Drivers/STM32G0xx_HAL_Driver/Src/stm32g0xx_ll_usb.c **** static HAL_StatusTypeDef USB_CoreReset(USB_DRD_TypeDef *USBx)
  75:Drivers/STM32G0xx_HAL_Driver/Src/stm32g0xx_ll_usb.c **** {
  27              		.loc 1 75 1 view -0
  28              		.cfi_startproc
  29              		@ args = 0, pretend = 0, frame = 0
  30              		@ frame_needed = 0, uses_anonymous_args = 0
  31              		@ link register save eliminated.
  76:Drivers/STM32G0xx_HAL_Driver/Src/stm32g0xx_ll_usb.c ****   /* Disable Host Mode */
  77:Drivers/STM32G0xx_HAL_Driver/Src/stm32g0xx_ll_usb.c ****   USBx->CNTR &= ~USB_CNTR_HOST;
  32              		.loc 1 77 3 view .LVU1
  33              		.loc 1 77 7 is_stmt 0 view .LVU2
  34 0000 036C     		ldr	r3, [r0, #64]
  35              		.loc 1 77 14 view .LVU3
  36 0002 5B00     		lsls	r3, r3, #1
  37 0004 5B08     		lsrs	r3, r3, #1
  38 0006 0364     		str	r3, [r0, #64]
ARM GAS  /tmp/ccQCrB9j.s 			page 3


  78:Drivers/STM32G0xx_HAL_Driver/Src/stm32g0xx_ll_usb.c **** 
  79:Drivers/STM32G0xx_HAL_Driver/Src/stm32g0xx_ll_usb.c ****   /* Force Reset IP */
  80:Drivers/STM32G0xx_HAL_Driver/Src/stm32g0xx_ll_usb.c ****   USBx->CNTR |= USB_CNTR_USBRST;
  39              		.loc 1 80 3 is_stmt 1 view .LVU4
  40              		.loc 1 80 7 is_stmt 0 view .LVU5
  41 0008 036C     		ldr	r3, [r0, #64]
  42              		.loc 1 80 14 view .LVU6
  43 000a 0122     		movs	r2, #1
  44 000c 1343     		orrs	r3, r2
  45 000e 0364     		str	r3, [r0, #64]
  81:Drivers/STM32G0xx_HAL_Driver/Src/stm32g0xx_ll_usb.c **** 
  82:Drivers/STM32G0xx_HAL_Driver/Src/stm32g0xx_ll_usb.c ****   return HAL_OK;
  46              		.loc 1 82 3 is_stmt 1 view .LVU7
  83:Drivers/STM32G0xx_HAL_Driver/Src/stm32g0xx_ll_usb.c **** }
  47              		.loc 1 83 1 is_stmt 0 view .LVU8
  48 0010 0020     		movs	r0, #0
  49              	.LVL1:
  50              		.loc 1 83 1 view .LVU9
  51              		@ sp needed
  52 0012 7047     		bx	lr
  53              		.cfi_endproc
  54              	.LFE366:
  56              		.section	.text.USB_CoreInit,"ax",%progbits
  57              		.align	1
  58              		.global	USB_CoreInit
  59              		.syntax unified
  60              		.code	16
  61              		.thumb_func
  63              	USB_CoreInit:
  64              	.LVL2:
  65              	.LFB367:
  84:Drivers/STM32G0xx_HAL_Driver/Src/stm32g0xx_ll_usb.c **** 
  85:Drivers/STM32G0xx_HAL_Driver/Src/stm32g0xx_ll_usb.c **** /**
  86:Drivers/STM32G0xx_HAL_Driver/Src/stm32g0xx_ll_usb.c ****   * @brief  Initializes the USB Core
  87:Drivers/STM32G0xx_HAL_Driver/Src/stm32g0xx_ll_usb.c ****   * @param  USBx USB Instance
  88:Drivers/STM32G0xx_HAL_Driver/Src/stm32g0xx_ll_usb.c ****   * @param  cfg pointer to a USB_CfgTypeDef structure that contains
  89:Drivers/STM32G0xx_HAL_Driver/Src/stm32g0xx_ll_usb.c ****   *         the configuration information for the specified USBx peripheral.
  90:Drivers/STM32G0xx_HAL_Driver/Src/stm32g0xx_ll_usb.c ****   * @retval HAL status
  91:Drivers/STM32G0xx_HAL_Driver/Src/stm32g0xx_ll_usb.c ****   */
  92:Drivers/STM32G0xx_HAL_Driver/Src/stm32g0xx_ll_usb.c **** HAL_StatusTypeDef USB_CoreInit(USB_DRD_TypeDef *USBx, USB_DRD_CfgTypeDef cfg)
  93:Drivers/STM32G0xx_HAL_Driver/Src/stm32g0xx_ll_usb.c **** {
  66              		.loc 1 93 1 is_stmt 1 view -0
  67              		.cfi_startproc
  68              		@ args = 56, pretend = 16, frame = 0
  69              		@ frame_needed = 0, uses_anonymous_args = 0
  70              		.loc 1 93 1 is_stmt 0 view .LVU11
  71 0000 84B0     		sub	sp, sp, #16
  72              	.LCFI0:
  73              		.cfi_def_cfa_offset 16
  74 0002 10B5     		push	{r4, lr}
  75              	.LCFI1:
  76              		.cfi_def_cfa_offset 24
  77              		.cfi_offset 4, -24
  78              		.cfi_offset 14, -20
  79 0004 0400     		movs	r4, r0
  80 0006 0391     		str	r1, [sp, #12]
  81 0008 0492     		str	r2, [sp, #16]
ARM GAS  /tmp/ccQCrB9j.s 			page 4


  82 000a 0593     		str	r3, [sp, #20]
  94:Drivers/STM32G0xx_HAL_Driver/Src/stm32g0xx_ll_usb.c ****   UNUSED(cfg);
  83              		.loc 1 94 3 is_stmt 1 view .LVU12
  95:Drivers/STM32G0xx_HAL_Driver/Src/stm32g0xx_ll_usb.c ****   HAL_StatusTypeDef state;
  84              		.loc 1 95 3 view .LVU13
  96:Drivers/STM32G0xx_HAL_Driver/Src/stm32g0xx_ll_usb.c **** 
  97:Drivers/STM32G0xx_HAL_Driver/Src/stm32g0xx_ll_usb.c ****   /* Reset after a PHY select */
  98:Drivers/STM32G0xx_HAL_Driver/Src/stm32g0xx_ll_usb.c ****   state = USB_CoreReset(USBx);
  85              		.loc 1 98 3 view .LVU14
  86              		.loc 1 98 11 is_stmt 0 view .LVU15
  87 000c FFF7FEFF 		bl	USB_CoreReset
  88              	.LVL3:
  99:Drivers/STM32G0xx_HAL_Driver/Src/stm32g0xx_ll_usb.c **** 
 100:Drivers/STM32G0xx_HAL_Driver/Src/stm32g0xx_ll_usb.c ****   /* Clear pending interrupts */
 101:Drivers/STM32G0xx_HAL_Driver/Src/stm32g0xx_ll_usb.c ****   USBx->ISTR = 0U;
  89              		.loc 1 101 3 is_stmt 1 view .LVU16
  90              		.loc 1 101 14 is_stmt 0 view .LVU17
  91 0010 0023     		movs	r3, #0
  92 0012 6364     		str	r3, [r4, #68]
 102:Drivers/STM32G0xx_HAL_Driver/Src/stm32g0xx_ll_usb.c **** 
 103:Drivers/STM32G0xx_HAL_Driver/Src/stm32g0xx_ll_usb.c ****   return state;
  93              		.loc 1 103 3 is_stmt 1 view .LVU18
 104:Drivers/STM32G0xx_HAL_Driver/Src/stm32g0xx_ll_usb.c **** }
  94              		.loc 1 104 1 is_stmt 0 view .LVU19
  95              		@ sp needed
  96              	.LVL4:
  97              		.loc 1 104 1 view .LVU20
  98 0014 10BC     		pop	{r4}
  99 0016 08BC     		pop	{r3}
 100 0018 04B0     		add	sp, sp, #16
 101 001a 1847     		bx	r3
 102              		.cfi_endproc
 103              	.LFE367:
 105              		.section	.text.USB_EnableGlobalInt,"ax",%progbits
 106              		.align	1
 107              		.global	USB_EnableGlobalInt
 108              		.syntax unified
 109              		.code	16
 110              		.thumb_func
 112              	USB_EnableGlobalInt:
 113              	.LVL5:
 114              	.LFB368:
 105:Drivers/STM32G0xx_HAL_Driver/Src/stm32g0xx_ll_usb.c **** 
 106:Drivers/STM32G0xx_HAL_Driver/Src/stm32g0xx_ll_usb.c **** /**
 107:Drivers/STM32G0xx_HAL_Driver/Src/stm32g0xx_ll_usb.c ****   * @brief  USB_EnableGlobalInt
 108:Drivers/STM32G0xx_HAL_Driver/Src/stm32g0xx_ll_usb.c ****   *         Enables the controller's Global Int in the AHB Config reg
 109:Drivers/STM32G0xx_HAL_Driver/Src/stm32g0xx_ll_usb.c ****   * @param  USBx Selected device
 110:Drivers/STM32G0xx_HAL_Driver/Src/stm32g0xx_ll_usb.c ****   * @retval HAL status
 111:Drivers/STM32G0xx_HAL_Driver/Src/stm32g0xx_ll_usb.c ****   */
 112:Drivers/STM32G0xx_HAL_Driver/Src/stm32g0xx_ll_usb.c **** HAL_StatusTypeDef USB_EnableGlobalInt(USB_DRD_TypeDef *USBx)
 113:Drivers/STM32G0xx_HAL_Driver/Src/stm32g0xx_ll_usb.c **** {
 115              		.loc 1 113 1 is_stmt 1 view -0
 116              		.cfi_startproc
 117              		@ args = 0, pretend = 0, frame = 0
 118              		@ frame_needed = 0, uses_anonymous_args = 0
 119              		@ link register save eliminated.
 114:Drivers/STM32G0xx_HAL_Driver/Src/stm32g0xx_ll_usb.c ****   uint32_t winterruptmask;
ARM GAS  /tmp/ccQCrB9j.s 			page 5


 120              		.loc 1 114 3 view .LVU22
 115:Drivers/STM32G0xx_HAL_Driver/Src/stm32g0xx_ll_usb.c **** 
 116:Drivers/STM32G0xx_HAL_Driver/Src/stm32g0xx_ll_usb.c ****   /* Clear pending interrupts */
 117:Drivers/STM32G0xx_HAL_Driver/Src/stm32g0xx_ll_usb.c ****   USBx->ISTR = 0U;
 121              		.loc 1 117 3 view .LVU23
 122              		.loc 1 117 14 is_stmt 0 view .LVU24
 123 0000 0023     		movs	r3, #0
 124 0002 4364     		str	r3, [r0, #68]
 118:Drivers/STM32G0xx_HAL_Driver/Src/stm32g0xx_ll_usb.c **** 
 119:Drivers/STM32G0xx_HAL_Driver/Src/stm32g0xx_ll_usb.c ****   /* Set winterruptmask variable */
 120:Drivers/STM32G0xx_HAL_Driver/Src/stm32g0xx_ll_usb.c ****   winterruptmask = USB_CNTR_CTRM  | USB_CNTR_WKUPM |
 125              		.loc 1 120 3 is_stmt 1 view .LVU25
 126              	.LVL6:
 121:Drivers/STM32G0xx_HAL_Driver/Src/stm32g0xx_ll_usb.c ****                    USB_CNTR_SUSPM | USB_CNTR_ERRM |
 122:Drivers/STM32G0xx_HAL_Driver/Src/stm32g0xx_ll_usb.c ****                    USB_CNTR_SOFM | USB_CNTR_ESOFM |
 123:Drivers/STM32G0xx_HAL_Driver/Src/stm32g0xx_ll_usb.c ****                    USB_CNTR_RESETM | USB_CNTR_L1REQM;
 124:Drivers/STM32G0xx_HAL_Driver/Src/stm32g0xx_ll_usb.c **** 
 125:Drivers/STM32G0xx_HAL_Driver/Src/stm32g0xx_ll_usb.c ****   /* Set interrupt mask */
 126:Drivers/STM32G0xx_HAL_Driver/Src/stm32g0xx_ll_usb.c ****   USBx->CNTR = winterruptmask;
 127              		.loc 1 126 3 view .LVU26
 128              		.loc 1 126 14 is_stmt 0 view .LVU27
 129 0004 014B     		ldr	r3, .L4
 130 0006 0364     		str	r3, [r0, #64]
 127:Drivers/STM32G0xx_HAL_Driver/Src/stm32g0xx_ll_usb.c **** 
 128:Drivers/STM32G0xx_HAL_Driver/Src/stm32g0xx_ll_usb.c ****   return HAL_OK;
 131              		.loc 1 128 3 is_stmt 1 view .LVU28
 129:Drivers/STM32G0xx_HAL_Driver/Src/stm32g0xx_ll_usb.c **** }
 132              		.loc 1 129 1 is_stmt 0 view .LVU29
 133 0008 0020     		movs	r0, #0
 134              	.LVL7:
 135              		.loc 1 129 1 view .LVU30
 136              		@ sp needed
 137 000a 7047     		bx	lr
 138              	.L5:
 139              		.align	2
 140              	.L4:
 141 000c 80BF0000 		.word	49024
 142              		.cfi_endproc
 143              	.LFE368:
 145              		.section	.text.USB_DisableGlobalInt,"ax",%progbits
 146              		.align	1
 147              		.global	USB_DisableGlobalInt
 148              		.syntax unified
 149              		.code	16
 150              		.thumb_func
 152              	USB_DisableGlobalInt:
 153              	.LVL8:
 154              	.LFB369:
 130:Drivers/STM32G0xx_HAL_Driver/Src/stm32g0xx_ll_usb.c **** 
 131:Drivers/STM32G0xx_HAL_Driver/Src/stm32g0xx_ll_usb.c **** /**
 132:Drivers/STM32G0xx_HAL_Driver/Src/stm32g0xx_ll_usb.c ****   * @brief  USB_DisableGlobalInt
 133:Drivers/STM32G0xx_HAL_Driver/Src/stm32g0xx_ll_usb.c ****   *         Disable the controller's Global Int in the AHB Config reg
 134:Drivers/STM32G0xx_HAL_Driver/Src/stm32g0xx_ll_usb.c ****   * @param  USBx Selected device
 135:Drivers/STM32G0xx_HAL_Driver/Src/stm32g0xx_ll_usb.c ****   * @retval HAL status
 136:Drivers/STM32G0xx_HAL_Driver/Src/stm32g0xx_ll_usb.c ****   */
 137:Drivers/STM32G0xx_HAL_Driver/Src/stm32g0xx_ll_usb.c **** HAL_StatusTypeDef USB_DisableGlobalInt(USB_DRD_TypeDef *USBx)
 138:Drivers/STM32G0xx_HAL_Driver/Src/stm32g0xx_ll_usb.c **** {
ARM GAS  /tmp/ccQCrB9j.s 			page 6


 155              		.loc 1 138 1 is_stmt 1 view -0
 156              		.cfi_startproc
 157              		@ args = 0, pretend = 0, frame = 0
 158              		@ frame_needed = 0, uses_anonymous_args = 0
 159              		@ link register save eliminated.
 139:Drivers/STM32G0xx_HAL_Driver/Src/stm32g0xx_ll_usb.c ****   uint32_t winterruptmask;
 160              		.loc 1 139 3 view .LVU32
 140:Drivers/STM32G0xx_HAL_Driver/Src/stm32g0xx_ll_usb.c **** 
 141:Drivers/STM32G0xx_HAL_Driver/Src/stm32g0xx_ll_usb.c ****   /* Set winterruptmask variable */
 142:Drivers/STM32G0xx_HAL_Driver/Src/stm32g0xx_ll_usb.c ****   winterruptmask = USB_CNTR_CTRM  | USB_CNTR_WKUPM |
 161              		.loc 1 142 3 view .LVU33
 143:Drivers/STM32G0xx_HAL_Driver/Src/stm32g0xx_ll_usb.c ****                    USB_CNTR_SUSPM | USB_CNTR_ERRM |
 144:Drivers/STM32G0xx_HAL_Driver/Src/stm32g0xx_ll_usb.c ****                    USB_CNTR_SOFM | USB_CNTR_ESOFM |
 145:Drivers/STM32G0xx_HAL_Driver/Src/stm32g0xx_ll_usb.c ****                    USB_CNTR_RESETM | USB_CNTR_L1REQM;
 146:Drivers/STM32G0xx_HAL_Driver/Src/stm32g0xx_ll_usb.c **** 
 147:Drivers/STM32G0xx_HAL_Driver/Src/stm32g0xx_ll_usb.c ****   /* Clear interrupt mask */
 148:Drivers/STM32G0xx_HAL_Driver/Src/stm32g0xx_ll_usb.c ****   USBx->CNTR &= ~winterruptmask;
 162              		.loc 1 148 3 view .LVU34
 163              		.loc 1 148 7 is_stmt 0 view .LVU35
 164 0000 036C     		ldr	r3, [r0, #64]
 165              		.loc 1 148 14 view .LVU36
 166 0002 024A     		ldr	r2, .L7
 167 0004 1340     		ands	r3, r2
 168 0006 0364     		str	r3, [r0, #64]
 149:Drivers/STM32G0xx_HAL_Driver/Src/stm32g0xx_ll_usb.c **** 
 150:Drivers/STM32G0xx_HAL_Driver/Src/stm32g0xx_ll_usb.c ****   return HAL_OK;
 169              		.loc 1 150 3 is_stmt 1 view .LVU37
 151:Drivers/STM32G0xx_HAL_Driver/Src/stm32g0xx_ll_usb.c **** }
 170              		.loc 1 151 1 is_stmt 0 view .LVU38
 171 0008 0020     		movs	r0, #0
 172              	.LVL9:
 173              		.loc 1 151 1 view .LVU39
 174              		@ sp needed
 175 000a 7047     		bx	lr
 176              	.L8:
 177              		.align	2
 178              	.L7:
 179 000c 7F40FFFF 		.word	-49025
 180              		.cfi_endproc
 181              	.LFE369:
 183              		.section	.text.USB_SetCurrentMode,"ax",%progbits
 184              		.align	1
 185              		.global	USB_SetCurrentMode
 186              		.syntax unified
 187              		.code	16
 188              		.thumb_func
 190              	USB_SetCurrentMode:
 191              	.LVL10:
 192              	.LFB370:
 152:Drivers/STM32G0xx_HAL_Driver/Src/stm32g0xx_ll_usb.c **** 
 153:Drivers/STM32G0xx_HAL_Driver/Src/stm32g0xx_ll_usb.c **** /**
 154:Drivers/STM32G0xx_HAL_Driver/Src/stm32g0xx_ll_usb.c ****   * @brief  USB_SetCurrentMode Set functional mode
 155:Drivers/STM32G0xx_HAL_Driver/Src/stm32g0xx_ll_usb.c ****   * @param  USBx Selected device
 156:Drivers/STM32G0xx_HAL_Driver/Src/stm32g0xx_ll_usb.c ****   * @param  mode current core mode
 157:Drivers/STM32G0xx_HAL_Driver/Src/stm32g0xx_ll_usb.c ****   *          This parameter can be one of the these values:
 158:Drivers/STM32G0xx_HAL_Driver/Src/stm32g0xx_ll_usb.c ****   *            @arg USB_DEVICE_MODE Peripheral mode
 159:Drivers/STM32G0xx_HAL_Driver/Src/stm32g0xx_ll_usb.c ****   * @retval HAL status
ARM GAS  /tmp/ccQCrB9j.s 			page 7


 160:Drivers/STM32G0xx_HAL_Driver/Src/stm32g0xx_ll_usb.c ****   */
 161:Drivers/STM32G0xx_HAL_Driver/Src/stm32g0xx_ll_usb.c **** HAL_StatusTypeDef USB_SetCurrentMode(USB_DRD_TypeDef *USBx, USB_DRD_ModeTypeDef mode)
 162:Drivers/STM32G0xx_HAL_Driver/Src/stm32g0xx_ll_usb.c **** {
 193              		.loc 1 162 1 is_stmt 1 view -0
 194              		.cfi_startproc
 195              		@ args = 0, pretend = 0, frame = 0
 196              		@ frame_needed = 0, uses_anonymous_args = 0
 197              		@ link register save eliminated.
 163:Drivers/STM32G0xx_HAL_Driver/Src/stm32g0xx_ll_usb.c ****   if (mode == USB_DEVICE_MODE)
 198              		.loc 1 163 3 view .LVU41
 199              		.loc 1 163 6 is_stmt 0 view .LVU42
 200 0000 0029     		cmp	r1, #0
 201 0002 05D1     		bne	.L10
 164:Drivers/STM32G0xx_HAL_Driver/Src/stm32g0xx_ll_usb.c ****   {
 165:Drivers/STM32G0xx_HAL_Driver/Src/stm32g0xx_ll_usb.c ****     USBx->CNTR &= ~USB_CNTR_HOST;
 202              		.loc 1 165 5 is_stmt 1 view .LVU43
 203              		.loc 1 165 9 is_stmt 0 view .LVU44
 204 0004 036C     		ldr	r3, [r0, #64]
 205              		.loc 1 165 16 view .LVU45
 206 0006 5B00     		lsls	r3, r3, #1
 207 0008 5B08     		lsrs	r3, r3, #1
 208 000a 0364     		str	r3, [r0, #64]
 209              	.L11:
 166:Drivers/STM32G0xx_HAL_Driver/Src/stm32g0xx_ll_usb.c ****   }
 167:Drivers/STM32G0xx_HAL_Driver/Src/stm32g0xx_ll_usb.c ****   else
 168:Drivers/STM32G0xx_HAL_Driver/Src/stm32g0xx_ll_usb.c ****   {
 169:Drivers/STM32G0xx_HAL_Driver/Src/stm32g0xx_ll_usb.c ****     USBx->CNTR |= USB_CNTR_HOST;
 170:Drivers/STM32G0xx_HAL_Driver/Src/stm32g0xx_ll_usb.c ****   }
 171:Drivers/STM32G0xx_HAL_Driver/Src/stm32g0xx_ll_usb.c **** 
 172:Drivers/STM32G0xx_HAL_Driver/Src/stm32g0xx_ll_usb.c ****   return HAL_OK;
 210              		.loc 1 172 3 is_stmt 1 view .LVU46
 173:Drivers/STM32G0xx_HAL_Driver/Src/stm32g0xx_ll_usb.c **** }
 211              		.loc 1 173 1 is_stmt 0 view .LVU47
 212 000c 0020     		movs	r0, #0
 213              	.LVL11:
 214              		.loc 1 173 1 view .LVU48
 215              		@ sp needed
 216 000e 7047     		bx	lr
 217              	.LVL12:
 218              	.L10:
 169:Drivers/STM32G0xx_HAL_Driver/Src/stm32g0xx_ll_usb.c ****   }
 219              		.loc 1 169 5 is_stmt 1 view .LVU49
 169:Drivers/STM32G0xx_HAL_Driver/Src/stm32g0xx_ll_usb.c ****   }
 220              		.loc 1 169 9 is_stmt 0 view .LVU50
 221 0010 026C     		ldr	r2, [r0, #64]
 169:Drivers/STM32G0xx_HAL_Driver/Src/stm32g0xx_ll_usb.c ****   }
 222              		.loc 1 169 16 view .LVU51
 223 0012 8023     		movs	r3, #128
 224 0014 1B06     		lsls	r3, r3, #24
 225 0016 1343     		orrs	r3, r2
 226 0018 0364     		str	r3, [r0, #64]
 227 001a F7E7     		b	.L11
 228              		.cfi_endproc
 229              	.LFE370:
 231              		.section	.text.USB_DevInit,"ax",%progbits
 232              		.align	1
 233              		.global	USB_DevInit
ARM GAS  /tmp/ccQCrB9j.s 			page 8


 234              		.syntax unified
 235              		.code	16
 236              		.thumb_func
 238              	USB_DevInit:
 239              	.LVL13:
 240              	.LFB371:
 174:Drivers/STM32G0xx_HAL_Driver/Src/stm32g0xx_ll_usb.c **** 
 175:Drivers/STM32G0xx_HAL_Driver/Src/stm32g0xx_ll_usb.c **** /**
 176:Drivers/STM32G0xx_HAL_Driver/Src/stm32g0xx_ll_usb.c ****   * @brief  USB_DevInit Initializes the USB controller registers
 177:Drivers/STM32G0xx_HAL_Driver/Src/stm32g0xx_ll_usb.c ****   *         for device mode
 178:Drivers/STM32G0xx_HAL_Driver/Src/stm32g0xx_ll_usb.c ****   * @param  USBx Selected device
 179:Drivers/STM32G0xx_HAL_Driver/Src/stm32g0xx_ll_usb.c ****   * @param  cfg  pointer to a USB_DRD_CfgTypeDef structure that contains
 180:Drivers/STM32G0xx_HAL_Driver/Src/stm32g0xx_ll_usb.c ****   *         the configuration information for the specified USBx peripheral.
 181:Drivers/STM32G0xx_HAL_Driver/Src/stm32g0xx_ll_usb.c ****   * @retval HAL status
 182:Drivers/STM32G0xx_HAL_Driver/Src/stm32g0xx_ll_usb.c ****   */
 183:Drivers/STM32G0xx_HAL_Driver/Src/stm32g0xx_ll_usb.c **** HAL_StatusTypeDef USB_DevInit(USB_DRD_TypeDef *USBx, USB_DRD_CfgTypeDef cfg)
 184:Drivers/STM32G0xx_HAL_Driver/Src/stm32g0xx_ll_usb.c **** {
 241              		.loc 1 184 1 is_stmt 1 view -0
 242              		.cfi_startproc
 243              		@ args = 56, pretend = 16, frame = 0
 244              		@ frame_needed = 0, uses_anonymous_args = 0
 245              		.loc 1 184 1 is_stmt 0 view .LVU53
 246 0000 84B0     		sub	sp, sp, #16
 247              	.LCFI2:
 248              		.cfi_def_cfa_offset 16
 249 0002 10B5     		push	{r4, lr}
 250              	.LCFI3:
 251              		.cfi_def_cfa_offset 24
 252              		.cfi_offset 4, -24
 253              		.cfi_offset 14, -20
 254 0004 0400     		movs	r4, r0
 255 0006 0391     		str	r1, [sp, #12]
 256 0008 0492     		str	r2, [sp, #16]
 257 000a 0593     		str	r3, [sp, #20]
 185:Drivers/STM32G0xx_HAL_Driver/Src/stm32g0xx_ll_usb.c ****   /* Prevent unused argument(s) compilation warning */
 186:Drivers/STM32G0xx_HAL_Driver/Src/stm32g0xx_ll_usb.c ****   UNUSED(cfg);
 258              		.loc 1 186 3 is_stmt 1 view .LVU54
 187:Drivers/STM32G0xx_HAL_Driver/Src/stm32g0xx_ll_usb.c ****   /* Force Reset */
 188:Drivers/STM32G0xx_HAL_Driver/Src/stm32g0xx_ll_usb.c ****   USBx->CNTR = USB_CNTR_USBRST;
 259              		.loc 1 188 3 view .LVU55
 260              		.loc 1 188 14 is_stmt 0 view .LVU56
 261 000c 0122     		movs	r2, #1
 262 000e 0264     		str	r2, [r0, #64]
 189:Drivers/STM32G0xx_HAL_Driver/Src/stm32g0xx_ll_usb.c **** 
 190:Drivers/STM32G0xx_HAL_Driver/Src/stm32g0xx_ll_usb.c ****   /* Release Reset */
 191:Drivers/STM32G0xx_HAL_Driver/Src/stm32g0xx_ll_usb.c ****   USBx->CNTR &= ~USB_CNTR_USBRST;
 263              		.loc 1 191 3 is_stmt 1 view .LVU57
 264              		.loc 1 191 7 is_stmt 0 view .LVU58
 265 0010 036C     		ldr	r3, [r0, #64]
 266              		.loc 1 191 14 view .LVU59
 267 0012 9343     		bics	r3, r2
 268 0014 0364     		str	r3, [r0, #64]
 192:Drivers/STM32G0xx_HAL_Driver/Src/stm32g0xx_ll_usb.c **** 
 193:Drivers/STM32G0xx_HAL_Driver/Src/stm32g0xx_ll_usb.c ****   /* Set the Device Mode */
 194:Drivers/STM32G0xx_HAL_Driver/Src/stm32g0xx_ll_usb.c ****   (void)USB_SetCurrentMode(USBx, USB_DEVICE_MODE);
 269              		.loc 1 194 3 is_stmt 1 view .LVU60
 270              		.loc 1 194 9 is_stmt 0 view .LVU61
ARM GAS  /tmp/ccQCrB9j.s 			page 9


 271 0016 0021     		movs	r1, #0
 272 0018 FFF7FEFF 		bl	USB_SetCurrentMode
 273              	.LVL14:
 195:Drivers/STM32G0xx_HAL_Driver/Src/stm32g0xx_ll_usb.c **** 
 196:Drivers/STM32G0xx_HAL_Driver/Src/stm32g0xx_ll_usb.c ****   /* Clear pending interrupts */
 197:Drivers/STM32G0xx_HAL_Driver/Src/stm32g0xx_ll_usb.c ****   USBx->ISTR = 0U;
 274              		.loc 1 197 3 is_stmt 1 view .LVU62
 275              		.loc 1 197 14 is_stmt 0 view .LVU63
 276 001c 0023     		movs	r3, #0
 277 001e 6364     		str	r3, [r4, #68]
 198:Drivers/STM32G0xx_HAL_Driver/Src/stm32g0xx_ll_usb.c **** 
 199:Drivers/STM32G0xx_HAL_Driver/Src/stm32g0xx_ll_usb.c ****   return HAL_OK;
 278              		.loc 1 199 3 is_stmt 1 view .LVU64
 200:Drivers/STM32G0xx_HAL_Driver/Src/stm32g0xx_ll_usb.c **** }
 279              		.loc 1 200 1 is_stmt 0 view .LVU65
 280 0020 0020     		movs	r0, #0
 281              		@ sp needed
 282              	.LVL15:
 283              		.loc 1 200 1 view .LVU66
 284 0022 10BC     		pop	{r4}
 285 0024 08BC     		pop	{r3}
 286 0026 04B0     		add	sp, sp, #16
 287 0028 1847     		bx	r3
 288              		.cfi_endproc
 289              	.LFE371:
 291              		.section	.text.USB_ActivateEndpoint,"ax",%progbits
 292              		.align	1
 293              		.global	USB_ActivateEndpoint
 294              		.syntax unified
 295              		.code	16
 296              		.thumb_func
 298              	USB_ActivateEndpoint:
 299              	.LVL16:
 300              	.LFB372:
 201:Drivers/STM32G0xx_HAL_Driver/Src/stm32g0xx_ll_usb.c **** 
 202:Drivers/STM32G0xx_HAL_Driver/Src/stm32g0xx_ll_usb.c **** #if defined (HAL_PCD_MODULE_ENABLED)
 203:Drivers/STM32G0xx_HAL_Driver/Src/stm32g0xx_ll_usb.c **** /**
 204:Drivers/STM32G0xx_HAL_Driver/Src/stm32g0xx_ll_usb.c ****   * @brief  Activate and configure an endpoint
 205:Drivers/STM32G0xx_HAL_Driver/Src/stm32g0xx_ll_usb.c ****   * @param  USBx Selected device
 206:Drivers/STM32G0xx_HAL_Driver/Src/stm32g0xx_ll_usb.c ****   * @param  ep pointer to endpoint structure
 207:Drivers/STM32G0xx_HAL_Driver/Src/stm32g0xx_ll_usb.c ****   * @retval HAL status
 208:Drivers/STM32G0xx_HAL_Driver/Src/stm32g0xx_ll_usb.c ****   */
 209:Drivers/STM32G0xx_HAL_Driver/Src/stm32g0xx_ll_usb.c **** HAL_StatusTypeDef USB_ActivateEndpoint(USB_DRD_TypeDef *USBx, USB_DRD_EPTypeDef *ep)
 210:Drivers/STM32G0xx_HAL_Driver/Src/stm32g0xx_ll_usb.c **** {
 301              		.loc 1 210 1 is_stmt 1 view -0
 302              		.cfi_startproc
 303              		@ args = 0, pretend = 0, frame = 0
 304              		@ frame_needed = 0, uses_anonymous_args = 0
 305              		.loc 1 210 1 is_stmt 0 view .LVU68
 306 0000 F0B5     		push	{r4, r5, r6, r7, lr}
 307              	.LCFI4:
 308              		.cfi_def_cfa_offset 20
 309              		.cfi_offset 4, -20
 310              		.cfi_offset 5, -16
 311              		.cfi_offset 6, -12
 312              		.cfi_offset 7, -8
 313              		.cfi_offset 14, -4
ARM GAS  /tmp/ccQCrB9j.s 			page 10


 314 0002 0300     		movs	r3, r0
 211:Drivers/STM32G0xx_HAL_Driver/Src/stm32g0xx_ll_usb.c ****   HAL_StatusTypeDef ret = HAL_OK;
 315              		.loc 1 211 3 is_stmt 1 view .LVU69
 316              	.LVL17:
 212:Drivers/STM32G0xx_HAL_Driver/Src/stm32g0xx_ll_usb.c ****   uint32_t wEpRegVal;
 317              		.loc 1 212 3 view .LVU70
 213:Drivers/STM32G0xx_HAL_Driver/Src/stm32g0xx_ll_usb.c **** 
 214:Drivers/STM32G0xx_HAL_Driver/Src/stm32g0xx_ll_usb.c ****   wEpRegVal = PCD_GET_ENDPOINT(USBx, ep->num) & USB_EP_T_MASK;
 318              		.loc 1 214 3 view .LVU71
 319              		.loc 1 214 15 is_stmt 0 view .LVU72
 320 0004 0C78     		ldrb	r4, [r1]
 321 0006 A400     		lsls	r4, r4, #2
 322 0008 0419     		adds	r4, r0, r4
 323 000a 2268     		ldr	r2, [r4]
 324              		.loc 1 214 13 view .LVU73
 325 000c B848     		ldr	r0, .L51
 326              	.LVL18:
 327              		.loc 1 214 13 view .LVU74
 328 000e 0240     		ands	r2, r0
 329              	.LVL19:
 215:Drivers/STM32G0xx_HAL_Driver/Src/stm32g0xx_ll_usb.c **** 
 216:Drivers/STM32G0xx_HAL_Driver/Src/stm32g0xx_ll_usb.c ****   /* initialize Endpoint */
 217:Drivers/STM32G0xx_HAL_Driver/Src/stm32g0xx_ll_usb.c ****   switch (ep->type)
 330              		.loc 1 217 3 is_stmt 1 view .LVU75
 331              		.loc 1 217 13 is_stmt 0 view .LVU76
 332 0010 C878     		ldrb	r0, [r1, #3]
 333              		.loc 1 217 3 view .LVU77
 334 0012 0228     		cmp	r0, #2
 335 0014 56D0     		beq	.L39
 336 0016 0AD8     		bhi	.L15
 337 0018 0028     		cmp	r0, #0
 338 001a 4FD0     		beq	.L16
 339 001c 0128     		cmp	r0, #1
 340 001e 04D1     		bne	.L48
 218:Drivers/STM32G0xx_HAL_Driver/Src/stm32g0xx_ll_usb.c ****   {
 219:Drivers/STM32G0xx_HAL_Driver/Src/stm32g0xx_ll_usb.c ****     case EP_TYPE_CTRL:
 220:Drivers/STM32G0xx_HAL_Driver/Src/stm32g0xx_ll_usb.c ****       wEpRegVal |= USB_EP_CONTROL;
 221:Drivers/STM32G0xx_HAL_Driver/Src/stm32g0xx_ll_usb.c ****       break;
 222:Drivers/STM32G0xx_HAL_Driver/Src/stm32g0xx_ll_usb.c **** 
 223:Drivers/STM32G0xx_HAL_Driver/Src/stm32g0xx_ll_usb.c ****     case EP_TYPE_BULK:
 224:Drivers/STM32G0xx_HAL_Driver/Src/stm32g0xx_ll_usb.c ****       wEpRegVal |= USB_EP_BULK;
 225:Drivers/STM32G0xx_HAL_Driver/Src/stm32g0xx_ll_usb.c ****       break;
 226:Drivers/STM32G0xx_HAL_Driver/Src/stm32g0xx_ll_usb.c **** 
 227:Drivers/STM32G0xx_HAL_Driver/Src/stm32g0xx_ll_usb.c ****     case EP_TYPE_INTR:
 228:Drivers/STM32G0xx_HAL_Driver/Src/stm32g0xx_ll_usb.c ****       wEpRegVal |= USB_EP_INTERRUPT;
 229:Drivers/STM32G0xx_HAL_Driver/Src/stm32g0xx_ll_usb.c ****       break;
 230:Drivers/STM32G0xx_HAL_Driver/Src/stm32g0xx_ll_usb.c **** 
 231:Drivers/STM32G0xx_HAL_Driver/Src/stm32g0xx_ll_usb.c ****     case EP_TYPE_ISOC:
 232:Drivers/STM32G0xx_HAL_Driver/Src/stm32g0xx_ll_usb.c ****       wEpRegVal |= USB_EP_ISOCHRONOUS;
 341              		.loc 1 232 7 is_stmt 1 view .LVU78
 342              		.loc 1 232 17 is_stmt 0 view .LVU79
 343 0020 8020     		movs	r0, #128
 344 0022 C000     		lsls	r0, r0, #3
 345 0024 0243     		orrs	r2, r0
 346              	.LVL20:
 233:Drivers/STM32G0xx_HAL_Driver/Src/stm32g0xx_ll_usb.c ****       break;
 347              		.loc 1 233 7 is_stmt 1 view .LVU80
ARM GAS  /tmp/ccQCrB9j.s 			page 11


 211:Drivers/STM32G0xx_HAL_Driver/Src/stm32g0xx_ll_usb.c ****   uint32_t wEpRegVal;
 348              		.loc 1 211 21 is_stmt 0 view .LVU81
 349 0026 0020     		movs	r0, #0
 350              		.loc 1 233 7 view .LVU82
 351 0028 09E0     		b	.L14
 352              	.L48:
 234:Drivers/STM32G0xx_HAL_Driver/Src/stm32g0xx_ll_usb.c **** 
 235:Drivers/STM32G0xx_HAL_Driver/Src/stm32g0xx_ll_usb.c ****     default:
 236:Drivers/STM32G0xx_HAL_Driver/Src/stm32g0xx_ll_usb.c ****       ret = HAL_ERROR;
 353              		.loc 1 236 11 view .LVU83
 354 002a 0120     		movs	r0, #1
 355 002c 07E0     		b	.L14
 356              	.L15:
 217:Drivers/STM32G0xx_HAL_Driver/Src/stm32g0xx_ll_usb.c ****   {
 357              		.loc 1 217 3 view .LVU84
 358 002e 0328     		cmp	r0, #3
 359 0030 04D1     		bne	.L49
 228:Drivers/STM32G0xx_HAL_Driver/Src/stm32g0xx_ll_usb.c ****       break;
 360              		.loc 1 228 7 is_stmt 1 view .LVU85
 228:Drivers/STM32G0xx_HAL_Driver/Src/stm32g0xx_ll_usb.c ****       break;
 361              		.loc 1 228 17 is_stmt 0 view .LVU86
 362 0032 C020     		movs	r0, #192
 363 0034 C000     		lsls	r0, r0, #3
 364 0036 0243     		orrs	r2, r0
 365              	.LVL21:
 229:Drivers/STM32G0xx_HAL_Driver/Src/stm32g0xx_ll_usb.c **** 
 366              		.loc 1 229 7 is_stmt 1 view .LVU87
 211:Drivers/STM32G0xx_HAL_Driver/Src/stm32g0xx_ll_usb.c ****   uint32_t wEpRegVal;
 367              		.loc 1 211 21 is_stmt 0 view .LVU88
 368 0038 0020     		movs	r0, #0
 229:Drivers/STM32G0xx_HAL_Driver/Src/stm32g0xx_ll_usb.c **** 
 369              		.loc 1 229 7 view .LVU89
 370 003a 00E0     		b	.L14
 371              	.L49:
 372              		.loc 1 236 11 view .LVU90
 373 003c 0120     		movs	r0, #1
 374              	.L14:
 375              	.LVL22:
 237:Drivers/STM32G0xx_HAL_Driver/Src/stm32g0xx_ll_usb.c ****       break;
 238:Drivers/STM32G0xx_HAL_Driver/Src/stm32g0xx_ll_usb.c ****   }
 239:Drivers/STM32G0xx_HAL_Driver/Src/stm32g0xx_ll_usb.c **** 
 240:Drivers/STM32G0xx_HAL_Driver/Src/stm32g0xx_ll_usb.c ****   PCD_SET_ENDPOINT(USBx, ep->num, (wEpRegVal | USB_EP_VTRX | USB_EP_VTTX));
 376              		.loc 1 240 3 is_stmt 1 view .LVU91
 377 003e AD4D     		ldr	r5, .L51+4
 378 0040 2A43     		orrs	r2, r5
 379              	.LVL23:
 380              		.loc 1 240 3 is_stmt 0 view .LVU92
 381 0042 2260     		str	r2, [r4]
 241:Drivers/STM32G0xx_HAL_Driver/Src/stm32g0xx_ll_usb.c **** 
 242:Drivers/STM32G0xx_HAL_Driver/Src/stm32g0xx_ll_usb.c ****   PCD_SET_EP_ADDRESS(USBx, ep->num, ep->num);
 382              		.loc 1 242 3 is_stmt 1 view .LVU93
 383              	.LBB2:
 384              		.loc 1 242 3 view .LVU94
 385              		.loc 1 242 3 view .LVU95
 386 0044 0C78     		ldrb	r4, [r1]
 387 0046 A200     		lsls	r2, r4, #2
 388 0048 9A18     		adds	r2, r3, r2
ARM GAS  /tmp/ccQCrB9j.s 			page 12


 389 004a 1668     		ldr	r6, [r2]
 390 004c AA4F     		ldr	r7, .L51+8
 391 004e 3E40     		ands	r6, r7
 392 0050 3443     		orrs	r4, r6
 393              	.LVL24:
 394              		.loc 1 242 3 view .LVU96
 395 0052 2543     		orrs	r5, r4
 396 0054 1560     		str	r5, [r2]
 397              	.LBE2:
 398              		.loc 1 242 3 view .LVU97
 243:Drivers/STM32G0xx_HAL_Driver/Src/stm32g0xx_ll_usb.c **** 
 244:Drivers/STM32G0xx_HAL_Driver/Src/stm32g0xx_ll_usb.c ****   if (ep->doublebuffer == 0U)
 399              		.loc 1 244 3 view .LVU98
 400              		.loc 1 244 9 is_stmt 0 view .LVU99
 401 0056 8A7A     		ldrb	r2, [r1, #10]
 402              		.loc 1 244 6 view .LVU100
 403 0058 002A     		cmp	r2, #0
 404 005a 00D0     		beq	.LCB302
 405 005c A5E0     		b	.L19	@long jump
 406              	.LCB302:
 245:Drivers/STM32G0xx_HAL_Driver/Src/stm32g0xx_ll_usb.c ****   {
 246:Drivers/STM32G0xx_HAL_Driver/Src/stm32g0xx_ll_usb.c ****     if (ep->is_in != 0U)
 407              		.loc 1 246 5 is_stmt 1 view .LVU101
 408              		.loc 1 246 11 is_stmt 0 view .LVU102
 409 005e 4A78     		ldrb	r2, [r1, #1]
 410              		.loc 1 246 8 view .LVU103
 411 0060 002A     		cmp	r2, #0
 412 0062 3BD0     		beq	.L20
 247:Drivers/STM32G0xx_HAL_Driver/Src/stm32g0xx_ll_usb.c ****     {
 248:Drivers/STM32G0xx_HAL_Driver/Src/stm32g0xx_ll_usb.c ****       /*Set the endpoint Transmit buffer address */
 249:Drivers/STM32G0xx_HAL_Driver/Src/stm32g0xx_ll_usb.c ****       PCD_SET_EP_TX_ADDRESS(USBx, ep->num, ep->pmaadress);
 413              		.loc 1 249 7 is_stmt 1 view .LVU104
 414              		.loc 1 249 7 view .LVU105
 415 0064 0A78     		ldrb	r2, [r1]
 416 0066 D200     		lsls	r2, r2, #3
 417 0068 A44C     		ldr	r4, .L51+12
 418              	.LVL25:
 419              		.loc 1 249 7 is_stmt 0 view .LVU106
 420 006a A446     		mov	ip, r4
 421 006c 6244     		add	r2, r2, ip
 422 006e 1468     		ldr	r4, [r2]
 423 0070 240C     		lsrs	r4, r4, #16
 424 0072 2404     		lsls	r4, r4, #16
 425 0074 1460     		str	r4, [r2]
 426              		.loc 1 249 7 is_stmt 1 view .LVU107
 427 0076 0A78     		ldrb	r2, [r1]
 428 0078 D200     		lsls	r2, r2, #3
 429 007a 6244     		add	r2, r2, ip
 430 007c 1568     		ldr	r5, [r2]
 431 007e 8C88     		ldrh	r4, [r1, #4]
 432 0080 A408     		lsrs	r4, r4, #2
 433 0082 A400     		lsls	r4, r4, #2
 434 0084 2C43     		orrs	r4, r5
 435 0086 1460     		str	r4, [r2]
 436              		.loc 1 249 7 view .LVU108
 250:Drivers/STM32G0xx_HAL_Driver/Src/stm32g0xx_ll_usb.c ****       PCD_CLEAR_TX_DTOG(USBx, ep->num);
 437              		.loc 1 250 7 view .LVU109
ARM GAS  /tmp/ccQCrB9j.s 			page 13


 438              	.LBB3:
 439              		.loc 1 250 7 view .LVU110
 440              		.loc 1 250 7 view .LVU111
 441 0088 0A78     		ldrb	r2, [r1]
 442 008a 9200     		lsls	r2, r2, #2
 443 008c 9A18     		adds	r2, r3, r2
 444 008e 1468     		ldr	r4, [r2]
 445              	.LVL26:
 446              		.loc 1 250 7 view .LVU112
 447 0090 6406     		lsls	r4, r4, #25
 448 0092 04D5     		bpl	.L21
 449              	.LVL27:
 450              		.loc 1 250 7 discriminator 1 view .LVU113
 451              	.LBB4:
 452              		.loc 1 250 7 discriminator 1 view .LVU114
 453              		.loc 1 250 7 discriminator 1 view .LVU115
 454 0094 1568     		ldr	r5, [r2]
 455 0096 3D40     		ands	r5, r7
 456              	.LVL28:
 457              		.loc 1 250 7 discriminator 1 view .LVU116
 458 0098 994C     		ldr	r4, .L51+16
 459 009a 2C43     		orrs	r4, r5
 460 009c 1460     		str	r4, [r2]
 461              	.LVL29:
 462              	.L21:
 463              		.loc 1 250 7 is_stmt 0 discriminator 1 view .LVU117
 464              	.LBE4:
 465              		.loc 1 250 7 is_stmt 1 discriminator 3 view .LVU118
 466              	.LBE3:
 467              		.loc 1 250 7 discriminator 3 view .LVU119
 251:Drivers/STM32G0xx_HAL_Driver/Src/stm32g0xx_ll_usb.c **** 
 252:Drivers/STM32G0xx_HAL_Driver/Src/stm32g0xx_ll_usb.c ****       if (ep->type != EP_TYPE_ISOC)
 468              		.loc 1 252 7 discriminator 3 view .LVU120
 469              		.loc 1 252 13 is_stmt 0 discriminator 3 view .LVU121
 470 009e CA78     		ldrb	r2, [r1, #3]
 471              		.loc 1 252 10 discriminator 3 view .LVU122
 472 00a0 012A     		cmp	r2, #1
 473 00a2 11D0     		beq	.L22
 253:Drivers/STM32G0xx_HAL_Driver/Src/stm32g0xx_ll_usb.c ****       {
 254:Drivers/STM32G0xx_HAL_Driver/Src/stm32g0xx_ll_usb.c ****         /* Configure NAK status for the Endpoint */
 255:Drivers/STM32G0xx_HAL_Driver/Src/stm32g0xx_ll_usb.c ****         PCD_SET_EP_TX_STATUS(USBx, ep->num, USB_EP_TX_NAK);
 474              		.loc 1 255 9 is_stmt 1 view .LVU123
 475              	.LBB5:
 476              		.loc 1 255 9 view .LVU124
 477              		.loc 1 255 9 view .LVU125
 478 00a4 0A78     		ldrb	r2, [r1]
 479 00a6 9200     		lsls	r2, r2, #2
 480 00a8 9B18     		adds	r3, r3, r2
 481              	.LVL30:
 482              		.loc 1 255 9 is_stmt 0 view .LVU126
 483 00aa 1A68     		ldr	r2, [r3]
 484 00ac 9549     		ldr	r1, .L51+20
 485              	.LVL31:
 486              		.loc 1 255 9 view .LVU127
 487 00ae 0A40     		ands	r2, r1
 488              	.LVL32:
 489              		.loc 1 255 9 is_stmt 1 view .LVU128
ARM GAS  /tmp/ccQCrB9j.s 			page 14


 490              		.loc 1 255 9 view .LVU129
 491              		.loc 1 255 9 view .LVU130
 492 00b0 2021     		movs	r1, #32
 493 00b2 4A40     		eors	r2, r1
 494              	.LVL33:
 495              		.loc 1 255 9 view .LVU131
 496 00b4 8F49     		ldr	r1, .L51+4
 497 00b6 0A43     		orrs	r2, r1
 498              	.LVL34:
 499              		.loc 1 255 9 is_stmt 0 view .LVU132
 500 00b8 1A60     		str	r2, [r3]
 501              	.LBE5:
 502              		.loc 1 255 9 is_stmt 1 view .LVU133
 503 00ba 53E0     		b	.L23
 504              	.LVL35:
 505              	.L16:
 220:Drivers/STM32G0xx_HAL_Driver/Src/stm32g0xx_ll_usb.c ****       break;
 506              		.loc 1 220 7 view .LVU134
 220:Drivers/STM32G0xx_HAL_Driver/Src/stm32g0xx_ll_usb.c ****       break;
 507              		.loc 1 220 17 is_stmt 0 view .LVU135
 508 00bc 8025     		movs	r5, #128
 509 00be AD00     		lsls	r5, r5, #2
 510 00c0 2A43     		orrs	r2, r5
 511              	.LVL36:
 221:Drivers/STM32G0xx_HAL_Driver/Src/stm32g0xx_ll_usb.c **** 
 512              		.loc 1 221 7 is_stmt 1 view .LVU136
 513 00c2 BCE7     		b	.L14
 514              	.L39:
 217:Drivers/STM32G0xx_HAL_Driver/Src/stm32g0xx_ll_usb.c ****   {
 515              		.loc 1 217 3 is_stmt 0 view .LVU137
 516 00c4 0020     		movs	r0, #0
 517 00c6 BAE7     		b	.L14
 518              	.LVL37:
 519              	.L22:
 256:Drivers/STM32G0xx_HAL_Driver/Src/stm32g0xx_ll_usb.c ****       }
 257:Drivers/STM32G0xx_HAL_Driver/Src/stm32g0xx_ll_usb.c ****       else
 258:Drivers/STM32G0xx_HAL_Driver/Src/stm32g0xx_ll_usb.c ****       {
 259:Drivers/STM32G0xx_HAL_Driver/Src/stm32g0xx_ll_usb.c ****         /* Configure TX Endpoint to disabled state */
 260:Drivers/STM32G0xx_HAL_Driver/Src/stm32g0xx_ll_usb.c ****         PCD_SET_EP_TX_STATUS(USBx, ep->num, USB_EP_TX_DIS);
 520              		.loc 1 260 9 is_stmt 1 view .LVU138
 521              	.LBB6:
 522              		.loc 1 260 9 view .LVU139
 523              		.loc 1 260 9 view .LVU140
 524 00c8 0A78     		ldrb	r2, [r1]
 525 00ca 9200     		lsls	r2, r2, #2
 526 00cc 9B18     		adds	r3, r3, r2
 527              	.LVL38:
 528              		.loc 1 260 9 is_stmt 0 view .LVU141
 529 00ce 1968     		ldr	r1, [r3]
 530              	.LVL39:
 531              		.loc 1 260 9 view .LVU142
 532 00d0 8C4A     		ldr	r2, .L51+20
 533 00d2 1140     		ands	r1, r2
 534              	.LVL40:
 535              		.loc 1 260 9 is_stmt 1 view .LVU143
 536              		.loc 1 260 9 view .LVU144
 537              		.loc 1 260 9 view .LVU145
ARM GAS  /tmp/ccQCrB9j.s 			page 15


 538 00d4 874A     		ldr	r2, .L51+4
 539 00d6 0A43     		orrs	r2, r1
 540 00d8 1A60     		str	r2, [r3]
 541 00da 43E0     		b	.L23
 542              	.LVL41:
 543              	.L20:
 544              		.loc 1 260 9 is_stmt 0 view .LVU146
 545              	.LBE6:
 261:Drivers/STM32G0xx_HAL_Driver/Src/stm32g0xx_ll_usb.c ****       }
 262:Drivers/STM32G0xx_HAL_Driver/Src/stm32g0xx_ll_usb.c ****     }
 263:Drivers/STM32G0xx_HAL_Driver/Src/stm32g0xx_ll_usb.c ****     else
 264:Drivers/STM32G0xx_HAL_Driver/Src/stm32g0xx_ll_usb.c ****     {
 265:Drivers/STM32G0xx_HAL_Driver/Src/stm32g0xx_ll_usb.c ****       /* Set the endpoint Receive buffer address */
 266:Drivers/STM32G0xx_HAL_Driver/Src/stm32g0xx_ll_usb.c ****       PCD_SET_EP_RX_ADDRESS(USBx, ep->num, ep->pmaadress);
 546              		.loc 1 266 7 is_stmt 1 view .LVU147
 547              		.loc 1 266 7 view .LVU148
 548 00dc 0A78     		ldrb	r2, [r1]
 549 00de D200     		lsls	r2, r2, #3
 550 00e0 864C     		ldr	r4, .L51+12
 551              	.LVL42:
 552              		.loc 1 266 7 is_stmt 0 view .LVU149
 553 00e2 A446     		mov	ip, r4
 554 00e4 6244     		add	r2, r2, ip
 555 00e6 5468     		ldr	r4, [r2, #4]
 556 00e8 240C     		lsrs	r4, r4, #16
 557 00ea 2404     		lsls	r4, r4, #16
 558 00ec 5460     		str	r4, [r2, #4]
 559              		.loc 1 266 7 is_stmt 1 view .LVU150
 560 00ee 0A78     		ldrb	r2, [r1]
 561 00f0 D200     		lsls	r2, r2, #3
 562 00f2 6244     		add	r2, r2, ip
 563 00f4 5568     		ldr	r5, [r2, #4]
 564 00f6 8C88     		ldrh	r4, [r1, #4]
 565 00f8 A408     		lsrs	r4, r4, #2
 566 00fa A400     		lsls	r4, r4, #2
 567 00fc 2C43     		orrs	r4, r5
 568 00fe 5460     		str	r4, [r2, #4]
 569              		.loc 1 266 7 view .LVU151
 267:Drivers/STM32G0xx_HAL_Driver/Src/stm32g0xx_ll_usb.c **** 
 268:Drivers/STM32G0xx_HAL_Driver/Src/stm32g0xx_ll_usb.c ****       /* Set the endpoint Receive buffer counter */
 269:Drivers/STM32G0xx_HAL_Driver/Src/stm32g0xx_ll_usb.c ****       PCD_SET_EP_RX_CNT(USBx, ep->num, ep->maxpacket);
 570              		.loc 1 269 7 view .LVU152
 571              	.LBB7:
 572              		.loc 1 269 7 view .LVU153
 573              		.loc 1 269 7 view .LVU154
 574 0100 0A78     		ldrb	r2, [r1]
 575 0102 D200     		lsls	r2, r2, #3
 576 0104 6244     		add	r2, r2, ip
 577 0106 5468     		ldr	r4, [r2, #4]
 578 0108 2404     		lsls	r4, r4, #16
 579 010a 240C     		lsrs	r4, r4, #16
 580 010c 5460     		str	r4, [r2, #4]
 581              		.loc 1 269 7 view .LVU155
 582 010e 0A69     		ldr	r2, [r1, #16]
 583 0110 3E2A     		cmp	r2, #62
 584 0112 28D9     		bls	.L24
 585              		.loc 1 269 7 discriminator 1 view .LVU156
ARM GAS  /tmp/ccQCrB9j.s 			page 16


 586              		.loc 1 269 7 discriminator 1 view .LVU157
 587 0114 5409     		lsrs	r4, r2, #5
 588              	.LVL43:
 589              		.loc 1 269 7 discriminator 1 view .LVU158
 590 0116 D206     		lsls	r2, r2, #27
 591 0118 00D1     		bne	.L25
 592              		.loc 1 269 7 discriminator 3 view .LVU159
 593 011a 013C     		subs	r4, r4, #1
 594              	.LVL44:
 595              	.L25:
 596              		.loc 1 269 7 discriminator 5 view .LVU160
 597 011c 0A78     		ldrb	r2, [r1]
 598 011e D200     		lsls	r2, r2, #3
 599 0120 764D     		ldr	r5, .L51+12
 600 0122 AC46     		mov	ip, r5
 601 0124 6244     		add	r2, r2, ip
 602 0126 5568     		ldr	r5, [r2, #4]
 603 0128 A406     		lsls	r4, r4, #26
 604              	.LVL45:
 605              		.loc 1 269 7 is_stmt 0 discriminator 5 view .LVU161
 606 012a 2543     		orrs	r5, r4
 607 012c 8024     		movs	r4, #128
 608 012e 2406     		lsls	r4, r4, #24
 609 0130 2C43     		orrs	r4, r5
 610 0132 5460     		str	r4, [r2, #4]
 611              		.loc 1 269 7 is_stmt 1 discriminator 5 view .LVU162
 612              	.LVL46:
 613              	.L26:
 614              		.loc 1 269 7 discriminator 13 view .LVU163
 615              	.LBE7:
 616              		.loc 1 269 7 discriminator 13 view .LVU164
 270:Drivers/STM32G0xx_HAL_Driver/Src/stm32g0xx_ll_usb.c ****       PCD_CLEAR_RX_DTOG(USBx, ep->num);
 617              		.loc 1 270 7 discriminator 13 view .LVU165
 618              	.LBB8:
 619              		.loc 1 270 7 discriminator 13 view .LVU166
 620              		.loc 1 270 7 discriminator 13 view .LVU167
 621 0134 0A78     		ldrb	r2, [r1]
 622 0136 9200     		lsls	r2, r2, #2
 623 0138 9A18     		adds	r2, r3, r2
 624 013a 1468     		ldr	r4, [r2]
 625              	.LVL47:
 626              		.loc 1 270 7 discriminator 13 view .LVU168
 627 013c 6404     		lsls	r4, r4, #17
 628 013e 05D5     		bpl	.L29
 629              	.LVL48:
 630              		.loc 1 270 7 discriminator 1 view .LVU169
 631              	.LBB9:
 632              		.loc 1 270 7 discriminator 1 view .LVU170
 633              		.loc 1 270 7 discriminator 1 view .LVU171
 634 0140 1568     		ldr	r5, [r2]
 635 0142 6D4C     		ldr	r4, .L51+8
 636 0144 2540     		ands	r5, r4
 637              	.LVL49:
 638              		.loc 1 270 7 discriminator 1 view .LVU172
 639 0146 704C     		ldr	r4, .L51+24
 640 0148 2C43     		orrs	r4, r5
 641 014a 1460     		str	r4, [r2]
ARM GAS  /tmp/ccQCrB9j.s 			page 17


 642              	.LVL50:
 643              	.L29:
 644              		.loc 1 270 7 is_stmt 0 discriminator 1 view .LVU173
 645              	.LBE9:
 646              		.loc 1 270 7 is_stmt 1 discriminator 3 view .LVU174
 647              	.LBE8:
 648              		.loc 1 270 7 discriminator 3 view .LVU175
 271:Drivers/STM32G0xx_HAL_Driver/Src/stm32g0xx_ll_usb.c **** 
 272:Drivers/STM32G0xx_HAL_Driver/Src/stm32g0xx_ll_usb.c ****       /* Configure VALID status for the Endpoint */
 273:Drivers/STM32G0xx_HAL_Driver/Src/stm32g0xx_ll_usb.c ****       PCD_SET_EP_RX_STATUS(USBx, ep->num, USB_EP_RX_VALID);
 649              		.loc 1 273 7 discriminator 3 view .LVU176
 650              	.LBB10:
 651              		.loc 1 273 7 discriminator 3 view .LVU177
 652              		.loc 1 273 7 discriminator 3 view .LVU178
 653 014c 0A78     		ldrb	r2, [r1]
 654 014e 9200     		lsls	r2, r2, #2
 655 0150 9B18     		adds	r3, r3, r2
 656              	.LVL51:
 657              		.loc 1 273 7 is_stmt 0 discriminator 3 view .LVU179
 658 0152 1A68     		ldr	r2, [r3]
 659 0154 6D49     		ldr	r1, .L51+28
 660              	.LVL52:
 661              		.loc 1 273 7 discriminator 3 view .LVU180
 662 0156 0A40     		ands	r2, r1
 663              	.LVL53:
 664              		.loc 1 273 7 is_stmt 1 discriminator 3 view .LVU181
 665              		.loc 1 273 7 discriminator 3 view .LVU182
 666              		.loc 1 273 7 discriminator 3 view .LVU183
 667              		.loc 1 273 7 discriminator 3 view .LVU184
 668 0158 C021     		movs	r1, #192
 669 015a 8901     		lsls	r1, r1, #6
 670 015c 5140     		eors	r1, r2
 671              	.LVL54:
 672              		.loc 1 273 7 discriminator 3 view .LVU185
 673 015e 654A     		ldr	r2, .L51+4
 674 0160 0A43     		orrs	r2, r1
 675 0162 1A60     		str	r2, [r3]
 676              	.LVL55:
 677              	.L23:
 678              		.loc 1 273 7 is_stmt 0 discriminator 3 view .LVU186
 679              	.LBE10:
 274:Drivers/STM32G0xx_HAL_Driver/Src/stm32g0xx_ll_usb.c ****     }
 275:Drivers/STM32G0xx_HAL_Driver/Src/stm32g0xx_ll_usb.c ****   }
 276:Drivers/STM32G0xx_HAL_Driver/Src/stm32g0xx_ll_usb.c **** #if (USE_USB_DOUBLE_BUFFER == 1U)
 277:Drivers/STM32G0xx_HAL_Driver/Src/stm32g0xx_ll_usb.c ****   /* Double Buffer */
 278:Drivers/STM32G0xx_HAL_Driver/Src/stm32g0xx_ll_usb.c ****   else
 279:Drivers/STM32G0xx_HAL_Driver/Src/stm32g0xx_ll_usb.c ****   {
 280:Drivers/STM32G0xx_HAL_Driver/Src/stm32g0xx_ll_usb.c ****     if (ep->type == EP_TYPE_BULK)
 281:Drivers/STM32G0xx_HAL_Driver/Src/stm32g0xx_ll_usb.c ****     {
 282:Drivers/STM32G0xx_HAL_Driver/Src/stm32g0xx_ll_usb.c ****       /* Set bulk endpoint as double buffered */
 283:Drivers/STM32G0xx_HAL_Driver/Src/stm32g0xx_ll_usb.c ****       PCD_SET_BULK_EP_DBUF(USBx, ep->num);
 284:Drivers/STM32G0xx_HAL_Driver/Src/stm32g0xx_ll_usb.c ****     }
 285:Drivers/STM32G0xx_HAL_Driver/Src/stm32g0xx_ll_usb.c ****     else
 286:Drivers/STM32G0xx_HAL_Driver/Src/stm32g0xx_ll_usb.c ****     {
 287:Drivers/STM32G0xx_HAL_Driver/Src/stm32g0xx_ll_usb.c ****       /* Set the ISOC endpoint in double buffer mode */
 288:Drivers/STM32G0xx_HAL_Driver/Src/stm32g0xx_ll_usb.c ****       PCD_CLEAR_EP_KIND(USBx, ep->num);
 289:Drivers/STM32G0xx_HAL_Driver/Src/stm32g0xx_ll_usb.c ****     }
ARM GAS  /tmp/ccQCrB9j.s 			page 18


 290:Drivers/STM32G0xx_HAL_Driver/Src/stm32g0xx_ll_usb.c **** 
 291:Drivers/STM32G0xx_HAL_Driver/Src/stm32g0xx_ll_usb.c ****     /* Set buffer address for double buffered mode */
 292:Drivers/STM32G0xx_HAL_Driver/Src/stm32g0xx_ll_usb.c ****     PCD_SET_EP_DBUF_ADDR(USBx, ep->num, ep->pmaaddr0, ep->pmaaddr1);
 293:Drivers/STM32G0xx_HAL_Driver/Src/stm32g0xx_ll_usb.c **** 
 294:Drivers/STM32G0xx_HAL_Driver/Src/stm32g0xx_ll_usb.c ****     if (ep->is_in == 0U)
 295:Drivers/STM32G0xx_HAL_Driver/Src/stm32g0xx_ll_usb.c ****     {
 296:Drivers/STM32G0xx_HAL_Driver/Src/stm32g0xx_ll_usb.c ****       /* Clear the data toggle bits for the endpoint IN/OUT */
 297:Drivers/STM32G0xx_HAL_Driver/Src/stm32g0xx_ll_usb.c ****       PCD_CLEAR_RX_DTOG(USBx, ep->num);
 298:Drivers/STM32G0xx_HAL_Driver/Src/stm32g0xx_ll_usb.c ****       PCD_CLEAR_TX_DTOG(USBx, ep->num);
 299:Drivers/STM32G0xx_HAL_Driver/Src/stm32g0xx_ll_usb.c **** 
 300:Drivers/STM32G0xx_HAL_Driver/Src/stm32g0xx_ll_usb.c ****       PCD_SET_EP_RX_STATUS(USBx, ep->num, USB_EP_RX_VALID);
 301:Drivers/STM32G0xx_HAL_Driver/Src/stm32g0xx_ll_usb.c ****       PCD_SET_EP_TX_STATUS(USBx, ep->num, USB_EP_TX_DIS);
 302:Drivers/STM32G0xx_HAL_Driver/Src/stm32g0xx_ll_usb.c ****     }
 303:Drivers/STM32G0xx_HAL_Driver/Src/stm32g0xx_ll_usb.c ****     else
 304:Drivers/STM32G0xx_HAL_Driver/Src/stm32g0xx_ll_usb.c ****     {
 305:Drivers/STM32G0xx_HAL_Driver/Src/stm32g0xx_ll_usb.c ****       /* Clear the data toggle bits for the endpoint IN/OUT */
 306:Drivers/STM32G0xx_HAL_Driver/Src/stm32g0xx_ll_usb.c ****       PCD_CLEAR_RX_DTOG(USBx, ep->num);
 307:Drivers/STM32G0xx_HAL_Driver/Src/stm32g0xx_ll_usb.c ****       PCD_CLEAR_TX_DTOG(USBx, ep->num);
 308:Drivers/STM32G0xx_HAL_Driver/Src/stm32g0xx_ll_usb.c **** 
 309:Drivers/STM32G0xx_HAL_Driver/Src/stm32g0xx_ll_usb.c ****       if (ep->type != EP_TYPE_ISOC)
 310:Drivers/STM32G0xx_HAL_Driver/Src/stm32g0xx_ll_usb.c ****       {
 311:Drivers/STM32G0xx_HAL_Driver/Src/stm32g0xx_ll_usb.c ****         /* Configure NAK status for the Endpoint */
 312:Drivers/STM32G0xx_HAL_Driver/Src/stm32g0xx_ll_usb.c ****         PCD_SET_EP_TX_STATUS(USBx, ep->num, USB_EP_TX_NAK);
 313:Drivers/STM32G0xx_HAL_Driver/Src/stm32g0xx_ll_usb.c ****       }
 314:Drivers/STM32G0xx_HAL_Driver/Src/stm32g0xx_ll_usb.c ****       else
 315:Drivers/STM32G0xx_HAL_Driver/Src/stm32g0xx_ll_usb.c ****       {
 316:Drivers/STM32G0xx_HAL_Driver/Src/stm32g0xx_ll_usb.c ****         /* Configure TX Endpoint to disabled state */
 317:Drivers/STM32G0xx_HAL_Driver/Src/stm32g0xx_ll_usb.c ****         PCD_SET_EP_TX_STATUS(USBx, ep->num, USB_EP_TX_DIS);
 318:Drivers/STM32G0xx_HAL_Driver/Src/stm32g0xx_ll_usb.c ****       }
 319:Drivers/STM32G0xx_HAL_Driver/Src/stm32g0xx_ll_usb.c **** 
 320:Drivers/STM32G0xx_HAL_Driver/Src/stm32g0xx_ll_usb.c ****       PCD_SET_EP_RX_STATUS(USBx, ep->num, USB_EP_RX_DIS);
 680              		.loc 1 320 7 is_stmt 1 discriminator 7 view .LVU187
 321:Drivers/STM32G0xx_HAL_Driver/Src/stm32g0xx_ll_usb.c ****     }
 322:Drivers/STM32G0xx_HAL_Driver/Src/stm32g0xx_ll_usb.c ****   }
 323:Drivers/STM32G0xx_HAL_Driver/Src/stm32g0xx_ll_usb.c **** #endif /* (USE_USB_DOUBLE_BUFFER == 1U) */
 324:Drivers/STM32G0xx_HAL_Driver/Src/stm32g0xx_ll_usb.c **** 
 325:Drivers/STM32G0xx_HAL_Driver/Src/stm32g0xx_ll_usb.c ****   return ret;
 681              		.loc 1 325 3 discriminator 7 view .LVU188
 326:Drivers/STM32G0xx_HAL_Driver/Src/stm32g0xx_ll_usb.c **** }
 682              		.loc 1 326 1 is_stmt 0 discriminator 7 view .LVU189
 683              		@ sp needed
 684 0164 F0BD     		pop	{r4, r5, r6, r7, pc}
 685              	.LVL56:
 686              	.L24:
 687              	.LBB11:
 269:Drivers/STM32G0xx_HAL_Driver/Src/stm32g0xx_ll_usb.c ****       PCD_CLEAR_RX_DTOG(USBx, ep->num);
 688              		.loc 1 269 7 is_stmt 1 discriminator 2 view .LVU190
 689 0166 002A     		cmp	r2, #0
 690 0168 11D1     		bne	.L27
 269:Drivers/STM32G0xx_HAL_Driver/Src/stm32g0xx_ll_usb.c ****       PCD_CLEAR_RX_DTOG(USBx, ep->num);
 691              		.loc 1 269 7 discriminator 7 view .LVU191
 692 016a 0A78     		ldrb	r2, [r1]
 693 016c D200     		lsls	r2, r2, #3
 694 016e 634C     		ldr	r4, .L51+12
 695 0170 A446     		mov	ip, r4
 696 0172 6244     		add	r2, r2, ip
 697 0174 5468     		ldr	r4, [r2, #4]
ARM GAS  /tmp/ccQCrB9j.s 			page 19


 698 0176 664D     		ldr	r5, .L51+32
 699 0178 2C40     		ands	r4, r5
 700 017a 5460     		str	r4, [r2, #4]
 269:Drivers/STM32G0xx_HAL_Driver/Src/stm32g0xx_ll_usb.c ****       PCD_CLEAR_RX_DTOG(USBx, ep->num);
 701              		.loc 1 269 7 discriminator 7 view .LVU192
 702 017c 0A78     		ldrb	r2, [r1]
 703 017e D200     		lsls	r2, r2, #3
 704 0180 6244     		add	r2, r2, ip
 705 0182 5568     		ldr	r5, [r2, #4]
 706 0184 8024     		movs	r4, #128
 707 0186 2406     		lsls	r4, r4, #24
 708 0188 2C43     		orrs	r4, r5
 709 018a 5460     		str	r4, [r2, #4]
 710 018c D2E7     		b	.L26
 711              	.L27:
 269:Drivers/STM32G0xx_HAL_Driver/Src/stm32g0xx_ll_usb.c ****       PCD_CLEAR_RX_DTOG(USBx, ep->num);
 712              		.loc 1 269 7 discriminator 8 view .LVU193
 269:Drivers/STM32G0xx_HAL_Driver/Src/stm32g0xx_ll_usb.c ****       PCD_CLEAR_RX_DTOG(USBx, ep->num);
 713              		.loc 1 269 7 discriminator 8 view .LVU194
 714 018e 5408     		lsrs	r4, r2, #1
 715              	.LVL57:
 269:Drivers/STM32G0xx_HAL_Driver/Src/stm32g0xx_ll_usb.c ****       PCD_CLEAR_RX_DTOG(USBx, ep->num);
 716              		.loc 1 269 7 discriminator 8 view .LVU195
 717 0190 D207     		lsls	r2, r2, #31
 718 0192 00D5     		bpl	.L28
 269:Drivers/STM32G0xx_HAL_Driver/Src/stm32g0xx_ll_usb.c ****       PCD_CLEAR_RX_DTOG(USBx, ep->num);
 719              		.loc 1 269 7 discriminator 10 view .LVU196
 720 0194 0134     		adds	r4, r4, #1
 721              	.LVL58:
 722              	.L28:
 269:Drivers/STM32G0xx_HAL_Driver/Src/stm32g0xx_ll_usb.c ****       PCD_CLEAR_RX_DTOG(USBx, ep->num);
 723              		.loc 1 269 7 discriminator 12 view .LVU197
 724 0196 0A78     		ldrb	r2, [r1]
 725 0198 D200     		lsls	r2, r2, #3
 726 019a 584D     		ldr	r5, .L51+12
 727 019c AC46     		mov	ip, r5
 728 019e 6244     		add	r2, r2, ip
 729 01a0 5568     		ldr	r5, [r2, #4]
 730 01a2 A406     		lsls	r4, r4, #26
 731              	.LVL59:
 269:Drivers/STM32G0xx_HAL_Driver/Src/stm32g0xx_ll_usb.c ****       PCD_CLEAR_RX_DTOG(USBx, ep->num);
 732              		.loc 1 269 7 is_stmt 0 discriminator 12 view .LVU198
 733 01a4 2C43     		orrs	r4, r5
 734 01a6 5460     		str	r4, [r2, #4]
 735 01a8 C4E7     		b	.L26
 736              	.LVL60:
 737              	.L19:
 269:Drivers/STM32G0xx_HAL_Driver/Src/stm32g0xx_ll_usb.c ****       PCD_CLEAR_RX_DTOG(USBx, ep->num);
 738              		.loc 1 269 7 discriminator 12 view .LVU199
 739              	.LBE11:
 280:Drivers/STM32G0xx_HAL_Driver/Src/stm32g0xx_ll_usb.c ****     {
 740              		.loc 1 280 5 is_stmt 1 view .LVU200
 280:Drivers/STM32G0xx_HAL_Driver/Src/stm32g0xx_ll_usb.c ****     {
 741              		.loc 1 280 11 is_stmt 0 view .LVU201
 742 01aa CA78     		ldrb	r2, [r1, #3]
 280:Drivers/STM32G0xx_HAL_Driver/Src/stm32g0xx_ll_usb.c ****     {
 743              		.loc 1 280 8 view .LVU202
ARM GAS  /tmp/ccQCrB9j.s 			page 20


 744 01ac 022A     		cmp	r2, #2
 745 01ae 5AD0     		beq	.L50
 288:Drivers/STM32G0xx_HAL_Driver/Src/stm32g0xx_ll_usb.c ****     }
 746              		.loc 1 288 7 is_stmt 1 view .LVU203
 747              	.LBB12:
 288:Drivers/STM32G0xx_HAL_Driver/Src/stm32g0xx_ll_usb.c ****     }
 748              		.loc 1 288 7 view .LVU204
 288:Drivers/STM32G0xx_HAL_Driver/Src/stm32g0xx_ll_usb.c ****     }
 749              		.loc 1 288 7 view .LVU205
 750 01b0 0A78     		ldrb	r2, [r1]
 751 01b2 9200     		lsls	r2, r2, #2
 752 01b4 9A18     		adds	r2, r3, r2
 753 01b6 1568     		ldr	r5, [r2]
 754 01b8 564C     		ldr	r4, .L51+36
 755              	.LVL61:
 288:Drivers/STM32G0xx_HAL_Driver/Src/stm32g0xx_ll_usb.c ****     }
 756              		.loc 1 288 7 is_stmt 0 view .LVU206
 757 01ba 2540     		ands	r5, r4
 758              	.LVL62:
 288:Drivers/STM32G0xx_HAL_Driver/Src/stm32g0xx_ll_usb.c ****     }
 759              		.loc 1 288 7 is_stmt 1 view .LVU207
 760 01bc 4D4C     		ldr	r4, .L51+4
 761 01be 2C43     		orrs	r4, r5
 762 01c0 1460     		str	r4, [r2]
 763              	.LVL63:
 764              	.L31:
 288:Drivers/STM32G0xx_HAL_Driver/Src/stm32g0xx_ll_usb.c ****     }
 765              		.loc 1 288 7 is_stmt 0 view .LVU208
 766              	.LBE12:
 288:Drivers/STM32G0xx_HAL_Driver/Src/stm32g0xx_ll_usb.c ****     }
 767              		.loc 1 288 7 is_stmt 1 discriminator 1 view .LVU209
 292:Drivers/STM32G0xx_HAL_Driver/Src/stm32g0xx_ll_usb.c **** 
 768              		.loc 1 292 5 discriminator 1 view .LVU210
 292:Drivers/STM32G0xx_HAL_Driver/Src/stm32g0xx_ll_usb.c **** 
 769              		.loc 1 292 5 discriminator 1 view .LVU211
 292:Drivers/STM32G0xx_HAL_Driver/Src/stm32g0xx_ll_usb.c **** 
 770              		.loc 1 292 5 discriminator 1 view .LVU212
 771 01c2 0A78     		ldrb	r2, [r1]
 772 01c4 D200     		lsls	r2, r2, #3
 773 01c6 4D4C     		ldr	r4, .L51+12
 774 01c8 A446     		mov	ip, r4
 775 01ca 6244     		add	r2, r2, ip
 776 01cc 1468     		ldr	r4, [r2]
 777 01ce 240C     		lsrs	r4, r4, #16
 778 01d0 2404     		lsls	r4, r4, #16
 779 01d2 1460     		str	r4, [r2]
 292:Drivers/STM32G0xx_HAL_Driver/Src/stm32g0xx_ll_usb.c **** 
 780              		.loc 1 292 5 discriminator 1 view .LVU213
 781 01d4 0A78     		ldrb	r2, [r1]
 782 01d6 D200     		lsls	r2, r2, #3
 783 01d8 6244     		add	r2, r2, ip
 784 01da 1568     		ldr	r5, [r2]
 785 01dc CC88     		ldrh	r4, [r1, #6]
 786 01de A408     		lsrs	r4, r4, #2
 787 01e0 A400     		lsls	r4, r4, #2
 788 01e2 2C43     		orrs	r4, r5
 789 01e4 1460     		str	r4, [r2]
ARM GAS  /tmp/ccQCrB9j.s 			page 21


 292:Drivers/STM32G0xx_HAL_Driver/Src/stm32g0xx_ll_usb.c **** 
 790              		.loc 1 292 5 discriminator 1 view .LVU214
 292:Drivers/STM32G0xx_HAL_Driver/Src/stm32g0xx_ll_usb.c **** 
 791              		.loc 1 292 5 discriminator 1 view .LVU215
 292:Drivers/STM32G0xx_HAL_Driver/Src/stm32g0xx_ll_usb.c **** 
 792              		.loc 1 292 5 discriminator 1 view .LVU216
 793 01e6 0A78     		ldrb	r2, [r1]
 794 01e8 D200     		lsls	r2, r2, #3
 795 01ea 6244     		add	r2, r2, ip
 796 01ec 5468     		ldr	r4, [r2, #4]
 797 01ee 240C     		lsrs	r4, r4, #16
 798 01f0 2404     		lsls	r4, r4, #16
 799 01f2 5460     		str	r4, [r2, #4]
 292:Drivers/STM32G0xx_HAL_Driver/Src/stm32g0xx_ll_usb.c **** 
 800              		.loc 1 292 5 discriminator 1 view .LVU217
 801 01f4 0A78     		ldrb	r2, [r1]
 802 01f6 D200     		lsls	r2, r2, #3
 803 01f8 6244     		add	r2, r2, ip
 804 01fa 5568     		ldr	r5, [r2, #4]
 805 01fc 0C89     		ldrh	r4, [r1, #8]
 806 01fe A408     		lsrs	r4, r4, #2
 807 0200 A400     		lsls	r4, r4, #2
 808 0202 2C43     		orrs	r4, r5
 809 0204 5460     		str	r4, [r2, #4]
 292:Drivers/STM32G0xx_HAL_Driver/Src/stm32g0xx_ll_usb.c **** 
 810              		.loc 1 292 5 discriminator 1 view .LVU218
 292:Drivers/STM32G0xx_HAL_Driver/Src/stm32g0xx_ll_usb.c **** 
 811              		.loc 1 292 5 discriminator 1 view .LVU219
 294:Drivers/STM32G0xx_HAL_Driver/Src/stm32g0xx_ll_usb.c ****     {
 812              		.loc 1 294 5 discriminator 1 view .LVU220
 294:Drivers/STM32G0xx_HAL_Driver/Src/stm32g0xx_ll_usb.c ****     {
 813              		.loc 1 294 11 is_stmt 0 discriminator 1 view .LVU221
 814 0206 4A78     		ldrb	r2, [r1, #1]
 294:Drivers/STM32G0xx_HAL_Driver/Src/stm32g0xx_ll_usb.c ****     {
 815              		.loc 1 294 8 discriminator 1 view .LVU222
 816 0208 002A     		cmp	r2, #0
 817 020a 36D1     		bne	.L32
 297:Drivers/STM32G0xx_HAL_Driver/Src/stm32g0xx_ll_usb.c ****       PCD_CLEAR_TX_DTOG(USBx, ep->num);
 818              		.loc 1 297 7 is_stmt 1 view .LVU223
 819              	.LBB13:
 297:Drivers/STM32G0xx_HAL_Driver/Src/stm32g0xx_ll_usb.c ****       PCD_CLEAR_TX_DTOG(USBx, ep->num);
 820              		.loc 1 297 7 view .LVU224
 297:Drivers/STM32G0xx_HAL_Driver/Src/stm32g0xx_ll_usb.c ****       PCD_CLEAR_TX_DTOG(USBx, ep->num);
 821              		.loc 1 297 7 view .LVU225
 822 020c 0A78     		ldrb	r2, [r1]
 823 020e 9200     		lsls	r2, r2, #2
 824 0210 9A18     		adds	r2, r3, r2
 825 0212 1468     		ldr	r4, [r2]
 826              	.LVL64:
 297:Drivers/STM32G0xx_HAL_Driver/Src/stm32g0xx_ll_usb.c ****       PCD_CLEAR_TX_DTOG(USBx, ep->num);
 827              		.loc 1 297 7 view .LVU226
 828 0214 6404     		lsls	r4, r4, #17
 829 0216 05D5     		bpl	.L33
 830              	.LVL65:
 297:Drivers/STM32G0xx_HAL_Driver/Src/stm32g0xx_ll_usb.c ****       PCD_CLEAR_TX_DTOG(USBx, ep->num);
 831              		.loc 1 297 7 discriminator 1 view .LVU227
 832              	.LBB14:
ARM GAS  /tmp/ccQCrB9j.s 			page 22


 297:Drivers/STM32G0xx_HAL_Driver/Src/stm32g0xx_ll_usb.c ****       PCD_CLEAR_TX_DTOG(USBx, ep->num);
 833              		.loc 1 297 7 discriminator 1 view .LVU228
 297:Drivers/STM32G0xx_HAL_Driver/Src/stm32g0xx_ll_usb.c ****       PCD_CLEAR_TX_DTOG(USBx, ep->num);
 834              		.loc 1 297 7 discriminator 1 view .LVU229
 835 0218 1568     		ldr	r5, [r2]
 836 021a 374C     		ldr	r4, .L51+8
 837 021c 2540     		ands	r5, r4
 838              	.LVL66:
 297:Drivers/STM32G0xx_HAL_Driver/Src/stm32g0xx_ll_usb.c ****       PCD_CLEAR_TX_DTOG(USBx, ep->num);
 839              		.loc 1 297 7 discriminator 1 view .LVU230
 840 021e 3A4C     		ldr	r4, .L51+24
 841 0220 2C43     		orrs	r4, r5
 842 0222 1460     		str	r4, [r2]
 843              	.LVL67:
 844              	.L33:
 297:Drivers/STM32G0xx_HAL_Driver/Src/stm32g0xx_ll_usb.c ****       PCD_CLEAR_TX_DTOG(USBx, ep->num);
 845              		.loc 1 297 7 is_stmt 0 discriminator 1 view .LVU231
 846              	.LBE14:
 297:Drivers/STM32G0xx_HAL_Driver/Src/stm32g0xx_ll_usb.c ****       PCD_CLEAR_TX_DTOG(USBx, ep->num);
 847              		.loc 1 297 7 is_stmt 1 discriminator 3 view .LVU232
 848              	.LBE13:
 297:Drivers/STM32G0xx_HAL_Driver/Src/stm32g0xx_ll_usb.c ****       PCD_CLEAR_TX_DTOG(USBx, ep->num);
 849              		.loc 1 297 7 discriminator 3 view .LVU233
 298:Drivers/STM32G0xx_HAL_Driver/Src/stm32g0xx_ll_usb.c **** 
 850              		.loc 1 298 7 discriminator 3 view .LVU234
 851              	.LBB15:
 298:Drivers/STM32G0xx_HAL_Driver/Src/stm32g0xx_ll_usb.c **** 
 852              		.loc 1 298 7 discriminator 3 view .LVU235
 298:Drivers/STM32G0xx_HAL_Driver/Src/stm32g0xx_ll_usb.c **** 
 853              		.loc 1 298 7 discriminator 3 view .LVU236
 854 0224 0A78     		ldrb	r2, [r1]
 855 0226 9200     		lsls	r2, r2, #2
 856 0228 9A18     		adds	r2, r3, r2
 857 022a 1468     		ldr	r4, [r2]
 858              	.LVL68:
 298:Drivers/STM32G0xx_HAL_Driver/Src/stm32g0xx_ll_usb.c **** 
 859              		.loc 1 298 7 discriminator 3 view .LVU237
 860 022c 6406     		lsls	r4, r4, #25
 861 022e 05D5     		bpl	.L34
 862              	.LVL69:
 298:Drivers/STM32G0xx_HAL_Driver/Src/stm32g0xx_ll_usb.c **** 
 863              		.loc 1 298 7 discriminator 1 view .LVU238
 864              	.LBB16:
 298:Drivers/STM32G0xx_HAL_Driver/Src/stm32g0xx_ll_usb.c **** 
 865              		.loc 1 298 7 discriminator 1 view .LVU239
 298:Drivers/STM32G0xx_HAL_Driver/Src/stm32g0xx_ll_usb.c **** 
 866              		.loc 1 298 7 discriminator 1 view .LVU240
 867 0230 1568     		ldr	r5, [r2]
 868 0232 314C     		ldr	r4, .L51+8
 869 0234 2540     		ands	r5, r4
 870              	.LVL70:
 298:Drivers/STM32G0xx_HAL_Driver/Src/stm32g0xx_ll_usb.c **** 
 871              		.loc 1 298 7 discriminator 1 view .LVU241
 872 0236 324C     		ldr	r4, .L51+16
 873 0238 2C43     		orrs	r4, r5
 874 023a 1460     		str	r4, [r2]
 875              	.LVL71:
ARM GAS  /tmp/ccQCrB9j.s 			page 23


 876              	.L34:
 298:Drivers/STM32G0xx_HAL_Driver/Src/stm32g0xx_ll_usb.c **** 
 877              		.loc 1 298 7 is_stmt 0 discriminator 1 view .LVU242
 878              	.LBE16:
 298:Drivers/STM32G0xx_HAL_Driver/Src/stm32g0xx_ll_usb.c **** 
 879              		.loc 1 298 7 is_stmt 1 discriminator 3 view .LVU243
 880              	.LBE15:
 298:Drivers/STM32G0xx_HAL_Driver/Src/stm32g0xx_ll_usb.c **** 
 881              		.loc 1 298 7 discriminator 3 view .LVU244
 300:Drivers/STM32G0xx_HAL_Driver/Src/stm32g0xx_ll_usb.c ****       PCD_SET_EP_TX_STATUS(USBx, ep->num, USB_EP_TX_DIS);
 882              		.loc 1 300 7 discriminator 3 view .LVU245
 883              	.LBB17:
 300:Drivers/STM32G0xx_HAL_Driver/Src/stm32g0xx_ll_usb.c ****       PCD_SET_EP_TX_STATUS(USBx, ep->num, USB_EP_TX_DIS);
 884              		.loc 1 300 7 discriminator 3 view .LVU246
 300:Drivers/STM32G0xx_HAL_Driver/Src/stm32g0xx_ll_usb.c ****       PCD_SET_EP_TX_STATUS(USBx, ep->num, USB_EP_TX_DIS);
 885              		.loc 1 300 7 discriminator 3 view .LVU247
 886 023c 0A78     		ldrb	r2, [r1]
 887 023e 9200     		lsls	r2, r2, #2
 888 0240 9A18     		adds	r2, r3, r2
 889 0242 1568     		ldr	r5, [r2]
 890 0244 314C     		ldr	r4, .L51+28
 891 0246 2540     		ands	r5, r4
 892              	.LVL72:
 300:Drivers/STM32G0xx_HAL_Driver/Src/stm32g0xx_ll_usb.c ****       PCD_SET_EP_TX_STATUS(USBx, ep->num, USB_EP_TX_DIS);
 893              		.loc 1 300 7 discriminator 3 view .LVU248
 300:Drivers/STM32G0xx_HAL_Driver/Src/stm32g0xx_ll_usb.c ****       PCD_SET_EP_TX_STATUS(USBx, ep->num, USB_EP_TX_DIS);
 894              		.loc 1 300 7 discriminator 3 view .LVU249
 300:Drivers/STM32G0xx_HAL_Driver/Src/stm32g0xx_ll_usb.c ****       PCD_SET_EP_TX_STATUS(USBx, ep->num, USB_EP_TX_DIS);
 895              		.loc 1 300 7 discriminator 3 view .LVU250
 300:Drivers/STM32G0xx_HAL_Driver/Src/stm32g0xx_ll_usb.c ****       PCD_SET_EP_TX_STATUS(USBx, ep->num, USB_EP_TX_DIS);
 896              		.loc 1 300 7 discriminator 3 view .LVU251
 897 0248 C024     		movs	r4, #192
 898 024a A401     		lsls	r4, r4, #6
 899 024c 6C40     		eors	r4, r5
 900              	.LVL73:
 300:Drivers/STM32G0xx_HAL_Driver/Src/stm32g0xx_ll_usb.c ****       PCD_SET_EP_TX_STATUS(USBx, ep->num, USB_EP_TX_DIS);
 901              		.loc 1 300 7 discriminator 3 view .LVU252
 902 024e 294D     		ldr	r5, .L51+4
 903 0250 2C43     		orrs	r4, r5
 904              	.LVL74:
 300:Drivers/STM32G0xx_HAL_Driver/Src/stm32g0xx_ll_usb.c ****       PCD_SET_EP_TX_STATUS(USBx, ep->num, USB_EP_TX_DIS);
 905              		.loc 1 300 7 is_stmt 0 discriminator 3 view .LVU253
 906 0252 1460     		str	r4, [r2]
 907              	.LBE17:
 300:Drivers/STM32G0xx_HAL_Driver/Src/stm32g0xx_ll_usb.c ****       PCD_SET_EP_TX_STATUS(USBx, ep->num, USB_EP_TX_DIS);
 908              		.loc 1 300 7 is_stmt 1 discriminator 3 view .LVU254
 301:Drivers/STM32G0xx_HAL_Driver/Src/stm32g0xx_ll_usb.c ****     }
 909              		.loc 1 301 7 discriminator 3 view .LVU255
 910              	.LBB18:
 301:Drivers/STM32G0xx_HAL_Driver/Src/stm32g0xx_ll_usb.c ****     }
 911              		.loc 1 301 7 discriminator 3 view .LVU256
 301:Drivers/STM32G0xx_HAL_Driver/Src/stm32g0xx_ll_usb.c ****     }
 912              		.loc 1 301 7 discriminator 3 view .LVU257
 913 0254 0A78     		ldrb	r2, [r1]
 914 0256 9200     		lsls	r2, r2, #2
 915 0258 9B18     		adds	r3, r3, r2
 916              	.LVL75:
ARM GAS  /tmp/ccQCrB9j.s 			page 24


 301:Drivers/STM32G0xx_HAL_Driver/Src/stm32g0xx_ll_usb.c ****     }
 917              		.loc 1 301 7 is_stmt 0 discriminator 3 view .LVU258
 918 025a 1A68     		ldr	r2, [r3]
 919 025c 2949     		ldr	r1, .L51+20
 920              	.LVL76:
 301:Drivers/STM32G0xx_HAL_Driver/Src/stm32g0xx_ll_usb.c ****     }
 921              		.loc 1 301 7 discriminator 3 view .LVU259
 922 025e 0A40     		ands	r2, r1
 923              	.LVL77:
 301:Drivers/STM32G0xx_HAL_Driver/Src/stm32g0xx_ll_usb.c ****     }
 924              		.loc 1 301 7 is_stmt 1 discriminator 3 view .LVU260
 301:Drivers/STM32G0xx_HAL_Driver/Src/stm32g0xx_ll_usb.c ****     }
 925              		.loc 1 301 7 discriminator 3 view .LVU261
 301:Drivers/STM32G0xx_HAL_Driver/Src/stm32g0xx_ll_usb.c ****     }
 926              		.loc 1 301 7 discriminator 3 view .LVU262
 927 0260 1543     		orrs	r5, r2
 928 0262 1D60     		str	r5, [r3]
 929              	.LBE18:
 301:Drivers/STM32G0xx_HAL_Driver/Src/stm32g0xx_ll_usb.c ****     }
 930              		.loc 1 301 7 discriminator 3 view .LVU263
 931 0264 7EE7     		b	.L23
 932              	.LVL78:
 933              	.L50:
 283:Drivers/STM32G0xx_HAL_Driver/Src/stm32g0xx_ll_usb.c ****     }
 934              		.loc 1 283 7 view .LVU264
 935              	.LBB19:
 283:Drivers/STM32G0xx_HAL_Driver/Src/stm32g0xx_ll_usb.c ****     }
 936              		.loc 1 283 7 view .LVU265
 283:Drivers/STM32G0xx_HAL_Driver/Src/stm32g0xx_ll_usb.c ****     }
 937              		.loc 1 283 7 view .LVU266
 938 0266 0A78     		ldrb	r2, [r1]
 939 0268 9200     		lsls	r2, r2, #2
 940 026a 9A18     		adds	r2, r3, r2
 941 026c 1568     		ldr	r5, [r2]
 942 026e 224C     		ldr	r4, .L51+8
 943              	.LVL79:
 283:Drivers/STM32G0xx_HAL_Driver/Src/stm32g0xx_ll_usb.c ****     }
 944              		.loc 1 283 7 is_stmt 0 view .LVU267
 945 0270 2540     		ands	r5, r4
 946              	.LVL80:
 283:Drivers/STM32G0xx_HAL_Driver/Src/stm32g0xx_ll_usb.c ****     }
 947              		.loc 1 283 7 is_stmt 1 view .LVU268
 948 0272 294C     		ldr	r4, .L51+40
 949 0274 2C43     		orrs	r4, r5
 950 0276 1460     		str	r4, [r2]
 951              	.LBE19:
 283:Drivers/STM32G0xx_HAL_Driver/Src/stm32g0xx_ll_usb.c ****     }
 952              		.loc 1 283 7 view .LVU269
 953 0278 A3E7     		b	.L31
 954              	.LVL81:
 955              	.L32:
 306:Drivers/STM32G0xx_HAL_Driver/Src/stm32g0xx_ll_usb.c ****       PCD_CLEAR_TX_DTOG(USBx, ep->num);
 956              		.loc 1 306 7 view .LVU270
 957              	.LBB20:
 306:Drivers/STM32G0xx_HAL_Driver/Src/stm32g0xx_ll_usb.c ****       PCD_CLEAR_TX_DTOG(USBx, ep->num);
 958              		.loc 1 306 7 view .LVU271
 306:Drivers/STM32G0xx_HAL_Driver/Src/stm32g0xx_ll_usb.c ****       PCD_CLEAR_TX_DTOG(USBx, ep->num);
ARM GAS  /tmp/ccQCrB9j.s 			page 25


 959              		.loc 1 306 7 view .LVU272
 960 027a 0A78     		ldrb	r2, [r1]
 961 027c 9200     		lsls	r2, r2, #2
 962 027e 9A18     		adds	r2, r3, r2
 963 0280 1468     		ldr	r4, [r2]
 964              	.LVL82:
 306:Drivers/STM32G0xx_HAL_Driver/Src/stm32g0xx_ll_usb.c ****       PCD_CLEAR_TX_DTOG(USBx, ep->num);
 965              		.loc 1 306 7 view .LVU273
 966 0282 6404     		lsls	r4, r4, #17
 967 0284 05D5     		bpl	.L35
 968              	.LVL83:
 306:Drivers/STM32G0xx_HAL_Driver/Src/stm32g0xx_ll_usb.c ****       PCD_CLEAR_TX_DTOG(USBx, ep->num);
 969              		.loc 1 306 7 discriminator 1 view .LVU274
 970              	.LBB21:
 306:Drivers/STM32G0xx_HAL_Driver/Src/stm32g0xx_ll_usb.c ****       PCD_CLEAR_TX_DTOG(USBx, ep->num);
 971              		.loc 1 306 7 discriminator 1 view .LVU275
 306:Drivers/STM32G0xx_HAL_Driver/Src/stm32g0xx_ll_usb.c ****       PCD_CLEAR_TX_DTOG(USBx, ep->num);
 972              		.loc 1 306 7 discriminator 1 view .LVU276
 973 0286 1568     		ldr	r5, [r2]
 974 0288 1B4C     		ldr	r4, .L51+8
 975 028a 2540     		ands	r5, r4
 976              	.LVL84:
 306:Drivers/STM32G0xx_HAL_Driver/Src/stm32g0xx_ll_usb.c ****       PCD_CLEAR_TX_DTOG(USBx, ep->num);
 977              		.loc 1 306 7 discriminator 1 view .LVU277
 978 028c 1E4C     		ldr	r4, .L51+24
 979 028e 2C43     		orrs	r4, r5
 980 0290 1460     		str	r4, [r2]
 981              	.LVL85:
 982              	.L35:
 306:Drivers/STM32G0xx_HAL_Driver/Src/stm32g0xx_ll_usb.c ****       PCD_CLEAR_TX_DTOG(USBx, ep->num);
 983              		.loc 1 306 7 is_stmt 0 discriminator 1 view .LVU278
 984              	.LBE21:
 306:Drivers/STM32G0xx_HAL_Driver/Src/stm32g0xx_ll_usb.c ****       PCD_CLEAR_TX_DTOG(USBx, ep->num);
 985              		.loc 1 306 7 is_stmt 1 discriminator 3 view .LVU279
 986              	.LBE20:
 306:Drivers/STM32G0xx_HAL_Driver/Src/stm32g0xx_ll_usb.c ****       PCD_CLEAR_TX_DTOG(USBx, ep->num);
 987              		.loc 1 306 7 discriminator 3 view .LVU280
 307:Drivers/STM32G0xx_HAL_Driver/Src/stm32g0xx_ll_usb.c **** 
 988              		.loc 1 307 7 discriminator 3 view .LVU281
 989              	.LBB22:
 307:Drivers/STM32G0xx_HAL_Driver/Src/stm32g0xx_ll_usb.c **** 
 990              		.loc 1 307 7 discriminator 3 view .LVU282
 307:Drivers/STM32G0xx_HAL_Driver/Src/stm32g0xx_ll_usb.c **** 
 991              		.loc 1 307 7 discriminator 3 view .LVU283
 992 0292 0A78     		ldrb	r2, [r1]
 993 0294 9200     		lsls	r2, r2, #2
 994 0296 9A18     		adds	r2, r3, r2
 995 0298 1468     		ldr	r4, [r2]
 996              	.LVL86:
 307:Drivers/STM32G0xx_HAL_Driver/Src/stm32g0xx_ll_usb.c **** 
 997              		.loc 1 307 7 discriminator 3 view .LVU284
 998 029a 6406     		lsls	r4, r4, #25
 999 029c 05D5     		bpl	.L36
 1000              	.LVL87:
 307:Drivers/STM32G0xx_HAL_Driver/Src/stm32g0xx_ll_usb.c **** 
 1001              		.loc 1 307 7 discriminator 1 view .LVU285
 1002              	.LBB23:
ARM GAS  /tmp/ccQCrB9j.s 			page 26


 307:Drivers/STM32G0xx_HAL_Driver/Src/stm32g0xx_ll_usb.c **** 
 1003              		.loc 1 307 7 discriminator 1 view .LVU286
 307:Drivers/STM32G0xx_HAL_Driver/Src/stm32g0xx_ll_usb.c **** 
 1004              		.loc 1 307 7 discriminator 1 view .LVU287
 1005 029e 1568     		ldr	r5, [r2]
 1006 02a0 154C     		ldr	r4, .L51+8
 1007 02a2 2540     		ands	r5, r4
 1008              	.LVL88:
 307:Drivers/STM32G0xx_HAL_Driver/Src/stm32g0xx_ll_usb.c **** 
 1009              		.loc 1 307 7 discriminator 1 view .LVU288
 1010 02a4 164C     		ldr	r4, .L51+16
 1011 02a6 2C43     		orrs	r4, r5
 1012 02a8 1460     		str	r4, [r2]
 1013              	.LVL89:
 1014              	.L36:
 307:Drivers/STM32G0xx_HAL_Driver/Src/stm32g0xx_ll_usb.c **** 
 1015              		.loc 1 307 7 is_stmt 0 discriminator 1 view .LVU289
 1016              	.LBE23:
 307:Drivers/STM32G0xx_HAL_Driver/Src/stm32g0xx_ll_usb.c **** 
 1017              		.loc 1 307 7 is_stmt 1 discriminator 3 view .LVU290
 1018              	.LBE22:
 307:Drivers/STM32G0xx_HAL_Driver/Src/stm32g0xx_ll_usb.c **** 
 1019              		.loc 1 307 7 discriminator 3 view .LVU291
 309:Drivers/STM32G0xx_HAL_Driver/Src/stm32g0xx_ll_usb.c ****       {
 1020              		.loc 1 309 7 discriminator 3 view .LVU292
 309:Drivers/STM32G0xx_HAL_Driver/Src/stm32g0xx_ll_usb.c ****       {
 1021              		.loc 1 309 13 is_stmt 0 discriminator 3 view .LVU293
 1022 02aa CA78     		ldrb	r2, [r1, #3]
 309:Drivers/STM32G0xx_HAL_Driver/Src/stm32g0xx_ll_usb.c ****       {
 1023              		.loc 1 309 10 discriminator 3 view .LVU294
 1024 02ac 012A     		cmp	r2, #1
 1025 02ae 14D0     		beq	.L37
 312:Drivers/STM32G0xx_HAL_Driver/Src/stm32g0xx_ll_usb.c ****       }
 1026              		.loc 1 312 9 is_stmt 1 view .LVU295
 1027              	.LBB24:
 312:Drivers/STM32G0xx_HAL_Driver/Src/stm32g0xx_ll_usb.c ****       }
 1028              		.loc 1 312 9 view .LVU296
 312:Drivers/STM32G0xx_HAL_Driver/Src/stm32g0xx_ll_usb.c ****       }
 1029              		.loc 1 312 9 view .LVU297
 1030 02b0 0A78     		ldrb	r2, [r1]
 1031 02b2 9200     		lsls	r2, r2, #2
 1032 02b4 9A18     		adds	r2, r3, r2
 1033 02b6 1468     		ldr	r4, [r2]
 1034 02b8 124D     		ldr	r5, .L51+20
 1035 02ba 2C40     		ands	r4, r5
 1036              	.LVL90:
 312:Drivers/STM32G0xx_HAL_Driver/Src/stm32g0xx_ll_usb.c ****       }
 1037              		.loc 1 312 9 view .LVU298
 312:Drivers/STM32G0xx_HAL_Driver/Src/stm32g0xx_ll_usb.c ****       }
 1038              		.loc 1 312 9 view .LVU299
 312:Drivers/STM32G0xx_HAL_Driver/Src/stm32g0xx_ll_usb.c ****       }
 1039              		.loc 1 312 9 view .LVU300
 1040 02bc 2025     		movs	r5, #32
 1041 02be 6C40     		eors	r4, r5
 1042              	.LVL91:
 312:Drivers/STM32G0xx_HAL_Driver/Src/stm32g0xx_ll_usb.c ****       }
 1043              		.loc 1 312 9 view .LVU301
ARM GAS  /tmp/ccQCrB9j.s 			page 27


 1044 02c0 0C4D     		ldr	r5, .L51+4
 1045 02c2 2C43     		orrs	r4, r5
 1046              	.LVL92:
 312:Drivers/STM32G0xx_HAL_Driver/Src/stm32g0xx_ll_usb.c ****       }
 1047              		.loc 1 312 9 is_stmt 0 view .LVU302
 1048 02c4 1460     		str	r4, [r2]
 1049              	.LBE24:
 312:Drivers/STM32G0xx_HAL_Driver/Src/stm32g0xx_ll_usb.c ****       }
 1050              		.loc 1 312 9 is_stmt 1 view .LVU303
 1051              	.LVL93:
 1052              	.L38:
 317:Drivers/STM32G0xx_HAL_Driver/Src/stm32g0xx_ll_usb.c ****       }
 1053              		.loc 1 317 9 discriminator 7 view .LVU304
 320:Drivers/STM32G0xx_HAL_Driver/Src/stm32g0xx_ll_usb.c ****     }
 1054              		.loc 1 320 7 discriminator 7 view .LVU305
 1055              	.LBB25:
 320:Drivers/STM32G0xx_HAL_Driver/Src/stm32g0xx_ll_usb.c ****     }
 1056              		.loc 1 320 7 discriminator 7 view .LVU306
 320:Drivers/STM32G0xx_HAL_Driver/Src/stm32g0xx_ll_usb.c ****     }
 1057              		.loc 1 320 7 discriminator 7 view .LVU307
 1058 02c6 0A78     		ldrb	r2, [r1]
 1059 02c8 9200     		lsls	r2, r2, #2
 1060 02ca 9B18     		adds	r3, r3, r2
 1061              	.LVL94:
 320:Drivers/STM32G0xx_HAL_Driver/Src/stm32g0xx_ll_usb.c ****     }
 1062              		.loc 1 320 7 is_stmt 0 discriminator 7 view .LVU308
 1063 02cc 1968     		ldr	r1, [r3]
 1064              	.LVL95:
 320:Drivers/STM32G0xx_HAL_Driver/Src/stm32g0xx_ll_usb.c ****     }
 1065              		.loc 1 320 7 discriminator 7 view .LVU309
 1066 02ce 0F4A     		ldr	r2, .L51+28
 1067 02d0 1140     		ands	r1, r2
 1068              	.LVL96:
 320:Drivers/STM32G0xx_HAL_Driver/Src/stm32g0xx_ll_usb.c ****     }
 1069              		.loc 1 320 7 is_stmt 1 discriminator 7 view .LVU310
 320:Drivers/STM32G0xx_HAL_Driver/Src/stm32g0xx_ll_usb.c ****     }
 1070              		.loc 1 320 7 discriminator 7 view .LVU311
 320:Drivers/STM32G0xx_HAL_Driver/Src/stm32g0xx_ll_usb.c ****     }
 1071              		.loc 1 320 7 discriminator 7 view .LVU312
 1072 02d2 084A     		ldr	r2, .L51+4
 1073 02d4 0A43     		orrs	r2, r1
 1074 02d6 1A60     		str	r2, [r3]
 1075 02d8 44E7     		b	.L23
 1076              	.LVL97:
 1077              	.L37:
 320:Drivers/STM32G0xx_HAL_Driver/Src/stm32g0xx_ll_usb.c ****     }
 1078              		.loc 1 320 7 is_stmt 0 discriminator 7 view .LVU313
 1079              	.LBE25:
 317:Drivers/STM32G0xx_HAL_Driver/Src/stm32g0xx_ll_usb.c ****       }
 1080              		.loc 1 317 9 is_stmt 1 view .LVU314
 1081              	.LBB26:
 317:Drivers/STM32G0xx_HAL_Driver/Src/stm32g0xx_ll_usb.c ****       }
 1082              		.loc 1 317 9 view .LVU315
 317:Drivers/STM32G0xx_HAL_Driver/Src/stm32g0xx_ll_usb.c ****       }
 1083              		.loc 1 317 9 view .LVU316
 1084 02da 0A78     		ldrb	r2, [r1]
 1085 02dc 9200     		lsls	r2, r2, #2
ARM GAS  /tmp/ccQCrB9j.s 			page 28


 1086 02de 9A18     		adds	r2, r3, r2
 1087 02e0 1568     		ldr	r5, [r2]
 1088 02e2 084C     		ldr	r4, .L51+20
 1089 02e4 2540     		ands	r5, r4
 1090              	.LVL98:
 317:Drivers/STM32G0xx_HAL_Driver/Src/stm32g0xx_ll_usb.c ****       }
 1091              		.loc 1 317 9 view .LVU317
 317:Drivers/STM32G0xx_HAL_Driver/Src/stm32g0xx_ll_usb.c ****       }
 1092              		.loc 1 317 9 view .LVU318
 317:Drivers/STM32G0xx_HAL_Driver/Src/stm32g0xx_ll_usb.c ****       }
 1093              		.loc 1 317 9 view .LVU319
 1094 02e6 034C     		ldr	r4, .L51+4
 1095 02e8 2C43     		orrs	r4, r5
 1096 02ea 1460     		str	r4, [r2]
 1097 02ec EBE7     		b	.L38
 1098              	.L52:
 1099 02ee C046     		.align	2
 1100              	.L51:
 1101 02f0 8F89FF07 		.word	134187407
 1102 02f4 80800000 		.word	32896
 1103 02f8 8F8FFF07 		.word	134188943
 1104 02fc 00980040 		.word	1073780736
 1105 0300 C0800000 		.word	32960
 1106 0304 BF8FFF07 		.word	134188991
 1107 0308 80C00000 		.word	49280
 1108 030c 8FBFFF07 		.word	134201231
 1109 0310 FFFFFF83 		.word	-2080374785
 1110 0314 8F8EFF07 		.word	134188687
 1111 0318 80810000 		.word	33152
 1112              	.LBE26:
 1113              		.cfi_endproc
 1114              	.LFE372:
 1116              		.section	.text.USB_DeactivateEndpoint,"ax",%progbits
 1117              		.align	1
 1118              		.global	USB_DeactivateEndpoint
 1119              		.syntax unified
 1120              		.code	16
 1121              		.thumb_func
 1123              	USB_DeactivateEndpoint:
 1124              	.LVL99:
 1125              	.LFB373:
 327:Drivers/STM32G0xx_HAL_Driver/Src/stm32g0xx_ll_usb.c **** 
 328:Drivers/STM32G0xx_HAL_Driver/Src/stm32g0xx_ll_usb.c **** /**
 329:Drivers/STM32G0xx_HAL_Driver/Src/stm32g0xx_ll_usb.c ****   * @brief  De-activate and de-initialize an endpoint
 330:Drivers/STM32G0xx_HAL_Driver/Src/stm32g0xx_ll_usb.c ****   * @param  USBx Selected device
 331:Drivers/STM32G0xx_HAL_Driver/Src/stm32g0xx_ll_usb.c ****   * @param  ep pointer to endpoint structure
 332:Drivers/STM32G0xx_HAL_Driver/Src/stm32g0xx_ll_usb.c ****   * @retval HAL status
 333:Drivers/STM32G0xx_HAL_Driver/Src/stm32g0xx_ll_usb.c ****   */
 334:Drivers/STM32G0xx_HAL_Driver/Src/stm32g0xx_ll_usb.c **** HAL_StatusTypeDef USB_DeactivateEndpoint(USB_DRD_TypeDef *USBx, USB_DRD_EPTypeDef *ep)
 335:Drivers/STM32G0xx_HAL_Driver/Src/stm32g0xx_ll_usb.c **** {
 1126              		.loc 1 335 1 view -0
 1127              		.cfi_startproc
 1128              		@ args = 0, pretend = 0, frame = 0
 1129              		@ frame_needed = 0, uses_anonymous_args = 0
 1130              		.loc 1 335 1 is_stmt 0 view .LVU321
 1131 0000 10B5     		push	{r4, lr}
 1132              	.LCFI5:
ARM GAS  /tmp/ccQCrB9j.s 			page 29


 1133              		.cfi_def_cfa_offset 8
 1134              		.cfi_offset 4, -8
 1135              		.cfi_offset 14, -4
 336:Drivers/STM32G0xx_HAL_Driver/Src/stm32g0xx_ll_usb.c ****   if (ep->doublebuffer == 0U)
 1136              		.loc 1 336 3 is_stmt 1 view .LVU322
 1137              		.loc 1 336 9 is_stmt 0 view .LVU323
 1138 0002 8B7A     		ldrb	r3, [r1, #10]
 1139              		.loc 1 336 6 view .LVU324
 1140 0004 002B     		cmp	r3, #0
 1141 0006 2FD1     		bne	.L54
 337:Drivers/STM32G0xx_HAL_Driver/Src/stm32g0xx_ll_usb.c ****   {
 338:Drivers/STM32G0xx_HAL_Driver/Src/stm32g0xx_ll_usb.c ****     if (ep->is_in != 0U)
 1142              		.loc 1 338 5 is_stmt 1 view .LVU325
 1143              		.loc 1 338 11 is_stmt 0 view .LVU326
 1144 0008 4B78     		ldrb	r3, [r1, #1]
 1145              		.loc 1 338 8 view .LVU327
 1146 000a 002B     		cmp	r3, #0
 1147 000c 16D0     		beq	.L55
 339:Drivers/STM32G0xx_HAL_Driver/Src/stm32g0xx_ll_usb.c ****     {
 340:Drivers/STM32G0xx_HAL_Driver/Src/stm32g0xx_ll_usb.c ****       PCD_CLEAR_TX_DTOG(USBx, ep->num);
 1148              		.loc 1 340 7 is_stmt 1 view .LVU328
 1149              	.LBB27:
 1150              		.loc 1 340 7 view .LVU329
 1151              		.loc 1 340 7 view .LVU330
 1152 000e 0B78     		ldrb	r3, [r1]
 1153 0010 9B00     		lsls	r3, r3, #2
 1154 0012 C318     		adds	r3, r0, r3
 1155 0014 1A68     		ldr	r2, [r3]
 1156              	.LVL100:
 1157              		.loc 1 340 7 view .LVU331
 1158 0016 5206     		lsls	r2, r2, #25
 1159 0018 05D5     		bpl	.L56
 1160              	.LVL101:
 1161              		.loc 1 340 7 discriminator 1 view .LVU332
 1162              	.LBB28:
 1163              		.loc 1 340 7 discriminator 1 view .LVU333
 1164              		.loc 1 340 7 discriminator 1 view .LVU334
 1165 001a 1C68     		ldr	r4, [r3]
 1166 001c 474A     		ldr	r2, .L70
 1167 001e 1440     		ands	r4, r2
 1168              	.LVL102:
 1169              		.loc 1 340 7 discriminator 1 view .LVU335
 1170 0020 474A     		ldr	r2, .L70+4
 1171 0022 2243     		orrs	r2, r4
 1172 0024 1A60     		str	r2, [r3]
 1173              	.LVL103:
 1174              	.L56:
 1175              		.loc 1 340 7 is_stmt 0 discriminator 1 view .LVU336
 1176              	.LBE28:
 1177              		.loc 1 340 7 is_stmt 1 discriminator 3 view .LVU337
 1178              	.LBE27:
 1179              		.loc 1 340 7 discriminator 3 view .LVU338
 341:Drivers/STM32G0xx_HAL_Driver/Src/stm32g0xx_ll_usb.c **** 
 342:Drivers/STM32G0xx_HAL_Driver/Src/stm32g0xx_ll_usb.c ****       /* Configure DISABLE status for the Endpoint */
 343:Drivers/STM32G0xx_HAL_Driver/Src/stm32g0xx_ll_usb.c ****       PCD_SET_EP_TX_STATUS(USBx, ep->num, USB_EP_TX_DIS);
 1180              		.loc 1 343 7 discriminator 3 view .LVU339
 1181              	.LBB29:
ARM GAS  /tmp/ccQCrB9j.s 			page 30


 1182              		.loc 1 343 7 discriminator 3 view .LVU340
 1183              		.loc 1 343 7 discriminator 3 view .LVU341
 1184 0026 0B78     		ldrb	r3, [r1]
 1185 0028 9B00     		lsls	r3, r3, #2
 1186 002a C318     		adds	r3, r0, r3
 1187 002c 1968     		ldr	r1, [r3]
 1188              	.LVL104:
 1189              		.loc 1 343 7 is_stmt 0 discriminator 3 view .LVU342
 1190 002e 454A     		ldr	r2, .L70+8
 1191 0030 1140     		ands	r1, r2
 1192              	.LVL105:
 1193              		.loc 1 343 7 is_stmt 1 discriminator 3 view .LVU343
 1194              		.loc 1 343 7 discriminator 3 view .LVU344
 1195              		.loc 1 343 7 discriminator 3 view .LVU345
 1196 0032 454A     		ldr	r2, .L70+12
 1197 0034 0A43     		orrs	r2, r1
 1198 0036 1A60     		str	r2, [r3]
 1199              	.LBE29:
 1200              		.loc 1 343 7 discriminator 3 view .LVU346
 1201              	.LVL106:
 1202              	.L57:
 344:Drivers/STM32G0xx_HAL_Driver/Src/stm32g0xx_ll_usb.c ****     }
 345:Drivers/STM32G0xx_HAL_Driver/Src/stm32g0xx_ll_usb.c **** 
 346:Drivers/STM32G0xx_HAL_Driver/Src/stm32g0xx_ll_usb.c ****     else
 347:Drivers/STM32G0xx_HAL_Driver/Src/stm32g0xx_ll_usb.c ****     {
 348:Drivers/STM32G0xx_HAL_Driver/Src/stm32g0xx_ll_usb.c ****       PCD_CLEAR_RX_DTOG(USBx, ep->num);
 349:Drivers/STM32G0xx_HAL_Driver/Src/stm32g0xx_ll_usb.c **** 
 350:Drivers/STM32G0xx_HAL_Driver/Src/stm32g0xx_ll_usb.c ****       /* Configure DISABLE status for the Endpoint */
 351:Drivers/STM32G0xx_HAL_Driver/Src/stm32g0xx_ll_usb.c ****       PCD_SET_EP_RX_STATUS(USBx, ep->num, USB_EP_RX_DIS);
 352:Drivers/STM32G0xx_HAL_Driver/Src/stm32g0xx_ll_usb.c ****     }
 353:Drivers/STM32G0xx_HAL_Driver/Src/stm32g0xx_ll_usb.c ****   }
 354:Drivers/STM32G0xx_HAL_Driver/Src/stm32g0xx_ll_usb.c **** #if (USE_USB_DOUBLE_BUFFER == 1U)
 355:Drivers/STM32G0xx_HAL_Driver/Src/stm32g0xx_ll_usb.c ****   /* Double Buffer */
 356:Drivers/STM32G0xx_HAL_Driver/Src/stm32g0xx_ll_usb.c ****   else
 357:Drivers/STM32G0xx_HAL_Driver/Src/stm32g0xx_ll_usb.c ****   {
 358:Drivers/STM32G0xx_HAL_Driver/Src/stm32g0xx_ll_usb.c ****     if (ep->is_in == 0U)
 359:Drivers/STM32G0xx_HAL_Driver/Src/stm32g0xx_ll_usb.c ****     {
 360:Drivers/STM32G0xx_HAL_Driver/Src/stm32g0xx_ll_usb.c ****       /* Clear the data toggle bits for the endpoint IN/OUT*/
 361:Drivers/STM32G0xx_HAL_Driver/Src/stm32g0xx_ll_usb.c ****       PCD_CLEAR_RX_DTOG(USBx, ep->num);
 362:Drivers/STM32G0xx_HAL_Driver/Src/stm32g0xx_ll_usb.c ****       PCD_CLEAR_TX_DTOG(USBx, ep->num);
 363:Drivers/STM32G0xx_HAL_Driver/Src/stm32g0xx_ll_usb.c **** 
 364:Drivers/STM32G0xx_HAL_Driver/Src/stm32g0xx_ll_usb.c ****       /* Reset value of the data toggle bits for the endpoint out*/
 365:Drivers/STM32G0xx_HAL_Driver/Src/stm32g0xx_ll_usb.c ****       PCD_TX_DTOG(USBx, ep->num);
 366:Drivers/STM32G0xx_HAL_Driver/Src/stm32g0xx_ll_usb.c **** 
 367:Drivers/STM32G0xx_HAL_Driver/Src/stm32g0xx_ll_usb.c ****       PCD_SET_EP_RX_STATUS(USBx, ep->num, USB_EP_RX_DIS);
 368:Drivers/STM32G0xx_HAL_Driver/Src/stm32g0xx_ll_usb.c ****       PCD_SET_EP_TX_STATUS(USBx, ep->num, USB_EP_TX_DIS);
 369:Drivers/STM32G0xx_HAL_Driver/Src/stm32g0xx_ll_usb.c ****     }
 370:Drivers/STM32G0xx_HAL_Driver/Src/stm32g0xx_ll_usb.c ****     else
 371:Drivers/STM32G0xx_HAL_Driver/Src/stm32g0xx_ll_usb.c ****     {
 372:Drivers/STM32G0xx_HAL_Driver/Src/stm32g0xx_ll_usb.c ****       /* Clear the data toggle bits for the endpoint IN/OUT*/
 373:Drivers/STM32G0xx_HAL_Driver/Src/stm32g0xx_ll_usb.c ****       PCD_CLEAR_RX_DTOG(USBx, ep->num);
 374:Drivers/STM32G0xx_HAL_Driver/Src/stm32g0xx_ll_usb.c ****       PCD_CLEAR_TX_DTOG(USBx, ep->num);
 375:Drivers/STM32G0xx_HAL_Driver/Src/stm32g0xx_ll_usb.c ****       PCD_RX_DTOG(USBx, ep->num);
 376:Drivers/STM32G0xx_HAL_Driver/Src/stm32g0xx_ll_usb.c **** 
 377:Drivers/STM32G0xx_HAL_Driver/Src/stm32g0xx_ll_usb.c ****       /* Configure DISABLE status for the Endpoint*/
 378:Drivers/STM32G0xx_HAL_Driver/Src/stm32g0xx_ll_usb.c ****       PCD_SET_EP_TX_STATUS(USBx, ep->num, USB_EP_TX_DIS);
 379:Drivers/STM32G0xx_HAL_Driver/Src/stm32g0xx_ll_usb.c ****       PCD_SET_EP_RX_STATUS(USBx, ep->num, USB_EP_RX_DIS);
ARM GAS  /tmp/ccQCrB9j.s 			page 31


 1203              		.loc 1 379 7 discriminator 7 view .LVU347
 380:Drivers/STM32G0xx_HAL_Driver/Src/stm32g0xx_ll_usb.c ****     }
 381:Drivers/STM32G0xx_HAL_Driver/Src/stm32g0xx_ll_usb.c ****   }
 382:Drivers/STM32G0xx_HAL_Driver/Src/stm32g0xx_ll_usb.c **** #endif /* (USE_USB_DOUBLE_BUFFER == 1U) */
 383:Drivers/STM32G0xx_HAL_Driver/Src/stm32g0xx_ll_usb.c **** 
 384:Drivers/STM32G0xx_HAL_Driver/Src/stm32g0xx_ll_usb.c ****   return HAL_OK;
 1204              		.loc 1 384 3 discriminator 7 view .LVU348
 385:Drivers/STM32G0xx_HAL_Driver/Src/stm32g0xx_ll_usb.c **** }
 1205              		.loc 1 385 1 is_stmt 0 discriminator 7 view .LVU349
 1206 0038 0020     		movs	r0, #0
 1207              		@ sp needed
 1208 003a 10BD     		pop	{r4, pc}
 1209              	.LVL107:
 1210              	.L55:
 348:Drivers/STM32G0xx_HAL_Driver/Src/stm32g0xx_ll_usb.c **** 
 1211              		.loc 1 348 7 is_stmt 1 view .LVU350
 1212              	.LBB30:
 348:Drivers/STM32G0xx_HAL_Driver/Src/stm32g0xx_ll_usb.c **** 
 1213              		.loc 1 348 7 view .LVU351
 348:Drivers/STM32G0xx_HAL_Driver/Src/stm32g0xx_ll_usb.c **** 
 1214              		.loc 1 348 7 view .LVU352
 1215 003c 0B78     		ldrb	r3, [r1]
 1216 003e 9B00     		lsls	r3, r3, #2
 1217 0040 C318     		adds	r3, r0, r3
 1218 0042 1A68     		ldr	r2, [r3]
 1219              	.LVL108:
 348:Drivers/STM32G0xx_HAL_Driver/Src/stm32g0xx_ll_usb.c **** 
 1220              		.loc 1 348 7 view .LVU353
 1221 0044 5204     		lsls	r2, r2, #17
 1222 0046 05D5     		bpl	.L58
 1223              	.LVL109:
 348:Drivers/STM32G0xx_HAL_Driver/Src/stm32g0xx_ll_usb.c **** 
 1224              		.loc 1 348 7 discriminator 1 view .LVU354
 1225              	.LBB31:
 348:Drivers/STM32G0xx_HAL_Driver/Src/stm32g0xx_ll_usb.c **** 
 1226              		.loc 1 348 7 discriminator 1 view .LVU355
 348:Drivers/STM32G0xx_HAL_Driver/Src/stm32g0xx_ll_usb.c **** 
 1227              		.loc 1 348 7 discriminator 1 view .LVU356
 1228 0048 1C68     		ldr	r4, [r3]
 1229 004a 3C4A     		ldr	r2, .L70
 1230 004c 1440     		ands	r4, r2
 1231              	.LVL110:
 348:Drivers/STM32G0xx_HAL_Driver/Src/stm32g0xx_ll_usb.c **** 
 1232              		.loc 1 348 7 discriminator 1 view .LVU357
 1233 004e 3F4A     		ldr	r2, .L70+16
 1234 0050 2243     		orrs	r2, r4
 1235 0052 1A60     		str	r2, [r3]
 1236              	.LVL111:
 1237              	.L58:
 348:Drivers/STM32G0xx_HAL_Driver/Src/stm32g0xx_ll_usb.c **** 
 1238              		.loc 1 348 7 is_stmt 0 discriminator 1 view .LVU358
 1239              	.LBE31:
 348:Drivers/STM32G0xx_HAL_Driver/Src/stm32g0xx_ll_usb.c **** 
 1240              		.loc 1 348 7 is_stmt 1 discriminator 3 view .LVU359
 1241              	.LBE30:
 348:Drivers/STM32G0xx_HAL_Driver/Src/stm32g0xx_ll_usb.c **** 
 1242              		.loc 1 348 7 discriminator 3 view .LVU360
ARM GAS  /tmp/ccQCrB9j.s 			page 32


 351:Drivers/STM32G0xx_HAL_Driver/Src/stm32g0xx_ll_usb.c ****     }
 1243              		.loc 1 351 7 discriminator 3 view .LVU361
 1244              	.LBB32:
 351:Drivers/STM32G0xx_HAL_Driver/Src/stm32g0xx_ll_usb.c ****     }
 1245              		.loc 1 351 7 discriminator 3 view .LVU362
 351:Drivers/STM32G0xx_HAL_Driver/Src/stm32g0xx_ll_usb.c ****     }
 1246              		.loc 1 351 7 discriminator 3 view .LVU363
 1247 0054 0B78     		ldrb	r3, [r1]
 1248 0056 9B00     		lsls	r3, r3, #2
 1249 0058 C318     		adds	r3, r0, r3
 1250 005a 1968     		ldr	r1, [r3]
 1251              	.LVL112:
 351:Drivers/STM32G0xx_HAL_Driver/Src/stm32g0xx_ll_usb.c ****     }
 1252              		.loc 1 351 7 is_stmt 0 discriminator 3 view .LVU364
 1253 005c 3C4A     		ldr	r2, .L70+20
 1254 005e 1140     		ands	r1, r2
 1255              	.LVL113:
 351:Drivers/STM32G0xx_HAL_Driver/Src/stm32g0xx_ll_usb.c ****     }
 1256              		.loc 1 351 7 is_stmt 1 discriminator 3 view .LVU365
 351:Drivers/STM32G0xx_HAL_Driver/Src/stm32g0xx_ll_usb.c ****     }
 1257              		.loc 1 351 7 discriminator 3 view .LVU366
 351:Drivers/STM32G0xx_HAL_Driver/Src/stm32g0xx_ll_usb.c ****     }
 1258              		.loc 1 351 7 discriminator 3 view .LVU367
 1259 0060 394A     		ldr	r2, .L70+12
 1260 0062 0A43     		orrs	r2, r1
 1261 0064 1A60     		str	r2, [r3]
 1262 0066 E7E7     		b	.L57
 1263              	.LVL114:
 1264              	.L54:
 351:Drivers/STM32G0xx_HAL_Driver/Src/stm32g0xx_ll_usb.c ****     }
 1265              		.loc 1 351 7 is_stmt 0 discriminator 3 view .LVU368
 1266              	.LBE32:
 358:Drivers/STM32G0xx_HAL_Driver/Src/stm32g0xx_ll_usb.c ****     {
 1267              		.loc 1 358 5 is_stmt 1 view .LVU369
 358:Drivers/STM32G0xx_HAL_Driver/Src/stm32g0xx_ll_usb.c ****     {
 1268              		.loc 1 358 11 is_stmt 0 view .LVU370
 1269 0068 4B78     		ldrb	r3, [r1, #1]
 358:Drivers/STM32G0xx_HAL_Driver/Src/stm32g0xx_ll_usb.c ****     {
 1270              		.loc 1 358 8 view .LVU371
 1271 006a 002B     		cmp	r3, #0
 1272 006c 32D1     		bne	.L59
 361:Drivers/STM32G0xx_HAL_Driver/Src/stm32g0xx_ll_usb.c ****       PCD_CLEAR_TX_DTOG(USBx, ep->num);
 1273              		.loc 1 361 7 is_stmt 1 view .LVU372
 1274              	.LBB33:
 361:Drivers/STM32G0xx_HAL_Driver/Src/stm32g0xx_ll_usb.c ****       PCD_CLEAR_TX_DTOG(USBx, ep->num);
 1275              		.loc 1 361 7 view .LVU373
 361:Drivers/STM32G0xx_HAL_Driver/Src/stm32g0xx_ll_usb.c ****       PCD_CLEAR_TX_DTOG(USBx, ep->num);
 1276              		.loc 1 361 7 view .LVU374
 1277 006e 0B78     		ldrb	r3, [r1]
 1278 0070 9B00     		lsls	r3, r3, #2
 1279 0072 C318     		adds	r3, r0, r3
 1280 0074 1A68     		ldr	r2, [r3]
 1281              	.LVL115:
 361:Drivers/STM32G0xx_HAL_Driver/Src/stm32g0xx_ll_usb.c ****       PCD_CLEAR_TX_DTOG(USBx, ep->num);
 1282              		.loc 1 361 7 view .LVU375
 1283 0076 5204     		lsls	r2, r2, #17
 1284 0078 05D5     		bpl	.L60
ARM GAS  /tmp/ccQCrB9j.s 			page 33


 1285              	.LVL116:
 361:Drivers/STM32G0xx_HAL_Driver/Src/stm32g0xx_ll_usb.c ****       PCD_CLEAR_TX_DTOG(USBx, ep->num);
 1286              		.loc 1 361 7 discriminator 1 view .LVU376
 1287              	.LBB34:
 361:Drivers/STM32G0xx_HAL_Driver/Src/stm32g0xx_ll_usb.c ****       PCD_CLEAR_TX_DTOG(USBx, ep->num);
 1288              		.loc 1 361 7 discriminator 1 view .LVU377
 361:Drivers/STM32G0xx_HAL_Driver/Src/stm32g0xx_ll_usb.c ****       PCD_CLEAR_TX_DTOG(USBx, ep->num);
 1289              		.loc 1 361 7 discriminator 1 view .LVU378
 1290 007a 1C68     		ldr	r4, [r3]
 1291 007c 2F4A     		ldr	r2, .L70
 1292 007e 1440     		ands	r4, r2
 1293              	.LVL117:
 361:Drivers/STM32G0xx_HAL_Driver/Src/stm32g0xx_ll_usb.c ****       PCD_CLEAR_TX_DTOG(USBx, ep->num);
 1294              		.loc 1 361 7 discriminator 1 view .LVU379
 1295 0080 324A     		ldr	r2, .L70+16
 1296 0082 2243     		orrs	r2, r4
 1297 0084 1A60     		str	r2, [r3]
 1298              	.LVL118:
 1299              	.L60:
 361:Drivers/STM32G0xx_HAL_Driver/Src/stm32g0xx_ll_usb.c ****       PCD_CLEAR_TX_DTOG(USBx, ep->num);
 1300              		.loc 1 361 7 is_stmt 0 discriminator 1 view .LVU380
 1301              	.LBE34:
 361:Drivers/STM32G0xx_HAL_Driver/Src/stm32g0xx_ll_usb.c ****       PCD_CLEAR_TX_DTOG(USBx, ep->num);
 1302              		.loc 1 361 7 is_stmt 1 discriminator 3 view .LVU381
 1303              	.LBE33:
 361:Drivers/STM32G0xx_HAL_Driver/Src/stm32g0xx_ll_usb.c ****       PCD_CLEAR_TX_DTOG(USBx, ep->num);
 1304              		.loc 1 361 7 discriminator 3 view .LVU382
 362:Drivers/STM32G0xx_HAL_Driver/Src/stm32g0xx_ll_usb.c **** 
 1305              		.loc 1 362 7 discriminator 3 view .LVU383
 1306              	.LBB35:
 362:Drivers/STM32G0xx_HAL_Driver/Src/stm32g0xx_ll_usb.c **** 
 1307              		.loc 1 362 7 discriminator 3 view .LVU384
 362:Drivers/STM32G0xx_HAL_Driver/Src/stm32g0xx_ll_usb.c **** 
 1308              		.loc 1 362 7 discriminator 3 view .LVU385
 1309 0086 0B78     		ldrb	r3, [r1]
 1310 0088 9B00     		lsls	r3, r3, #2
 1311 008a C318     		adds	r3, r0, r3
 1312 008c 1A68     		ldr	r2, [r3]
 1313              	.LVL119:
 362:Drivers/STM32G0xx_HAL_Driver/Src/stm32g0xx_ll_usb.c **** 
 1314              		.loc 1 362 7 discriminator 3 view .LVU386
 1315 008e 5206     		lsls	r2, r2, #25
 1316 0090 05D5     		bpl	.L61
 1317              	.LVL120:
 362:Drivers/STM32G0xx_HAL_Driver/Src/stm32g0xx_ll_usb.c **** 
 1318              		.loc 1 362 7 discriminator 1 view .LVU387
 1319              	.LBB36:
 362:Drivers/STM32G0xx_HAL_Driver/Src/stm32g0xx_ll_usb.c **** 
 1320              		.loc 1 362 7 discriminator 1 view .LVU388
 362:Drivers/STM32G0xx_HAL_Driver/Src/stm32g0xx_ll_usb.c **** 
 1321              		.loc 1 362 7 discriminator 1 view .LVU389
 1322 0092 1C68     		ldr	r4, [r3]
 1323 0094 294A     		ldr	r2, .L70
 1324 0096 1440     		ands	r4, r2
 1325              	.LVL121:
 362:Drivers/STM32G0xx_HAL_Driver/Src/stm32g0xx_ll_usb.c **** 
 1326              		.loc 1 362 7 discriminator 1 view .LVU390
ARM GAS  /tmp/ccQCrB9j.s 			page 34


 1327 0098 294A     		ldr	r2, .L70+4
 1328 009a 2243     		orrs	r2, r4
 1329 009c 1A60     		str	r2, [r3]
 1330              	.LVL122:
 1331              	.L61:
 362:Drivers/STM32G0xx_HAL_Driver/Src/stm32g0xx_ll_usb.c **** 
 1332              		.loc 1 362 7 is_stmt 0 discriminator 1 view .LVU391
 1333              	.LBE36:
 362:Drivers/STM32G0xx_HAL_Driver/Src/stm32g0xx_ll_usb.c **** 
 1334              		.loc 1 362 7 is_stmt 1 discriminator 3 view .LVU392
 1335              	.LBE35:
 362:Drivers/STM32G0xx_HAL_Driver/Src/stm32g0xx_ll_usb.c **** 
 1336              		.loc 1 362 7 discriminator 3 view .LVU393
 365:Drivers/STM32G0xx_HAL_Driver/Src/stm32g0xx_ll_usb.c **** 
 1337              		.loc 1 365 7 discriminator 3 view .LVU394
 1338              	.LBB37:
 365:Drivers/STM32G0xx_HAL_Driver/Src/stm32g0xx_ll_usb.c **** 
 1339              		.loc 1 365 7 discriminator 3 view .LVU395
 365:Drivers/STM32G0xx_HAL_Driver/Src/stm32g0xx_ll_usb.c **** 
 1340              		.loc 1 365 7 discriminator 3 view .LVU396
 1341 009e 0B78     		ldrb	r3, [r1]
 1342 00a0 9B00     		lsls	r3, r3, #2
 1343 00a2 C318     		adds	r3, r0, r3
 1344 00a4 1C68     		ldr	r4, [r3]
 1345 00a6 254A     		ldr	r2, .L70
 1346 00a8 1440     		ands	r4, r2
 1347              	.LVL123:
 365:Drivers/STM32G0xx_HAL_Driver/Src/stm32g0xx_ll_usb.c **** 
 1348              		.loc 1 365 7 discriminator 3 view .LVU397
 1349 00aa 254A     		ldr	r2, .L70+4
 1350 00ac 2243     		orrs	r2, r4
 1351 00ae 1A60     		str	r2, [r3]
 1352              	.LBE37:
 365:Drivers/STM32G0xx_HAL_Driver/Src/stm32g0xx_ll_usb.c **** 
 1353              		.loc 1 365 7 discriminator 3 view .LVU398
 367:Drivers/STM32G0xx_HAL_Driver/Src/stm32g0xx_ll_usb.c ****       PCD_SET_EP_TX_STATUS(USBx, ep->num, USB_EP_TX_DIS);
 1354              		.loc 1 367 7 discriminator 3 view .LVU399
 1355              	.LBB38:
 367:Drivers/STM32G0xx_HAL_Driver/Src/stm32g0xx_ll_usb.c ****       PCD_SET_EP_TX_STATUS(USBx, ep->num, USB_EP_TX_DIS);
 1356              		.loc 1 367 7 discriminator 3 view .LVU400
 367:Drivers/STM32G0xx_HAL_Driver/Src/stm32g0xx_ll_usb.c ****       PCD_SET_EP_TX_STATUS(USBx, ep->num, USB_EP_TX_DIS);
 1357              		.loc 1 367 7 discriminator 3 view .LVU401
 1358 00b0 0B78     		ldrb	r3, [r1]
 1359 00b2 9B00     		lsls	r3, r3, #2
 1360 00b4 C318     		adds	r3, r0, r3
 1361 00b6 1A68     		ldr	r2, [r3]
 1362 00b8 254C     		ldr	r4, .L70+20
 1363              	.LVL124:
 367:Drivers/STM32G0xx_HAL_Driver/Src/stm32g0xx_ll_usb.c ****       PCD_SET_EP_TX_STATUS(USBx, ep->num, USB_EP_TX_DIS);
 1364              		.loc 1 367 7 is_stmt 0 discriminator 3 view .LVU402
 1365 00ba 2240     		ands	r2, r4
 1366              	.LVL125:
 367:Drivers/STM32G0xx_HAL_Driver/Src/stm32g0xx_ll_usb.c ****       PCD_SET_EP_TX_STATUS(USBx, ep->num, USB_EP_TX_DIS);
 1367              		.loc 1 367 7 is_stmt 1 discriminator 3 view .LVU403
 367:Drivers/STM32G0xx_HAL_Driver/Src/stm32g0xx_ll_usb.c ****       PCD_SET_EP_TX_STATUS(USBx, ep->num, USB_EP_TX_DIS);
 1368              		.loc 1 367 7 discriminator 3 view .LVU404
 367:Drivers/STM32G0xx_HAL_Driver/Src/stm32g0xx_ll_usb.c ****       PCD_SET_EP_TX_STATUS(USBx, ep->num, USB_EP_TX_DIS);
ARM GAS  /tmp/ccQCrB9j.s 			page 35


 1369              		.loc 1 367 7 discriminator 3 view .LVU405
 1370 00bc 224C     		ldr	r4, .L70+12
 1371 00be 2243     		orrs	r2, r4
 1372              	.LVL126:
 367:Drivers/STM32G0xx_HAL_Driver/Src/stm32g0xx_ll_usb.c ****       PCD_SET_EP_TX_STATUS(USBx, ep->num, USB_EP_TX_DIS);
 1373              		.loc 1 367 7 is_stmt 0 discriminator 3 view .LVU406
 1374 00c0 1A60     		str	r2, [r3]
 1375              	.LBE38:
 367:Drivers/STM32G0xx_HAL_Driver/Src/stm32g0xx_ll_usb.c ****       PCD_SET_EP_TX_STATUS(USBx, ep->num, USB_EP_TX_DIS);
 1376              		.loc 1 367 7 is_stmt 1 discriminator 3 view .LVU407
 368:Drivers/STM32G0xx_HAL_Driver/Src/stm32g0xx_ll_usb.c ****     }
 1377              		.loc 1 368 7 discriminator 3 view .LVU408
 1378              	.LBB39:
 368:Drivers/STM32G0xx_HAL_Driver/Src/stm32g0xx_ll_usb.c ****     }
 1379              		.loc 1 368 7 discriminator 3 view .LVU409
 368:Drivers/STM32G0xx_HAL_Driver/Src/stm32g0xx_ll_usb.c ****     }
 1380              		.loc 1 368 7 discriminator 3 view .LVU410
 1381 00c2 0B78     		ldrb	r3, [r1]
 1382 00c4 9B00     		lsls	r3, r3, #2
 1383 00c6 C318     		adds	r3, r0, r3
 1384 00c8 1A68     		ldr	r2, [r3]
 1385 00ca 1E49     		ldr	r1, .L70+8
 1386              	.LVL127:
 368:Drivers/STM32G0xx_HAL_Driver/Src/stm32g0xx_ll_usb.c ****     }
 1387              		.loc 1 368 7 is_stmt 0 discriminator 3 view .LVU411
 1388 00cc 0A40     		ands	r2, r1
 1389              	.LVL128:
 368:Drivers/STM32G0xx_HAL_Driver/Src/stm32g0xx_ll_usb.c ****     }
 1390              		.loc 1 368 7 is_stmt 1 discriminator 3 view .LVU412
 368:Drivers/STM32G0xx_HAL_Driver/Src/stm32g0xx_ll_usb.c ****     }
 1391              		.loc 1 368 7 discriminator 3 view .LVU413
 368:Drivers/STM32G0xx_HAL_Driver/Src/stm32g0xx_ll_usb.c ****     }
 1392              		.loc 1 368 7 discriminator 3 view .LVU414
 1393 00ce 1443     		orrs	r4, r2
 1394 00d0 1C60     		str	r4, [r3]
 1395              	.LBE39:
 368:Drivers/STM32G0xx_HAL_Driver/Src/stm32g0xx_ll_usb.c ****     }
 1396              		.loc 1 368 7 discriminator 3 view .LVU415
 1397 00d2 B1E7     		b	.L57
 1398              	.LVL129:
 1399              	.L59:
 373:Drivers/STM32G0xx_HAL_Driver/Src/stm32g0xx_ll_usb.c ****       PCD_CLEAR_TX_DTOG(USBx, ep->num);
 1400              		.loc 1 373 7 view .LVU416
 1401              	.LBB40:
 373:Drivers/STM32G0xx_HAL_Driver/Src/stm32g0xx_ll_usb.c ****       PCD_CLEAR_TX_DTOG(USBx, ep->num);
 1402              		.loc 1 373 7 view .LVU417
 373:Drivers/STM32G0xx_HAL_Driver/Src/stm32g0xx_ll_usb.c ****       PCD_CLEAR_TX_DTOG(USBx, ep->num);
 1403              		.loc 1 373 7 view .LVU418
 1404 00d4 0B78     		ldrb	r3, [r1]
 1405 00d6 9B00     		lsls	r3, r3, #2
 1406 00d8 C318     		adds	r3, r0, r3
 1407 00da 1A68     		ldr	r2, [r3]
 1408              	.LVL130:
 373:Drivers/STM32G0xx_HAL_Driver/Src/stm32g0xx_ll_usb.c ****       PCD_CLEAR_TX_DTOG(USBx, ep->num);
 1409              		.loc 1 373 7 view .LVU419
 1410 00dc 5204     		lsls	r2, r2, #17
 1411 00de 05D5     		bpl	.L62
ARM GAS  /tmp/ccQCrB9j.s 			page 36


 1412              	.LVL131:
 373:Drivers/STM32G0xx_HAL_Driver/Src/stm32g0xx_ll_usb.c ****       PCD_CLEAR_TX_DTOG(USBx, ep->num);
 1413              		.loc 1 373 7 discriminator 1 view .LVU420
 1414              	.LBB41:
 373:Drivers/STM32G0xx_HAL_Driver/Src/stm32g0xx_ll_usb.c ****       PCD_CLEAR_TX_DTOG(USBx, ep->num);
 1415              		.loc 1 373 7 discriminator 1 view .LVU421
 373:Drivers/STM32G0xx_HAL_Driver/Src/stm32g0xx_ll_usb.c ****       PCD_CLEAR_TX_DTOG(USBx, ep->num);
 1416              		.loc 1 373 7 discriminator 1 view .LVU422
 1417 00e0 1C68     		ldr	r4, [r3]
 1418 00e2 164A     		ldr	r2, .L70
 1419 00e4 1440     		ands	r4, r2
 1420              	.LVL132:
 373:Drivers/STM32G0xx_HAL_Driver/Src/stm32g0xx_ll_usb.c ****       PCD_CLEAR_TX_DTOG(USBx, ep->num);
 1421              		.loc 1 373 7 discriminator 1 view .LVU423
 1422 00e6 194A     		ldr	r2, .L70+16
 1423 00e8 2243     		orrs	r2, r4
 1424 00ea 1A60     		str	r2, [r3]
 1425              	.LVL133:
 1426              	.L62:
 373:Drivers/STM32G0xx_HAL_Driver/Src/stm32g0xx_ll_usb.c ****       PCD_CLEAR_TX_DTOG(USBx, ep->num);
 1427              		.loc 1 373 7 is_stmt 0 discriminator 1 view .LVU424
 1428              	.LBE41:
 373:Drivers/STM32G0xx_HAL_Driver/Src/stm32g0xx_ll_usb.c ****       PCD_CLEAR_TX_DTOG(USBx, ep->num);
 1429              		.loc 1 373 7 is_stmt 1 discriminator 3 view .LVU425
 1430              	.LBE40:
 373:Drivers/STM32G0xx_HAL_Driver/Src/stm32g0xx_ll_usb.c ****       PCD_CLEAR_TX_DTOG(USBx, ep->num);
 1431              		.loc 1 373 7 discriminator 3 view .LVU426
 374:Drivers/STM32G0xx_HAL_Driver/Src/stm32g0xx_ll_usb.c ****       PCD_RX_DTOG(USBx, ep->num);
 1432              		.loc 1 374 7 discriminator 3 view .LVU427
 1433              	.LBB42:
 374:Drivers/STM32G0xx_HAL_Driver/Src/stm32g0xx_ll_usb.c ****       PCD_RX_DTOG(USBx, ep->num);
 1434              		.loc 1 374 7 discriminator 3 view .LVU428
 374:Drivers/STM32G0xx_HAL_Driver/Src/stm32g0xx_ll_usb.c ****       PCD_RX_DTOG(USBx, ep->num);
 1435              		.loc 1 374 7 discriminator 3 view .LVU429
 1436 00ec 0B78     		ldrb	r3, [r1]
 1437 00ee 9B00     		lsls	r3, r3, #2
 1438 00f0 C318     		adds	r3, r0, r3
 1439 00f2 1A68     		ldr	r2, [r3]
 1440              	.LVL134:
 374:Drivers/STM32G0xx_HAL_Driver/Src/stm32g0xx_ll_usb.c ****       PCD_RX_DTOG(USBx, ep->num);
 1441              		.loc 1 374 7 discriminator 3 view .LVU430
 1442 00f4 5206     		lsls	r2, r2, #25
 1443 00f6 05D5     		bpl	.L63
 1444              	.LVL135:
 374:Drivers/STM32G0xx_HAL_Driver/Src/stm32g0xx_ll_usb.c ****       PCD_RX_DTOG(USBx, ep->num);
 1445              		.loc 1 374 7 discriminator 1 view .LVU431
 1446              	.LBB43:
 374:Drivers/STM32G0xx_HAL_Driver/Src/stm32g0xx_ll_usb.c ****       PCD_RX_DTOG(USBx, ep->num);
 1447              		.loc 1 374 7 discriminator 1 view .LVU432
 374:Drivers/STM32G0xx_HAL_Driver/Src/stm32g0xx_ll_usb.c ****       PCD_RX_DTOG(USBx, ep->num);
 1448              		.loc 1 374 7 discriminator 1 view .LVU433
 1449 00f8 1C68     		ldr	r4, [r3]
 1450 00fa 104A     		ldr	r2, .L70
 1451 00fc 1440     		ands	r4, r2
 1452              	.LVL136:
 374:Drivers/STM32G0xx_HAL_Driver/Src/stm32g0xx_ll_usb.c ****       PCD_RX_DTOG(USBx, ep->num);
 1453              		.loc 1 374 7 discriminator 1 view .LVU434
ARM GAS  /tmp/ccQCrB9j.s 			page 37


 1454 00fe 104A     		ldr	r2, .L70+4
 1455 0100 2243     		orrs	r2, r4
 1456 0102 1A60     		str	r2, [r3]
 1457              	.LVL137:
 1458              	.L63:
 374:Drivers/STM32G0xx_HAL_Driver/Src/stm32g0xx_ll_usb.c ****       PCD_RX_DTOG(USBx, ep->num);
 1459              		.loc 1 374 7 is_stmt 0 discriminator 1 view .LVU435
 1460              	.LBE43:
 374:Drivers/STM32G0xx_HAL_Driver/Src/stm32g0xx_ll_usb.c ****       PCD_RX_DTOG(USBx, ep->num);
 1461              		.loc 1 374 7 is_stmt 1 discriminator 3 view .LVU436
 1462              	.LBE42:
 374:Drivers/STM32G0xx_HAL_Driver/Src/stm32g0xx_ll_usb.c ****       PCD_RX_DTOG(USBx, ep->num);
 1463              		.loc 1 374 7 discriminator 3 view .LVU437
 375:Drivers/STM32G0xx_HAL_Driver/Src/stm32g0xx_ll_usb.c **** 
 1464              		.loc 1 375 7 discriminator 3 view .LVU438
 1465              	.LBB44:
 375:Drivers/STM32G0xx_HAL_Driver/Src/stm32g0xx_ll_usb.c **** 
 1466              		.loc 1 375 7 discriminator 3 view .LVU439
 375:Drivers/STM32G0xx_HAL_Driver/Src/stm32g0xx_ll_usb.c **** 
 1467              		.loc 1 375 7 discriminator 3 view .LVU440
 1468 0104 0B78     		ldrb	r3, [r1]
 1469 0106 9B00     		lsls	r3, r3, #2
 1470 0108 C318     		adds	r3, r0, r3
 1471 010a 1C68     		ldr	r4, [r3]
 1472 010c 0B4A     		ldr	r2, .L70
 1473 010e 1440     		ands	r4, r2
 1474              	.LVL138:
 375:Drivers/STM32G0xx_HAL_Driver/Src/stm32g0xx_ll_usb.c **** 
 1475              		.loc 1 375 7 discriminator 3 view .LVU441
 1476 0110 0E4A     		ldr	r2, .L70+16
 1477 0112 2243     		orrs	r2, r4
 1478 0114 1A60     		str	r2, [r3]
 1479              	.LBE44:
 375:Drivers/STM32G0xx_HAL_Driver/Src/stm32g0xx_ll_usb.c **** 
 1480              		.loc 1 375 7 discriminator 3 view .LVU442
 378:Drivers/STM32G0xx_HAL_Driver/Src/stm32g0xx_ll_usb.c ****       PCD_SET_EP_RX_STATUS(USBx, ep->num, USB_EP_RX_DIS);
 1481              		.loc 1 378 7 discriminator 3 view .LVU443
 1482              	.LBB45:
 378:Drivers/STM32G0xx_HAL_Driver/Src/stm32g0xx_ll_usb.c ****       PCD_SET_EP_RX_STATUS(USBx, ep->num, USB_EP_RX_DIS);
 1483              		.loc 1 378 7 discriminator 3 view .LVU444
 378:Drivers/STM32G0xx_HAL_Driver/Src/stm32g0xx_ll_usb.c ****       PCD_SET_EP_RX_STATUS(USBx, ep->num, USB_EP_RX_DIS);
 1484              		.loc 1 378 7 discriminator 3 view .LVU445
 1485 0116 0B78     		ldrb	r3, [r1]
 1486 0118 9B00     		lsls	r3, r3, #2
 1487 011a C318     		adds	r3, r0, r3
 1488 011c 1A68     		ldr	r2, [r3]
 1489 011e 094C     		ldr	r4, .L70+8
 1490              	.LVL139:
 378:Drivers/STM32G0xx_HAL_Driver/Src/stm32g0xx_ll_usb.c ****       PCD_SET_EP_RX_STATUS(USBx, ep->num, USB_EP_RX_DIS);
 1491              		.loc 1 378 7 is_stmt 0 discriminator 3 view .LVU446
 1492 0120 2240     		ands	r2, r4
 1493              	.LVL140:
 378:Drivers/STM32G0xx_HAL_Driver/Src/stm32g0xx_ll_usb.c ****       PCD_SET_EP_RX_STATUS(USBx, ep->num, USB_EP_RX_DIS);
 1494              		.loc 1 378 7 is_stmt 1 discriminator 3 view .LVU447
 378:Drivers/STM32G0xx_HAL_Driver/Src/stm32g0xx_ll_usb.c ****       PCD_SET_EP_RX_STATUS(USBx, ep->num, USB_EP_RX_DIS);
 1495              		.loc 1 378 7 discriminator 3 view .LVU448
 378:Drivers/STM32G0xx_HAL_Driver/Src/stm32g0xx_ll_usb.c ****       PCD_SET_EP_RX_STATUS(USBx, ep->num, USB_EP_RX_DIS);
ARM GAS  /tmp/ccQCrB9j.s 			page 38


 1496              		.loc 1 378 7 discriminator 3 view .LVU449
 1497 0122 094C     		ldr	r4, .L70+12
 1498 0124 2243     		orrs	r2, r4
 1499              	.LVL141:
 378:Drivers/STM32G0xx_HAL_Driver/Src/stm32g0xx_ll_usb.c ****       PCD_SET_EP_RX_STATUS(USBx, ep->num, USB_EP_RX_DIS);
 1500              		.loc 1 378 7 is_stmt 0 discriminator 3 view .LVU450
 1501 0126 1A60     		str	r2, [r3]
 1502              	.LBE45:
 378:Drivers/STM32G0xx_HAL_Driver/Src/stm32g0xx_ll_usb.c ****       PCD_SET_EP_RX_STATUS(USBx, ep->num, USB_EP_RX_DIS);
 1503              		.loc 1 378 7 is_stmt 1 discriminator 3 view .LVU451
 379:Drivers/STM32G0xx_HAL_Driver/Src/stm32g0xx_ll_usb.c ****     }
 1504              		.loc 1 379 7 discriminator 3 view .LVU452
 1505              	.LBB46:
 379:Drivers/STM32G0xx_HAL_Driver/Src/stm32g0xx_ll_usb.c ****     }
 1506              		.loc 1 379 7 discriminator 3 view .LVU453
 379:Drivers/STM32G0xx_HAL_Driver/Src/stm32g0xx_ll_usb.c ****     }
 1507              		.loc 1 379 7 discriminator 3 view .LVU454
 1508 0128 0B78     		ldrb	r3, [r1]
 1509 012a 9B00     		lsls	r3, r3, #2
 1510 012c C018     		adds	r0, r0, r3
 1511              	.LVL142:
 379:Drivers/STM32G0xx_HAL_Driver/Src/stm32g0xx_ll_usb.c ****     }
 1512              		.loc 1 379 7 is_stmt 0 discriminator 3 view .LVU455
 1513 012e 0368     		ldr	r3, [r0]
 1514 0130 074A     		ldr	r2, .L70+20
 1515 0132 1340     		ands	r3, r2
 1516              	.LVL143:
 379:Drivers/STM32G0xx_HAL_Driver/Src/stm32g0xx_ll_usb.c ****     }
 1517              		.loc 1 379 7 is_stmt 1 discriminator 3 view .LVU456
 379:Drivers/STM32G0xx_HAL_Driver/Src/stm32g0xx_ll_usb.c ****     }
 1518              		.loc 1 379 7 discriminator 3 view .LVU457
 379:Drivers/STM32G0xx_HAL_Driver/Src/stm32g0xx_ll_usb.c ****     }
 1519              		.loc 1 379 7 discriminator 3 view .LVU458
 1520 0134 1C43     		orrs	r4, r3
 1521 0136 0460     		str	r4, [r0]
 1522 0138 7EE7     		b	.L57
 1523              	.L71:
 1524 013a C046     		.align	2
 1525              	.L70:
 1526 013c 8F8FFF07 		.word	134188943
 1527 0140 C0800000 		.word	32960
 1528 0144 BF8FFF07 		.word	134188991
 1529 0148 80800000 		.word	32896
 1530 014c 80C00000 		.word	49280
 1531 0150 8FBFFF07 		.word	134201231
 1532              	.LBE46:
 1533              		.cfi_endproc
 1534              	.LFE373:
 1536              		.section	.text.USB_EPSetStall,"ax",%progbits
 1537              		.align	1
 1538              		.global	USB_EPSetStall
 1539              		.syntax unified
 1540              		.code	16
 1541              		.thumb_func
 1543              	USB_EPSetStall:
 1544              	.LVL144:
 1545              	.LFB375:
ARM GAS  /tmp/ccQCrB9j.s 			page 39


 386:Drivers/STM32G0xx_HAL_Driver/Src/stm32g0xx_ll_usb.c **** 
 387:Drivers/STM32G0xx_HAL_Driver/Src/stm32g0xx_ll_usb.c **** /**
 388:Drivers/STM32G0xx_HAL_Driver/Src/stm32g0xx_ll_usb.c ****   * @brief  USB_EPStartXfer setup and starts a transfer over an EP
 389:Drivers/STM32G0xx_HAL_Driver/Src/stm32g0xx_ll_usb.c ****   * @param  USBx Selected device
 390:Drivers/STM32G0xx_HAL_Driver/Src/stm32g0xx_ll_usb.c ****   * @param  ep pointer to endpoint structure
 391:Drivers/STM32G0xx_HAL_Driver/Src/stm32g0xx_ll_usb.c ****   * @retval HAL status
 392:Drivers/STM32G0xx_HAL_Driver/Src/stm32g0xx_ll_usb.c ****   */
 393:Drivers/STM32G0xx_HAL_Driver/Src/stm32g0xx_ll_usb.c **** HAL_StatusTypeDef USB_EPStartXfer(USB_DRD_TypeDef *USBx, USB_DRD_EPTypeDef *ep)
 394:Drivers/STM32G0xx_HAL_Driver/Src/stm32g0xx_ll_usb.c **** {
 395:Drivers/STM32G0xx_HAL_Driver/Src/stm32g0xx_ll_usb.c ****   uint32_t len;
 396:Drivers/STM32G0xx_HAL_Driver/Src/stm32g0xx_ll_usb.c **** #if (USE_USB_DOUBLE_BUFFER == 1U)
 397:Drivers/STM32G0xx_HAL_Driver/Src/stm32g0xx_ll_usb.c ****   uint16_t pmabuffer;
 398:Drivers/STM32G0xx_HAL_Driver/Src/stm32g0xx_ll_usb.c ****   uint16_t wEPVal;
 399:Drivers/STM32G0xx_HAL_Driver/Src/stm32g0xx_ll_usb.c **** #endif /* (USE_USB_DOUBLE_BUFFER == 1U) */
 400:Drivers/STM32G0xx_HAL_Driver/Src/stm32g0xx_ll_usb.c **** 
 401:Drivers/STM32G0xx_HAL_Driver/Src/stm32g0xx_ll_usb.c ****   /* IN endpoint */
 402:Drivers/STM32G0xx_HAL_Driver/Src/stm32g0xx_ll_usb.c ****   if (ep->is_in == 1U)
 403:Drivers/STM32G0xx_HAL_Driver/Src/stm32g0xx_ll_usb.c ****   {
 404:Drivers/STM32G0xx_HAL_Driver/Src/stm32g0xx_ll_usb.c ****     /*Multi packet transfer*/
 405:Drivers/STM32G0xx_HAL_Driver/Src/stm32g0xx_ll_usb.c ****     if (ep->xfer_len > ep->maxpacket)
 406:Drivers/STM32G0xx_HAL_Driver/Src/stm32g0xx_ll_usb.c ****     {
 407:Drivers/STM32G0xx_HAL_Driver/Src/stm32g0xx_ll_usb.c ****       len = ep->maxpacket;
 408:Drivers/STM32G0xx_HAL_Driver/Src/stm32g0xx_ll_usb.c ****     }
 409:Drivers/STM32G0xx_HAL_Driver/Src/stm32g0xx_ll_usb.c ****     else
 410:Drivers/STM32G0xx_HAL_Driver/Src/stm32g0xx_ll_usb.c ****     {
 411:Drivers/STM32G0xx_HAL_Driver/Src/stm32g0xx_ll_usb.c ****       len = ep->xfer_len;
 412:Drivers/STM32G0xx_HAL_Driver/Src/stm32g0xx_ll_usb.c ****     }
 413:Drivers/STM32G0xx_HAL_Driver/Src/stm32g0xx_ll_usb.c **** 
 414:Drivers/STM32G0xx_HAL_Driver/Src/stm32g0xx_ll_usb.c ****     /* configure and validate Tx endpoint */
 415:Drivers/STM32G0xx_HAL_Driver/Src/stm32g0xx_ll_usb.c ****     if (ep->doublebuffer == 0U)
 416:Drivers/STM32G0xx_HAL_Driver/Src/stm32g0xx_ll_usb.c ****     {
 417:Drivers/STM32G0xx_HAL_Driver/Src/stm32g0xx_ll_usb.c ****       USB_WritePMA(USBx, ep->xfer_buff, ep->pmaadress, (uint16_t)len);
 418:Drivers/STM32G0xx_HAL_Driver/Src/stm32g0xx_ll_usb.c ****       PCD_SET_EP_TX_CNT(USBx, ep->num, len);
 419:Drivers/STM32G0xx_HAL_Driver/Src/stm32g0xx_ll_usb.c ****     }
 420:Drivers/STM32G0xx_HAL_Driver/Src/stm32g0xx_ll_usb.c **** #if (USE_USB_DOUBLE_BUFFER == 1U)
 421:Drivers/STM32G0xx_HAL_Driver/Src/stm32g0xx_ll_usb.c ****     else
 422:Drivers/STM32G0xx_HAL_Driver/Src/stm32g0xx_ll_usb.c ****     {
 423:Drivers/STM32G0xx_HAL_Driver/Src/stm32g0xx_ll_usb.c ****       /* double buffer bulk management */
 424:Drivers/STM32G0xx_HAL_Driver/Src/stm32g0xx_ll_usb.c ****       if (ep->type == EP_TYPE_BULK)
 425:Drivers/STM32G0xx_HAL_Driver/Src/stm32g0xx_ll_usb.c ****       {
 426:Drivers/STM32G0xx_HAL_Driver/Src/stm32g0xx_ll_usb.c ****         if (ep->xfer_len_db > ep->maxpacket)
 427:Drivers/STM32G0xx_HAL_Driver/Src/stm32g0xx_ll_usb.c ****         {
 428:Drivers/STM32G0xx_HAL_Driver/Src/stm32g0xx_ll_usb.c ****           /* enable double buffer */
 429:Drivers/STM32G0xx_HAL_Driver/Src/stm32g0xx_ll_usb.c ****           PCD_SET_BULK_EP_DBUF(USBx, ep->num);
 430:Drivers/STM32G0xx_HAL_Driver/Src/stm32g0xx_ll_usb.c **** 
 431:Drivers/STM32G0xx_HAL_Driver/Src/stm32g0xx_ll_usb.c ****           /* each Time to write in PMA xfer_len_db will */
 432:Drivers/STM32G0xx_HAL_Driver/Src/stm32g0xx_ll_usb.c ****           ep->xfer_len_db -= len;
 433:Drivers/STM32G0xx_HAL_Driver/Src/stm32g0xx_ll_usb.c **** 
 434:Drivers/STM32G0xx_HAL_Driver/Src/stm32g0xx_ll_usb.c ****           /* Fill the two first buffer in the Buffer0 & Buffer1 */
 435:Drivers/STM32G0xx_HAL_Driver/Src/stm32g0xx_ll_usb.c ****           if ((PCD_GET_ENDPOINT(USBx, ep->num) & USB_EP_DTOG_TX) != 0U)
 436:Drivers/STM32G0xx_HAL_Driver/Src/stm32g0xx_ll_usb.c ****           {
 437:Drivers/STM32G0xx_HAL_Driver/Src/stm32g0xx_ll_usb.c ****             /* Set the Double buffer counter for pmabuffer1 */
 438:Drivers/STM32G0xx_HAL_Driver/Src/stm32g0xx_ll_usb.c ****             PCD_SET_EP_DBUF1_CNT(USBx, ep->num, ep->is_in, len);
 439:Drivers/STM32G0xx_HAL_Driver/Src/stm32g0xx_ll_usb.c ****             pmabuffer = ep->pmaaddr1;
 440:Drivers/STM32G0xx_HAL_Driver/Src/stm32g0xx_ll_usb.c **** 
 441:Drivers/STM32G0xx_HAL_Driver/Src/stm32g0xx_ll_usb.c ****             /* Write the user buffer to USB PMA */
 442:Drivers/STM32G0xx_HAL_Driver/Src/stm32g0xx_ll_usb.c ****             USB_WritePMA(USBx, ep->xfer_buff, pmabuffer, (uint16_t)len);
ARM GAS  /tmp/ccQCrB9j.s 			page 40


 443:Drivers/STM32G0xx_HAL_Driver/Src/stm32g0xx_ll_usb.c ****             ep->xfer_buff += len;
 444:Drivers/STM32G0xx_HAL_Driver/Src/stm32g0xx_ll_usb.c **** 
 445:Drivers/STM32G0xx_HAL_Driver/Src/stm32g0xx_ll_usb.c ****             if (ep->xfer_len_db > ep->maxpacket)
 446:Drivers/STM32G0xx_HAL_Driver/Src/stm32g0xx_ll_usb.c ****             {
 447:Drivers/STM32G0xx_HAL_Driver/Src/stm32g0xx_ll_usb.c ****               ep->xfer_len_db -= len;
 448:Drivers/STM32G0xx_HAL_Driver/Src/stm32g0xx_ll_usb.c ****             }
 449:Drivers/STM32G0xx_HAL_Driver/Src/stm32g0xx_ll_usb.c ****             else
 450:Drivers/STM32G0xx_HAL_Driver/Src/stm32g0xx_ll_usb.c ****             {
 451:Drivers/STM32G0xx_HAL_Driver/Src/stm32g0xx_ll_usb.c ****               len = ep->xfer_len_db;
 452:Drivers/STM32G0xx_HAL_Driver/Src/stm32g0xx_ll_usb.c ****               ep->xfer_len_db = 0U;
 453:Drivers/STM32G0xx_HAL_Driver/Src/stm32g0xx_ll_usb.c ****             }
 454:Drivers/STM32G0xx_HAL_Driver/Src/stm32g0xx_ll_usb.c **** 
 455:Drivers/STM32G0xx_HAL_Driver/Src/stm32g0xx_ll_usb.c ****             /* Set the Double buffer counter for pmabuffer0 */
 456:Drivers/STM32G0xx_HAL_Driver/Src/stm32g0xx_ll_usb.c ****             PCD_SET_EP_DBUF0_CNT(USBx, ep->num, ep->is_in, len);
 457:Drivers/STM32G0xx_HAL_Driver/Src/stm32g0xx_ll_usb.c ****             pmabuffer = ep->pmaaddr0;
 458:Drivers/STM32G0xx_HAL_Driver/Src/stm32g0xx_ll_usb.c **** 
 459:Drivers/STM32G0xx_HAL_Driver/Src/stm32g0xx_ll_usb.c ****             /* Write the user buffer to USB PMA */
 460:Drivers/STM32G0xx_HAL_Driver/Src/stm32g0xx_ll_usb.c ****             USB_WritePMA(USBx, ep->xfer_buff, pmabuffer, (uint16_t)len);
 461:Drivers/STM32G0xx_HAL_Driver/Src/stm32g0xx_ll_usb.c ****           }
 462:Drivers/STM32G0xx_HAL_Driver/Src/stm32g0xx_ll_usb.c ****           else
 463:Drivers/STM32G0xx_HAL_Driver/Src/stm32g0xx_ll_usb.c ****           {
 464:Drivers/STM32G0xx_HAL_Driver/Src/stm32g0xx_ll_usb.c ****             /* Set the Double buffer counter for pmabuffer0 */
 465:Drivers/STM32G0xx_HAL_Driver/Src/stm32g0xx_ll_usb.c ****             PCD_SET_EP_DBUF0_CNT(USBx, ep->num, ep->is_in, len);
 466:Drivers/STM32G0xx_HAL_Driver/Src/stm32g0xx_ll_usb.c ****             pmabuffer = ep->pmaaddr0;
 467:Drivers/STM32G0xx_HAL_Driver/Src/stm32g0xx_ll_usb.c **** 
 468:Drivers/STM32G0xx_HAL_Driver/Src/stm32g0xx_ll_usb.c ****             /* Write the user buffer to USB PMA */
 469:Drivers/STM32G0xx_HAL_Driver/Src/stm32g0xx_ll_usb.c ****             USB_WritePMA(USBx, ep->xfer_buff, pmabuffer, (uint16_t)len);
 470:Drivers/STM32G0xx_HAL_Driver/Src/stm32g0xx_ll_usb.c ****             ep->xfer_buff += len;
 471:Drivers/STM32G0xx_HAL_Driver/Src/stm32g0xx_ll_usb.c **** 
 472:Drivers/STM32G0xx_HAL_Driver/Src/stm32g0xx_ll_usb.c ****             if (ep->xfer_len_db > ep->maxpacket)
 473:Drivers/STM32G0xx_HAL_Driver/Src/stm32g0xx_ll_usb.c ****             {
 474:Drivers/STM32G0xx_HAL_Driver/Src/stm32g0xx_ll_usb.c ****               ep->xfer_len_db -= len;
 475:Drivers/STM32G0xx_HAL_Driver/Src/stm32g0xx_ll_usb.c ****             }
 476:Drivers/STM32G0xx_HAL_Driver/Src/stm32g0xx_ll_usb.c ****             else
 477:Drivers/STM32G0xx_HAL_Driver/Src/stm32g0xx_ll_usb.c ****             {
 478:Drivers/STM32G0xx_HAL_Driver/Src/stm32g0xx_ll_usb.c ****               len = ep->xfer_len_db;
 479:Drivers/STM32G0xx_HAL_Driver/Src/stm32g0xx_ll_usb.c ****               ep->xfer_len_db = 0U;
 480:Drivers/STM32G0xx_HAL_Driver/Src/stm32g0xx_ll_usb.c ****             }
 481:Drivers/STM32G0xx_HAL_Driver/Src/stm32g0xx_ll_usb.c **** 
 482:Drivers/STM32G0xx_HAL_Driver/Src/stm32g0xx_ll_usb.c ****             /* Set the Double buffer counter for pmabuffer1 */
 483:Drivers/STM32G0xx_HAL_Driver/Src/stm32g0xx_ll_usb.c ****             PCD_SET_EP_DBUF1_CNT(USBx, ep->num, ep->is_in, len);
 484:Drivers/STM32G0xx_HAL_Driver/Src/stm32g0xx_ll_usb.c ****             pmabuffer = ep->pmaaddr1;
 485:Drivers/STM32G0xx_HAL_Driver/Src/stm32g0xx_ll_usb.c **** 
 486:Drivers/STM32G0xx_HAL_Driver/Src/stm32g0xx_ll_usb.c ****             /* Write the user buffer to USB PMA */
 487:Drivers/STM32G0xx_HAL_Driver/Src/stm32g0xx_ll_usb.c ****             USB_WritePMA(USBx, ep->xfer_buff, pmabuffer, (uint16_t)len);
 488:Drivers/STM32G0xx_HAL_Driver/Src/stm32g0xx_ll_usb.c ****           }
 489:Drivers/STM32G0xx_HAL_Driver/Src/stm32g0xx_ll_usb.c ****         }
 490:Drivers/STM32G0xx_HAL_Driver/Src/stm32g0xx_ll_usb.c ****         /* auto Switch to single buffer mode when transfer <Mps no need to manage in double buffer 
 491:Drivers/STM32G0xx_HAL_Driver/Src/stm32g0xx_ll_usb.c ****         else
 492:Drivers/STM32G0xx_HAL_Driver/Src/stm32g0xx_ll_usb.c ****         {
 493:Drivers/STM32G0xx_HAL_Driver/Src/stm32g0xx_ll_usb.c ****           len = ep->xfer_len_db;
 494:Drivers/STM32G0xx_HAL_Driver/Src/stm32g0xx_ll_usb.c **** 
 495:Drivers/STM32G0xx_HAL_Driver/Src/stm32g0xx_ll_usb.c ****           /* disable double buffer mode for Bulk endpoint */
 496:Drivers/STM32G0xx_HAL_Driver/Src/stm32g0xx_ll_usb.c ****           PCD_CLEAR_BULK_EP_DBUF(USBx, ep->num);
 497:Drivers/STM32G0xx_HAL_Driver/Src/stm32g0xx_ll_usb.c **** 
 498:Drivers/STM32G0xx_HAL_Driver/Src/stm32g0xx_ll_usb.c ****           /* Set Tx count with nbre of byte to be transmitted */
 499:Drivers/STM32G0xx_HAL_Driver/Src/stm32g0xx_ll_usb.c ****           PCD_SET_EP_TX_CNT(USBx, ep->num, len);
ARM GAS  /tmp/ccQCrB9j.s 			page 41


 500:Drivers/STM32G0xx_HAL_Driver/Src/stm32g0xx_ll_usb.c ****           pmabuffer = ep->pmaaddr0;
 501:Drivers/STM32G0xx_HAL_Driver/Src/stm32g0xx_ll_usb.c **** 
 502:Drivers/STM32G0xx_HAL_Driver/Src/stm32g0xx_ll_usb.c ****           /* Write the user buffer to USB PMA */
 503:Drivers/STM32G0xx_HAL_Driver/Src/stm32g0xx_ll_usb.c ****           USB_WritePMA(USBx, ep->xfer_buff, pmabuffer, (uint16_t)len);
 504:Drivers/STM32G0xx_HAL_Driver/Src/stm32g0xx_ll_usb.c ****         }
 505:Drivers/STM32G0xx_HAL_Driver/Src/stm32g0xx_ll_usb.c ****       }
 506:Drivers/STM32G0xx_HAL_Driver/Src/stm32g0xx_ll_usb.c ****       else /* manage isochronous double buffer IN mode */
 507:Drivers/STM32G0xx_HAL_Driver/Src/stm32g0xx_ll_usb.c ****       {
 508:Drivers/STM32G0xx_HAL_Driver/Src/stm32g0xx_ll_usb.c ****         /* each Time to write in PMA xfer_len_db will */
 509:Drivers/STM32G0xx_HAL_Driver/Src/stm32g0xx_ll_usb.c ****         ep->xfer_len_db -= len;
 510:Drivers/STM32G0xx_HAL_Driver/Src/stm32g0xx_ll_usb.c **** 
 511:Drivers/STM32G0xx_HAL_Driver/Src/stm32g0xx_ll_usb.c ****         /* Fill the data buffer */
 512:Drivers/STM32G0xx_HAL_Driver/Src/stm32g0xx_ll_usb.c ****         if ((PCD_GET_ENDPOINT(USBx, ep->num) & USB_EP_DTOG_TX) != 0U)
 513:Drivers/STM32G0xx_HAL_Driver/Src/stm32g0xx_ll_usb.c ****         {
 514:Drivers/STM32G0xx_HAL_Driver/Src/stm32g0xx_ll_usb.c ****           /* Set the Double buffer counter for pmabuffer1 */
 515:Drivers/STM32G0xx_HAL_Driver/Src/stm32g0xx_ll_usb.c ****           PCD_SET_EP_DBUF1_CNT(USBx, ep->num, ep->is_in, len);
 516:Drivers/STM32G0xx_HAL_Driver/Src/stm32g0xx_ll_usb.c ****           pmabuffer = ep->pmaaddr1;
 517:Drivers/STM32G0xx_HAL_Driver/Src/stm32g0xx_ll_usb.c **** 
 518:Drivers/STM32G0xx_HAL_Driver/Src/stm32g0xx_ll_usb.c ****           /* Write the user buffer to USB PMA */
 519:Drivers/STM32G0xx_HAL_Driver/Src/stm32g0xx_ll_usb.c ****           USB_WritePMA(USBx, ep->xfer_buff, pmabuffer, (uint16_t)len);
 520:Drivers/STM32G0xx_HAL_Driver/Src/stm32g0xx_ll_usb.c ****         }
 521:Drivers/STM32G0xx_HAL_Driver/Src/stm32g0xx_ll_usb.c ****         else
 522:Drivers/STM32G0xx_HAL_Driver/Src/stm32g0xx_ll_usb.c ****         {
 523:Drivers/STM32G0xx_HAL_Driver/Src/stm32g0xx_ll_usb.c ****           /* Set the Double buffer counter for pmabuffer0 */
 524:Drivers/STM32G0xx_HAL_Driver/Src/stm32g0xx_ll_usb.c ****           PCD_SET_EP_DBUF0_CNT(USBx, ep->num, ep->is_in, len);
 525:Drivers/STM32G0xx_HAL_Driver/Src/stm32g0xx_ll_usb.c ****           pmabuffer = ep->pmaaddr0;
 526:Drivers/STM32G0xx_HAL_Driver/Src/stm32g0xx_ll_usb.c **** 
 527:Drivers/STM32G0xx_HAL_Driver/Src/stm32g0xx_ll_usb.c ****           /* Write the user buffer to USB PMA */
 528:Drivers/STM32G0xx_HAL_Driver/Src/stm32g0xx_ll_usb.c ****           USB_WritePMA(USBx, ep->xfer_buff, pmabuffer, (uint16_t)len);
 529:Drivers/STM32G0xx_HAL_Driver/Src/stm32g0xx_ll_usb.c ****         }
 530:Drivers/STM32G0xx_HAL_Driver/Src/stm32g0xx_ll_usb.c ****       }
 531:Drivers/STM32G0xx_HAL_Driver/Src/stm32g0xx_ll_usb.c ****     }
 532:Drivers/STM32G0xx_HAL_Driver/Src/stm32g0xx_ll_usb.c **** #endif /* (USE_USB_DOUBLE_BUFFER == 1U) */
 533:Drivers/STM32G0xx_HAL_Driver/Src/stm32g0xx_ll_usb.c **** 
 534:Drivers/STM32G0xx_HAL_Driver/Src/stm32g0xx_ll_usb.c ****     PCD_SET_EP_TX_STATUS(USBx, ep->num, USB_EP_TX_VALID);
 535:Drivers/STM32G0xx_HAL_Driver/Src/stm32g0xx_ll_usb.c ****   }
 536:Drivers/STM32G0xx_HAL_Driver/Src/stm32g0xx_ll_usb.c ****   else /* OUT endpoint */
 537:Drivers/STM32G0xx_HAL_Driver/Src/stm32g0xx_ll_usb.c ****   {
 538:Drivers/STM32G0xx_HAL_Driver/Src/stm32g0xx_ll_usb.c ****     if (ep->doublebuffer == 0U)
 539:Drivers/STM32G0xx_HAL_Driver/Src/stm32g0xx_ll_usb.c ****     {
 540:Drivers/STM32G0xx_HAL_Driver/Src/stm32g0xx_ll_usb.c ****       /* Multi packet transfer */
 541:Drivers/STM32G0xx_HAL_Driver/Src/stm32g0xx_ll_usb.c ****       if (ep->xfer_len > ep->maxpacket)
 542:Drivers/STM32G0xx_HAL_Driver/Src/stm32g0xx_ll_usb.c ****       {
 543:Drivers/STM32G0xx_HAL_Driver/Src/stm32g0xx_ll_usb.c ****         len = ep->maxpacket;
 544:Drivers/STM32G0xx_HAL_Driver/Src/stm32g0xx_ll_usb.c ****         ep->xfer_len -= len;
 545:Drivers/STM32G0xx_HAL_Driver/Src/stm32g0xx_ll_usb.c ****       }
 546:Drivers/STM32G0xx_HAL_Driver/Src/stm32g0xx_ll_usb.c ****       else
 547:Drivers/STM32G0xx_HAL_Driver/Src/stm32g0xx_ll_usb.c ****       {
 548:Drivers/STM32G0xx_HAL_Driver/Src/stm32g0xx_ll_usb.c ****         len = ep->xfer_len;
 549:Drivers/STM32G0xx_HAL_Driver/Src/stm32g0xx_ll_usb.c ****         ep->xfer_len = 0U;
 550:Drivers/STM32G0xx_HAL_Driver/Src/stm32g0xx_ll_usb.c ****       }
 551:Drivers/STM32G0xx_HAL_Driver/Src/stm32g0xx_ll_usb.c ****       /* configure and validate Rx endpoint */
 552:Drivers/STM32G0xx_HAL_Driver/Src/stm32g0xx_ll_usb.c ****       PCD_SET_EP_RX_CNT(USBx, ep->num, len);
 553:Drivers/STM32G0xx_HAL_Driver/Src/stm32g0xx_ll_usb.c ****     }
 554:Drivers/STM32G0xx_HAL_Driver/Src/stm32g0xx_ll_usb.c **** #if (USE_USB_DOUBLE_BUFFER == 1U)
 555:Drivers/STM32G0xx_HAL_Driver/Src/stm32g0xx_ll_usb.c ****     else
 556:Drivers/STM32G0xx_HAL_Driver/Src/stm32g0xx_ll_usb.c ****     {
ARM GAS  /tmp/ccQCrB9j.s 			page 42


 557:Drivers/STM32G0xx_HAL_Driver/Src/stm32g0xx_ll_usb.c ****       /* First Transfer Coming From HAL_PCD_EP_Receive & From ISR */
 558:Drivers/STM32G0xx_HAL_Driver/Src/stm32g0xx_ll_usb.c ****       /* Set the Double buffer counter */
 559:Drivers/STM32G0xx_HAL_Driver/Src/stm32g0xx_ll_usb.c ****       if (ep->type == EP_TYPE_BULK)
 560:Drivers/STM32G0xx_HAL_Driver/Src/stm32g0xx_ll_usb.c ****       {
 561:Drivers/STM32G0xx_HAL_Driver/Src/stm32g0xx_ll_usb.c ****         PCD_SET_EP_DBUF_CNT(USBx, ep->num, ep->is_in, ep->maxpacket);
 562:Drivers/STM32G0xx_HAL_Driver/Src/stm32g0xx_ll_usb.c **** 
 563:Drivers/STM32G0xx_HAL_Driver/Src/stm32g0xx_ll_usb.c ****         /* Coming from ISR */
 564:Drivers/STM32G0xx_HAL_Driver/Src/stm32g0xx_ll_usb.c ****         if (ep->xfer_count != 0U)
 565:Drivers/STM32G0xx_HAL_Driver/Src/stm32g0xx_ll_usb.c ****         {
 566:Drivers/STM32G0xx_HAL_Driver/Src/stm32g0xx_ll_usb.c ****           /* update last value to check if there is blocking state */
 567:Drivers/STM32G0xx_HAL_Driver/Src/stm32g0xx_ll_usb.c ****           wEPVal = (uint16_t)PCD_GET_ENDPOINT(USBx, ep->num);
 568:Drivers/STM32G0xx_HAL_Driver/Src/stm32g0xx_ll_usb.c **** 
 569:Drivers/STM32G0xx_HAL_Driver/Src/stm32g0xx_ll_usb.c ****           /*Blocking State */
 570:Drivers/STM32G0xx_HAL_Driver/Src/stm32g0xx_ll_usb.c ****           if ((((wEPVal & USB_EP_DTOG_RX) != 0U) && ((wEPVal & USB_EP_DTOG_TX) != 0U)) ||
 571:Drivers/STM32G0xx_HAL_Driver/Src/stm32g0xx_ll_usb.c ****               (((wEPVal & USB_EP_DTOG_RX) == 0U) && ((wEPVal & USB_EP_DTOG_TX) == 0U)))
 572:Drivers/STM32G0xx_HAL_Driver/Src/stm32g0xx_ll_usb.c ****           {
 573:Drivers/STM32G0xx_HAL_Driver/Src/stm32g0xx_ll_usb.c ****             PCD_FREE_USER_BUFFER(USBx, ep->num, 0U);
 574:Drivers/STM32G0xx_HAL_Driver/Src/stm32g0xx_ll_usb.c ****           }
 575:Drivers/STM32G0xx_HAL_Driver/Src/stm32g0xx_ll_usb.c ****         }
 576:Drivers/STM32G0xx_HAL_Driver/Src/stm32g0xx_ll_usb.c ****       }
 577:Drivers/STM32G0xx_HAL_Driver/Src/stm32g0xx_ll_usb.c ****       /* iso out double */
 578:Drivers/STM32G0xx_HAL_Driver/Src/stm32g0xx_ll_usb.c ****       else if (ep->type == EP_TYPE_ISOC)
 579:Drivers/STM32G0xx_HAL_Driver/Src/stm32g0xx_ll_usb.c ****       {
 580:Drivers/STM32G0xx_HAL_Driver/Src/stm32g0xx_ll_usb.c ****         /* Multi packet transfer */
 581:Drivers/STM32G0xx_HAL_Driver/Src/stm32g0xx_ll_usb.c ****         if (ep->xfer_len > ep->maxpacket)
 582:Drivers/STM32G0xx_HAL_Driver/Src/stm32g0xx_ll_usb.c ****         {
 583:Drivers/STM32G0xx_HAL_Driver/Src/stm32g0xx_ll_usb.c ****           len = ep->maxpacket;
 584:Drivers/STM32G0xx_HAL_Driver/Src/stm32g0xx_ll_usb.c ****           ep->xfer_len -= len;
 585:Drivers/STM32G0xx_HAL_Driver/Src/stm32g0xx_ll_usb.c ****         }
 586:Drivers/STM32G0xx_HAL_Driver/Src/stm32g0xx_ll_usb.c ****         else
 587:Drivers/STM32G0xx_HAL_Driver/Src/stm32g0xx_ll_usb.c ****         {
 588:Drivers/STM32G0xx_HAL_Driver/Src/stm32g0xx_ll_usb.c ****           len = ep->xfer_len;
 589:Drivers/STM32G0xx_HAL_Driver/Src/stm32g0xx_ll_usb.c ****           ep->xfer_len = 0U;
 590:Drivers/STM32G0xx_HAL_Driver/Src/stm32g0xx_ll_usb.c ****         }
 591:Drivers/STM32G0xx_HAL_Driver/Src/stm32g0xx_ll_usb.c ****         PCD_SET_EP_DBUF_CNT(USBx, ep->num, ep->is_in, len);
 592:Drivers/STM32G0xx_HAL_Driver/Src/stm32g0xx_ll_usb.c ****       }
 593:Drivers/STM32G0xx_HAL_Driver/Src/stm32g0xx_ll_usb.c ****       else
 594:Drivers/STM32G0xx_HAL_Driver/Src/stm32g0xx_ll_usb.c ****       {
 595:Drivers/STM32G0xx_HAL_Driver/Src/stm32g0xx_ll_usb.c ****         return HAL_ERROR;
 596:Drivers/STM32G0xx_HAL_Driver/Src/stm32g0xx_ll_usb.c ****       }
 597:Drivers/STM32G0xx_HAL_Driver/Src/stm32g0xx_ll_usb.c ****     }
 598:Drivers/STM32G0xx_HAL_Driver/Src/stm32g0xx_ll_usb.c **** #endif /* (USE_USB_DOUBLE_BUFFER == 1U) */
 599:Drivers/STM32G0xx_HAL_Driver/Src/stm32g0xx_ll_usb.c **** 
 600:Drivers/STM32G0xx_HAL_Driver/Src/stm32g0xx_ll_usb.c ****     PCD_SET_EP_RX_STATUS(USBx, ep->num, USB_EP_RX_VALID);
 601:Drivers/STM32G0xx_HAL_Driver/Src/stm32g0xx_ll_usb.c ****   }
 602:Drivers/STM32G0xx_HAL_Driver/Src/stm32g0xx_ll_usb.c **** 
 603:Drivers/STM32G0xx_HAL_Driver/Src/stm32g0xx_ll_usb.c ****   return HAL_OK;
 604:Drivers/STM32G0xx_HAL_Driver/Src/stm32g0xx_ll_usb.c **** }
 605:Drivers/STM32G0xx_HAL_Driver/Src/stm32g0xx_ll_usb.c **** 
 606:Drivers/STM32G0xx_HAL_Driver/Src/stm32g0xx_ll_usb.c **** 
 607:Drivers/STM32G0xx_HAL_Driver/Src/stm32g0xx_ll_usb.c **** /**
 608:Drivers/STM32G0xx_HAL_Driver/Src/stm32g0xx_ll_usb.c ****   * @brief  USB_EPSetStall set a stall condition over an EP
 609:Drivers/STM32G0xx_HAL_Driver/Src/stm32g0xx_ll_usb.c ****   * @param  USBx Selected device
 610:Drivers/STM32G0xx_HAL_Driver/Src/stm32g0xx_ll_usb.c ****   * @param  ep pointer to endpoint structure
 611:Drivers/STM32G0xx_HAL_Driver/Src/stm32g0xx_ll_usb.c ****   * @retval HAL status
 612:Drivers/STM32G0xx_HAL_Driver/Src/stm32g0xx_ll_usb.c ****   */
 613:Drivers/STM32G0xx_HAL_Driver/Src/stm32g0xx_ll_usb.c **** HAL_StatusTypeDef USB_EPSetStall(USB_DRD_TypeDef *USBx, USB_DRD_EPTypeDef *ep)
ARM GAS  /tmp/ccQCrB9j.s 			page 43


 614:Drivers/STM32G0xx_HAL_Driver/Src/stm32g0xx_ll_usb.c **** {
 1546              		.loc 1 614 1 view -0
 1547              		.cfi_startproc
 1548              		@ args = 0, pretend = 0, frame = 0
 1549              		@ frame_needed = 0, uses_anonymous_args = 0
 1550              		@ link register save eliminated.
 615:Drivers/STM32G0xx_HAL_Driver/Src/stm32g0xx_ll_usb.c ****   if (ep->is_in != 0U)
 1551              		.loc 1 615 3 view .LVU460
 1552              		.loc 1 615 9 is_stmt 0 view .LVU461
 1553 0000 4B78     		ldrb	r3, [r1, #1]
 1554              		.loc 1 615 6 view .LVU462
 1555 0002 002B     		cmp	r3, #0
 1556 0004 0CD0     		beq	.L73
 616:Drivers/STM32G0xx_HAL_Driver/Src/stm32g0xx_ll_usb.c ****   {
 617:Drivers/STM32G0xx_HAL_Driver/Src/stm32g0xx_ll_usb.c ****     PCD_SET_EP_TX_STATUS(USBx, ep->num, USB_EP_TX_STALL);
 1557              		.loc 1 617 5 is_stmt 1 view .LVU463
 1558              	.LBB47:
 1559              		.loc 1 617 5 view .LVU464
 1560              		.loc 1 617 5 view .LVU465
 1561 0006 0B78     		ldrb	r3, [r1]
 1562 0008 9B00     		lsls	r3, r3, #2
 1563 000a C018     		adds	r0, r0, r3
 1564              	.LVL145:
 1565              		.loc 1 617 5 is_stmt 0 view .LVU466
 1566 000c 0368     		ldr	r3, [r0]
 1567 000e 0B4A     		ldr	r2, .L75
 1568 0010 1340     		ands	r3, r2
 1569              	.LVL146:
 1570              		.loc 1 617 5 is_stmt 1 view .LVU467
 1571              		.loc 1 617 5 view .LVU468
 1572 0012 1022     		movs	r2, #16
 1573 0014 5340     		eors	r3, r2
 1574              	.LVL147:
 1575              		.loc 1 617 5 view .LVU469
 1576              		.loc 1 617 5 view .LVU470
 1577 0016 0A4A     		ldr	r2, .L75+4
 1578 0018 1343     		orrs	r3, r2
 1579              	.LVL148:
 1580              		.loc 1 617 5 is_stmt 0 view .LVU471
 1581 001a 0360     		str	r3, [r0]
 1582              	.LBE47:
 1583              		.loc 1 617 5 is_stmt 1 view .LVU472
 1584              	.LVL149:
 1585              	.L74:
 618:Drivers/STM32G0xx_HAL_Driver/Src/stm32g0xx_ll_usb.c ****   }
 619:Drivers/STM32G0xx_HAL_Driver/Src/stm32g0xx_ll_usb.c ****   else
 620:Drivers/STM32G0xx_HAL_Driver/Src/stm32g0xx_ll_usb.c ****   {
 621:Drivers/STM32G0xx_HAL_Driver/Src/stm32g0xx_ll_usb.c ****     PCD_SET_EP_RX_STATUS(USBx, ep->num, USB_EP_RX_STALL);
 1586              		.loc 1 621 5 discriminator 7 view .LVU473
 622:Drivers/STM32G0xx_HAL_Driver/Src/stm32g0xx_ll_usb.c ****   }
 623:Drivers/STM32G0xx_HAL_Driver/Src/stm32g0xx_ll_usb.c **** 
 624:Drivers/STM32G0xx_HAL_Driver/Src/stm32g0xx_ll_usb.c ****   return HAL_OK;
 1587              		.loc 1 624 3 discriminator 7 view .LVU474
 625:Drivers/STM32G0xx_HAL_Driver/Src/stm32g0xx_ll_usb.c **** }
 1588              		.loc 1 625 1 is_stmt 0 discriminator 7 view .LVU475
 1589 001c 0020     		movs	r0, #0
 1590              		@ sp needed
ARM GAS  /tmp/ccQCrB9j.s 			page 44


 1591 001e 7047     		bx	lr
 1592              	.LVL150:
 1593              	.L73:
 621:Drivers/STM32G0xx_HAL_Driver/Src/stm32g0xx_ll_usb.c ****   }
 1594              		.loc 1 621 5 is_stmt 1 view .LVU476
 1595              	.LBB48:
 621:Drivers/STM32G0xx_HAL_Driver/Src/stm32g0xx_ll_usb.c ****   }
 1596              		.loc 1 621 5 view .LVU477
 621:Drivers/STM32G0xx_HAL_Driver/Src/stm32g0xx_ll_usb.c ****   }
 1597              		.loc 1 621 5 view .LVU478
 1598 0020 0B78     		ldrb	r3, [r1]
 1599 0022 9B00     		lsls	r3, r3, #2
 1600 0024 C018     		adds	r0, r0, r3
 1601              	.LVL151:
 621:Drivers/STM32G0xx_HAL_Driver/Src/stm32g0xx_ll_usb.c ****   }
 1602              		.loc 1 621 5 is_stmt 0 view .LVU479
 1603 0026 0368     		ldr	r3, [r0]
 1604 0028 064A     		ldr	r2, .L75+8
 1605 002a 1340     		ands	r3, r2
 1606              	.LVL152:
 621:Drivers/STM32G0xx_HAL_Driver/Src/stm32g0xx_ll_usb.c ****   }
 1607              		.loc 1 621 5 is_stmt 1 view .LVU480
 621:Drivers/STM32G0xx_HAL_Driver/Src/stm32g0xx_ll_usb.c ****   }
 1608              		.loc 1 621 5 view .LVU481
 1609 002c 8022     		movs	r2, #128
 1610 002e 5201     		lsls	r2, r2, #5
 1611 0030 5A40     		eors	r2, r3
 1612              	.LVL153:
 621:Drivers/STM32G0xx_HAL_Driver/Src/stm32g0xx_ll_usb.c ****   }
 1613              		.loc 1 621 5 view .LVU482
 621:Drivers/STM32G0xx_HAL_Driver/Src/stm32g0xx_ll_usb.c ****   }
 1614              		.loc 1 621 5 view .LVU483
 1615 0032 034B     		ldr	r3, .L75+4
 1616 0034 1343     		orrs	r3, r2
 1617 0036 0360     		str	r3, [r0]
 1618 0038 F0E7     		b	.L74
 1619              	.L76:
 1620 003a C046     		.align	2
 1621              	.L75:
 1622 003c BF8FFF07 		.word	134188991
 1623 0040 80800000 		.word	32896
 1624 0044 8FBFFF07 		.word	134201231
 1625              	.LBE48:
 1626              		.cfi_endproc
 1627              	.LFE375:
 1629              		.section	.text.USB_EPClearStall,"ax",%progbits
 1630              		.align	1
 1631              		.global	USB_EPClearStall
 1632              		.syntax unified
 1633              		.code	16
 1634              		.thumb_func
 1636              	USB_EPClearStall:
 1637              	.LVL154:
 1638              	.LFB376:
 626:Drivers/STM32G0xx_HAL_Driver/Src/stm32g0xx_ll_usb.c **** 
 627:Drivers/STM32G0xx_HAL_Driver/Src/stm32g0xx_ll_usb.c **** /**
 628:Drivers/STM32G0xx_HAL_Driver/Src/stm32g0xx_ll_usb.c ****   * @brief  USB_EPClearStall Clear a stall condition over an EP
ARM GAS  /tmp/ccQCrB9j.s 			page 45


 629:Drivers/STM32G0xx_HAL_Driver/Src/stm32g0xx_ll_usb.c ****   * @param  USBx Selected device
 630:Drivers/STM32G0xx_HAL_Driver/Src/stm32g0xx_ll_usb.c ****   * @param  ep pointer to endpoint structure
 631:Drivers/STM32G0xx_HAL_Driver/Src/stm32g0xx_ll_usb.c ****   * @retval HAL status
 632:Drivers/STM32G0xx_HAL_Driver/Src/stm32g0xx_ll_usb.c ****   */
 633:Drivers/STM32G0xx_HAL_Driver/Src/stm32g0xx_ll_usb.c **** HAL_StatusTypeDef USB_EPClearStall(USB_DRD_TypeDef *USBx, USB_DRD_EPTypeDef *ep)
 634:Drivers/STM32G0xx_HAL_Driver/Src/stm32g0xx_ll_usb.c **** {
 1639              		.loc 1 634 1 view -0
 1640              		.cfi_startproc
 1641              		@ args = 0, pretend = 0, frame = 0
 1642              		@ frame_needed = 0, uses_anonymous_args = 0
 1643              		.loc 1 634 1 is_stmt 0 view .LVU485
 1644 0000 10B5     		push	{r4, lr}
 1645              	.LCFI6:
 1646              		.cfi_def_cfa_offset 8
 1647              		.cfi_offset 4, -8
 1648              		.cfi_offset 14, -4
 635:Drivers/STM32G0xx_HAL_Driver/Src/stm32g0xx_ll_usb.c ****   if (ep->doublebuffer == 0U)
 1649              		.loc 1 635 3 is_stmt 1 view .LVU486
 1650              		.loc 1 635 9 is_stmt 0 view .LVU487
 1651 0002 8B7A     		ldrb	r3, [r1, #10]
 1652              		.loc 1 635 6 view .LVU488
 1653 0004 002B     		cmp	r3, #0
 1654 0006 35D1     		bne	.L78
 636:Drivers/STM32G0xx_HAL_Driver/Src/stm32g0xx_ll_usb.c ****   {
 637:Drivers/STM32G0xx_HAL_Driver/Src/stm32g0xx_ll_usb.c ****     if (ep->is_in != 0U)
 1655              		.loc 1 637 5 is_stmt 1 view .LVU489
 1656              		.loc 1 637 11 is_stmt 0 view .LVU490
 1657 0008 4B78     		ldrb	r3, [r1, #1]
 1658              		.loc 1 637 8 view .LVU491
 1659 000a 002B     		cmp	r3, #0
 1660 000c 1AD0     		beq	.L79
 638:Drivers/STM32G0xx_HAL_Driver/Src/stm32g0xx_ll_usb.c ****     {
 639:Drivers/STM32G0xx_HAL_Driver/Src/stm32g0xx_ll_usb.c ****       PCD_CLEAR_TX_DTOG(USBx, ep->num);
 1661              		.loc 1 639 7 is_stmt 1 view .LVU492
 1662              	.LBB49:
 1663              		.loc 1 639 7 view .LVU493
 1664              		.loc 1 639 7 view .LVU494
 1665 000e 0B78     		ldrb	r3, [r1]
 1666 0010 9B00     		lsls	r3, r3, #2
 1667 0012 C318     		adds	r3, r0, r3
 1668 0014 1A68     		ldr	r2, [r3]
 1669              	.LVL155:
 1670              		.loc 1 639 7 view .LVU495
 1671 0016 5206     		lsls	r2, r2, #25
 1672 0018 05D5     		bpl	.L80
 1673              	.LVL156:
 1674              		.loc 1 639 7 discriminator 1 view .LVU496
 1675              	.LBB50:
 1676              		.loc 1 639 7 discriminator 1 view .LVU497
 1677              		.loc 1 639 7 discriminator 1 view .LVU498
 1678 001a 1C68     		ldr	r4, [r3]
 1679 001c 164A     		ldr	r2, .L84
 1680 001e 1440     		ands	r4, r2
 1681              	.LVL157:
 1682              		.loc 1 639 7 discriminator 1 view .LVU499
 1683 0020 164A     		ldr	r2, .L84+4
 1684 0022 2243     		orrs	r2, r4
ARM GAS  /tmp/ccQCrB9j.s 			page 46


 1685 0024 1A60     		str	r2, [r3]
 1686              	.LVL158:
 1687              	.L80:
 1688              		.loc 1 639 7 is_stmt 0 discriminator 1 view .LVU500
 1689              	.LBE50:
 1690              		.loc 1 639 7 is_stmt 1 discriminator 3 view .LVU501
 1691              	.LBE49:
 1692              		.loc 1 639 7 discriminator 3 view .LVU502
 640:Drivers/STM32G0xx_HAL_Driver/Src/stm32g0xx_ll_usb.c **** 
 641:Drivers/STM32G0xx_HAL_Driver/Src/stm32g0xx_ll_usb.c ****       if (ep->type != EP_TYPE_ISOC)
 1693              		.loc 1 641 7 discriminator 3 view .LVU503
 1694              		.loc 1 641 13 is_stmt 0 discriminator 3 view .LVU504
 1695 0026 CB78     		ldrb	r3, [r1, #3]
 1696              		.loc 1 641 10 discriminator 3 view .LVU505
 1697 0028 012B     		cmp	r3, #1
 1698 002a 23D0     		beq	.L78
 642:Drivers/STM32G0xx_HAL_Driver/Src/stm32g0xx_ll_usb.c ****       {
 643:Drivers/STM32G0xx_HAL_Driver/Src/stm32g0xx_ll_usb.c ****         /* Configure NAK status for the Endpoint */
 644:Drivers/STM32G0xx_HAL_Driver/Src/stm32g0xx_ll_usb.c ****         PCD_SET_EP_TX_STATUS(USBx, ep->num, USB_EP_TX_NAK);
 1699              		.loc 1 644 9 is_stmt 1 view .LVU506
 1700              	.LBB51:
 1701              		.loc 1 644 9 view .LVU507
 1702              		.loc 1 644 9 view .LVU508
 1703 002c 0B78     		ldrb	r3, [r1]
 1704 002e 9B00     		lsls	r3, r3, #2
 1705 0030 C318     		adds	r3, r0, r3
 1706 0032 1A68     		ldr	r2, [r3]
 1707 0034 1249     		ldr	r1, .L84+8
 1708              	.LVL159:
 1709              		.loc 1 644 9 is_stmt 0 view .LVU509
 1710 0036 0A40     		ands	r2, r1
 1711              	.LVL160:
 1712              		.loc 1 644 9 is_stmt 1 view .LVU510
 1713              		.loc 1 644 9 view .LVU511
 1714              		.loc 1 644 9 view .LVU512
 1715 0038 2021     		movs	r1, #32
 1716 003a 4A40     		eors	r2, r1
 1717              	.LVL161:
 1718              		.loc 1 644 9 view .LVU513
 1719 003c 1149     		ldr	r1, .L84+12
 1720 003e 0A43     		orrs	r2, r1
 1721              	.LVL162:
 1722              		.loc 1 644 9 is_stmt 0 view .LVU514
 1723 0040 1A60     		str	r2, [r3]
 1724 0042 17E0     		b	.L78
 1725              	.LVL163:
 1726              	.L79:
 1727              		.loc 1 644 9 view .LVU515
 1728              	.LBE51:
 645:Drivers/STM32G0xx_HAL_Driver/Src/stm32g0xx_ll_usb.c ****       }
 646:Drivers/STM32G0xx_HAL_Driver/Src/stm32g0xx_ll_usb.c ****     }
 647:Drivers/STM32G0xx_HAL_Driver/Src/stm32g0xx_ll_usb.c ****     else
 648:Drivers/STM32G0xx_HAL_Driver/Src/stm32g0xx_ll_usb.c ****     {
 649:Drivers/STM32G0xx_HAL_Driver/Src/stm32g0xx_ll_usb.c ****       PCD_CLEAR_RX_DTOG(USBx, ep->num);
 1729              		.loc 1 649 7 is_stmt 1 view .LVU516
 1730              	.LBB52:
 1731              		.loc 1 649 7 view .LVU517
ARM GAS  /tmp/ccQCrB9j.s 			page 47


 1732              		.loc 1 649 7 view .LVU518
 1733 0044 0B78     		ldrb	r3, [r1]
 1734 0046 9B00     		lsls	r3, r3, #2
 1735 0048 C318     		adds	r3, r0, r3
 1736 004a 1A68     		ldr	r2, [r3]
 1737              	.LVL164:
 1738              		.loc 1 649 7 view .LVU519
 1739 004c 5204     		lsls	r2, r2, #17
 1740 004e 05D5     		bpl	.L81
 1741              	.LVL165:
 1742              		.loc 1 649 7 discriminator 1 view .LVU520
 1743              	.LBB53:
 1744              		.loc 1 649 7 discriminator 1 view .LVU521
 1745              		.loc 1 649 7 discriminator 1 view .LVU522
 1746 0050 1C68     		ldr	r4, [r3]
 1747 0052 094A     		ldr	r2, .L84
 1748 0054 1440     		ands	r4, r2
 1749              	.LVL166:
 1750              		.loc 1 649 7 discriminator 1 view .LVU523
 1751 0056 0C4A     		ldr	r2, .L84+16
 1752 0058 2243     		orrs	r2, r4
 1753 005a 1A60     		str	r2, [r3]
 1754              	.LVL167:
 1755              	.L81:
 1756              		.loc 1 649 7 is_stmt 0 discriminator 1 view .LVU524
 1757              	.LBE53:
 1758              		.loc 1 649 7 is_stmt 1 discriminator 3 view .LVU525
 1759              	.LBE52:
 1760              		.loc 1 649 7 discriminator 3 view .LVU526
 650:Drivers/STM32G0xx_HAL_Driver/Src/stm32g0xx_ll_usb.c **** 
 651:Drivers/STM32G0xx_HAL_Driver/Src/stm32g0xx_ll_usb.c ****       /* Configure VALID status for the Endpoint */
 652:Drivers/STM32G0xx_HAL_Driver/Src/stm32g0xx_ll_usb.c ****       PCD_SET_EP_RX_STATUS(USBx, ep->num, USB_EP_RX_VALID);
 1761              		.loc 1 652 7 discriminator 3 view .LVU527
 1762              	.LBB54:
 1763              		.loc 1 652 7 discriminator 3 view .LVU528
 1764              		.loc 1 652 7 discriminator 3 view .LVU529
 1765 005c 0B78     		ldrb	r3, [r1]
 1766 005e 9B00     		lsls	r3, r3, #2
 1767 0060 C018     		adds	r0, r0, r3
 1768              	.LVL168:
 1769              		.loc 1 652 7 is_stmt 0 discriminator 3 view .LVU530
 1770 0062 0368     		ldr	r3, [r0]
 1771 0064 094A     		ldr	r2, .L84+20
 1772 0066 1340     		ands	r3, r2
 1773              	.LVL169:
 1774              		.loc 1 652 7 is_stmt 1 discriminator 3 view .LVU531
 1775              		.loc 1 652 7 discriminator 3 view .LVU532
 1776              		.loc 1 652 7 discriminator 3 view .LVU533
 1777              		.loc 1 652 7 discriminator 3 view .LVU534
 1778 0068 C022     		movs	r2, #192
 1779 006a 9201     		lsls	r2, r2, #6
 1780 006c 5A40     		eors	r2, r3
 1781              	.LVL170:
 1782              		.loc 1 652 7 discriminator 3 view .LVU535
 1783 006e 054B     		ldr	r3, .L84+12
 1784 0070 1343     		orrs	r3, r2
 1785 0072 0360     		str	r3, [r0]
ARM GAS  /tmp/ccQCrB9j.s 			page 48


 1786              	.LVL171:
 1787              	.L78:
 1788              		.loc 1 652 7 is_stmt 0 discriminator 3 view .LVU536
 1789              	.LBE54:
 1790              		.loc 1 652 7 is_stmt 1 discriminator 7 view .LVU537
 653:Drivers/STM32G0xx_HAL_Driver/Src/stm32g0xx_ll_usb.c ****     }
 654:Drivers/STM32G0xx_HAL_Driver/Src/stm32g0xx_ll_usb.c ****   }
 655:Drivers/STM32G0xx_HAL_Driver/Src/stm32g0xx_ll_usb.c **** 
 656:Drivers/STM32G0xx_HAL_Driver/Src/stm32g0xx_ll_usb.c ****   return HAL_OK;
 1791              		.loc 1 656 3 discriminator 7 view .LVU538
 657:Drivers/STM32G0xx_HAL_Driver/Src/stm32g0xx_ll_usb.c **** }
 1792              		.loc 1 657 1 is_stmt 0 discriminator 7 view .LVU539
 1793 0074 0020     		movs	r0, #0
 1794              		@ sp needed
 1795 0076 10BD     		pop	{r4, pc}
 1796              	.L85:
 1797              		.align	2
 1798              	.L84:
 1799 0078 8F8FFF07 		.word	134188943
 1800 007c C0800000 		.word	32960
 1801 0080 BF8FFF07 		.word	134188991
 1802 0084 80800000 		.word	32896
 1803 0088 80C00000 		.word	49280
 1804 008c 8FBFFF07 		.word	134201231
 1805              		.cfi_endproc
 1806              	.LFE376:
 1808              		.section	.text.USB_EPStopXfer,"ax",%progbits
 1809              		.align	1
 1810              		.global	USB_EPStopXfer
 1811              		.syntax unified
 1812              		.code	16
 1813              		.thumb_func
 1815              	USB_EPStopXfer:
 1816              	.LVL172:
 1817              	.LFB377:
 658:Drivers/STM32G0xx_HAL_Driver/Src/stm32g0xx_ll_usb.c **** 
 659:Drivers/STM32G0xx_HAL_Driver/Src/stm32g0xx_ll_usb.c **** /**
 660:Drivers/STM32G0xx_HAL_Driver/Src/stm32g0xx_ll_usb.c ****    * @brief  USB_EPStoptXfer  Stop transfer on an EP
 661:Drivers/STM32G0xx_HAL_Driver/Src/stm32g0xx_ll_usb.c ****    * @param  USBx  usb device instance
 662:Drivers/STM32G0xx_HAL_Driver/Src/stm32g0xx_ll_usb.c ****    * @param  ep pointer to endpoint structure
 663:Drivers/STM32G0xx_HAL_Driver/Src/stm32g0xx_ll_usb.c ****    * @retval HAL status
 664:Drivers/STM32G0xx_HAL_Driver/Src/stm32g0xx_ll_usb.c ****    */
 665:Drivers/STM32G0xx_HAL_Driver/Src/stm32g0xx_ll_usb.c **** HAL_StatusTypeDef USB_EPStopXfer(USB_DRD_TypeDef *USBx, USB_DRD_EPTypeDef *ep)
 666:Drivers/STM32G0xx_HAL_Driver/Src/stm32g0xx_ll_usb.c **** {
 1818              		.loc 1 666 1 is_stmt 1 view -0
 1819              		.cfi_startproc
 1820              		@ args = 0, pretend = 0, frame = 0
 1821              		@ frame_needed = 0, uses_anonymous_args = 0
 1822              		@ link register save eliminated.
 667:Drivers/STM32G0xx_HAL_Driver/Src/stm32g0xx_ll_usb.c ****   /* IN endpoint */
 668:Drivers/STM32G0xx_HAL_Driver/Src/stm32g0xx_ll_usb.c ****   if (ep->is_in == 1U)
 1823              		.loc 1 668 3 view .LVU541
 1824              		.loc 1 668 9 is_stmt 0 view .LVU542
 1825 0000 4B78     		ldrb	r3, [r1, #1]
 1826              		.loc 1 668 6 view .LVU543
 1827 0002 012B     		cmp	r3, #1
 1828 0004 13D0     		beq	.L91
ARM GAS  /tmp/ccQCrB9j.s 			page 49


 669:Drivers/STM32G0xx_HAL_Driver/Src/stm32g0xx_ll_usb.c ****   {
 670:Drivers/STM32G0xx_HAL_Driver/Src/stm32g0xx_ll_usb.c ****     if (ep->doublebuffer == 0U)
 671:Drivers/STM32G0xx_HAL_Driver/Src/stm32g0xx_ll_usb.c ****     {
 672:Drivers/STM32G0xx_HAL_Driver/Src/stm32g0xx_ll_usb.c ****       if (ep->type != EP_TYPE_ISOC)
 673:Drivers/STM32G0xx_HAL_Driver/Src/stm32g0xx_ll_usb.c ****       {
 674:Drivers/STM32G0xx_HAL_Driver/Src/stm32g0xx_ll_usb.c ****         /* Configure NAK status for the Endpoint */
 675:Drivers/STM32G0xx_HAL_Driver/Src/stm32g0xx_ll_usb.c ****         PCD_SET_EP_TX_STATUS(USBx, ep->num, USB_EP_TX_NAK);
 676:Drivers/STM32G0xx_HAL_Driver/Src/stm32g0xx_ll_usb.c ****       }
 677:Drivers/STM32G0xx_HAL_Driver/Src/stm32g0xx_ll_usb.c ****       else
 678:Drivers/STM32G0xx_HAL_Driver/Src/stm32g0xx_ll_usb.c ****       {
 679:Drivers/STM32G0xx_HAL_Driver/Src/stm32g0xx_ll_usb.c ****         /* Configure TX Endpoint to disabled state */
 680:Drivers/STM32G0xx_HAL_Driver/Src/stm32g0xx_ll_usb.c ****         PCD_SET_EP_TX_STATUS(USBx, ep->num, USB_EP_TX_DIS);
 681:Drivers/STM32G0xx_HAL_Driver/Src/stm32g0xx_ll_usb.c ****       }
 682:Drivers/STM32G0xx_HAL_Driver/Src/stm32g0xx_ll_usb.c ****     }
 683:Drivers/STM32G0xx_HAL_Driver/Src/stm32g0xx_ll_usb.c ****   }
 684:Drivers/STM32G0xx_HAL_Driver/Src/stm32g0xx_ll_usb.c ****   else /* OUT endpoint */
 685:Drivers/STM32G0xx_HAL_Driver/Src/stm32g0xx_ll_usb.c ****   {
 686:Drivers/STM32G0xx_HAL_Driver/Src/stm32g0xx_ll_usb.c ****     if (ep->doublebuffer == 0U)
 1829              		.loc 1 686 5 is_stmt 1 view .LVU544
 1830              		.loc 1 686 11 is_stmt 0 view .LVU545
 1831 0006 8B7A     		ldrb	r3, [r1, #10]
 1832              		.loc 1 686 8 view .LVU546
 1833 0008 002B     		cmp	r3, #0
 1834 000a 0ED1     		bne	.L88
 687:Drivers/STM32G0xx_HAL_Driver/Src/stm32g0xx_ll_usb.c ****     {
 688:Drivers/STM32G0xx_HAL_Driver/Src/stm32g0xx_ll_usb.c ****       if (ep->type != EP_TYPE_ISOC)
 1835              		.loc 1 688 7 is_stmt 1 view .LVU547
 1836              		.loc 1 688 13 is_stmt 0 view .LVU548
 1837 000c CB78     		ldrb	r3, [r1, #3]
 1838              		.loc 1 688 10 view .LVU549
 1839 000e 012B     		cmp	r3, #1
 1840 0010 29D0     		beq	.L90
 689:Drivers/STM32G0xx_HAL_Driver/Src/stm32g0xx_ll_usb.c ****       {
 690:Drivers/STM32G0xx_HAL_Driver/Src/stm32g0xx_ll_usb.c ****         /* Configure NAK status for the Endpoint */
 691:Drivers/STM32G0xx_HAL_Driver/Src/stm32g0xx_ll_usb.c ****         PCD_SET_EP_RX_STATUS(USBx, ep->num, USB_EP_RX_NAK);
 1841              		.loc 1 691 9 is_stmt 1 view .LVU550
 1842              	.LBB55:
 1843              		.loc 1 691 9 view .LVU551
 1844              		.loc 1 691 9 view .LVU552
 1845 0012 0B78     		ldrb	r3, [r1]
 1846 0014 9B00     		lsls	r3, r3, #2
 1847 0016 C318     		adds	r3, r0, r3
 1848 0018 1A68     		ldr	r2, [r3]
 1849 001a 1849     		ldr	r1, .L92
 1850              	.LVL173:
 1851              		.loc 1 691 9 is_stmt 0 view .LVU553
 1852 001c 0A40     		ands	r2, r1
 1853              	.LVL174:
 1854              		.loc 1 691 9 is_stmt 1 view .LVU554
 1855              		.loc 1 691 9 view .LVU555
 1856              		.loc 1 691 9 view .LVU556
 1857 001e 8021     		movs	r1, #128
 1858 0020 8901     		lsls	r1, r1, #6
 1859 0022 5140     		eors	r1, r2
 1860              	.LVL175:
 1861              		.loc 1 691 9 view .LVU557
 1862 0024 164A     		ldr	r2, .L92+4
ARM GAS  /tmp/ccQCrB9j.s 			page 50


 1863 0026 0A43     		orrs	r2, r1
 1864 0028 1A60     		str	r2, [r3]
 1865              	.LBE55:
 1866              		.loc 1 691 9 view .LVU558
 1867              	.LVL176:
 1868              	.L88:
 692:Drivers/STM32G0xx_HAL_Driver/Src/stm32g0xx_ll_usb.c ****       }
 693:Drivers/STM32G0xx_HAL_Driver/Src/stm32g0xx_ll_usb.c ****       else
 694:Drivers/STM32G0xx_HAL_Driver/Src/stm32g0xx_ll_usb.c ****       {
 695:Drivers/STM32G0xx_HAL_Driver/Src/stm32g0xx_ll_usb.c ****         /* Configure RX Endpoint to disabled state */
 696:Drivers/STM32G0xx_HAL_Driver/Src/stm32g0xx_ll_usb.c ****         PCD_SET_EP_RX_STATUS(USBx, ep->num, USB_EP_RX_DIS);
 1869              		.loc 1 696 9 discriminator 7 view .LVU559
 697:Drivers/STM32G0xx_HAL_Driver/Src/stm32g0xx_ll_usb.c ****       }
 698:Drivers/STM32G0xx_HAL_Driver/Src/stm32g0xx_ll_usb.c ****     }
 699:Drivers/STM32G0xx_HAL_Driver/Src/stm32g0xx_ll_usb.c ****   }
 700:Drivers/STM32G0xx_HAL_Driver/Src/stm32g0xx_ll_usb.c **** 
 701:Drivers/STM32G0xx_HAL_Driver/Src/stm32g0xx_ll_usb.c ****   return HAL_OK;
 1870              		.loc 1 701 3 discriminator 7 view .LVU560
 702:Drivers/STM32G0xx_HAL_Driver/Src/stm32g0xx_ll_usb.c **** }
 1871              		.loc 1 702 1 is_stmt 0 discriminator 7 view .LVU561
 1872 002a 0020     		movs	r0, #0
 1873              		@ sp needed
 1874 002c 7047     		bx	lr
 1875              	.LVL177:
 1876              	.L91:
 670:Drivers/STM32G0xx_HAL_Driver/Src/stm32g0xx_ll_usb.c ****     {
 1877              		.loc 1 670 5 is_stmt 1 view .LVU562
 670:Drivers/STM32G0xx_HAL_Driver/Src/stm32g0xx_ll_usb.c ****     {
 1878              		.loc 1 670 11 is_stmt 0 view .LVU563
 1879 002e 8B7A     		ldrb	r3, [r1, #10]
 670:Drivers/STM32G0xx_HAL_Driver/Src/stm32g0xx_ll_usb.c ****     {
 1880              		.loc 1 670 8 view .LVU564
 1881 0030 002B     		cmp	r3, #0
 1882 0032 FAD1     		bne	.L88
 672:Drivers/STM32G0xx_HAL_Driver/Src/stm32g0xx_ll_usb.c ****       {
 1883              		.loc 1 672 7 is_stmt 1 view .LVU565
 672:Drivers/STM32G0xx_HAL_Driver/Src/stm32g0xx_ll_usb.c ****       {
 1884              		.loc 1 672 13 is_stmt 0 view .LVU566
 1885 0034 CB78     		ldrb	r3, [r1, #3]
 672:Drivers/STM32G0xx_HAL_Driver/Src/stm32g0xx_ll_usb.c ****       {
 1886              		.loc 1 672 10 view .LVU567
 1887 0036 012B     		cmp	r3, #1
 1888 0038 0BD0     		beq	.L89
 675:Drivers/STM32G0xx_HAL_Driver/Src/stm32g0xx_ll_usb.c ****       }
 1889              		.loc 1 675 9 is_stmt 1 view .LVU568
 1890              	.LBB56:
 675:Drivers/STM32G0xx_HAL_Driver/Src/stm32g0xx_ll_usb.c ****       }
 1891              		.loc 1 675 9 view .LVU569
 675:Drivers/STM32G0xx_HAL_Driver/Src/stm32g0xx_ll_usb.c ****       }
 1892              		.loc 1 675 9 view .LVU570
 1893 003a 0B78     		ldrb	r3, [r1]
 1894 003c 9B00     		lsls	r3, r3, #2
 1895 003e C318     		adds	r3, r0, r3
 1896 0040 1A68     		ldr	r2, [r3]
 1897 0042 1049     		ldr	r1, .L92+8
 1898              	.LVL178:
 675:Drivers/STM32G0xx_HAL_Driver/Src/stm32g0xx_ll_usb.c ****       }
ARM GAS  /tmp/ccQCrB9j.s 			page 51


 1899              		.loc 1 675 9 is_stmt 0 view .LVU571
 1900 0044 0A40     		ands	r2, r1
 1901              	.LVL179:
 675:Drivers/STM32G0xx_HAL_Driver/Src/stm32g0xx_ll_usb.c ****       }
 1902              		.loc 1 675 9 is_stmt 1 view .LVU572
 675:Drivers/STM32G0xx_HAL_Driver/Src/stm32g0xx_ll_usb.c ****       }
 1903              		.loc 1 675 9 view .LVU573
 675:Drivers/STM32G0xx_HAL_Driver/Src/stm32g0xx_ll_usb.c ****       }
 1904              		.loc 1 675 9 view .LVU574
 1905 0046 2021     		movs	r1, #32
 1906 0048 4A40     		eors	r2, r1
 1907              	.LVL180:
 675:Drivers/STM32G0xx_HAL_Driver/Src/stm32g0xx_ll_usb.c ****       }
 1908              		.loc 1 675 9 view .LVU575
 1909 004a 0D49     		ldr	r1, .L92+4
 1910 004c 0A43     		orrs	r2, r1
 1911              	.LVL181:
 675:Drivers/STM32G0xx_HAL_Driver/Src/stm32g0xx_ll_usb.c ****       }
 1912              		.loc 1 675 9 is_stmt 0 view .LVU576
 1913 004e 1A60     		str	r2, [r3]
 1914              	.LBE56:
 675:Drivers/STM32G0xx_HAL_Driver/Src/stm32g0xx_ll_usb.c ****       }
 1915              		.loc 1 675 9 is_stmt 1 view .LVU577
 1916 0050 EBE7     		b	.L88
 1917              	.LVL182:
 1918              	.L89:
 680:Drivers/STM32G0xx_HAL_Driver/Src/stm32g0xx_ll_usb.c ****       }
 1919              		.loc 1 680 9 view .LVU578
 1920              	.LBB57:
 680:Drivers/STM32G0xx_HAL_Driver/Src/stm32g0xx_ll_usb.c ****       }
 1921              		.loc 1 680 9 view .LVU579
 680:Drivers/STM32G0xx_HAL_Driver/Src/stm32g0xx_ll_usb.c ****       }
 1922              		.loc 1 680 9 view .LVU580
 1923 0052 0B78     		ldrb	r3, [r1]
 1924 0054 9B00     		lsls	r3, r3, #2
 1925 0056 C318     		adds	r3, r0, r3
 1926 0058 1968     		ldr	r1, [r3]
 1927              	.LVL183:
 680:Drivers/STM32G0xx_HAL_Driver/Src/stm32g0xx_ll_usb.c ****       }
 1928              		.loc 1 680 9 is_stmt 0 view .LVU581
 1929 005a 0A4A     		ldr	r2, .L92+8
 1930 005c 1140     		ands	r1, r2
 1931              	.LVL184:
 680:Drivers/STM32G0xx_HAL_Driver/Src/stm32g0xx_ll_usb.c ****       }
 1932              		.loc 1 680 9 is_stmt 1 view .LVU582
 680:Drivers/STM32G0xx_HAL_Driver/Src/stm32g0xx_ll_usb.c ****       }
 1933              		.loc 1 680 9 view .LVU583
 680:Drivers/STM32G0xx_HAL_Driver/Src/stm32g0xx_ll_usb.c ****       }
 1934              		.loc 1 680 9 view .LVU584
 1935 005e 084A     		ldr	r2, .L92+4
 1936 0060 0A43     		orrs	r2, r1
 1937 0062 1A60     		str	r2, [r3]
 1938 0064 E1E7     		b	.L88
 1939              	.LVL185:
 1940              	.L90:
 680:Drivers/STM32G0xx_HAL_Driver/Src/stm32g0xx_ll_usb.c ****       }
 1941              		.loc 1 680 9 is_stmt 0 view .LVU585
ARM GAS  /tmp/ccQCrB9j.s 			page 52


 1942              	.LBE57:
 696:Drivers/STM32G0xx_HAL_Driver/Src/stm32g0xx_ll_usb.c ****       }
 1943              		.loc 1 696 9 is_stmt 1 view .LVU586
 1944              	.LBB58:
 696:Drivers/STM32G0xx_HAL_Driver/Src/stm32g0xx_ll_usb.c ****       }
 1945              		.loc 1 696 9 view .LVU587
 696:Drivers/STM32G0xx_HAL_Driver/Src/stm32g0xx_ll_usb.c ****       }
 1946              		.loc 1 696 9 view .LVU588
 1947 0066 0B78     		ldrb	r3, [r1]
 1948 0068 9B00     		lsls	r3, r3, #2
 1949 006a C018     		adds	r0, r0, r3
 1950              	.LVL186:
 696:Drivers/STM32G0xx_HAL_Driver/Src/stm32g0xx_ll_usb.c ****       }
 1951              		.loc 1 696 9 is_stmt 0 view .LVU589
 1952 006c 0268     		ldr	r2, [r0]
 1953 006e 034B     		ldr	r3, .L92
 1954 0070 1A40     		ands	r2, r3
 1955              	.LVL187:
 696:Drivers/STM32G0xx_HAL_Driver/Src/stm32g0xx_ll_usb.c ****       }
 1956              		.loc 1 696 9 is_stmt 1 view .LVU590
 696:Drivers/STM32G0xx_HAL_Driver/Src/stm32g0xx_ll_usb.c ****       }
 1957              		.loc 1 696 9 view .LVU591
 696:Drivers/STM32G0xx_HAL_Driver/Src/stm32g0xx_ll_usb.c ****       }
 1958              		.loc 1 696 9 view .LVU592
 1959 0072 034B     		ldr	r3, .L92+4
 1960 0074 1343     		orrs	r3, r2
 1961 0076 0360     		str	r3, [r0]
 1962 0078 D7E7     		b	.L88
 1963              	.L93:
 1964 007a C046     		.align	2
 1965              	.L92:
 1966 007c 8FBFFF07 		.word	134201231
 1967 0080 80800000 		.word	32896
 1968 0084 BF8FFF07 		.word	134188991
 1969              	.LBE58:
 1970              		.cfi_endproc
 1971              	.LFE377:
 1973              		.section	.text.USB_StopDevice,"ax",%progbits
 1974              		.align	1
 1975              		.global	USB_StopDevice
 1976              		.syntax unified
 1977              		.code	16
 1978              		.thumb_func
 1980              	USB_StopDevice:
 1981              	.LVL188:
 1982              	.LFB378:
 703:Drivers/STM32G0xx_HAL_Driver/Src/stm32g0xx_ll_usb.c **** #endif /* defined (HAL_PCD_MODULE_ENABLED) */
 704:Drivers/STM32G0xx_HAL_Driver/Src/stm32g0xx_ll_usb.c **** 
 705:Drivers/STM32G0xx_HAL_Driver/Src/stm32g0xx_ll_usb.c **** /**
 706:Drivers/STM32G0xx_HAL_Driver/Src/stm32g0xx_ll_usb.c ****   * @brief  USB_StopDevice Stop the usb device mode
 707:Drivers/STM32G0xx_HAL_Driver/Src/stm32g0xx_ll_usb.c ****   * @param  USBx Selected device
 708:Drivers/STM32G0xx_HAL_Driver/Src/stm32g0xx_ll_usb.c ****   * @retval HAL status
 709:Drivers/STM32G0xx_HAL_Driver/Src/stm32g0xx_ll_usb.c ****   */
 710:Drivers/STM32G0xx_HAL_Driver/Src/stm32g0xx_ll_usb.c **** HAL_StatusTypeDef USB_StopDevice(USB_DRD_TypeDef *USBx)
 711:Drivers/STM32G0xx_HAL_Driver/Src/stm32g0xx_ll_usb.c **** {
 1983              		.loc 1 711 1 view -0
 1984              		.cfi_startproc
ARM GAS  /tmp/ccQCrB9j.s 			page 53


 1985              		@ args = 0, pretend = 0, frame = 0
 1986              		@ frame_needed = 0, uses_anonymous_args = 0
 1987              		@ link register save eliminated.
 712:Drivers/STM32G0xx_HAL_Driver/Src/stm32g0xx_ll_usb.c ****   /* disable all interrupts and force USB reset */
 713:Drivers/STM32G0xx_HAL_Driver/Src/stm32g0xx_ll_usb.c ****   USBx->CNTR = USB_CNTR_USBRST;
 1988              		.loc 1 713 3 view .LVU594
 1989              		.loc 1 713 14 is_stmt 0 view .LVU595
 1990 0000 0123     		movs	r3, #1
 1991 0002 0364     		str	r3, [r0, #64]
 714:Drivers/STM32G0xx_HAL_Driver/Src/stm32g0xx_ll_usb.c **** 
 715:Drivers/STM32G0xx_HAL_Driver/Src/stm32g0xx_ll_usb.c ****   /* clear interrupt status register */
 716:Drivers/STM32G0xx_HAL_Driver/Src/stm32g0xx_ll_usb.c ****   USBx->ISTR = 0U;
 1992              		.loc 1 716 3 is_stmt 1 view .LVU596
 1993              		.loc 1 716 14 is_stmt 0 view .LVU597
 1994 0004 0023     		movs	r3, #0
 1995 0006 4364     		str	r3, [r0, #68]
 717:Drivers/STM32G0xx_HAL_Driver/Src/stm32g0xx_ll_usb.c **** 
 718:Drivers/STM32G0xx_HAL_Driver/Src/stm32g0xx_ll_usb.c ****   /* switch-off device */
 719:Drivers/STM32G0xx_HAL_Driver/Src/stm32g0xx_ll_usb.c ****   USBx->CNTR = (USB_CNTR_USBRST | USB_CNTR_PDWN);
 1996              		.loc 1 719 3 is_stmt 1 view .LVU598
 1997              		.loc 1 719 14 is_stmt 0 view .LVU599
 1998 0008 0333     		adds	r3, r3, #3
 1999 000a 0364     		str	r3, [r0, #64]
 720:Drivers/STM32G0xx_HAL_Driver/Src/stm32g0xx_ll_usb.c **** 
 721:Drivers/STM32G0xx_HAL_Driver/Src/stm32g0xx_ll_usb.c ****   return HAL_OK;
 2000              		.loc 1 721 3 is_stmt 1 view .LVU600
 722:Drivers/STM32G0xx_HAL_Driver/Src/stm32g0xx_ll_usb.c **** }
 2001              		.loc 1 722 1 is_stmt 0 view .LVU601
 2002 000c 0020     		movs	r0, #0
 2003              	.LVL189:
 2004              		.loc 1 722 1 view .LVU602
 2005              		@ sp needed
 2006 000e 7047     		bx	lr
 2007              		.cfi_endproc
 2008              	.LFE378:
 2010              		.section	.text.USB_SetDevAddress,"ax",%progbits
 2011              		.align	1
 2012              		.global	USB_SetDevAddress
 2013              		.syntax unified
 2014              		.code	16
 2015              		.thumb_func
 2017              	USB_SetDevAddress:
 2018              	.LVL190:
 2019              	.LFB379:
 723:Drivers/STM32G0xx_HAL_Driver/Src/stm32g0xx_ll_usb.c **** 
 724:Drivers/STM32G0xx_HAL_Driver/Src/stm32g0xx_ll_usb.c **** /**
 725:Drivers/STM32G0xx_HAL_Driver/Src/stm32g0xx_ll_usb.c ****   * @brief  USB_SetDevAddress Stop the usb device mode
 726:Drivers/STM32G0xx_HAL_Driver/Src/stm32g0xx_ll_usb.c ****   * @param  USBx Selected device
 727:Drivers/STM32G0xx_HAL_Driver/Src/stm32g0xx_ll_usb.c ****   * @param  address new device address to be assigned
 728:Drivers/STM32G0xx_HAL_Driver/Src/stm32g0xx_ll_usb.c ****   *          This parameter can be a value from 0 to 255
 729:Drivers/STM32G0xx_HAL_Driver/Src/stm32g0xx_ll_usb.c ****   * @retval HAL status
 730:Drivers/STM32G0xx_HAL_Driver/Src/stm32g0xx_ll_usb.c ****   */
 731:Drivers/STM32G0xx_HAL_Driver/Src/stm32g0xx_ll_usb.c **** HAL_StatusTypeDef  USB_SetDevAddress(USB_DRD_TypeDef *USBx, uint8_t address)
 732:Drivers/STM32G0xx_HAL_Driver/Src/stm32g0xx_ll_usb.c **** {
 2020              		.loc 1 732 1 is_stmt 1 view -0
 2021              		.cfi_startproc
 2022              		@ args = 0, pretend = 0, frame = 0
ARM GAS  /tmp/ccQCrB9j.s 			page 54


 2023              		@ frame_needed = 0, uses_anonymous_args = 0
 2024              		@ link register save eliminated.
 733:Drivers/STM32G0xx_HAL_Driver/Src/stm32g0xx_ll_usb.c ****   if (address == 0U)
 2025              		.loc 1 733 3 view .LVU604
 2026              		.loc 1 733 6 is_stmt 0 view .LVU605
 2027 0000 0029     		cmp	r1, #0
 2028 0002 01D1     		bne	.L96
 734:Drivers/STM32G0xx_HAL_Driver/Src/stm32g0xx_ll_usb.c ****   {
 735:Drivers/STM32G0xx_HAL_Driver/Src/stm32g0xx_ll_usb.c ****     /* set device address and enable function */
 736:Drivers/STM32G0xx_HAL_Driver/Src/stm32g0xx_ll_usb.c ****     USBx->DADDR = USB_DADDR_EF;
 2029              		.loc 1 736 5 is_stmt 1 view .LVU606
 2030              		.loc 1 736 17 is_stmt 0 view .LVU607
 2031 0004 8023     		movs	r3, #128
 2032 0006 C364     		str	r3, [r0, #76]
 2033              	.L96:
 737:Drivers/STM32G0xx_HAL_Driver/Src/stm32g0xx_ll_usb.c ****   }
 738:Drivers/STM32G0xx_HAL_Driver/Src/stm32g0xx_ll_usb.c **** 
 739:Drivers/STM32G0xx_HAL_Driver/Src/stm32g0xx_ll_usb.c ****   return HAL_OK;
 2034              		.loc 1 739 3 is_stmt 1 view .LVU608
 740:Drivers/STM32G0xx_HAL_Driver/Src/stm32g0xx_ll_usb.c **** }
 2035              		.loc 1 740 1 is_stmt 0 view .LVU609
 2036 0008 0020     		movs	r0, #0
 2037              	.LVL191:
 2038              		.loc 1 740 1 view .LVU610
 2039              		@ sp needed
 2040 000a 7047     		bx	lr
 2041              		.cfi_endproc
 2042              	.LFE379:
 2044              		.section	.text.USB_DevConnect,"ax",%progbits
 2045              		.align	1
 2046              		.global	USB_DevConnect
 2047              		.syntax unified
 2048              		.code	16
 2049              		.thumb_func
 2051              	USB_DevConnect:
 2052              	.LVL192:
 2053              	.LFB380:
 741:Drivers/STM32G0xx_HAL_Driver/Src/stm32g0xx_ll_usb.c **** 
 742:Drivers/STM32G0xx_HAL_Driver/Src/stm32g0xx_ll_usb.c **** /**
 743:Drivers/STM32G0xx_HAL_Driver/Src/stm32g0xx_ll_usb.c ****   * @brief  USB_DevConnect Connect the USB device by enabling the pull-up/pull-down
 744:Drivers/STM32G0xx_HAL_Driver/Src/stm32g0xx_ll_usb.c ****   * @param  USBx Selected device
 745:Drivers/STM32G0xx_HAL_Driver/Src/stm32g0xx_ll_usb.c ****   * @retval HAL status
 746:Drivers/STM32G0xx_HAL_Driver/Src/stm32g0xx_ll_usb.c ****   */
 747:Drivers/STM32G0xx_HAL_Driver/Src/stm32g0xx_ll_usb.c **** HAL_StatusTypeDef  USB_DevConnect(USB_DRD_TypeDef *USBx)
 748:Drivers/STM32G0xx_HAL_Driver/Src/stm32g0xx_ll_usb.c **** {
 2054              		.loc 1 748 1 is_stmt 1 view -0
 2055              		.cfi_startproc
 2056              		@ args = 0, pretend = 0, frame = 0
 2057              		@ frame_needed = 0, uses_anonymous_args = 0
 2058              		@ link register save eliminated.
 749:Drivers/STM32G0xx_HAL_Driver/Src/stm32g0xx_ll_usb.c ****   /* Enabling DP Pull-UP bit to Connect internal PU resistor on USB DP line */
 750:Drivers/STM32G0xx_HAL_Driver/Src/stm32g0xx_ll_usb.c ****   USBx->BCDR |= USB_BCDR_DPPU;
 2059              		.loc 1 750 3 view .LVU612
 2060              		.loc 1 750 7 is_stmt 0 view .LVU613
 2061 0000 826D     		ldr	r2, [r0, #88]
 2062              		.loc 1 750 14 view .LVU614
 2063 0002 8023     		movs	r3, #128
ARM GAS  /tmp/ccQCrB9j.s 			page 55


 2064 0004 1B02     		lsls	r3, r3, #8
 2065 0006 1343     		orrs	r3, r2
 2066 0008 8365     		str	r3, [r0, #88]
 751:Drivers/STM32G0xx_HAL_Driver/Src/stm32g0xx_ll_usb.c **** 
 752:Drivers/STM32G0xx_HAL_Driver/Src/stm32g0xx_ll_usb.c ****   return HAL_OK;
 2067              		.loc 1 752 3 is_stmt 1 view .LVU615
 753:Drivers/STM32G0xx_HAL_Driver/Src/stm32g0xx_ll_usb.c **** }
 2068              		.loc 1 753 1 is_stmt 0 view .LVU616
 2069 000a 0020     		movs	r0, #0
 2070              	.LVL193:
 2071              		.loc 1 753 1 view .LVU617
 2072              		@ sp needed
 2073 000c 7047     		bx	lr
 2074              		.cfi_endproc
 2075              	.LFE380:
 2077              		.section	.text.USB_DevDisconnect,"ax",%progbits
 2078              		.align	1
 2079              		.global	USB_DevDisconnect
 2080              		.syntax unified
 2081              		.code	16
 2082              		.thumb_func
 2084              	USB_DevDisconnect:
 2085              	.LVL194:
 2086              	.LFB381:
 754:Drivers/STM32G0xx_HAL_Driver/Src/stm32g0xx_ll_usb.c **** 
 755:Drivers/STM32G0xx_HAL_Driver/Src/stm32g0xx_ll_usb.c **** /**
 756:Drivers/STM32G0xx_HAL_Driver/Src/stm32g0xx_ll_usb.c ****   * @brief  USB_DevDisconnect Disconnect the USB device by disabling the pull-up/pull-down
 757:Drivers/STM32G0xx_HAL_Driver/Src/stm32g0xx_ll_usb.c ****   * @param  USBx Selected device
 758:Drivers/STM32G0xx_HAL_Driver/Src/stm32g0xx_ll_usb.c ****   * @retval HAL status
 759:Drivers/STM32G0xx_HAL_Driver/Src/stm32g0xx_ll_usb.c ****   */
 760:Drivers/STM32G0xx_HAL_Driver/Src/stm32g0xx_ll_usb.c **** HAL_StatusTypeDef  USB_DevDisconnect(USB_DRD_TypeDef *USBx)
 761:Drivers/STM32G0xx_HAL_Driver/Src/stm32g0xx_ll_usb.c **** {
 2087              		.loc 1 761 1 is_stmt 1 view -0
 2088              		.cfi_startproc
 2089              		@ args = 0, pretend = 0, frame = 0
 2090              		@ frame_needed = 0, uses_anonymous_args = 0
 2091              		@ link register save eliminated.
 762:Drivers/STM32G0xx_HAL_Driver/Src/stm32g0xx_ll_usb.c ****   /* Disable DP Pull-Up bit to disconnect the Internal PU resistor on USB DP line */
 763:Drivers/STM32G0xx_HAL_Driver/Src/stm32g0xx_ll_usb.c ****   USBx->BCDR &= ~(USB_BCDR_DPPU);
 2092              		.loc 1 763 3 view .LVU619
 2093              		.loc 1 763 7 is_stmt 0 view .LVU620
 2094 0000 836D     		ldr	r3, [r0, #88]
 2095              		.loc 1 763 14 view .LVU621
 2096 0002 024A     		ldr	r2, .L99
 2097 0004 1340     		ands	r3, r2
 2098 0006 8365     		str	r3, [r0, #88]
 764:Drivers/STM32G0xx_HAL_Driver/Src/stm32g0xx_ll_usb.c **** 
 765:Drivers/STM32G0xx_HAL_Driver/Src/stm32g0xx_ll_usb.c ****   return HAL_OK;
 2099              		.loc 1 765 3 is_stmt 1 view .LVU622
 766:Drivers/STM32G0xx_HAL_Driver/Src/stm32g0xx_ll_usb.c **** }
 2100              		.loc 1 766 1 is_stmt 0 view .LVU623
 2101 0008 0020     		movs	r0, #0
 2102              	.LVL195:
 2103              		.loc 1 766 1 view .LVU624
 2104              		@ sp needed
 2105 000a 7047     		bx	lr
 2106              	.L100:
ARM GAS  /tmp/ccQCrB9j.s 			page 56


 2107              		.align	2
 2108              	.L99:
 2109 000c FF7FFFFF 		.word	-32769
 2110              		.cfi_endproc
 2111              	.LFE381:
 2113              		.section	.text.USB_ReadInterrupts,"ax",%progbits
 2114              		.align	1
 2115              		.global	USB_ReadInterrupts
 2116              		.syntax unified
 2117              		.code	16
 2118              		.thumb_func
 2120              	USB_ReadInterrupts:
 2121              	.LVL196:
 2122              	.LFB382:
 767:Drivers/STM32G0xx_HAL_Driver/Src/stm32g0xx_ll_usb.c **** 
 768:Drivers/STM32G0xx_HAL_Driver/Src/stm32g0xx_ll_usb.c **** /**
 769:Drivers/STM32G0xx_HAL_Driver/Src/stm32g0xx_ll_usb.c ****   * @brief  USB_ReadInterrupts return the global USB interrupt status
 770:Drivers/STM32G0xx_HAL_Driver/Src/stm32g0xx_ll_usb.c ****   * @param  USBx Selected device
 771:Drivers/STM32G0xx_HAL_Driver/Src/stm32g0xx_ll_usb.c ****   * @retval HAL status
 772:Drivers/STM32G0xx_HAL_Driver/Src/stm32g0xx_ll_usb.c ****   */
 773:Drivers/STM32G0xx_HAL_Driver/Src/stm32g0xx_ll_usb.c **** uint32_t  USB_ReadInterrupts(USB_DRD_TypeDef *USBx)
 774:Drivers/STM32G0xx_HAL_Driver/Src/stm32g0xx_ll_usb.c **** {
 2123              		.loc 1 774 1 is_stmt 1 view -0
 2124              		.cfi_startproc
 2125              		@ args = 0, pretend = 0, frame = 0
 2126              		@ frame_needed = 0, uses_anonymous_args = 0
 2127              		@ link register save eliminated.
 775:Drivers/STM32G0xx_HAL_Driver/Src/stm32g0xx_ll_usb.c ****   uint32_t tmpreg;
 2128              		.loc 1 775 3 view .LVU626
 776:Drivers/STM32G0xx_HAL_Driver/Src/stm32g0xx_ll_usb.c **** 
 777:Drivers/STM32G0xx_HAL_Driver/Src/stm32g0xx_ll_usb.c ****   tmpreg = USBx->ISTR;
 2129              		.loc 1 777 3 view .LVU627
 2130              		.loc 1 777 10 is_stmt 0 view .LVU628
 2131 0000 406C     		ldr	r0, [r0, #68]
 2132              	.LVL197:
 778:Drivers/STM32G0xx_HAL_Driver/Src/stm32g0xx_ll_usb.c ****   return tmpreg;
 2133              		.loc 1 778 3 is_stmt 1 view .LVU629
 779:Drivers/STM32G0xx_HAL_Driver/Src/stm32g0xx_ll_usb.c **** }
 2134              		.loc 1 779 1 is_stmt 0 view .LVU630
 2135              		@ sp needed
 2136 0002 7047     		bx	lr
 2137              		.cfi_endproc
 2138              	.LFE382:
 2140              		.section	.text.USB_ActivateRemoteWakeup,"ax",%progbits
 2141              		.align	1
 2142              		.global	USB_ActivateRemoteWakeup
 2143              		.syntax unified
 2144              		.code	16
 2145              		.thumb_func
 2147              	USB_ActivateRemoteWakeup:
 2148              	.LVL198:
 2149              	.LFB383:
 780:Drivers/STM32G0xx_HAL_Driver/Src/stm32g0xx_ll_usb.c **** 
 781:Drivers/STM32G0xx_HAL_Driver/Src/stm32g0xx_ll_usb.c **** /**
 782:Drivers/STM32G0xx_HAL_Driver/Src/stm32g0xx_ll_usb.c ****   * @brief  USB_ActivateRemoteWakeup : active remote wakeup signalling
 783:Drivers/STM32G0xx_HAL_Driver/Src/stm32g0xx_ll_usb.c ****   * @param  USBx Selected device
 784:Drivers/STM32G0xx_HAL_Driver/Src/stm32g0xx_ll_usb.c ****   * @retval HAL status
ARM GAS  /tmp/ccQCrB9j.s 			page 57


 785:Drivers/STM32G0xx_HAL_Driver/Src/stm32g0xx_ll_usb.c ****   */
 786:Drivers/STM32G0xx_HAL_Driver/Src/stm32g0xx_ll_usb.c **** HAL_StatusTypeDef USB_ActivateRemoteWakeup(USB_DRD_TypeDef *USBx)
 787:Drivers/STM32G0xx_HAL_Driver/Src/stm32g0xx_ll_usb.c **** {
 2150              		.loc 1 787 1 is_stmt 1 view -0
 2151              		.cfi_startproc
 2152              		@ args = 0, pretend = 0, frame = 0
 2153              		@ frame_needed = 0, uses_anonymous_args = 0
 2154              		@ link register save eliminated.
 788:Drivers/STM32G0xx_HAL_Driver/Src/stm32g0xx_ll_usb.c ****   USBx->CNTR |= USB_CNTR_L2RES;
 2155              		.loc 1 788 3 view .LVU632
 2156              		.loc 1 788 7 is_stmt 0 view .LVU633
 2157 0000 036C     		ldr	r3, [r0, #64]
 2158              		.loc 1 788 14 view .LVU634
 2159 0002 1022     		movs	r2, #16
 2160 0004 1343     		orrs	r3, r2
 2161 0006 0364     		str	r3, [r0, #64]
 789:Drivers/STM32G0xx_HAL_Driver/Src/stm32g0xx_ll_usb.c **** 
 790:Drivers/STM32G0xx_HAL_Driver/Src/stm32g0xx_ll_usb.c ****   return HAL_OK;
 2162              		.loc 1 790 3 is_stmt 1 view .LVU635
 791:Drivers/STM32G0xx_HAL_Driver/Src/stm32g0xx_ll_usb.c **** }
 2163              		.loc 1 791 1 is_stmt 0 view .LVU636
 2164 0008 0020     		movs	r0, #0
 2165              	.LVL199:
 2166              		.loc 1 791 1 view .LVU637
 2167              		@ sp needed
 2168 000a 7047     		bx	lr
 2169              		.cfi_endproc
 2170              	.LFE383:
 2172              		.section	.text.USB_DeActivateRemoteWakeup,"ax",%progbits
 2173              		.align	1
 2174              		.global	USB_DeActivateRemoteWakeup
 2175              		.syntax unified
 2176              		.code	16
 2177              		.thumb_func
 2179              	USB_DeActivateRemoteWakeup:
 2180              	.LVL200:
 2181              	.LFB384:
 792:Drivers/STM32G0xx_HAL_Driver/Src/stm32g0xx_ll_usb.c **** 
 793:Drivers/STM32G0xx_HAL_Driver/Src/stm32g0xx_ll_usb.c **** /**
 794:Drivers/STM32G0xx_HAL_Driver/Src/stm32g0xx_ll_usb.c ****   * @brief  USB_DeActivateRemoteWakeup de-active remote wakeup signalling
 795:Drivers/STM32G0xx_HAL_Driver/Src/stm32g0xx_ll_usb.c ****   * @param  USBx Selected device
 796:Drivers/STM32G0xx_HAL_Driver/Src/stm32g0xx_ll_usb.c ****   * @retval HAL status
 797:Drivers/STM32G0xx_HAL_Driver/Src/stm32g0xx_ll_usb.c ****   */
 798:Drivers/STM32G0xx_HAL_Driver/Src/stm32g0xx_ll_usb.c **** HAL_StatusTypeDef USB_DeActivateRemoteWakeup(USB_DRD_TypeDef *USBx)
 799:Drivers/STM32G0xx_HAL_Driver/Src/stm32g0xx_ll_usb.c **** {
 2182              		.loc 1 799 1 is_stmt 1 view -0
 2183              		.cfi_startproc
 2184              		@ args = 0, pretend = 0, frame = 0
 2185              		@ frame_needed = 0, uses_anonymous_args = 0
 2186              		@ link register save eliminated.
 800:Drivers/STM32G0xx_HAL_Driver/Src/stm32g0xx_ll_usb.c ****   USBx->CNTR &= ~USB_CNTR_L2RES;
 2187              		.loc 1 800 3 view .LVU639
 2188              		.loc 1 800 7 is_stmt 0 view .LVU640
 2189 0000 036C     		ldr	r3, [r0, #64]
 2190              		.loc 1 800 14 view .LVU641
 2191 0002 1022     		movs	r2, #16
 2192 0004 9343     		bics	r3, r2
ARM GAS  /tmp/ccQCrB9j.s 			page 58


 2193 0006 0364     		str	r3, [r0, #64]
 801:Drivers/STM32G0xx_HAL_Driver/Src/stm32g0xx_ll_usb.c **** 
 802:Drivers/STM32G0xx_HAL_Driver/Src/stm32g0xx_ll_usb.c ****   return HAL_OK;
 2194              		.loc 1 802 3 is_stmt 1 view .LVU642
 803:Drivers/STM32G0xx_HAL_Driver/Src/stm32g0xx_ll_usb.c **** }
 2195              		.loc 1 803 1 is_stmt 0 view .LVU643
 2196 0008 0020     		movs	r0, #0
 2197              	.LVL201:
 2198              		.loc 1 803 1 view .LVU644
 2199              		@ sp needed
 2200 000a 7047     		bx	lr
 2201              		.cfi_endproc
 2202              	.LFE384:
 2204              		.section	.text.USB_WritePMA,"ax",%progbits
 2205              		.align	1
 2206              		.global	USB_WritePMA
 2207              		.syntax unified
 2208              		.code	16
 2209              		.thumb_func
 2211              	USB_WritePMA:
 2212              	.LVL202:
 2213              	.LFB385:
 804:Drivers/STM32G0xx_HAL_Driver/Src/stm32g0xx_ll_usb.c **** 
 805:Drivers/STM32G0xx_HAL_Driver/Src/stm32g0xx_ll_usb.c **** /**
 806:Drivers/STM32G0xx_HAL_Driver/Src/stm32g0xx_ll_usb.c ****   * @brief Copy a buffer from user memory area to packet memory area (PMA)
 807:Drivers/STM32G0xx_HAL_Driver/Src/stm32g0xx_ll_usb.c ****   * @param   USBx USB peripheral instance register address.
 808:Drivers/STM32G0xx_HAL_Driver/Src/stm32g0xx_ll_usb.c ****   * @param   pbUsrBuf pointer to user memory area.
 809:Drivers/STM32G0xx_HAL_Driver/Src/stm32g0xx_ll_usb.c ****   * @param   wPMABufAddr address into PMA.
 810:Drivers/STM32G0xx_HAL_Driver/Src/stm32g0xx_ll_usb.c ****   * @param   wNBytes no. of bytes to be copied.
 811:Drivers/STM32G0xx_HAL_Driver/Src/stm32g0xx_ll_usb.c ****   * @retval None
 812:Drivers/STM32G0xx_HAL_Driver/Src/stm32g0xx_ll_usb.c ****   */
 813:Drivers/STM32G0xx_HAL_Driver/Src/stm32g0xx_ll_usb.c **** void USB_WritePMA(USB_DRD_TypeDef *USBx, uint8_t *pbUsrBuf, uint16_t wPMABufAddr, uint16_t wNBytes)
 814:Drivers/STM32G0xx_HAL_Driver/Src/stm32g0xx_ll_usb.c **** {
 2214              		.loc 1 814 1 is_stmt 1 view -0
 2215              		.cfi_startproc
 2216              		@ args = 0, pretend = 0, frame = 0
 2217              		@ frame_needed = 0, uses_anonymous_args = 0
 2218              		.loc 1 814 1 is_stmt 0 view .LVU646
 2219 0000 70B5     		push	{r4, r5, r6, lr}
 2220              	.LCFI7:
 2221              		.cfi_def_cfa_offset 16
 2222              		.cfi_offset 4, -16
 2223              		.cfi_offset 5, -12
 2224              		.cfi_offset 6, -8
 2225              		.cfi_offset 14, -4
 815:Drivers/STM32G0xx_HAL_Driver/Src/stm32g0xx_ll_usb.c ****   UNUSED(USBx);
 2226              		.loc 1 815 3 is_stmt 1 view .LVU647
 816:Drivers/STM32G0xx_HAL_Driver/Src/stm32g0xx_ll_usb.c ****   uint32_t WrVal;
 2227              		.loc 1 816 3 view .LVU648
 817:Drivers/STM32G0xx_HAL_Driver/Src/stm32g0xx_ll_usb.c ****   uint32_t count;
 2228              		.loc 1 817 3 view .LVU649
 818:Drivers/STM32G0xx_HAL_Driver/Src/stm32g0xx_ll_usb.c ****   __IO uint32_t *pdwVal;
 2229              		.loc 1 818 3 view .LVU650
 819:Drivers/STM32G0xx_HAL_Driver/Src/stm32g0xx_ll_usb.c ****   uint32_t NbWords = ((uint32_t)wNBytes + 3U) >> 2U;
 2230              		.loc 1 819 3 view .LVU651
 2231              		.loc 1 819 41 is_stmt 0 view .LVU652
 2232 0002 DC1C     		adds	r4, r3, #3
ARM GAS  /tmp/ccQCrB9j.s 			page 59


 2233              		.loc 1 819 12 view .LVU653
 2234 0004 A408     		lsrs	r4, r4, #2
 2235              	.LVL203:
 820:Drivers/STM32G0xx_HAL_Driver/Src/stm32g0xx_ll_usb.c ****   /* Due to the PMA access 32bit only so the last non word data should be processed alone */
 821:Drivers/STM32G0xx_HAL_Driver/Src/stm32g0xx_ll_usb.c ****   uint16_t remaining_bytes = wNBytes % 4U;
 2236              		.loc 1 821 3 is_stmt 1 view .LVU654
 2237              		.loc 1 821 12 is_stmt 0 view .LVU655
 2238 0006 0320     		movs	r0, #3
 2239              	.LVL204:
 2240              		.loc 1 821 12 view .LVU656
 2241 0008 0500     		movs	r5, r0
 2242 000a 1D40     		ands	r5, r3
 2243              	.LVL205:
 822:Drivers/STM32G0xx_HAL_Driver/Src/stm32g0xx_ll_usb.c ****   uint8_t *pBuf = pbUsrBuf;
 2244              		.loc 1 822 3 is_stmt 1 view .LVU657
 823:Drivers/STM32G0xx_HAL_Driver/Src/stm32g0xx_ll_usb.c **** 
 824:Drivers/STM32G0xx_HAL_Driver/Src/stm32g0xx_ll_usb.c ****   /* Check if there is a remaining byte */
 825:Drivers/STM32G0xx_HAL_Driver/Src/stm32g0xx_ll_usb.c ****   if (remaining_bytes != 0U)
 2245              		.loc 1 825 3 view .LVU658
 2246              		.loc 1 825 6 is_stmt 0 view .LVU659
 2247 000c 1842     		tst	r0, r3
 2248 000e 00D0     		beq	.L105
 826:Drivers/STM32G0xx_HAL_Driver/Src/stm32g0xx_ll_usb.c ****   {
 827:Drivers/STM32G0xx_HAL_Driver/Src/stm32g0xx_ll_usb.c ****     NbWords--;
 2249              		.loc 1 827 5 is_stmt 1 view .LVU660
 2250              		.loc 1 827 12 is_stmt 0 view .LVU661
 2251 0010 013C     		subs	r4, r4, #1
 2252              	.LVL206:
 2253              	.L105:
 828:Drivers/STM32G0xx_HAL_Driver/Src/stm32g0xx_ll_usb.c ****   }
 829:Drivers/STM32G0xx_HAL_Driver/Src/stm32g0xx_ll_usb.c **** 
 830:Drivers/STM32G0xx_HAL_Driver/Src/stm32g0xx_ll_usb.c ****   /* Get the PMA Buffer pointer */
 831:Drivers/STM32G0xx_HAL_Driver/Src/stm32g0xx_ll_usb.c ****   pdwVal = (__IO uint32_t *)(USB_DRD_PMAADDR + (uint32_t)wPMABufAddr);
 2254              		.loc 1 831 3 is_stmt 1 view .LVU662
 2255              		.loc 1 831 46 is_stmt 0 view .LVU663
 2256 0012 114B     		ldr	r3, .L110
 2257              	.LVL207:
 2258              		.loc 1 831 46 view .LVU664
 2259 0014 9C46     		mov	ip, r3
 2260 0016 6244     		add	r2, r2, ip
 2261              	.LVL208:
 832:Drivers/STM32G0xx_HAL_Driver/Src/stm32g0xx_ll_usb.c **** 
 833:Drivers/STM32G0xx_HAL_Driver/Src/stm32g0xx_ll_usb.c ****   /* Write the Calculated Word into the PMA related Buffer */
 834:Drivers/STM32G0xx_HAL_Driver/Src/stm32g0xx_ll_usb.c ****   for (count = NbWords; count != 0U; count--)
 2262              		.loc 1 834 3 is_stmt 1 view .LVU665
 2263              		.loc 1 834 3 is_stmt 0 view .LVU666
 2264 0018 0CE0     		b	.L106
 2265              	.LVL209:
 2266              	.L107:
 835:Drivers/STM32G0xx_HAL_Driver/Src/stm32g0xx_ll_usb.c ****   {
 836:Drivers/STM32G0xx_HAL_Driver/Src/stm32g0xx_ll_usb.c ****     *pdwVal = __UNALIGNED_UINT32_READ(pBuf);
 2267              		.loc 1 836 5 is_stmt 1 discriminator 3 view .LVU667
 2268              		.loc 1 836 15 is_stmt 0 discriminator 3 view .LVU668
 2269 001a 0878     		ldrb	r0, [r1]
 2270 001c 4B78     		ldrb	r3, [r1, #1]
 2271 001e 1B02     		lsls	r3, r3, #8
 2272 0020 0343     		orrs	r3, r0
ARM GAS  /tmp/ccQCrB9j.s 			page 60


 2273 0022 8878     		ldrb	r0, [r1, #2]
 2274 0024 0004     		lsls	r0, r0, #16
 2275 0026 1843     		orrs	r0, r3
 2276 0028 CB78     		ldrb	r3, [r1, #3]
 2277 002a 1B06     		lsls	r3, r3, #24
 2278 002c 0343     		orrs	r3, r0
 2279              		.loc 1 836 13 discriminator 3 view .LVU669
 2280 002e 08C2     		stmia	r2!, {r3}
 2281              	.LVL210:
 837:Drivers/STM32G0xx_HAL_Driver/Src/stm32g0xx_ll_usb.c ****     pdwVal++;
 2282              		.loc 1 837 5 is_stmt 1 discriminator 3 view .LVU670
 838:Drivers/STM32G0xx_HAL_Driver/Src/stm32g0xx_ll_usb.c ****     /* Increment pBuf 4 Time as Word Increment */
 839:Drivers/STM32G0xx_HAL_Driver/Src/stm32g0xx_ll_usb.c ****     pBuf++;
 2283              		.loc 1 839 5 discriminator 3 view .LVU671
 840:Drivers/STM32G0xx_HAL_Driver/Src/stm32g0xx_ll_usb.c ****     pBuf++;
 2284              		.loc 1 840 5 discriminator 3 view .LVU672
 841:Drivers/STM32G0xx_HAL_Driver/Src/stm32g0xx_ll_usb.c ****     pBuf++;
 2285              		.loc 1 841 5 discriminator 3 view .LVU673
 842:Drivers/STM32G0xx_HAL_Driver/Src/stm32g0xx_ll_usb.c ****     pBuf++;
 2286              		.loc 1 842 5 discriminator 3 view .LVU674
 2287              		.loc 1 842 9 is_stmt 0 discriminator 3 view .LVU675
 2288 0030 0431     		adds	r1, r1, #4
 2289              	.LVL211:
 834:Drivers/STM32G0xx_HAL_Driver/Src/stm32g0xx_ll_usb.c ****   {
 2290              		.loc 1 834 43 is_stmt 1 discriminator 3 view .LVU676
 2291 0032 013C     		subs	r4, r4, #1
 2292              	.LVL212:
 2293              	.L106:
 834:Drivers/STM32G0xx_HAL_Driver/Src/stm32g0xx_ll_usb.c ****   {
 2294              		.loc 1 834 31 discriminator 1 view .LVU677
 2295 0034 002C     		cmp	r4, #0
 2296 0036 F0D1     		bne	.L107
 843:Drivers/STM32G0xx_HAL_Driver/Src/stm32g0xx_ll_usb.c ****   }
 844:Drivers/STM32G0xx_HAL_Driver/Src/stm32g0xx_ll_usb.c **** 
 845:Drivers/STM32G0xx_HAL_Driver/Src/stm32g0xx_ll_usb.c ****   /* When Number of data is not word aligned, write the remaining Byte */
 846:Drivers/STM32G0xx_HAL_Driver/Src/stm32g0xx_ll_usb.c ****   if (remaining_bytes != 0U)
 2297              		.loc 1 846 3 view .LVU678
 2298              		.loc 1 846 6 is_stmt 0 view .LVU679
 2299 0038 002D     		cmp	r5, #0
 2300 003a 0BD0     		beq	.L104
 2301 003c 2000     		movs	r0, r4
 2302              	.LVL213:
 2303              	.L109:
 847:Drivers/STM32G0xx_HAL_Driver/Src/stm32g0xx_ll_usb.c ****   {
 848:Drivers/STM32G0xx_HAL_Driver/Src/stm32g0xx_ll_usb.c ****     WrVal = 0U;
 849:Drivers/STM32G0xx_HAL_Driver/Src/stm32g0xx_ll_usb.c **** 
 850:Drivers/STM32G0xx_HAL_Driver/Src/stm32g0xx_ll_usb.c ****     do
 2304              		.loc 1 850 5 is_stmt 1 discriminator 1 view .LVU680
 851:Drivers/STM32G0xx_HAL_Driver/Src/stm32g0xx_ll_usb.c ****     {
 852:Drivers/STM32G0xx_HAL_Driver/Src/stm32g0xx_ll_usb.c ****       WrVal |= (uint32_t)(*(uint8_t *)pBuf) << (8U * count);
 2305              		.loc 1 852 7 discriminator 1 view .LVU681
 2306              		.loc 1 852 27 is_stmt 0 discriminator 1 view .LVU682
 2307 003e 0B78     		ldrb	r3, [r1]
 2308              		.loc 1 852 52 discriminator 1 view .LVU683
 2309 0040 C600     		lsls	r6, r0, #3
 2310              		.loc 1 852 45 discriminator 1 view .LVU684
 2311 0042 B340     		lsls	r3, r3, r6
ARM GAS  /tmp/ccQCrB9j.s 			page 61


 2312              		.loc 1 852 13 discriminator 1 view .LVU685
 2313 0044 1C43     		orrs	r4, r3
 2314              	.LVL214:
 853:Drivers/STM32G0xx_HAL_Driver/Src/stm32g0xx_ll_usb.c ****       count++;
 2315              		.loc 1 853 7 is_stmt 1 discriminator 1 view .LVU686
 2316              		.loc 1 853 12 is_stmt 0 discriminator 1 view .LVU687
 2317 0046 0130     		adds	r0, r0, #1
 2318              	.LVL215:
 854:Drivers/STM32G0xx_HAL_Driver/Src/stm32g0xx_ll_usb.c ****       pBuf++;
 2319              		.loc 1 854 7 is_stmt 1 discriminator 1 view .LVU688
 2320              		.loc 1 854 11 is_stmt 0 discriminator 1 view .LVU689
 2321 0048 0131     		adds	r1, r1, #1
 2322              	.LVL216:
 855:Drivers/STM32G0xx_HAL_Driver/Src/stm32g0xx_ll_usb.c ****       remaining_bytes--;
 2323              		.loc 1 855 7 is_stmt 1 discriminator 1 view .LVU690
 2324              		.loc 1 855 22 is_stmt 0 discriminator 1 view .LVU691
 2325 004a 013D     		subs	r5, r5, #1
 2326              	.LVL217:
 2327              		.loc 1 855 22 discriminator 1 view .LVU692
 2328 004c ADB2     		uxth	r5, r5
 2329              	.LVL218:
 856:Drivers/STM32G0xx_HAL_Driver/Src/stm32g0xx_ll_usb.c ****     } while (remaining_bytes != 0U);
 2330              		.loc 1 856 30 is_stmt 1 discriminator 1 view .LVU693
 2331 004e 002D     		cmp	r5, #0
 2332 0050 F5D1     		bne	.L109
 857:Drivers/STM32G0xx_HAL_Driver/Src/stm32g0xx_ll_usb.c **** 
 858:Drivers/STM32G0xx_HAL_Driver/Src/stm32g0xx_ll_usb.c ****     *pdwVal = WrVal;
 2333              		.loc 1 858 5 view .LVU694
 2334              		.loc 1 858 13 is_stmt 0 view .LVU695
 2335 0052 1460     		str	r4, [r2]
 2336              	.LVL219:
 2337              	.L104:
 859:Drivers/STM32G0xx_HAL_Driver/Src/stm32g0xx_ll_usb.c ****   }
 860:Drivers/STM32G0xx_HAL_Driver/Src/stm32g0xx_ll_usb.c **** }
 2338              		.loc 1 860 1 view .LVU696
 2339              		@ sp needed
 2340              	.LVL220:
 2341              		.loc 1 860 1 view .LVU697
 2342 0054 70BD     		pop	{r4, r5, r6, pc}
 2343              	.L111:
 2344 0056 C046     		.align	2
 2345              	.L110:
 2346 0058 00980040 		.word	1073780736
 2347              		.cfi_endproc
 2348              	.LFE385:
 2350              		.section	.text.USB_EPStartXfer,"ax",%progbits
 2351              		.align	1
 2352              		.global	USB_EPStartXfer
 2353              		.syntax unified
 2354              		.code	16
 2355              		.thumb_func
 2357              	USB_EPStartXfer:
 2358              	.LVL221:
 2359              	.LFB374:
 394:Drivers/STM32G0xx_HAL_Driver/Src/stm32g0xx_ll_usb.c ****   uint32_t len;
 2360              		.loc 1 394 1 is_stmt 1 view -0
 2361              		.cfi_startproc
ARM GAS  /tmp/ccQCrB9j.s 			page 62


 2362              		@ args = 0, pretend = 0, frame = 0
 2363              		@ frame_needed = 0, uses_anonymous_args = 0
 394:Drivers/STM32G0xx_HAL_Driver/Src/stm32g0xx_ll_usb.c ****   uint32_t len;
 2364              		.loc 1 394 1 is_stmt 0 view .LVU699
 2365 0000 70B5     		push	{r4, r5, r6, lr}
 2366              	.LCFI8:
 2367              		.cfi_def_cfa_offset 16
 2368              		.cfi_offset 4, -16
 2369              		.cfi_offset 5, -12
 2370              		.cfi_offset 6, -8
 2371              		.cfi_offset 14, -4
 2372 0002 0500     		movs	r5, r0
 2373 0004 0C00     		movs	r4, r1
 395:Drivers/STM32G0xx_HAL_Driver/Src/stm32g0xx_ll_usb.c **** #if (USE_USB_DOUBLE_BUFFER == 1U)
 2374              		.loc 1 395 3 is_stmt 1 view .LVU700
 397:Drivers/STM32G0xx_HAL_Driver/Src/stm32g0xx_ll_usb.c ****   uint16_t wEPVal;
 2375              		.loc 1 397 3 view .LVU701
 398:Drivers/STM32G0xx_HAL_Driver/Src/stm32g0xx_ll_usb.c **** #endif /* (USE_USB_DOUBLE_BUFFER == 1U) */
 2376              		.loc 1 398 3 view .LVU702
 402:Drivers/STM32G0xx_HAL_Driver/Src/stm32g0xx_ll_usb.c ****   {
 2377              		.loc 1 402 3 view .LVU703
 402:Drivers/STM32G0xx_HAL_Driver/Src/stm32g0xx_ll_usb.c ****   {
 2378              		.loc 1 402 9 is_stmt 0 view .LVU704
 2379 0006 4B78     		ldrb	r3, [r1, #1]
 402:Drivers/STM32G0xx_HAL_Driver/Src/stm32g0xx_ll_usb.c ****   {
 2380              		.loc 1 402 6 view .LVU705
 2381 0008 012B     		cmp	r3, #1
 2382 000a 34D0     		beq	.L218
 538:Drivers/STM32G0xx_HAL_Driver/Src/stm32g0xx_ll_usb.c ****     {
 2383              		.loc 1 538 5 is_stmt 1 view .LVU706
 538:Drivers/STM32G0xx_HAL_Driver/Src/stm32g0xx_ll_usb.c ****     {
 2384              		.loc 1 538 11 is_stmt 0 view .LVU707
 2385 000c 8A7A     		ldrb	r2, [r1, #10]
 538:Drivers/STM32G0xx_HAL_Driver/Src/stm32g0xx_ll_usb.c ****     {
 2386              		.loc 1 538 8 view .LVU708
 2387 000e 002A     		cmp	r2, #0
 2388 0010 00D0     		beq	.LCB2274
 2389 0012 00E3     		b	.L162	@long jump
 2390              	.LCB2274:
 541:Drivers/STM32G0xx_HAL_Driver/Src/stm32g0xx_ll_usb.c ****       {
 2391              		.loc 1 541 7 is_stmt 1 view .LVU709
 541:Drivers/STM32G0xx_HAL_Driver/Src/stm32g0xx_ll_usb.c ****       {
 2392              		.loc 1 541 13 is_stmt 0 view .LVU710
 2393 0014 8B69     		ldr	r3, [r1, #24]
 541:Drivers/STM32G0xx_HAL_Driver/Src/stm32g0xx_ll_usb.c ****       {
 2394              		.loc 1 541 28 view .LVU711
 2395 0016 0A69     		ldr	r2, [r1, #16]
 541:Drivers/STM32G0xx_HAL_Driver/Src/stm32g0xx_ll_usb.c ****       {
 2396              		.loc 1 541 10 view .LVU712
 2397 0018 9342     		cmp	r3, r2
 2398 001a 00D8     		bhi	.LCB2279
 2399 001c D5E2     		b	.L163	@long jump
 2400              	.LCB2279:
 543:Drivers/STM32G0xx_HAL_Driver/Src/stm32g0xx_ll_usb.c ****         ep->xfer_len -= len;
 2401              		.loc 1 543 9 is_stmt 1 view .LVU713
 2402              	.LVL222:
 544:Drivers/STM32G0xx_HAL_Driver/Src/stm32g0xx_ll_usb.c ****       }
ARM GAS  /tmp/ccQCrB9j.s 			page 63


 2403              		.loc 1 544 9 view .LVU714
 544:Drivers/STM32G0xx_HAL_Driver/Src/stm32g0xx_ll_usb.c ****       }
 2404              		.loc 1 544 22 is_stmt 0 view .LVU715
 2405 001e 9B1A     		subs	r3, r3, r2
 2406 0020 8B61     		str	r3, [r1, #24]
 2407              	.L164:
 552:Drivers/STM32G0xx_HAL_Driver/Src/stm32g0xx_ll_usb.c ****     }
 2408              		.loc 1 552 7 is_stmt 1 view .LVU716
 2409              	.LBB59:
 552:Drivers/STM32G0xx_HAL_Driver/Src/stm32g0xx_ll_usb.c ****     }
 2410              		.loc 1 552 7 view .LVU717
 552:Drivers/STM32G0xx_HAL_Driver/Src/stm32g0xx_ll_usb.c ****     }
 2411              		.loc 1 552 7 view .LVU718
 2412 0022 2378     		ldrb	r3, [r4]
 2413 0024 DB00     		lsls	r3, r3, #3
 2414 0026 CB49     		ldr	r1, .L227
 2415              	.LVL223:
 552:Drivers/STM32G0xx_HAL_Driver/Src/stm32g0xx_ll_usb.c ****     }
 2416              		.loc 1 552 7 is_stmt 0 view .LVU719
 2417 0028 8C46     		mov	ip, r1
 2418 002a 6344     		add	r3, r3, ip
 2419 002c 5968     		ldr	r1, [r3, #4]
 2420 002e 0904     		lsls	r1, r1, #16
 2421 0030 090C     		lsrs	r1, r1, #16
 2422 0032 5960     		str	r1, [r3, #4]
 552:Drivers/STM32G0xx_HAL_Driver/Src/stm32g0xx_ll_usb.c ****     }
 2423              		.loc 1 552 7 is_stmt 1 view .LVU720
 2424 0034 3E2A     		cmp	r2, #62
 2425 0036 00D8     		bhi	.LCB2305
 2426 0038 CBE2     		b	.L165	@long jump
 2427              	.LCB2305:
 552:Drivers/STM32G0xx_HAL_Driver/Src/stm32g0xx_ll_usb.c ****     }
 2428              		.loc 1 552 7 discriminator 1 view .LVU721
 552:Drivers/STM32G0xx_HAL_Driver/Src/stm32g0xx_ll_usb.c ****     }
 2429              		.loc 1 552 7 discriminator 1 view .LVU722
 2430 003a 5109     		lsrs	r1, r2, #5
 2431              	.LVL224:
 552:Drivers/STM32G0xx_HAL_Driver/Src/stm32g0xx_ll_usb.c ****     }
 2432              		.loc 1 552 7 discriminator 1 view .LVU723
 2433 003c D206     		lsls	r2, r2, #27
 2434 003e 00D1     		bne	.L166
 2435              	.LVL225:
 552:Drivers/STM32G0xx_HAL_Driver/Src/stm32g0xx_ll_usb.c ****     }
 2436              		.loc 1 552 7 discriminator 3 view .LVU724
 2437 0040 0139     		subs	r1, r1, #1
 2438              	.LVL226:
 2439              	.L166:
 552:Drivers/STM32G0xx_HAL_Driver/Src/stm32g0xx_ll_usb.c ****     }
 2440              		.loc 1 552 7 discriminator 5 view .LVU725
 2441 0042 2378     		ldrb	r3, [r4]
 2442 0044 DB00     		lsls	r3, r3, #3
 2443 0046 C34A     		ldr	r2, .L227
 2444 0048 9446     		mov	ip, r2
 2445 004a 6344     		add	r3, r3, ip
 2446 004c 5A68     		ldr	r2, [r3, #4]
 2447 004e 8906     		lsls	r1, r1, #26
 2448              	.LVL227:
ARM GAS  /tmp/ccQCrB9j.s 			page 64


 552:Drivers/STM32G0xx_HAL_Driver/Src/stm32g0xx_ll_usb.c ****     }
 2449              		.loc 1 552 7 is_stmt 0 discriminator 5 view .LVU726
 2450 0050 1143     		orrs	r1, r2
 2451 0052 8022     		movs	r2, #128
 2452 0054 1206     		lsls	r2, r2, #24
 2453 0056 0A43     		orrs	r2, r1
 2454 0058 5A60     		str	r2, [r3, #4]
 552:Drivers/STM32G0xx_HAL_Driver/Src/stm32g0xx_ll_usb.c ****     }
 2455              		.loc 1 552 7 is_stmt 1 discriminator 5 view .LVU727
 2456              	.LVL228:
 2457              	.L167:
 552:Drivers/STM32G0xx_HAL_Driver/Src/stm32g0xx_ll_usb.c ****     }
 2458              		.loc 1 552 7 is_stmt 0 discriminator 5 view .LVU728
 2459              	.LBE59:
 600:Drivers/STM32G0xx_HAL_Driver/Src/stm32g0xx_ll_usb.c ****   }
 2460              		.loc 1 600 5 is_stmt 1 view .LVU729
 2461              	.LBB60:
 600:Drivers/STM32G0xx_HAL_Driver/Src/stm32g0xx_ll_usb.c ****   }
 2462              		.loc 1 600 5 view .LVU730
 600:Drivers/STM32G0xx_HAL_Driver/Src/stm32g0xx_ll_usb.c ****   }
 2463              		.loc 1 600 5 view .LVU731
 2464 005a 2378     		ldrb	r3, [r4]
 2465 005c 9B00     		lsls	r3, r3, #2
 2466 005e ED18     		adds	r5, r5, r3
 2467              	.LVL229:
 600:Drivers/STM32G0xx_HAL_Driver/Src/stm32g0xx_ll_usb.c ****   }
 2468              		.loc 1 600 5 is_stmt 0 view .LVU732
 2469 0060 2B68     		ldr	r3, [r5]
 2470 0062 BD4A     		ldr	r2, .L227+4
 2471 0064 1340     		ands	r3, r2
 2472              	.LVL230:
 600:Drivers/STM32G0xx_HAL_Driver/Src/stm32g0xx_ll_usb.c ****   }
 2473              		.loc 1 600 5 is_stmt 1 view .LVU733
 600:Drivers/STM32G0xx_HAL_Driver/Src/stm32g0xx_ll_usb.c ****   }
 2474              		.loc 1 600 5 view .LVU734
 600:Drivers/STM32G0xx_HAL_Driver/Src/stm32g0xx_ll_usb.c ****   }
 2475              		.loc 1 600 5 view .LVU735
 600:Drivers/STM32G0xx_HAL_Driver/Src/stm32g0xx_ll_usb.c ****   }
 2476              		.loc 1 600 5 view .LVU736
 2477 0066 C022     		movs	r2, #192
 2478 0068 9201     		lsls	r2, r2, #6
 2479 006a 5A40     		eors	r2, r3
 2480              	.LVL231:
 600:Drivers/STM32G0xx_HAL_Driver/Src/stm32g0xx_ll_usb.c ****   }
 2481              		.loc 1 600 5 view .LVU737
 2482 006c BB4B     		ldr	r3, .L227+8
 2483 006e 1343     		orrs	r3, r2
 2484 0070 2B60     		str	r3, [r5]
 2485              	.LBE60:
 603:Drivers/STM32G0xx_HAL_Driver/Src/stm32g0xx_ll_usb.c **** }
 2486              		.loc 1 603 10 is_stmt 0 view .LVU738
 2487 0072 0020     		movs	r0, #0
 2488              	.LVL232:
 2489              	.L161:
 604:Drivers/STM32G0xx_HAL_Driver/Src/stm32g0xx_ll_usb.c **** 
 2490              		.loc 1 604 1 view .LVU739
 2491              		@ sp needed
ARM GAS  /tmp/ccQCrB9j.s 			page 65


 2492              	.LVL233:
 604:Drivers/STM32G0xx_HAL_Driver/Src/stm32g0xx_ll_usb.c **** 
 2493              		.loc 1 604 1 view .LVU740
 2494 0074 70BD     		pop	{r4, r5, r6, pc}
 2495              	.LVL234:
 2496              	.L218:
 405:Drivers/STM32G0xx_HAL_Driver/Src/stm32g0xx_ll_usb.c ****     {
 2497              		.loc 1 405 5 is_stmt 1 view .LVU741
 405:Drivers/STM32G0xx_HAL_Driver/Src/stm32g0xx_ll_usb.c ****     {
 2498              		.loc 1 405 11 is_stmt 0 view .LVU742
 2499 0076 8E69     		ldr	r6, [r1, #24]
 405:Drivers/STM32G0xx_HAL_Driver/Src/stm32g0xx_ll_usb.c ****     {
 2500              		.loc 1 405 26 view .LVU743
 2501 0078 0A69     		ldr	r2, [r1, #16]
 405:Drivers/STM32G0xx_HAL_Driver/Src/stm32g0xx_ll_usb.c ****     {
 2502              		.loc 1 405 8 view .LVU744
 2503 007a 9642     		cmp	r6, r2
 2504 007c 00D9     		bls	.L114
 407:Drivers/STM32G0xx_HAL_Driver/Src/stm32g0xx_ll_usb.c ****     }
 2505              		.loc 1 407 11 view .LVU745
 2506 007e 1600     		movs	r6, r2
 2507              	.L114:
 2508              	.LVL235:
 415:Drivers/STM32G0xx_HAL_Driver/Src/stm32g0xx_ll_usb.c ****     {
 2509              		.loc 1 415 5 is_stmt 1 view .LVU746
 415:Drivers/STM32G0xx_HAL_Driver/Src/stm32g0xx_ll_usb.c ****     {
 2510              		.loc 1 415 11 is_stmt 0 view .LVU747
 2511 0080 A17A     		ldrb	r1, [r4, #10]
 2512              	.LVL236:
 415:Drivers/STM32G0xx_HAL_Driver/Src/stm32g0xx_ll_usb.c ****     {
 2513              		.loc 1 415 8 view .LVU748
 2514 0082 0029     		cmp	r1, #0
 2515 0084 2BD0     		beq	.L219
 424:Drivers/STM32G0xx_HAL_Driver/Src/stm32g0xx_ll_usb.c ****       {
 2516              		.loc 1 424 7 is_stmt 1 view .LVU749
 424:Drivers/STM32G0xx_HAL_Driver/Src/stm32g0xx_ll_usb.c ****       {
 2517              		.loc 1 424 13 is_stmt 0 view .LVU750
 2518 0086 E178     		ldrb	r1, [r4, #3]
 424:Drivers/STM32G0xx_HAL_Driver/Src/stm32g0xx_ll_usb.c ****       {
 2519              		.loc 1 424 10 view .LVU751
 2520 0088 0229     		cmp	r1, #2
 2521 008a 4BD0     		beq	.L220
 509:Drivers/STM32G0xx_HAL_Driver/Src/stm32g0xx_ll_usb.c **** 
 2522              		.loc 1 509 9 is_stmt 1 view .LVU752
 509:Drivers/STM32G0xx_HAL_Driver/Src/stm32g0xx_ll_usb.c **** 
 2523              		.loc 1 509 11 is_stmt 0 view .LVU753
 2524 008c 226A     		ldr	r2, [r4, #32]
 509:Drivers/STM32G0xx_HAL_Driver/Src/stm32g0xx_ll_usb.c **** 
 2525              		.loc 1 509 25 view .LVU754
 2526 008e 921B     		subs	r2, r2, r6
 2527 0090 2262     		str	r2, [r4, #32]
 512:Drivers/STM32G0xx_HAL_Driver/Src/stm32g0xx_ll_usb.c ****         {
 2528              		.loc 1 512 9 is_stmt 1 view .LVU755
 512:Drivers/STM32G0xx_HAL_Driver/Src/stm32g0xx_ll_usb.c ****         {
 2529              		.loc 1 512 14 is_stmt 0 view .LVU756
 2530 0092 2278     		ldrb	r2, [r4]
 2531 0094 9100     		lsls	r1, r2, #2
ARM GAS  /tmp/ccQCrB9j.s 			page 66


 2532 0096 6918     		adds	r1, r5, r1
 2533 0098 0968     		ldr	r1, [r1]
 512:Drivers/STM32G0xx_HAL_Driver/Src/stm32g0xx_ll_usb.c ****         {
 2534              		.loc 1 512 12 view .LVU757
 2535 009a 4906     		lsls	r1, r1, #25
 2536 009c 00D4     		bmi	.LCB2422
 2537 009e 3FE2     		b	.L148	@long jump
 2538              	.LCB2422:
 515:Drivers/STM32G0xx_HAL_Driver/Src/stm32g0xx_ll_usb.c ****           pmabuffer = ep->pmaaddr1;
 2539              		.loc 1 515 11 is_stmt 1 view .LVU758
 515:Drivers/STM32G0xx_HAL_Driver/Src/stm32g0xx_ll_usb.c ****           pmabuffer = ep->pmaaddr1;
 2540              		.loc 1 515 11 view .LVU759
 2541 00a0 002B     		cmp	r3, #0
 2542 00a2 00D0     		beq	.LCB2426
 2543 00a4 26E2     		b	.L149	@long jump
 2544              	.LCB2426:
 515:Drivers/STM32G0xx_HAL_Driver/Src/stm32g0xx_ll_usb.c ****           pmabuffer = ep->pmaaddr1;
 2545              		.loc 1 515 11 discriminator 1 view .LVU760
 2546              	.LBB61:
 515:Drivers/STM32G0xx_HAL_Driver/Src/stm32g0xx_ll_usb.c ****           pmabuffer = ep->pmaaddr1;
 2547              		.loc 1 515 11 discriminator 1 view .LVU761
 515:Drivers/STM32G0xx_HAL_Driver/Src/stm32g0xx_ll_usb.c ****           pmabuffer = ep->pmaaddr1;
 2548              		.loc 1 515 11 discriminator 1 view .LVU762
 2549 00a6 D200     		lsls	r2, r2, #3
 2550 00a8 AA4B     		ldr	r3, .L227
 2551 00aa 9C46     		mov	ip, r3
 2552 00ac 6244     		add	r2, r2, ip
 2553 00ae 5368     		ldr	r3, [r2, #4]
 2554 00b0 1B04     		lsls	r3, r3, #16
 2555 00b2 1B0C     		lsrs	r3, r3, #16
 2556 00b4 5360     		str	r3, [r2, #4]
 515:Drivers/STM32G0xx_HAL_Driver/Src/stm32g0xx_ll_usb.c ****           pmabuffer = ep->pmaaddr1;
 2557              		.loc 1 515 11 discriminator 1 view .LVU763
 2558 00b6 3E2E     		cmp	r6, #62
 2559 00b8 00D8     		bhi	.LCB2441
 2560 00ba F9E1     		b	.L150	@long jump
 2561              	.LCB2441:
 515:Drivers/STM32G0xx_HAL_Driver/Src/stm32g0xx_ll_usb.c ****           pmabuffer = ep->pmaaddr1;
 2562              		.loc 1 515 11 discriminator 3 view .LVU764
 515:Drivers/STM32G0xx_HAL_Driver/Src/stm32g0xx_ll_usb.c ****           pmabuffer = ep->pmaaddr1;
 2563              		.loc 1 515 11 discriminator 3 view .LVU765
 2564 00bc 7209     		lsrs	r2, r6, #5
 2565              	.LVL237:
 515:Drivers/STM32G0xx_HAL_Driver/Src/stm32g0xx_ll_usb.c ****           pmabuffer = ep->pmaaddr1;
 2566              		.loc 1 515 11 discriminator 3 view .LVU766
 2567 00be F306     		lsls	r3, r6, #27
 2568 00c0 00D1     		bne	.L151
 515:Drivers/STM32G0xx_HAL_Driver/Src/stm32g0xx_ll_usb.c ****           pmabuffer = ep->pmaaddr1;
 2569              		.loc 1 515 11 discriminator 5 view .LVU767
 2570 00c2 013A     		subs	r2, r2, #1
 2571              	.LVL238:
 2572              	.L151:
 515:Drivers/STM32G0xx_HAL_Driver/Src/stm32g0xx_ll_usb.c ****           pmabuffer = ep->pmaaddr1;
 2573              		.loc 1 515 11 discriminator 7 view .LVU768
 2574 00c4 2378     		ldrb	r3, [r4]
 2575 00c6 DB00     		lsls	r3, r3, #3
 2576 00c8 A249     		ldr	r1, .L227
ARM GAS  /tmp/ccQCrB9j.s 			page 67


 2577 00ca 8C46     		mov	ip, r1
 2578 00cc 6344     		add	r3, r3, ip
 2579 00ce 5968     		ldr	r1, [r3, #4]
 2580 00d0 9206     		lsls	r2, r2, #26
 2581              	.LVL239:
 515:Drivers/STM32G0xx_HAL_Driver/Src/stm32g0xx_ll_usb.c ****           pmabuffer = ep->pmaaddr1;
 2582              		.loc 1 515 11 is_stmt 0 discriminator 7 view .LVU769
 2583 00d2 1143     		orrs	r1, r2
 2584 00d4 8022     		movs	r2, #128
 2585 00d6 1206     		lsls	r2, r2, #24
 2586 00d8 0A43     		orrs	r2, r1
 2587 00da 5A60     		str	r2, [r3, #4]
 515:Drivers/STM32G0xx_HAL_Driver/Src/stm32g0xx_ll_usb.c ****           pmabuffer = ep->pmaaddr1;
 2588              		.loc 1 515 11 is_stmt 1 discriminator 7 view .LVU770
 2589 00dc 19E2     		b	.L152
 2590              	.LVL240:
 2591              	.L219:
 515:Drivers/STM32G0xx_HAL_Driver/Src/stm32g0xx_ll_usb.c ****           pmabuffer = ep->pmaaddr1;
 2592              		.loc 1 515 11 is_stmt 0 discriminator 7 view .LVU771
 2593              	.LBE61:
 417:Drivers/STM32G0xx_HAL_Driver/Src/stm32g0xx_ll_usb.c ****       PCD_SET_EP_TX_CNT(USBx, ep->num, len);
 2594              		.loc 1 417 7 is_stmt 1 view .LVU772
 2595 00de B3B2     		uxth	r3, r6
 2596 00e0 A288     		ldrh	r2, [r4, #4]
 2597 00e2 6169     		ldr	r1, [r4, #20]
 2598 00e4 2800     		movs	r0, r5
 2599              	.LVL241:
 417:Drivers/STM32G0xx_HAL_Driver/Src/stm32g0xx_ll_usb.c ****       PCD_SET_EP_TX_CNT(USBx, ep->num, len);
 2600              		.loc 1 417 7 is_stmt 0 view .LVU773
 2601 00e6 FFF7FEFF 		bl	USB_WritePMA
 2602              	.LVL242:
 418:Drivers/STM32G0xx_HAL_Driver/Src/stm32g0xx_ll_usb.c ****     }
 2603              		.loc 1 418 7 is_stmt 1 view .LVU774
 418:Drivers/STM32G0xx_HAL_Driver/Src/stm32g0xx_ll_usb.c ****     }
 2604              		.loc 1 418 7 view .LVU775
 2605 00ea 2378     		ldrb	r3, [r4]
 2606 00ec DB00     		lsls	r3, r3, #3
 2607 00ee 994A     		ldr	r2, .L227
 2608 00f0 9446     		mov	ip, r2
 2609 00f2 6344     		add	r3, r3, ip
 2610 00f4 1A68     		ldr	r2, [r3]
 2611 00f6 1204     		lsls	r2, r2, #16
 2612 00f8 120C     		lsrs	r2, r2, #16
 2613 00fa 1A60     		str	r2, [r3]
 418:Drivers/STM32G0xx_HAL_Driver/Src/stm32g0xx_ll_usb.c ****     }
 2614              		.loc 1 418 7 view .LVU776
 2615 00fc 2278     		ldrb	r2, [r4]
 2616 00fe D200     		lsls	r2, r2, #3
 2617 0100 6244     		add	r2, r2, ip
 2618 0102 1168     		ldr	r1, [r2]
 2619 0104 3604     		lsls	r6, r6, #16
 2620              	.LVL243:
 418:Drivers/STM32G0xx_HAL_Driver/Src/stm32g0xx_ll_usb.c ****     }
 2621              		.loc 1 418 7 is_stmt 0 view .LVU777
 2622 0106 0E43     		orrs	r6, r1
 2623 0108 1660     		str	r6, [r2]
 418:Drivers/STM32G0xx_HAL_Driver/Src/stm32g0xx_ll_usb.c ****     }
ARM GAS  /tmp/ccQCrB9j.s 			page 68


 2624              		.loc 1 418 7 is_stmt 1 view .LVU778
 2625              	.LVL244:
 2626              	.L116:
 534:Drivers/STM32G0xx_HAL_Driver/Src/stm32g0xx_ll_usb.c ****   }
 2627              		.loc 1 534 5 view .LVU779
 2628              	.LBB62:
 534:Drivers/STM32G0xx_HAL_Driver/Src/stm32g0xx_ll_usb.c ****   }
 2629              		.loc 1 534 5 view .LVU780
 534:Drivers/STM32G0xx_HAL_Driver/Src/stm32g0xx_ll_usb.c ****   }
 2630              		.loc 1 534 5 view .LVU781
 2631 010a 2378     		ldrb	r3, [r4]
 2632 010c 9B00     		lsls	r3, r3, #2
 2633 010e EB18     		adds	r3, r5, r3
 2634 0110 1A68     		ldr	r2, [r3]
 2635 0112 9349     		ldr	r1, .L227+12
 2636 0114 0A40     		ands	r2, r1
 2637              	.LVL245:
 534:Drivers/STM32G0xx_HAL_Driver/Src/stm32g0xx_ll_usb.c ****   }
 2638              		.loc 1 534 5 view .LVU782
 534:Drivers/STM32G0xx_HAL_Driver/Src/stm32g0xx_ll_usb.c ****   }
 2639              		.loc 1 534 5 view .LVU783
 534:Drivers/STM32G0xx_HAL_Driver/Src/stm32g0xx_ll_usb.c ****   }
 2640              		.loc 1 534 5 view .LVU784
 534:Drivers/STM32G0xx_HAL_Driver/Src/stm32g0xx_ll_usb.c ****   }
 2641              		.loc 1 534 5 view .LVU785
 2642 0116 3021     		movs	r1, #48
 2643 0118 4A40     		eors	r2, r1
 2644              	.LVL246:
 534:Drivers/STM32G0xx_HAL_Driver/Src/stm32g0xx_ll_usb.c ****   }
 2645              		.loc 1 534 5 view .LVU786
 2646 011a 9049     		ldr	r1, .L227+8
 2647 011c 0A43     		orrs	r2, r1
 2648              	.LVL247:
 534:Drivers/STM32G0xx_HAL_Driver/Src/stm32g0xx_ll_usb.c ****   }
 2649              		.loc 1 534 5 is_stmt 0 view .LVU787
 2650 011e 1A60     		str	r2, [r3]
 2651              	.LBE62:
 534:Drivers/STM32G0xx_HAL_Driver/Src/stm32g0xx_ll_usb.c ****   }
 2652              		.loc 1 534 5 is_stmt 1 view .LVU788
 603:Drivers/STM32G0xx_HAL_Driver/Src/stm32g0xx_ll_usb.c **** }
 2653              		.loc 1 603 10 is_stmt 0 view .LVU789
 2654 0120 0020     		movs	r0, #0
 2655 0122 A7E7     		b	.L161
 2656              	.LVL248:
 2657              	.L220:
 426:Drivers/STM32G0xx_HAL_Driver/Src/stm32g0xx_ll_usb.c ****         {
 2658              		.loc 1 426 9 is_stmt 1 view .LVU790
 426:Drivers/STM32G0xx_HAL_Driver/Src/stm32g0xx_ll_usb.c ****         {
 2659              		.loc 1 426 15 is_stmt 0 view .LVU791
 2660 0124 236A     		ldr	r3, [r4, #32]
 426:Drivers/STM32G0xx_HAL_Driver/Src/stm32g0xx_ll_usb.c ****         {
 2661              		.loc 1 426 12 view .LVU792
 2662 0126 9A42     		cmp	r2, r3
 2663 0128 00D3     		bcc	.LCB2554
 2664 012a A1E1     		b	.L118	@long jump
 2665              	.LCB2554:
 429:Drivers/STM32G0xx_HAL_Driver/Src/stm32g0xx_ll_usb.c **** 
ARM GAS  /tmp/ccQCrB9j.s 			page 69


 2666              		.loc 1 429 11 is_stmt 1 view .LVU793
 2667              	.LBB63:
 429:Drivers/STM32G0xx_HAL_Driver/Src/stm32g0xx_ll_usb.c **** 
 2668              		.loc 1 429 11 view .LVU794
 429:Drivers/STM32G0xx_HAL_Driver/Src/stm32g0xx_ll_usb.c **** 
 2669              		.loc 1 429 11 view .LVU795
 2670 012c 2378     		ldrb	r3, [r4]
 2671 012e 9B00     		lsls	r3, r3, #2
 2672 0130 EB18     		adds	r3, r5, r3
 2673 0132 1968     		ldr	r1, [r3]
 2674 0134 8B4A     		ldr	r2, .L227+16
 2675 0136 1140     		ands	r1, r2
 2676              	.LVL249:
 429:Drivers/STM32G0xx_HAL_Driver/Src/stm32g0xx_ll_usb.c **** 
 2677              		.loc 1 429 11 view .LVU796
 2678 0138 8B4A     		ldr	r2, .L227+20
 2679 013a 0A43     		orrs	r2, r1
 2680 013c 1A60     		str	r2, [r3]
 2681              	.LBE63:
 429:Drivers/STM32G0xx_HAL_Driver/Src/stm32g0xx_ll_usb.c **** 
 2682              		.loc 1 429 11 view .LVU797
 432:Drivers/STM32G0xx_HAL_Driver/Src/stm32g0xx_ll_usb.c **** 
 2683              		.loc 1 432 11 view .LVU798
 432:Drivers/STM32G0xx_HAL_Driver/Src/stm32g0xx_ll_usb.c **** 
 2684              		.loc 1 432 13 is_stmt 0 view .LVU799
 2685 013e 236A     		ldr	r3, [r4, #32]
 432:Drivers/STM32G0xx_HAL_Driver/Src/stm32g0xx_ll_usb.c **** 
 2686              		.loc 1 432 27 view .LVU800
 2687 0140 9B1B     		subs	r3, r3, r6
 2688 0142 2362     		str	r3, [r4, #32]
 435:Drivers/STM32G0xx_HAL_Driver/Src/stm32g0xx_ll_usb.c ****           {
 2689              		.loc 1 435 11 is_stmt 1 view .LVU801
 435:Drivers/STM32G0xx_HAL_Driver/Src/stm32g0xx_ll_usb.c ****           {
 2690              		.loc 1 435 16 is_stmt 0 view .LVU802
 2691 0144 2378     		ldrb	r3, [r4]
 2692 0146 9A00     		lsls	r2, r3, #2
 2693 0148 AA18     		adds	r2, r5, r2
 2694 014a 1268     		ldr	r2, [r2]
 435:Drivers/STM32G0xx_HAL_Driver/Src/stm32g0xx_ll_usb.c ****           {
 2695              		.loc 1 435 14 view .LVU803
 2696 014c 5206     		lsls	r2, r2, #25
 2697 014e 00D4     		bmi	.LCB2584
 2698 0150 BFE0     		b	.L119	@long jump
 2699              	.LCB2584:
 438:Drivers/STM32G0xx_HAL_Driver/Src/stm32g0xx_ll_usb.c ****             pmabuffer = ep->pmaaddr1;
 2700              		.loc 1 438 13 is_stmt 1 view .LVU804
 438:Drivers/STM32G0xx_HAL_Driver/Src/stm32g0xx_ll_usb.c ****             pmabuffer = ep->pmaaddr1;
 2701              		.loc 1 438 13 view .LVU805
 2702 0152 6278     		ldrb	r2, [r4, #1]
 2703 0154 002A     		cmp	r2, #0
 2704 0156 3CD1     		bne	.L120
 438:Drivers/STM32G0xx_HAL_Driver/Src/stm32g0xx_ll_usb.c ****             pmabuffer = ep->pmaaddr1;
 2705              		.loc 1 438 13 discriminator 1 view .LVU806
 2706              	.LBB64:
 438:Drivers/STM32G0xx_HAL_Driver/Src/stm32g0xx_ll_usb.c ****             pmabuffer = ep->pmaaddr1;
 2707              		.loc 1 438 13 discriminator 1 view .LVU807
 438:Drivers/STM32G0xx_HAL_Driver/Src/stm32g0xx_ll_usb.c ****             pmabuffer = ep->pmaaddr1;
ARM GAS  /tmp/ccQCrB9j.s 			page 70


 2708              		.loc 1 438 13 discriminator 1 view .LVU808
 2709 0158 DB00     		lsls	r3, r3, #3
 2710 015a 7E4A     		ldr	r2, .L227
 2711 015c 9446     		mov	ip, r2
 2712 015e 6344     		add	r3, r3, ip
 2713 0160 5A68     		ldr	r2, [r3, #4]
 2714 0162 1204     		lsls	r2, r2, #16
 2715 0164 120C     		lsrs	r2, r2, #16
 2716 0166 5A60     		str	r2, [r3, #4]
 438:Drivers/STM32G0xx_HAL_Driver/Src/stm32g0xx_ll_usb.c ****             pmabuffer = ep->pmaaddr1;
 2717              		.loc 1 438 13 discriminator 1 view .LVU809
 2718 0168 3E2E     		cmp	r6, #62
 2719 016a 10D9     		bls	.L121
 438:Drivers/STM32G0xx_HAL_Driver/Src/stm32g0xx_ll_usb.c ****             pmabuffer = ep->pmaaddr1;
 2720              		.loc 1 438 13 discriminator 3 view .LVU810
 438:Drivers/STM32G0xx_HAL_Driver/Src/stm32g0xx_ll_usb.c ****             pmabuffer = ep->pmaaddr1;
 2721              		.loc 1 438 13 discriminator 3 view .LVU811
 2722 016c 7209     		lsrs	r2, r6, #5
 2723              	.LVL250:
 438:Drivers/STM32G0xx_HAL_Driver/Src/stm32g0xx_ll_usb.c ****             pmabuffer = ep->pmaaddr1;
 2724              		.loc 1 438 13 discriminator 3 view .LVU812
 2725 016e F306     		lsls	r3, r6, #27
 2726 0170 00D1     		bne	.L122
 438:Drivers/STM32G0xx_HAL_Driver/Src/stm32g0xx_ll_usb.c ****             pmabuffer = ep->pmaaddr1;
 2727              		.loc 1 438 13 discriminator 5 view .LVU813
 2728 0172 013A     		subs	r2, r2, #1
 2729              	.LVL251:
 2730              	.L122:
 438:Drivers/STM32G0xx_HAL_Driver/Src/stm32g0xx_ll_usb.c ****             pmabuffer = ep->pmaaddr1;
 2731              		.loc 1 438 13 discriminator 7 view .LVU814
 2732 0174 2378     		ldrb	r3, [r4]
 2733 0176 DB00     		lsls	r3, r3, #3
 2734 0178 7649     		ldr	r1, .L227
 2735              	.LVL252:
 438:Drivers/STM32G0xx_HAL_Driver/Src/stm32g0xx_ll_usb.c ****             pmabuffer = ep->pmaaddr1;
 2736              		.loc 1 438 13 is_stmt 0 discriminator 7 view .LVU815
 2737 017a 8C46     		mov	ip, r1
 2738 017c 6344     		add	r3, r3, ip
 2739 017e 5968     		ldr	r1, [r3, #4]
 2740 0180 9206     		lsls	r2, r2, #26
 2741              	.LVL253:
 438:Drivers/STM32G0xx_HAL_Driver/Src/stm32g0xx_ll_usb.c ****             pmabuffer = ep->pmaaddr1;
 2742              		.loc 1 438 13 discriminator 7 view .LVU816
 2743 0182 1143     		orrs	r1, r2
 2744 0184 8022     		movs	r2, #128
 2745 0186 1206     		lsls	r2, r2, #24
 2746 0188 0A43     		orrs	r2, r1
 2747 018a 5A60     		str	r2, [r3, #4]
 438:Drivers/STM32G0xx_HAL_Driver/Src/stm32g0xx_ll_usb.c ****             pmabuffer = ep->pmaaddr1;
 2748              		.loc 1 438 13 is_stmt 1 discriminator 7 view .LVU817
 2749 018c 23E0     		b	.L123
 2750              	.LVL254:
 2751              	.L121:
 438:Drivers/STM32G0xx_HAL_Driver/Src/stm32g0xx_ll_usb.c ****             pmabuffer = ep->pmaaddr1;
 2752              		.loc 1 438 13 discriminator 4 view .LVU818
 2753 018e 002E     		cmp	r6, #0
 2754 0190 11D1     		bne	.L124
ARM GAS  /tmp/ccQCrB9j.s 			page 71


 438:Drivers/STM32G0xx_HAL_Driver/Src/stm32g0xx_ll_usb.c ****             pmabuffer = ep->pmaaddr1;
 2755              		.loc 1 438 13 discriminator 9 view .LVU819
 2756 0192 2378     		ldrb	r3, [r4]
 2757 0194 DB00     		lsls	r3, r3, #3
 2758 0196 6F4A     		ldr	r2, .L227
 2759 0198 9446     		mov	ip, r2
 2760 019a 6344     		add	r3, r3, ip
 2761 019c 5A68     		ldr	r2, [r3, #4]
 2762 019e 7349     		ldr	r1, .L227+24
 2763              	.LVL255:
 438:Drivers/STM32G0xx_HAL_Driver/Src/stm32g0xx_ll_usb.c ****             pmabuffer = ep->pmaaddr1;
 2764              		.loc 1 438 13 is_stmt 0 discriminator 9 view .LVU820
 2765 01a0 0A40     		ands	r2, r1
 2766 01a2 5A60     		str	r2, [r3, #4]
 438:Drivers/STM32G0xx_HAL_Driver/Src/stm32g0xx_ll_usb.c ****             pmabuffer = ep->pmaaddr1;
 2767              		.loc 1 438 13 is_stmt 1 discriminator 9 view .LVU821
 2768 01a4 2378     		ldrb	r3, [r4]
 2769 01a6 DB00     		lsls	r3, r3, #3
 2770 01a8 6344     		add	r3, r3, ip
 2771 01aa 5968     		ldr	r1, [r3, #4]
 2772 01ac 8022     		movs	r2, #128
 2773 01ae 1206     		lsls	r2, r2, #24
 2774 01b0 0A43     		orrs	r2, r1
 2775 01b2 5A60     		str	r2, [r3, #4]
 2776 01b4 0FE0     		b	.L123
 2777              	.LVL256:
 2778              	.L124:
 438:Drivers/STM32G0xx_HAL_Driver/Src/stm32g0xx_ll_usb.c ****             pmabuffer = ep->pmaaddr1;
 2779              		.loc 1 438 13 discriminator 10 view .LVU822
 438:Drivers/STM32G0xx_HAL_Driver/Src/stm32g0xx_ll_usb.c ****             pmabuffer = ep->pmaaddr1;
 2780              		.loc 1 438 13 discriminator 10 view .LVU823
 2781 01b6 7208     		lsrs	r2, r6, #1
 2782              	.LVL257:
 438:Drivers/STM32G0xx_HAL_Driver/Src/stm32g0xx_ll_usb.c ****             pmabuffer = ep->pmaaddr1;
 2783              		.loc 1 438 13 discriminator 10 view .LVU824
 2784 01b8 F307     		lsls	r3, r6, #31
 2785 01ba 00D5     		bpl	.L125
 438:Drivers/STM32G0xx_HAL_Driver/Src/stm32g0xx_ll_usb.c ****             pmabuffer = ep->pmaaddr1;
 2786              		.loc 1 438 13 discriminator 12 view .LVU825
 2787 01bc 0132     		adds	r2, r2, #1
 2788              	.LVL258:
 2789              	.L125:
 438:Drivers/STM32G0xx_HAL_Driver/Src/stm32g0xx_ll_usb.c ****             pmabuffer = ep->pmaaddr1;
 2790              		.loc 1 438 13 discriminator 14 view .LVU826
 2791 01be 2378     		ldrb	r3, [r4]
 2792 01c0 DB00     		lsls	r3, r3, #3
 2793 01c2 6449     		ldr	r1, .L227
 2794              	.LVL259:
 438:Drivers/STM32G0xx_HAL_Driver/Src/stm32g0xx_ll_usb.c ****             pmabuffer = ep->pmaaddr1;
 2795              		.loc 1 438 13 is_stmt 0 discriminator 14 view .LVU827
 2796 01c4 8C46     		mov	ip, r1
 2797 01c6 6344     		add	r3, r3, ip
 2798 01c8 5968     		ldr	r1, [r3, #4]
 2799 01ca 9206     		lsls	r2, r2, #26
 2800              	.LVL260:
 438:Drivers/STM32G0xx_HAL_Driver/Src/stm32g0xx_ll_usb.c ****             pmabuffer = ep->pmaaddr1;
 2801              		.loc 1 438 13 discriminator 14 view .LVU828
ARM GAS  /tmp/ccQCrB9j.s 			page 72


 2802 01cc 0A43     		orrs	r2, r1
 2803 01ce 5A60     		str	r2, [r3, #4]
 2804 01d0 01E0     		b	.L123
 2805              	.LVL261:
 2806              	.L120:
 438:Drivers/STM32G0xx_HAL_Driver/Src/stm32g0xx_ll_usb.c ****             pmabuffer = ep->pmaaddr1;
 2807              		.loc 1 438 13 discriminator 14 view .LVU829
 2808              	.LBE64:
 438:Drivers/STM32G0xx_HAL_Driver/Src/stm32g0xx_ll_usb.c ****             pmabuffer = ep->pmaaddr1;
 2809              		.loc 1 438 13 is_stmt 1 discriminator 2 view .LVU830
 2810 01d2 012A     		cmp	r2, #1
 2811 01d4 2DD0     		beq	.L221
 2812              	.LVL262:
 2813              	.L123:
 438:Drivers/STM32G0xx_HAL_Driver/Src/stm32g0xx_ll_usb.c ****             pmabuffer = ep->pmaaddr1;
 2814              		.loc 1 438 13 discriminator 18 view .LVU831
 439:Drivers/STM32G0xx_HAL_Driver/Src/stm32g0xx_ll_usb.c **** 
 2815              		.loc 1 439 13 discriminator 18 view .LVU832
 439:Drivers/STM32G0xx_HAL_Driver/Src/stm32g0xx_ll_usb.c **** 
 2816              		.loc 1 439 23 is_stmt 0 discriminator 18 view .LVU833
 2817 01d6 2289     		ldrh	r2, [r4, #8]
 2818              	.LVL263:
 442:Drivers/STM32G0xx_HAL_Driver/Src/stm32g0xx_ll_usb.c ****             ep->xfer_buff += len;
 2819              		.loc 1 442 13 is_stmt 1 discriminator 18 view .LVU834
 2820 01d8 B3B2     		uxth	r3, r6
 2821 01da 6169     		ldr	r1, [r4, #20]
 2822 01dc 2800     		movs	r0, r5
 2823              	.LVL264:
 442:Drivers/STM32G0xx_HAL_Driver/Src/stm32g0xx_ll_usb.c ****             ep->xfer_buff += len;
 2824              		.loc 1 442 13 is_stmt 0 discriminator 18 view .LVU835
 2825 01de FFF7FEFF 		bl	USB_WritePMA
 2826              	.LVL265:
 443:Drivers/STM32G0xx_HAL_Driver/Src/stm32g0xx_ll_usb.c **** 
 2827              		.loc 1 443 13 is_stmt 1 discriminator 18 view .LVU836
 443:Drivers/STM32G0xx_HAL_Driver/Src/stm32g0xx_ll_usb.c **** 
 2828              		.loc 1 443 15 is_stmt 0 discriminator 18 view .LVU837
 2829 01e2 6369     		ldr	r3, [r4, #20]
 443:Drivers/STM32G0xx_HAL_Driver/Src/stm32g0xx_ll_usb.c **** 
 2830              		.loc 1 443 27 discriminator 18 view .LVU838
 2831 01e4 9B19     		adds	r3, r3, r6
 2832 01e6 6361     		str	r3, [r4, #20]
 445:Drivers/STM32G0xx_HAL_Driver/Src/stm32g0xx_ll_usb.c ****             {
 2833              		.loc 1 445 13 is_stmt 1 discriminator 18 view .LVU839
 445:Drivers/STM32G0xx_HAL_Driver/Src/stm32g0xx_ll_usb.c ****             {
 2834              		.loc 1 445 19 is_stmt 0 discriminator 18 view .LVU840
 2835 01e8 236A     		ldr	r3, [r4, #32]
 445:Drivers/STM32G0xx_HAL_Driver/Src/stm32g0xx_ll_usb.c ****             {
 2836              		.loc 1 445 37 discriminator 18 view .LVU841
 2837 01ea 2269     		ldr	r2, [r4, #16]
 445:Drivers/STM32G0xx_HAL_Driver/Src/stm32g0xx_ll_usb.c ****             {
 2838              		.loc 1 445 16 discriminator 18 view .LVU842
 2839 01ec 9342     		cmp	r3, r2
 2840 01ee 30D9     		bls	.L126
 447:Drivers/STM32G0xx_HAL_Driver/Src/stm32g0xx_ll_usb.c ****             }
 2841              		.loc 1 447 15 is_stmt 1 view .LVU843
 447:Drivers/STM32G0xx_HAL_Driver/Src/stm32g0xx_ll_usb.c ****             }
 2842              		.loc 1 447 31 is_stmt 0 view .LVU844
ARM GAS  /tmp/ccQCrB9j.s 			page 73


 2843 01f0 9B1B     		subs	r3, r3, r6
 2844 01f2 2362     		str	r3, [r4, #32]
 2845              	.L127:
 456:Drivers/STM32G0xx_HAL_Driver/Src/stm32g0xx_ll_usb.c ****             pmabuffer = ep->pmaaddr0;
 2846              		.loc 1 456 13 is_stmt 1 view .LVU845
 456:Drivers/STM32G0xx_HAL_Driver/Src/stm32g0xx_ll_usb.c ****             pmabuffer = ep->pmaaddr0;
 2847              		.loc 1 456 13 view .LVU846
 2848 01f4 6378     		ldrb	r3, [r4, #1]
 2849 01f6 002B     		cmp	r3, #0
 2850 01f8 51D1     		bne	.L128
 456:Drivers/STM32G0xx_HAL_Driver/Src/stm32g0xx_ll_usb.c ****             pmabuffer = ep->pmaaddr0;
 2851              		.loc 1 456 13 discriminator 1 view .LVU847
 2852              	.LBB65:
 456:Drivers/STM32G0xx_HAL_Driver/Src/stm32g0xx_ll_usb.c ****             pmabuffer = ep->pmaaddr0;
 2853              		.loc 1 456 13 discriminator 1 view .LVU848
 456:Drivers/STM32G0xx_HAL_Driver/Src/stm32g0xx_ll_usb.c ****             pmabuffer = ep->pmaaddr0;
 2854              		.loc 1 456 13 discriminator 1 view .LVU849
 2855 01fa 2378     		ldrb	r3, [r4]
 2856 01fc DB00     		lsls	r3, r3, #3
 2857 01fe 554A     		ldr	r2, .L227
 2858 0200 9446     		mov	ip, r2
 2859 0202 6344     		add	r3, r3, ip
 2860 0204 1A68     		ldr	r2, [r3]
 2861 0206 1204     		lsls	r2, r2, #16
 2862 0208 120C     		lsrs	r2, r2, #16
 2863 020a 1A60     		str	r2, [r3]
 456:Drivers/STM32G0xx_HAL_Driver/Src/stm32g0xx_ll_usb.c ****             pmabuffer = ep->pmaaddr0;
 2864              		.loc 1 456 13 discriminator 1 view .LVU850
 2865 020c 3E2E     		cmp	r6, #62
 2866 020e 24D9     		bls	.L129
 456:Drivers/STM32G0xx_HAL_Driver/Src/stm32g0xx_ll_usb.c ****             pmabuffer = ep->pmaaddr0;
 2867              		.loc 1 456 13 discriminator 3 view .LVU851
 456:Drivers/STM32G0xx_HAL_Driver/Src/stm32g0xx_ll_usb.c ****             pmabuffer = ep->pmaaddr0;
 2868              		.loc 1 456 13 discriminator 3 view .LVU852
 2869 0210 7209     		lsrs	r2, r6, #5
 2870              	.LVL266:
 456:Drivers/STM32G0xx_HAL_Driver/Src/stm32g0xx_ll_usb.c ****             pmabuffer = ep->pmaaddr0;
 2871              		.loc 1 456 13 discriminator 3 view .LVU853
 2872 0212 F306     		lsls	r3, r6, #27
 2873 0214 00D1     		bne	.L130
 456:Drivers/STM32G0xx_HAL_Driver/Src/stm32g0xx_ll_usb.c ****             pmabuffer = ep->pmaaddr0;
 2874              		.loc 1 456 13 discriminator 5 view .LVU854
 2875 0216 013A     		subs	r2, r2, #1
 2876              	.LVL267:
 2877              	.L130:
 456:Drivers/STM32G0xx_HAL_Driver/Src/stm32g0xx_ll_usb.c ****             pmabuffer = ep->pmaaddr0;
 2878              		.loc 1 456 13 discriminator 7 view .LVU855
 2879 0218 2378     		ldrb	r3, [r4]
 2880 021a DB00     		lsls	r3, r3, #3
 2881 021c 4D49     		ldr	r1, .L227
 2882 021e 8C46     		mov	ip, r1
 2883 0220 6344     		add	r3, r3, ip
 2884 0222 1968     		ldr	r1, [r3]
 2885 0224 9206     		lsls	r2, r2, #26
 2886              	.LVL268:
 456:Drivers/STM32G0xx_HAL_Driver/Src/stm32g0xx_ll_usb.c ****             pmabuffer = ep->pmaaddr0;
 2887              		.loc 1 456 13 is_stmt 0 discriminator 7 view .LVU856
ARM GAS  /tmp/ccQCrB9j.s 			page 74


 2888 0226 1143     		orrs	r1, r2
 2889 0228 8022     		movs	r2, #128
 2890 022a 1206     		lsls	r2, r2, #24
 2891 022c 0A43     		orrs	r2, r1
 2892 022e 1A60     		str	r2, [r3]
 456:Drivers/STM32G0xx_HAL_Driver/Src/stm32g0xx_ll_usb.c ****             pmabuffer = ep->pmaaddr0;
 2893              		.loc 1 456 13 is_stmt 1 discriminator 7 view .LVU857
 2894 0230 37E0     		b	.L131
 2895              	.LVL269:
 2896              	.L221:
 456:Drivers/STM32G0xx_HAL_Driver/Src/stm32g0xx_ll_usb.c ****             pmabuffer = ep->pmaaddr0;
 2897              		.loc 1 456 13 is_stmt 0 discriminator 7 view .LVU858
 2898              	.LBE65:
 438:Drivers/STM32G0xx_HAL_Driver/Src/stm32g0xx_ll_usb.c ****             pmabuffer = ep->pmaaddr1;
 2899              		.loc 1 438 13 is_stmt 1 discriminator 16 view .LVU859
 2900 0232 DB00     		lsls	r3, r3, #3
 2901 0234 474A     		ldr	r2, .L227
 2902 0236 9446     		mov	ip, r2
 2903 0238 6344     		add	r3, r3, ip
 2904 023a 5A68     		ldr	r2, [r3, #4]
 2905 023c 1204     		lsls	r2, r2, #16
 2906 023e 120C     		lsrs	r2, r2, #16
 2907 0240 5A60     		str	r2, [r3, #4]
 438:Drivers/STM32G0xx_HAL_Driver/Src/stm32g0xx_ll_usb.c ****             pmabuffer = ep->pmaaddr1;
 2908              		.loc 1 438 13 discriminator 16 view .LVU860
 2909 0242 2378     		ldrb	r3, [r4]
 2910 0244 DB00     		lsls	r3, r3, #3
 2911 0246 6344     		add	r3, r3, ip
 2912 0248 5A68     		ldr	r2, [r3, #4]
 2913 024a 3104     		lsls	r1, r6, #16
 2914              	.LVL270:
 438:Drivers/STM32G0xx_HAL_Driver/Src/stm32g0xx_ll_usb.c ****             pmabuffer = ep->pmaaddr1;
 2915              		.loc 1 438 13 is_stmt 0 discriminator 16 view .LVU861
 2916 024c 0A43     		orrs	r2, r1
 2917 024e 5A60     		str	r2, [r3, #4]
 2918 0250 C1E7     		b	.L123
 2919              	.LVL271:
 2920              	.L126:
 451:Drivers/STM32G0xx_HAL_Driver/Src/stm32g0xx_ll_usb.c ****               ep->xfer_len_db = 0U;
 2921              		.loc 1 451 15 is_stmt 1 view .LVU862
 452:Drivers/STM32G0xx_HAL_Driver/Src/stm32g0xx_ll_usb.c ****             }
 2922              		.loc 1 452 15 view .LVU863
 452:Drivers/STM32G0xx_HAL_Driver/Src/stm32g0xx_ll_usb.c ****             }
 2923              		.loc 1 452 31 is_stmt 0 view .LVU864
 2924 0252 0022     		movs	r2, #0
 2925 0254 2262     		str	r2, [r4, #32]
 451:Drivers/STM32G0xx_HAL_Driver/Src/stm32g0xx_ll_usb.c ****               ep->xfer_len_db = 0U;
 2926              		.loc 1 451 19 view .LVU865
 2927 0256 1E00     		movs	r6, r3
 2928 0258 CCE7     		b	.L127
 2929              	.LVL272:
 2930              	.L129:
 2931              	.LBB66:
 456:Drivers/STM32G0xx_HAL_Driver/Src/stm32g0xx_ll_usb.c ****             pmabuffer = ep->pmaaddr0;
 2932              		.loc 1 456 13 is_stmt 1 discriminator 4 view .LVU866
 2933 025a 002E     		cmp	r6, #0
 2934 025c 11D1     		bne	.L132
ARM GAS  /tmp/ccQCrB9j.s 			page 75


 456:Drivers/STM32G0xx_HAL_Driver/Src/stm32g0xx_ll_usb.c ****             pmabuffer = ep->pmaaddr0;
 2935              		.loc 1 456 13 discriminator 9 view .LVU867
 2936 025e 2378     		ldrb	r3, [r4]
 2937 0260 DB00     		lsls	r3, r3, #3
 2938 0262 3C4A     		ldr	r2, .L227
 2939 0264 9446     		mov	ip, r2
 2940 0266 6344     		add	r3, r3, ip
 2941 0268 1A68     		ldr	r2, [r3]
 2942 026a 4049     		ldr	r1, .L227+24
 2943 026c 0A40     		ands	r2, r1
 2944 026e 1A60     		str	r2, [r3]
 456:Drivers/STM32G0xx_HAL_Driver/Src/stm32g0xx_ll_usb.c ****             pmabuffer = ep->pmaaddr0;
 2945              		.loc 1 456 13 discriminator 9 view .LVU868
 2946 0270 2378     		ldrb	r3, [r4]
 2947 0272 DB00     		lsls	r3, r3, #3
 2948 0274 6344     		add	r3, r3, ip
 2949 0276 1968     		ldr	r1, [r3]
 2950 0278 8022     		movs	r2, #128
 2951 027a 1206     		lsls	r2, r2, #24
 2952 027c 0A43     		orrs	r2, r1
 2953 027e 1A60     		str	r2, [r3]
 2954 0280 0FE0     		b	.L131
 2955              	.L132:
 456:Drivers/STM32G0xx_HAL_Driver/Src/stm32g0xx_ll_usb.c ****             pmabuffer = ep->pmaaddr0;
 2956              		.loc 1 456 13 discriminator 10 view .LVU869
 456:Drivers/STM32G0xx_HAL_Driver/Src/stm32g0xx_ll_usb.c ****             pmabuffer = ep->pmaaddr0;
 2957              		.loc 1 456 13 discriminator 10 view .LVU870
 2958 0282 7208     		lsrs	r2, r6, #1
 2959              	.LVL273:
 456:Drivers/STM32G0xx_HAL_Driver/Src/stm32g0xx_ll_usb.c ****             pmabuffer = ep->pmaaddr0;
 2960              		.loc 1 456 13 discriminator 10 view .LVU871
 2961 0284 F307     		lsls	r3, r6, #31
 2962 0286 00D5     		bpl	.L133
 456:Drivers/STM32G0xx_HAL_Driver/Src/stm32g0xx_ll_usb.c ****             pmabuffer = ep->pmaaddr0;
 2963              		.loc 1 456 13 discriminator 12 view .LVU872
 2964 0288 0132     		adds	r2, r2, #1
 2965              	.LVL274:
 2966              	.L133:
 456:Drivers/STM32G0xx_HAL_Driver/Src/stm32g0xx_ll_usb.c ****             pmabuffer = ep->pmaaddr0;
 2967              		.loc 1 456 13 discriminator 14 view .LVU873
 2968 028a 2378     		ldrb	r3, [r4]
 2969 028c DB00     		lsls	r3, r3, #3
 2970 028e 3149     		ldr	r1, .L227
 2971 0290 8C46     		mov	ip, r1
 2972 0292 6344     		add	r3, r3, ip
 2973 0294 1968     		ldr	r1, [r3]
 2974 0296 9206     		lsls	r2, r2, #26
 2975              	.LVL275:
 456:Drivers/STM32G0xx_HAL_Driver/Src/stm32g0xx_ll_usb.c ****             pmabuffer = ep->pmaaddr0;
 2976              		.loc 1 456 13 is_stmt 0 discriminator 14 view .LVU874
 2977 0298 0A43     		orrs	r2, r1
 2978 029a 1A60     		str	r2, [r3]
 2979 029c 01E0     		b	.L131
 2980              	.LVL276:
 2981              	.L128:
 456:Drivers/STM32G0xx_HAL_Driver/Src/stm32g0xx_ll_usb.c ****             pmabuffer = ep->pmaaddr0;
 2982              		.loc 1 456 13 discriminator 14 view .LVU875
ARM GAS  /tmp/ccQCrB9j.s 			page 76


 2983              	.LBE66:
 456:Drivers/STM32G0xx_HAL_Driver/Src/stm32g0xx_ll_usb.c ****             pmabuffer = ep->pmaaddr0;
 2984              		.loc 1 456 13 is_stmt 1 discriminator 2 view .LVU876
 2985 029e 012B     		cmp	r3, #1
 2986 02a0 06D0     		beq	.L222
 2987              	.L131:
 456:Drivers/STM32G0xx_HAL_Driver/Src/stm32g0xx_ll_usb.c ****             pmabuffer = ep->pmaaddr0;
 2988              		.loc 1 456 13 discriminator 18 view .LVU877
 456:Drivers/STM32G0xx_HAL_Driver/Src/stm32g0xx_ll_usb.c ****             pmabuffer = ep->pmaaddr0;
 2989              		.loc 1 456 13 discriminator 18 view .LVU878
 457:Drivers/STM32G0xx_HAL_Driver/Src/stm32g0xx_ll_usb.c **** 
 2990              		.loc 1 457 13 discriminator 18 view .LVU879
 457:Drivers/STM32G0xx_HAL_Driver/Src/stm32g0xx_ll_usb.c **** 
 2991              		.loc 1 457 23 is_stmt 0 discriminator 18 view .LVU880
 2992 02a2 E288     		ldrh	r2, [r4, #6]
 2993              	.LVL277:
 460:Drivers/STM32G0xx_HAL_Driver/Src/stm32g0xx_ll_usb.c ****           }
 2994              		.loc 1 460 13 is_stmt 1 discriminator 18 view .LVU881
 2995 02a4 B3B2     		uxth	r3, r6
 2996 02a6 6169     		ldr	r1, [r4, #20]
 2997 02a8 2800     		movs	r0, r5
 2998 02aa FFF7FEFF 		bl	USB_WritePMA
 2999              	.LVL278:
 460:Drivers/STM32G0xx_HAL_Driver/Src/stm32g0xx_ll_usb.c ****           }
 3000              		.loc 1 460 13 is_stmt 0 discriminator 18 view .LVU882
 3001 02ae 2CE7     		b	.L116
 3002              	.L222:
 456:Drivers/STM32G0xx_HAL_Driver/Src/stm32g0xx_ll_usb.c ****             pmabuffer = ep->pmaaddr0;
 3003              		.loc 1 456 13 is_stmt 1 discriminator 16 view .LVU883
 456:Drivers/STM32G0xx_HAL_Driver/Src/stm32g0xx_ll_usb.c ****             pmabuffer = ep->pmaaddr0;
 3004              		.loc 1 456 13 discriminator 16 view .LVU884
 3005 02b0 2378     		ldrb	r3, [r4]
 3006 02b2 DB00     		lsls	r3, r3, #3
 3007 02b4 274A     		ldr	r2, .L227
 3008 02b6 9446     		mov	ip, r2
 3009 02b8 6344     		add	r3, r3, ip
 3010 02ba 1A68     		ldr	r2, [r3]
 3011 02bc 1204     		lsls	r2, r2, #16
 3012 02be 120C     		lsrs	r2, r2, #16
 3013 02c0 1A60     		str	r2, [r3]
 456:Drivers/STM32G0xx_HAL_Driver/Src/stm32g0xx_ll_usb.c ****             pmabuffer = ep->pmaaddr0;
 3014              		.loc 1 456 13 discriminator 16 view .LVU885
 3015 02c2 2378     		ldrb	r3, [r4]
 3016 02c4 DB00     		lsls	r3, r3, #3
 3017 02c6 6344     		add	r3, r3, ip
 3018 02c8 1A68     		ldr	r2, [r3]
 3019 02ca 3104     		lsls	r1, r6, #16
 3020 02cc 0A43     		orrs	r2, r1
 3021 02ce 1A60     		str	r2, [r3]
 3022 02d0 E7E7     		b	.L131
 3023              	.LVL279:
 3024              	.L119:
 465:Drivers/STM32G0xx_HAL_Driver/Src/stm32g0xx_ll_usb.c ****             pmabuffer = ep->pmaaddr0;
 3025              		.loc 1 465 13 view .LVU886
 465:Drivers/STM32G0xx_HAL_Driver/Src/stm32g0xx_ll_usb.c ****             pmabuffer = ep->pmaaddr0;
 3026              		.loc 1 465 13 view .LVU887
 3027 02d2 6278     		ldrb	r2, [r4, #1]
ARM GAS  /tmp/ccQCrB9j.s 			page 77


 3028 02d4 002A     		cmp	r2, #0
 3029 02d6 4BD1     		bne	.L134
 465:Drivers/STM32G0xx_HAL_Driver/Src/stm32g0xx_ll_usb.c ****             pmabuffer = ep->pmaaddr0;
 3030              		.loc 1 465 13 discriminator 1 view .LVU888
 3031              	.LBB67:
 465:Drivers/STM32G0xx_HAL_Driver/Src/stm32g0xx_ll_usb.c ****             pmabuffer = ep->pmaaddr0;
 3032              		.loc 1 465 13 discriminator 1 view .LVU889
 465:Drivers/STM32G0xx_HAL_Driver/Src/stm32g0xx_ll_usb.c ****             pmabuffer = ep->pmaaddr0;
 3033              		.loc 1 465 13 discriminator 1 view .LVU890
 3034 02d8 DB00     		lsls	r3, r3, #3
 3035 02da 1E4A     		ldr	r2, .L227
 3036 02dc 9446     		mov	ip, r2
 3037 02de 6344     		add	r3, r3, ip
 3038 02e0 1A68     		ldr	r2, [r3]
 3039 02e2 1204     		lsls	r2, r2, #16
 3040 02e4 120C     		lsrs	r2, r2, #16
 3041 02e6 1A60     		str	r2, [r3]
 465:Drivers/STM32G0xx_HAL_Driver/Src/stm32g0xx_ll_usb.c ****             pmabuffer = ep->pmaaddr0;
 3042              		.loc 1 465 13 discriminator 1 view .LVU891
 3043 02e8 3E2E     		cmp	r6, #62
 3044 02ea 10D9     		bls	.L135
 465:Drivers/STM32G0xx_HAL_Driver/Src/stm32g0xx_ll_usb.c ****             pmabuffer = ep->pmaaddr0;
 3045              		.loc 1 465 13 discriminator 3 view .LVU892
 465:Drivers/STM32G0xx_HAL_Driver/Src/stm32g0xx_ll_usb.c ****             pmabuffer = ep->pmaaddr0;
 3046              		.loc 1 465 13 discriminator 3 view .LVU893
 3047 02ec 7209     		lsrs	r2, r6, #5
 3048              	.LVL280:
 465:Drivers/STM32G0xx_HAL_Driver/Src/stm32g0xx_ll_usb.c ****             pmabuffer = ep->pmaaddr0;
 3049              		.loc 1 465 13 discriminator 3 view .LVU894
 3050 02ee F306     		lsls	r3, r6, #27
 3051 02f0 00D1     		bne	.L136
 465:Drivers/STM32G0xx_HAL_Driver/Src/stm32g0xx_ll_usb.c ****             pmabuffer = ep->pmaaddr0;
 3052              		.loc 1 465 13 discriminator 5 view .LVU895
 3053 02f2 013A     		subs	r2, r2, #1
 3054              	.LVL281:
 3055              	.L136:
 465:Drivers/STM32G0xx_HAL_Driver/Src/stm32g0xx_ll_usb.c ****             pmabuffer = ep->pmaaddr0;
 3056              		.loc 1 465 13 discriminator 7 view .LVU896
 3057 02f4 2378     		ldrb	r3, [r4]
 3058 02f6 DB00     		lsls	r3, r3, #3
 3059 02f8 1649     		ldr	r1, .L227
 3060              	.LVL282:
 465:Drivers/STM32G0xx_HAL_Driver/Src/stm32g0xx_ll_usb.c ****             pmabuffer = ep->pmaaddr0;
 3061              		.loc 1 465 13 is_stmt 0 discriminator 7 view .LVU897
 3062 02fa 8C46     		mov	ip, r1
 3063 02fc 6344     		add	r3, r3, ip
 3064 02fe 1968     		ldr	r1, [r3]
 3065 0300 9206     		lsls	r2, r2, #26
 3066              	.LVL283:
 465:Drivers/STM32G0xx_HAL_Driver/Src/stm32g0xx_ll_usb.c ****             pmabuffer = ep->pmaaddr0;
 3067              		.loc 1 465 13 discriminator 7 view .LVU898
 3068 0302 1143     		orrs	r1, r2
 3069 0304 8022     		movs	r2, #128
 3070 0306 1206     		lsls	r2, r2, #24
 3071 0308 0A43     		orrs	r2, r1
 3072 030a 1A60     		str	r2, [r3]
 465:Drivers/STM32G0xx_HAL_Driver/Src/stm32g0xx_ll_usb.c ****             pmabuffer = ep->pmaaddr0;
ARM GAS  /tmp/ccQCrB9j.s 			page 78


 3073              		.loc 1 465 13 is_stmt 1 discriminator 7 view .LVU899
 3074 030c 32E0     		b	.L137
 3075              	.LVL284:
 3076              	.L135:
 465:Drivers/STM32G0xx_HAL_Driver/Src/stm32g0xx_ll_usb.c ****             pmabuffer = ep->pmaaddr0;
 3077              		.loc 1 465 13 discriminator 4 view .LVU900
 3078 030e 002E     		cmp	r6, #0
 3079 0310 11D1     		bne	.L138
 465:Drivers/STM32G0xx_HAL_Driver/Src/stm32g0xx_ll_usb.c ****             pmabuffer = ep->pmaaddr0;
 3080              		.loc 1 465 13 discriminator 9 view .LVU901
 3081 0312 2378     		ldrb	r3, [r4]
 3082 0314 DB00     		lsls	r3, r3, #3
 3083 0316 0F4A     		ldr	r2, .L227
 3084 0318 9446     		mov	ip, r2
 3085 031a 6344     		add	r3, r3, ip
 3086 031c 1A68     		ldr	r2, [r3]
 3087 031e 1349     		ldr	r1, .L227+24
 3088              	.LVL285:
 465:Drivers/STM32G0xx_HAL_Driver/Src/stm32g0xx_ll_usb.c ****             pmabuffer = ep->pmaaddr0;
 3089              		.loc 1 465 13 is_stmt 0 discriminator 9 view .LVU902
 3090 0320 0A40     		ands	r2, r1
 3091 0322 1A60     		str	r2, [r3]
 465:Drivers/STM32G0xx_HAL_Driver/Src/stm32g0xx_ll_usb.c ****             pmabuffer = ep->pmaaddr0;
 3092              		.loc 1 465 13 is_stmt 1 discriminator 9 view .LVU903
 3093 0324 2378     		ldrb	r3, [r4]
 3094 0326 DB00     		lsls	r3, r3, #3
 3095 0328 6344     		add	r3, r3, ip
 3096 032a 1968     		ldr	r1, [r3]
 3097 032c 8022     		movs	r2, #128
 3098 032e 1206     		lsls	r2, r2, #24
 3099 0330 0A43     		orrs	r2, r1
 3100 0332 1A60     		str	r2, [r3]
 3101 0334 1EE0     		b	.L137
 3102              	.LVL286:
 3103              	.L138:
 465:Drivers/STM32G0xx_HAL_Driver/Src/stm32g0xx_ll_usb.c ****             pmabuffer = ep->pmaaddr0;
 3104              		.loc 1 465 13 discriminator 10 view .LVU904
 465:Drivers/STM32G0xx_HAL_Driver/Src/stm32g0xx_ll_usb.c ****             pmabuffer = ep->pmaaddr0;
 3105              		.loc 1 465 13 discriminator 10 view .LVU905
 3106 0336 7208     		lsrs	r2, r6, #1
 3107              	.LVL287:
 465:Drivers/STM32G0xx_HAL_Driver/Src/stm32g0xx_ll_usb.c ****             pmabuffer = ep->pmaaddr0;
 3108              		.loc 1 465 13 discriminator 10 view .LVU906
 3109 0338 F307     		lsls	r3, r6, #31
 3110 033a 00D5     		bpl	.L139
 465:Drivers/STM32G0xx_HAL_Driver/Src/stm32g0xx_ll_usb.c ****             pmabuffer = ep->pmaaddr0;
 3111              		.loc 1 465 13 discriminator 12 view .LVU907
 3112 033c 0132     		adds	r2, r2, #1
 3113              	.LVL288:
 3114              	.L139:
 465:Drivers/STM32G0xx_HAL_Driver/Src/stm32g0xx_ll_usb.c ****             pmabuffer = ep->pmaaddr0;
 3115              		.loc 1 465 13 discriminator 14 view .LVU908
 3116 033e 2378     		ldrb	r3, [r4]
 3117 0340 DB00     		lsls	r3, r3, #3
 3118 0342 0449     		ldr	r1, .L227
 3119              	.LVL289:
 465:Drivers/STM32G0xx_HAL_Driver/Src/stm32g0xx_ll_usb.c ****             pmabuffer = ep->pmaaddr0;
ARM GAS  /tmp/ccQCrB9j.s 			page 79


 3120              		.loc 1 465 13 is_stmt 0 discriminator 14 view .LVU909
 3121 0344 8C46     		mov	ip, r1
 3122 0346 6344     		add	r3, r3, ip
 3123 0348 1968     		ldr	r1, [r3]
 3124 034a 9206     		lsls	r2, r2, #26
 3125              	.LVL290:
 465:Drivers/STM32G0xx_HAL_Driver/Src/stm32g0xx_ll_usb.c ****             pmabuffer = ep->pmaaddr0;
 3126              		.loc 1 465 13 discriminator 14 view .LVU910
 3127 034c 0A43     		orrs	r2, r1
 3128 034e 1A60     		str	r2, [r3]
 3129 0350 10E0     		b	.L137
 3130              	.L228:
 3131 0352 C046     		.align	2
 3132              	.L227:
 3133 0354 00980040 		.word	1073780736
 3134 0358 8FBFFF07 		.word	134201231
 3135 035c 80800000 		.word	32896
 3136 0360 BF8FFF07 		.word	134188991
 3137 0364 8F8FFF07 		.word	134188943
 3138 0368 80810000 		.word	33152
 3139 036c FFFFFF83 		.word	-2080374785
 3140              	.LVL291:
 3141              	.L134:
 465:Drivers/STM32G0xx_HAL_Driver/Src/stm32g0xx_ll_usb.c ****             pmabuffer = ep->pmaaddr0;
 3142              		.loc 1 465 13 discriminator 14 view .LVU911
 3143              	.LBE67:
 465:Drivers/STM32G0xx_HAL_Driver/Src/stm32g0xx_ll_usb.c ****             pmabuffer = ep->pmaaddr0;
