ARM GAS  /tmp/ccdudAn5.s 			page 1


   1              		.cpu cortex-m0plus
   2              		.eabi_attribute 20, 1
   3              		.eabi_attribute 21, 1
   4              		.eabi_attribute 23, 3
   5              		.eabi_attribute 24, 1
   6              		.eabi_attribute 25, 1
   7              		.eabi_attribute 26, 1
   8              		.eabi_attribute 30, 1
   9              		.eabi_attribute 34, 0
  10              		.eabi_attribute 18, 4
  11              		.file	"stm32g0xx_hal_flash_ex.c"
  12              		.text
  13              	.Ltext0:
  14              		.cfi_sections	.debug_frame
  15              		.section	.text.FLASH_MassErase,"ax",%progbits
  16              		.align	1
  17              		.arch armv6s-m
  18              		.syntax unified
  19              		.code	16
  20              		.thumb_func
  21              		.fpu softvfp
  23              	FLASH_MassErase:
  24              	.LVL0:
  25              	.LFB367:
  26              		.file 1 "Drivers/STM32G0xx_HAL_Driver/Src/stm32g0xx_hal_flash_ex.c"
   1:Drivers/STM32G0xx_HAL_Driver/Src/stm32g0xx_hal_flash_ex.c **** /**
   2:Drivers/STM32G0xx_HAL_Driver/Src/stm32g0xx_hal_flash_ex.c ****   ******************************************************************************
   3:Drivers/STM32G0xx_HAL_Driver/Src/stm32g0xx_hal_flash_ex.c ****   * @file    stm32g0xx_hal_flash_ex.c
   4:Drivers/STM32G0xx_HAL_Driver/Src/stm32g0xx_hal_flash_ex.c ****   * @author  MCD Application Team
   5:Drivers/STM32G0xx_HAL_Driver/Src/stm32g0xx_hal_flash_ex.c ****   * @brief   Extended FLASH HAL module driver.
   6:Drivers/STM32G0xx_HAL_Driver/Src/stm32g0xx_hal_flash_ex.c ****   *          This file provides firmware functions to manage the following
   7:Drivers/STM32G0xx_HAL_Driver/Src/stm32g0xx_hal_flash_ex.c ****   *          functionalities of the FLASH extended peripheral:
   8:Drivers/STM32G0xx_HAL_Driver/Src/stm32g0xx_hal_flash_ex.c ****   *           + Extended programming operations functions
   9:Drivers/STM32G0xx_HAL_Driver/Src/stm32g0xx_hal_flash_ex.c ****   *
  10:Drivers/STM32G0xx_HAL_Driver/Src/stm32g0xx_hal_flash_ex.c ****  @verbatim
  11:Drivers/STM32G0xx_HAL_Driver/Src/stm32g0xx_hal_flash_ex.c ****  ==============================================================================
  12:Drivers/STM32G0xx_HAL_Driver/Src/stm32g0xx_hal_flash_ex.c ****                    ##### Flash Extended features #####
  13:Drivers/STM32G0xx_HAL_Driver/Src/stm32g0xx_hal_flash_ex.c ****   ==============================================================================
  14:Drivers/STM32G0xx_HAL_Driver/Src/stm32g0xx_hal_flash_ex.c **** 
  15:Drivers/STM32G0xx_HAL_Driver/Src/stm32g0xx_hal_flash_ex.c ****   [..] Comparing to other previous devices, the FLASH interface for STM32G0xx
  16:Drivers/STM32G0xx_HAL_Driver/Src/stm32g0xx_hal_flash_ex.c ****        devices contains the following additional features
  17:Drivers/STM32G0xx_HAL_Driver/Src/stm32g0xx_hal_flash_ex.c **** 
  18:Drivers/STM32G0xx_HAL_Driver/Src/stm32g0xx_hal_flash_ex.c ****        (+) Capacity up to 128 Kbytes with single bank architecture supporting read-while-write
  19:Drivers/STM32G0xx_HAL_Driver/Src/stm32g0xx_hal_flash_ex.c ****            capability (RWW)
  20:Drivers/STM32G0xx_HAL_Driver/Src/stm32g0xx_hal_flash_ex.c ****        (+) Single bank memory organization
  21:Drivers/STM32G0xx_HAL_Driver/Src/stm32g0xx_hal_flash_ex.c ****        (+) PCROP protection
  22:Drivers/STM32G0xx_HAL_Driver/Src/stm32g0xx_hal_flash_ex.c **** 
  23:Drivers/STM32G0xx_HAL_Driver/Src/stm32g0xx_hal_flash_ex.c ****                         ##### How to use this driver #####
  24:Drivers/STM32G0xx_HAL_Driver/Src/stm32g0xx_hal_flash_ex.c ****  ==============================================================================
  25:Drivers/STM32G0xx_HAL_Driver/Src/stm32g0xx_hal_flash_ex.c ****   [..] This driver provides functions to configure and program the FLASH memory
  26:Drivers/STM32G0xx_HAL_Driver/Src/stm32g0xx_hal_flash_ex.c ****        of all STM32G0xx devices. It includes
  27:Drivers/STM32G0xx_HAL_Driver/Src/stm32g0xx_hal_flash_ex.c ****       (#) Flash Memory Erase functions:
  28:Drivers/STM32G0xx_HAL_Driver/Src/stm32g0xx_hal_flash_ex.c ****            (++) Lock and Unlock the FLASH interface using HAL_FLASH_Unlock() and
  29:Drivers/STM32G0xx_HAL_Driver/Src/stm32g0xx_hal_flash_ex.c ****                 HAL_FLASH_Lock() functions
  30:Drivers/STM32G0xx_HAL_Driver/Src/stm32g0xx_hal_flash_ex.c ****            (++) Erase function: Erase page, erase all sectors
  31:Drivers/STM32G0xx_HAL_Driver/Src/stm32g0xx_hal_flash_ex.c ****            (++) There are two modes of erase :
  32:Drivers/STM32G0xx_HAL_Driver/Src/stm32g0xx_hal_flash_ex.c ****              (+++) Polling Mode using HAL_FLASHEx_Erase()
ARM GAS  /tmp/ccdudAn5.s 			page 2


  33:Drivers/STM32G0xx_HAL_Driver/Src/stm32g0xx_hal_flash_ex.c ****              (+++) Interrupt Mode using HAL_FLASHEx_Erase_IT()
  34:Drivers/STM32G0xx_HAL_Driver/Src/stm32g0xx_hal_flash_ex.c **** 
  35:Drivers/STM32G0xx_HAL_Driver/Src/stm32g0xx_hal_flash_ex.c ****       (#) Option Bytes Programming function: Use HAL_FLASHEx_OBProgram() to :
  36:Drivers/STM32G0xx_HAL_Driver/Src/stm32g0xx_hal_flash_ex.c ****         (++) Set/Reset the write protection
  37:Drivers/STM32G0xx_HAL_Driver/Src/stm32g0xx_hal_flash_ex.c ****         (++) Set the Read protection Level
  38:Drivers/STM32G0xx_HAL_Driver/Src/stm32g0xx_hal_flash_ex.c ****         (++) Program the user Option Bytes
  39:Drivers/STM32G0xx_HAL_Driver/Src/stm32g0xx_hal_flash_ex.c ****         (++) Configure the PCROP protection
  40:Drivers/STM32G0xx_HAL_Driver/Src/stm32g0xx_hal_flash_ex.c ****         (++) Set Securable memory area and boot entry point
  41:Drivers/STM32G0xx_HAL_Driver/Src/stm32g0xx_hal_flash_ex.c **** 
  42:Drivers/STM32G0xx_HAL_Driver/Src/stm32g0xx_hal_flash_ex.c ****       (#) Get Option Bytes Configuration function: Use HAL_FLASHEx_OBGetConfig() to :
  43:Drivers/STM32G0xx_HAL_Driver/Src/stm32g0xx_hal_flash_ex.c ****         (++) Get the value of a write protection area
  44:Drivers/STM32G0xx_HAL_Driver/Src/stm32g0xx_hal_flash_ex.c ****         (++) Know if the read protection is activated
  45:Drivers/STM32G0xx_HAL_Driver/Src/stm32g0xx_hal_flash_ex.c ****         (++) Get the value of the user Option Bytes
  46:Drivers/STM32G0xx_HAL_Driver/Src/stm32g0xx_hal_flash_ex.c ****         (++) Get Securable memory area and boot entry point information
  47:Drivers/STM32G0xx_HAL_Driver/Src/stm32g0xx_hal_flash_ex.c **** 
  48:Drivers/STM32G0xx_HAL_Driver/Src/stm32g0xx_hal_flash_ex.c ****       (#) Enable or disable debugger usage using HAL_FLASHEx_EnableDebugger and
  49:Drivers/STM32G0xx_HAL_Driver/Src/stm32g0xx_hal_flash_ex.c ****           HAL_FLASHEx_DisableDebugger.
  50:Drivers/STM32G0xx_HAL_Driver/Src/stm32g0xx_hal_flash_ex.c **** 
  51:Drivers/STM32G0xx_HAL_Driver/Src/stm32g0xx_hal_flash_ex.c ****       (#) Check is flash content is empty or not using HAL_FLASHEx_FlashEmptyCheck.
  52:Drivers/STM32G0xx_HAL_Driver/Src/stm32g0xx_hal_flash_ex.c ****           and modify this setting (for flash loader purpose e.g.) using
  53:Drivers/STM32G0xx_HAL_Driver/Src/stm32g0xx_hal_flash_ex.c ****           HAL_FLASHEx_ForceFlashEmpty.
  54:Drivers/STM32G0xx_HAL_Driver/Src/stm32g0xx_hal_flash_ex.c **** 
  55:Drivers/STM32G0xx_HAL_Driver/Src/stm32g0xx_hal_flash_ex.c ****       (#) Enable securable memory area protectionusing HAL_FLASHEx_EnableSecMemProtection
  56:Drivers/STM32G0xx_HAL_Driver/Src/stm32g0xx_hal_flash_ex.c **** 
  57:Drivers/STM32G0xx_HAL_Driver/Src/stm32g0xx_hal_flash_ex.c ****  @endverbatim
  58:Drivers/STM32G0xx_HAL_Driver/Src/stm32g0xx_hal_flash_ex.c ****   ******************************************************************************
  59:Drivers/STM32G0xx_HAL_Driver/Src/stm32g0xx_hal_flash_ex.c ****   * @attention
  60:Drivers/STM32G0xx_HAL_Driver/Src/stm32g0xx_hal_flash_ex.c ****   *
  61:Drivers/STM32G0xx_HAL_Driver/Src/stm32g0xx_hal_flash_ex.c ****   * <h2><center>&copy; Copyright (c) 2018 STMicroelectronics.
  62:Drivers/STM32G0xx_HAL_Driver/Src/stm32g0xx_hal_flash_ex.c ****   * All rights reserved.</center></h2>
  63:Drivers/STM32G0xx_HAL_Driver/Src/stm32g0xx_hal_flash_ex.c ****   *
  64:Drivers/STM32G0xx_HAL_Driver/Src/stm32g0xx_hal_flash_ex.c ****   * This software component is licensed by ST under BSD 3-Clause license,
  65:Drivers/STM32G0xx_HAL_Driver/Src/stm32g0xx_hal_flash_ex.c ****   * the "License"; You may not use this file except in compliance with the
  66:Drivers/STM32G0xx_HAL_Driver/Src/stm32g0xx_hal_flash_ex.c ****   * License. You may obtain a copy of the License at:
  67:Drivers/STM32G0xx_HAL_Driver/Src/stm32g0xx_hal_flash_ex.c ****   *                        opensource.org/licenses/BSD-3-Clause
  68:Drivers/STM32G0xx_HAL_Driver/Src/stm32g0xx_hal_flash_ex.c ****   *
  69:Drivers/STM32G0xx_HAL_Driver/Src/stm32g0xx_hal_flash_ex.c ****   ******************************************************************************
  70:Drivers/STM32G0xx_HAL_Driver/Src/stm32g0xx_hal_flash_ex.c ****   */
  71:Drivers/STM32G0xx_HAL_Driver/Src/stm32g0xx_hal_flash_ex.c **** 
  72:Drivers/STM32G0xx_HAL_Driver/Src/stm32g0xx_hal_flash_ex.c **** /* Includes ------------------------------------------------------------------*/
  73:Drivers/STM32G0xx_HAL_Driver/Src/stm32g0xx_hal_flash_ex.c **** #include "stm32g0xx_hal.h"
  74:Drivers/STM32G0xx_HAL_Driver/Src/stm32g0xx_hal_flash_ex.c **** 
  75:Drivers/STM32G0xx_HAL_Driver/Src/stm32g0xx_hal_flash_ex.c **** /** @addtogroup STM32G0xx_HAL_Driver
  76:Drivers/STM32G0xx_HAL_Driver/Src/stm32g0xx_hal_flash_ex.c ****   * @{
  77:Drivers/STM32G0xx_HAL_Driver/Src/stm32g0xx_hal_flash_ex.c ****   */
  78:Drivers/STM32G0xx_HAL_Driver/Src/stm32g0xx_hal_flash_ex.c **** 
  79:Drivers/STM32G0xx_HAL_Driver/Src/stm32g0xx_hal_flash_ex.c **** /** @defgroup FLASHEx FLASHEx
  80:Drivers/STM32G0xx_HAL_Driver/Src/stm32g0xx_hal_flash_ex.c ****   * @brief FLASH Extended HAL module driver
  81:Drivers/STM32G0xx_HAL_Driver/Src/stm32g0xx_hal_flash_ex.c ****   * @{
  82:Drivers/STM32G0xx_HAL_Driver/Src/stm32g0xx_hal_flash_ex.c ****   */
  83:Drivers/STM32G0xx_HAL_Driver/Src/stm32g0xx_hal_flash_ex.c **** 
  84:Drivers/STM32G0xx_HAL_Driver/Src/stm32g0xx_hal_flash_ex.c **** #ifdef HAL_FLASH_MODULE_ENABLED
  85:Drivers/STM32G0xx_HAL_Driver/Src/stm32g0xx_hal_flash_ex.c **** 
  86:Drivers/STM32G0xx_HAL_Driver/Src/stm32g0xx_hal_flash_ex.c **** /* Private typedef -----------------------------------------------------------*/
  87:Drivers/STM32G0xx_HAL_Driver/Src/stm32g0xx_hal_flash_ex.c **** /* Private define ------------------------------------------------------------*/
  88:Drivers/STM32G0xx_HAL_Driver/Src/stm32g0xx_hal_flash_ex.c **** /* Private macro -------------------------------------------------------------*/
  89:Drivers/STM32G0xx_HAL_Driver/Src/stm32g0xx_hal_flash_ex.c **** /* Private variables ---------------------------------------------------------*/
ARM GAS  /tmp/ccdudAn5.s 			page 3


  90:Drivers/STM32G0xx_HAL_Driver/Src/stm32g0xx_hal_flash_ex.c **** /* Private function prototypes -----------------------------------------------*/
  91:Drivers/STM32G0xx_HAL_Driver/Src/stm32g0xx_hal_flash_ex.c **** /** @defgroup FLASHEx_Private_Functions FLASHEx Private Functions
  92:Drivers/STM32G0xx_HAL_Driver/Src/stm32g0xx_hal_flash_ex.c ****   * @{
  93:Drivers/STM32G0xx_HAL_Driver/Src/stm32g0xx_hal_flash_ex.c ****   */
  94:Drivers/STM32G0xx_HAL_Driver/Src/stm32g0xx_hal_flash_ex.c **** static void               FLASH_MassErase(uint32_t Banks);
  95:Drivers/STM32G0xx_HAL_Driver/Src/stm32g0xx_hal_flash_ex.c **** void                      FLASH_FlushCaches(void);
  96:Drivers/STM32G0xx_HAL_Driver/Src/stm32g0xx_hal_flash_ex.c **** static void               FLASH_OB_WRPConfig(uint32_t WRPArea, uint32_t WRPStartOffset, uint32_t WR
  97:Drivers/STM32G0xx_HAL_Driver/Src/stm32g0xx_hal_flash_ex.c **** static void               FLASH_OB_GetWRP(uint32_t WRPArea, uint32_t *WRPStartOffset, uint32_t *WRD
  98:Drivers/STM32G0xx_HAL_Driver/Src/stm32g0xx_hal_flash_ex.c **** static void               FLASH_OB_OptrConfig(uint32_t UserType, uint32_t UserConfig, uint32_t RDPL
  99:Drivers/STM32G0xx_HAL_Driver/Src/stm32g0xx_hal_flash_ex.c **** static uint32_t           FLASH_OB_GetRDP(void);
 100:Drivers/STM32G0xx_HAL_Driver/Src/stm32g0xx_hal_flash_ex.c **** static uint32_t           FLASH_OB_GetUser(void);
 101:Drivers/STM32G0xx_HAL_Driver/Src/stm32g0xx_hal_flash_ex.c **** #if defined(FLASH_PCROP_SUPPORT)
 102:Drivers/STM32G0xx_HAL_Driver/Src/stm32g0xx_hal_flash_ex.c **** static void               FLASH_OB_PCROP1AConfig(uint32_t PCROPConfig, uint32_t PCROP1AStartAddr,
 103:Drivers/STM32G0xx_HAL_Driver/Src/stm32g0xx_hal_flash_ex.c ****                                                  uint32_t PCROP1AEndAddr);
 104:Drivers/STM32G0xx_HAL_Driver/Src/stm32g0xx_hal_flash_ex.c **** static void               FLASH_OB_PCROP1BConfig(uint32_t PCROP1BStartAddr, uint32_t PCROP1BEndAddr
 105:Drivers/STM32G0xx_HAL_Driver/Src/stm32g0xx_hal_flash_ex.c **** static void               FLASH_OB_GetPCROP1A(uint32_t *PCROPConfig, uint32_t *PCROP1AStartAddr,
 106:Drivers/STM32G0xx_HAL_Driver/Src/stm32g0xx_hal_flash_ex.c ****                                               uint32_t *PCROP1AEndAddr);
 107:Drivers/STM32G0xx_HAL_Driver/Src/stm32g0xx_hal_flash_ex.c **** static void               FLASH_OB_GetPCROP1B(uint32_t *PCROP1BStartAddr, uint32_t *PCROP1BEndAddr)
 108:Drivers/STM32G0xx_HAL_Driver/Src/stm32g0xx_hal_flash_ex.c **** #if defined(FLASH_DBANK_SUPPORT)
 109:Drivers/STM32G0xx_HAL_Driver/Src/stm32g0xx_hal_flash_ex.c **** static void               FLASH_OB_PCROP2AConfig(uint32_t PCROP2AStartAddr, uint32_t PCROP2AEndAddr
 110:Drivers/STM32G0xx_HAL_Driver/Src/stm32g0xx_hal_flash_ex.c **** static void               FLASH_OB_PCROP2BConfig(uint32_t PCROP2BStartAddr, uint32_t PCROP2BEndAddr
 111:Drivers/STM32G0xx_HAL_Driver/Src/stm32g0xx_hal_flash_ex.c **** static void               FLASH_OB_GetPCROP2A(uint32_t *PCROP2AStartAddr, uint32_t *PCROP2AEndAddr)
 112:Drivers/STM32G0xx_HAL_Driver/Src/stm32g0xx_hal_flash_ex.c **** static void               FLASH_OB_GetPCROP2B(uint32_t *PCROP2BStartAddr, uint32_t *PCROP2BEndAddr)
 113:Drivers/STM32G0xx_HAL_Driver/Src/stm32g0xx_hal_flash_ex.c **** #endif /* FLASH_DBANK_SUPPORT */
 114:Drivers/STM32G0xx_HAL_Driver/Src/stm32g0xx_hal_flash_ex.c **** #endif /* FLASH_PCROP_SUPPORT */
 115:Drivers/STM32G0xx_HAL_Driver/Src/stm32g0xx_hal_flash_ex.c **** #if defined(FLASH_SECURABLE_MEMORY_SUPPORT)
 116:Drivers/STM32G0xx_HAL_Driver/Src/stm32g0xx_hal_flash_ex.c **** #if defined(FLASH_DBANK_SUPPORT)
 117:Drivers/STM32G0xx_HAL_Driver/Src/stm32g0xx_hal_flash_ex.c **** static void               FLASH_OB_SecMemConfig(uint32_t BootEntry, uint32_t SecSize, uint32_t SecS
 118:Drivers/STM32G0xx_HAL_Driver/Src/stm32g0xx_hal_flash_ex.c **** static void               FLASH_OB_GetSecMem(uint32_t *BootEntry, uint32_t *SecSize, uint32_t *SecS
 119:Drivers/STM32G0xx_HAL_Driver/Src/stm32g0xx_hal_flash_ex.c **** #else
 120:Drivers/STM32G0xx_HAL_Driver/Src/stm32g0xx_hal_flash_ex.c **** static void               FLASH_OB_SecMemConfig(uint32_t BootEntry, uint32_t SecSize);
 121:Drivers/STM32G0xx_HAL_Driver/Src/stm32g0xx_hal_flash_ex.c **** static void               FLASH_OB_GetSecMem(uint32_t *BootEntry, uint32_t *SecSize);
 122:Drivers/STM32G0xx_HAL_Driver/Src/stm32g0xx_hal_flash_ex.c **** #endif /* FLASH_DBANK_SUPPORT */
 123:Drivers/STM32G0xx_HAL_Driver/Src/stm32g0xx_hal_flash_ex.c **** #endif /* FLASH_SECURABLE_MEMORY_SUPPORT */
 124:Drivers/STM32G0xx_HAL_Driver/Src/stm32g0xx_hal_flash_ex.c **** /**
 125:Drivers/STM32G0xx_HAL_Driver/Src/stm32g0xx_hal_flash_ex.c ****   * @}
 126:Drivers/STM32G0xx_HAL_Driver/Src/stm32g0xx_hal_flash_ex.c ****   */
 127:Drivers/STM32G0xx_HAL_Driver/Src/stm32g0xx_hal_flash_ex.c **** 
 128:Drivers/STM32G0xx_HAL_Driver/Src/stm32g0xx_hal_flash_ex.c **** /* Exported functions -------------------------------------------------------*/
 129:Drivers/STM32G0xx_HAL_Driver/Src/stm32g0xx_hal_flash_ex.c **** /** @defgroup FLASHEx_Exported_Functions FLASH Extended Exported Functions
 130:Drivers/STM32G0xx_HAL_Driver/Src/stm32g0xx_hal_flash_ex.c ****   * @{
 131:Drivers/STM32G0xx_HAL_Driver/Src/stm32g0xx_hal_flash_ex.c ****   */
 132:Drivers/STM32G0xx_HAL_Driver/Src/stm32g0xx_hal_flash_ex.c **** 
 133:Drivers/STM32G0xx_HAL_Driver/Src/stm32g0xx_hal_flash_ex.c **** /** @defgroup FLASHEx_Exported_Functions_Group1 Extended IO operation functions
 134:Drivers/STM32G0xx_HAL_Driver/Src/stm32g0xx_hal_flash_ex.c ****   *  @brief   Extended IO operation functions
 135:Drivers/STM32G0xx_HAL_Driver/Src/stm32g0xx_hal_flash_ex.c ****   *
 136:Drivers/STM32G0xx_HAL_Driver/Src/stm32g0xx_hal_flash_ex.c **** @verbatim
 137:Drivers/STM32G0xx_HAL_Driver/Src/stm32g0xx_hal_flash_ex.c ****  ===============================================================================
 138:Drivers/STM32G0xx_HAL_Driver/Src/stm32g0xx_hal_flash_ex.c ****                 ##### Extended programming operation functions #####
 139:Drivers/STM32G0xx_HAL_Driver/Src/stm32g0xx_hal_flash_ex.c ****  ===============================================================================
 140:Drivers/STM32G0xx_HAL_Driver/Src/stm32g0xx_hal_flash_ex.c ****     [..]
 141:Drivers/STM32G0xx_HAL_Driver/Src/stm32g0xx_hal_flash_ex.c ****     This subsection provides a set of functions allowing to manage the Extended FLASH
 142:Drivers/STM32G0xx_HAL_Driver/Src/stm32g0xx_hal_flash_ex.c ****     programming operations Operations.
 143:Drivers/STM32G0xx_HAL_Driver/Src/stm32g0xx_hal_flash_ex.c **** 
 144:Drivers/STM32G0xx_HAL_Driver/Src/stm32g0xx_hal_flash_ex.c **** @endverbatim
 145:Drivers/STM32G0xx_HAL_Driver/Src/stm32g0xx_hal_flash_ex.c ****   * @{
 146:Drivers/STM32G0xx_HAL_Driver/Src/stm32g0xx_hal_flash_ex.c ****   */
ARM GAS  /tmp/ccdudAn5.s 			page 4


 147:Drivers/STM32G0xx_HAL_Driver/Src/stm32g0xx_hal_flash_ex.c **** /**
 148:Drivers/STM32G0xx_HAL_Driver/Src/stm32g0xx_hal_flash_ex.c ****   * @brief  Perform a mass erase or erase the specified FLASH memory pages.
 149:Drivers/STM32G0xx_HAL_Driver/Src/stm32g0xx_hal_flash_ex.c ****   * @param[in]  pEraseInit Pointer to an @ref FLASH_EraseInitTypeDef structure that
 150:Drivers/STM32G0xx_HAL_Driver/Src/stm32g0xx_hal_flash_ex.c ****   *         contains the configuration information for the erasing.
 151:Drivers/STM32G0xx_HAL_Driver/Src/stm32g0xx_hal_flash_ex.c ****   * @param[out]  PageError Pointer to variable that contains the configuration
 152:Drivers/STM32G0xx_HAL_Driver/Src/stm32g0xx_hal_flash_ex.c ****   *         information on faulty page in case of error (0xFFFFFFFF means that all
 153:Drivers/STM32G0xx_HAL_Driver/Src/stm32g0xx_hal_flash_ex.c ****   *         the pages have been correctly erased)
 154:Drivers/STM32G0xx_HAL_Driver/Src/stm32g0xx_hal_flash_ex.c ****   * @retval HAL Status
 155:Drivers/STM32G0xx_HAL_Driver/Src/stm32g0xx_hal_flash_ex.c ****   */
 156:Drivers/STM32G0xx_HAL_Driver/Src/stm32g0xx_hal_flash_ex.c **** HAL_StatusTypeDef HAL_FLASHEx_Erase(FLASH_EraseInitTypeDef *pEraseInit, uint32_t *PageError)
 157:Drivers/STM32G0xx_HAL_Driver/Src/stm32g0xx_hal_flash_ex.c **** {
 158:Drivers/STM32G0xx_HAL_Driver/Src/stm32g0xx_hal_flash_ex.c ****   HAL_StatusTypeDef status;
 159:Drivers/STM32G0xx_HAL_Driver/Src/stm32g0xx_hal_flash_ex.c ****   uint32_t index;
 160:Drivers/STM32G0xx_HAL_Driver/Src/stm32g0xx_hal_flash_ex.c **** 
 161:Drivers/STM32G0xx_HAL_Driver/Src/stm32g0xx_hal_flash_ex.c ****   /* Check the parameters */
 162:Drivers/STM32G0xx_HAL_Driver/Src/stm32g0xx_hal_flash_ex.c ****   assert_param(IS_FLASH_TYPEERASE(pEraseInit->TypeErase));
 163:Drivers/STM32G0xx_HAL_Driver/Src/stm32g0xx_hal_flash_ex.c **** 
 164:Drivers/STM32G0xx_HAL_Driver/Src/stm32g0xx_hal_flash_ex.c ****   /* Process Locked */
 165:Drivers/STM32G0xx_HAL_Driver/Src/stm32g0xx_hal_flash_ex.c ****   __HAL_LOCK(&pFlash);
 166:Drivers/STM32G0xx_HAL_Driver/Src/stm32g0xx_hal_flash_ex.c **** 
 167:Drivers/STM32G0xx_HAL_Driver/Src/stm32g0xx_hal_flash_ex.c ****   /* Reset error code */
 168:Drivers/STM32G0xx_HAL_Driver/Src/stm32g0xx_hal_flash_ex.c ****   pFlash.ErrorCode = HAL_FLASH_ERROR_NONE;
 169:Drivers/STM32G0xx_HAL_Driver/Src/stm32g0xx_hal_flash_ex.c **** 
 170:Drivers/STM32G0xx_HAL_Driver/Src/stm32g0xx_hal_flash_ex.c ****   /* Wait for last operation to be completed */
 171:Drivers/STM32G0xx_HAL_Driver/Src/stm32g0xx_hal_flash_ex.c ****   status = FLASH_WaitForLastOperation(FLASH_TIMEOUT_VALUE);
 172:Drivers/STM32G0xx_HAL_Driver/Src/stm32g0xx_hal_flash_ex.c **** 
 173:Drivers/STM32G0xx_HAL_Driver/Src/stm32g0xx_hal_flash_ex.c ****   if (status == HAL_OK)
 174:Drivers/STM32G0xx_HAL_Driver/Src/stm32g0xx_hal_flash_ex.c ****   {
 175:Drivers/STM32G0xx_HAL_Driver/Src/stm32g0xx_hal_flash_ex.c **** #if !defined(FLASH_DBANK_SUPPORT)
 176:Drivers/STM32G0xx_HAL_Driver/Src/stm32g0xx_hal_flash_ex.c ****     /* For single bank product force Banks to Bank 1 */
 177:Drivers/STM32G0xx_HAL_Driver/Src/stm32g0xx_hal_flash_ex.c ****     pEraseInit->Banks = FLASH_BANK_1;
 178:Drivers/STM32G0xx_HAL_Driver/Src/stm32g0xx_hal_flash_ex.c **** #endif /* FLASH_DBANK_SUPPORT */
 179:Drivers/STM32G0xx_HAL_Driver/Src/stm32g0xx_hal_flash_ex.c **** 
 180:Drivers/STM32G0xx_HAL_Driver/Src/stm32g0xx_hal_flash_ex.c ****     if (pEraseInit->TypeErase == FLASH_TYPEERASE_MASS)
 181:Drivers/STM32G0xx_HAL_Driver/Src/stm32g0xx_hal_flash_ex.c ****     {
 182:Drivers/STM32G0xx_HAL_Driver/Src/stm32g0xx_hal_flash_ex.c ****       /* Proceed to Mass Erase */
 183:Drivers/STM32G0xx_HAL_Driver/Src/stm32g0xx_hal_flash_ex.c ****       FLASH_MassErase(pEraseInit->Banks);
 184:Drivers/STM32G0xx_HAL_Driver/Src/stm32g0xx_hal_flash_ex.c **** 
 185:Drivers/STM32G0xx_HAL_Driver/Src/stm32g0xx_hal_flash_ex.c ****       /* Wait for last operation to be completed */
 186:Drivers/STM32G0xx_HAL_Driver/Src/stm32g0xx_hal_flash_ex.c ****       status = FLASH_WaitForLastOperation(FLASH_TIMEOUT_VALUE);
 187:Drivers/STM32G0xx_HAL_Driver/Src/stm32g0xx_hal_flash_ex.c ****     }
 188:Drivers/STM32G0xx_HAL_Driver/Src/stm32g0xx_hal_flash_ex.c ****     else
 189:Drivers/STM32G0xx_HAL_Driver/Src/stm32g0xx_hal_flash_ex.c ****     {
 190:Drivers/STM32G0xx_HAL_Driver/Src/stm32g0xx_hal_flash_ex.c ****       /*Initialization of PageError variable*/
 191:Drivers/STM32G0xx_HAL_Driver/Src/stm32g0xx_hal_flash_ex.c ****       *PageError = 0xFFFFFFFFU;
 192:Drivers/STM32G0xx_HAL_Driver/Src/stm32g0xx_hal_flash_ex.c **** 
 193:Drivers/STM32G0xx_HAL_Driver/Src/stm32g0xx_hal_flash_ex.c ****       for (index = pEraseInit->Page; index < (pEraseInit->Page + pEraseInit->NbPages); index++)
 194:Drivers/STM32G0xx_HAL_Driver/Src/stm32g0xx_hal_flash_ex.c ****       {
 195:Drivers/STM32G0xx_HAL_Driver/Src/stm32g0xx_hal_flash_ex.c ****         /* Start erase page */
 196:Drivers/STM32G0xx_HAL_Driver/Src/stm32g0xx_hal_flash_ex.c ****         FLASH_PageErase(pEraseInit->Banks, index);
 197:Drivers/STM32G0xx_HAL_Driver/Src/stm32g0xx_hal_flash_ex.c **** 
 198:Drivers/STM32G0xx_HAL_Driver/Src/stm32g0xx_hal_flash_ex.c ****         /* Wait for last operation to be completed */
 199:Drivers/STM32G0xx_HAL_Driver/Src/stm32g0xx_hal_flash_ex.c ****         status = FLASH_WaitForLastOperation(FLASH_TIMEOUT_VALUE);
 200:Drivers/STM32G0xx_HAL_Driver/Src/stm32g0xx_hal_flash_ex.c **** 
 201:Drivers/STM32G0xx_HAL_Driver/Src/stm32g0xx_hal_flash_ex.c ****         if (status != HAL_OK)
 202:Drivers/STM32G0xx_HAL_Driver/Src/stm32g0xx_hal_flash_ex.c ****         {
 203:Drivers/STM32G0xx_HAL_Driver/Src/stm32g0xx_hal_flash_ex.c ****           /* In case of error, stop erase procedure and return the faulty address */
ARM GAS  /tmp/ccdudAn5.s 			page 5


 204:Drivers/STM32G0xx_HAL_Driver/Src/stm32g0xx_hal_flash_ex.c ****           *PageError = index;
 205:Drivers/STM32G0xx_HAL_Driver/Src/stm32g0xx_hal_flash_ex.c ****           break;
 206:Drivers/STM32G0xx_HAL_Driver/Src/stm32g0xx_hal_flash_ex.c ****         }
 207:Drivers/STM32G0xx_HAL_Driver/Src/stm32g0xx_hal_flash_ex.c ****       }
 208:Drivers/STM32G0xx_HAL_Driver/Src/stm32g0xx_hal_flash_ex.c **** 
 209:Drivers/STM32G0xx_HAL_Driver/Src/stm32g0xx_hal_flash_ex.c ****       /* If operation is completed or interrupted, disable the Page Erase Bit */
 210:Drivers/STM32G0xx_HAL_Driver/Src/stm32g0xx_hal_flash_ex.c ****       CLEAR_BIT(FLASH->CR, FLASH_CR_PER);
 211:Drivers/STM32G0xx_HAL_Driver/Src/stm32g0xx_hal_flash_ex.c ****     }
 212:Drivers/STM32G0xx_HAL_Driver/Src/stm32g0xx_hal_flash_ex.c ****   }
 213:Drivers/STM32G0xx_HAL_Driver/Src/stm32g0xx_hal_flash_ex.c **** 
 214:Drivers/STM32G0xx_HAL_Driver/Src/stm32g0xx_hal_flash_ex.c ****   /* Process Unlocked */
 215:Drivers/STM32G0xx_HAL_Driver/Src/stm32g0xx_hal_flash_ex.c ****   __HAL_UNLOCK(&pFlash);
 216:Drivers/STM32G0xx_HAL_Driver/Src/stm32g0xx_hal_flash_ex.c **** 
 217:Drivers/STM32G0xx_HAL_Driver/Src/stm32g0xx_hal_flash_ex.c ****   /* return status */
 218:Drivers/STM32G0xx_HAL_Driver/Src/stm32g0xx_hal_flash_ex.c ****   return status;
 219:Drivers/STM32G0xx_HAL_Driver/Src/stm32g0xx_hal_flash_ex.c **** }
 220:Drivers/STM32G0xx_HAL_Driver/Src/stm32g0xx_hal_flash_ex.c **** 
 221:Drivers/STM32G0xx_HAL_Driver/Src/stm32g0xx_hal_flash_ex.c **** 
 222:Drivers/STM32G0xx_HAL_Driver/Src/stm32g0xx_hal_flash_ex.c **** /**
 223:Drivers/STM32G0xx_HAL_Driver/Src/stm32g0xx_hal_flash_ex.c ****   * @brief  Perform a mass erase or erase the specified FLASH memory pages with interrupt enabled.
 224:Drivers/STM32G0xx_HAL_Driver/Src/stm32g0xx_hal_flash_ex.c ****   * @param  pEraseInit Pointer to an @ref FLASH_EraseInitTypeDef structure that
 225:Drivers/STM32G0xx_HAL_Driver/Src/stm32g0xx_hal_flash_ex.c ****   *         contains the configuration information for the erasing.
 226:Drivers/STM32G0xx_HAL_Driver/Src/stm32g0xx_hal_flash_ex.c ****   * @retval HAL Status
 227:Drivers/STM32G0xx_HAL_Driver/Src/stm32g0xx_hal_flash_ex.c ****   */
 228:Drivers/STM32G0xx_HAL_Driver/Src/stm32g0xx_hal_flash_ex.c **** HAL_StatusTypeDef HAL_FLASHEx_Erase_IT(FLASH_EraseInitTypeDef *pEraseInit)
 229:Drivers/STM32G0xx_HAL_Driver/Src/stm32g0xx_hal_flash_ex.c **** {
 230:Drivers/STM32G0xx_HAL_Driver/Src/stm32g0xx_hal_flash_ex.c ****   HAL_StatusTypeDef status;
 231:Drivers/STM32G0xx_HAL_Driver/Src/stm32g0xx_hal_flash_ex.c **** 
 232:Drivers/STM32G0xx_HAL_Driver/Src/stm32g0xx_hal_flash_ex.c ****   /* Check the parameters */
 233:Drivers/STM32G0xx_HAL_Driver/Src/stm32g0xx_hal_flash_ex.c ****   assert_param(IS_FLASH_TYPEERASE(pEraseInit->TypeErase));
 234:Drivers/STM32G0xx_HAL_Driver/Src/stm32g0xx_hal_flash_ex.c **** 
 235:Drivers/STM32G0xx_HAL_Driver/Src/stm32g0xx_hal_flash_ex.c ****   /* Process Locked */
 236:Drivers/STM32G0xx_HAL_Driver/Src/stm32g0xx_hal_flash_ex.c ****   __HAL_LOCK(&pFlash);
 237:Drivers/STM32G0xx_HAL_Driver/Src/stm32g0xx_hal_flash_ex.c **** 
 238:Drivers/STM32G0xx_HAL_Driver/Src/stm32g0xx_hal_flash_ex.c ****   /* Reset error code */
 239:Drivers/STM32G0xx_HAL_Driver/Src/stm32g0xx_hal_flash_ex.c ****   pFlash.ErrorCode = HAL_FLASH_ERROR_NONE;
 240:Drivers/STM32G0xx_HAL_Driver/Src/stm32g0xx_hal_flash_ex.c **** 
 241:Drivers/STM32G0xx_HAL_Driver/Src/stm32g0xx_hal_flash_ex.c ****   /* save procedure for interrupt treatment */
 242:Drivers/STM32G0xx_HAL_Driver/Src/stm32g0xx_hal_flash_ex.c ****   pFlash.ProcedureOnGoing = pEraseInit->TypeErase;
 243:Drivers/STM32G0xx_HAL_Driver/Src/stm32g0xx_hal_flash_ex.c **** 
 244:Drivers/STM32G0xx_HAL_Driver/Src/stm32g0xx_hal_flash_ex.c ****   /* Wait for last operation to be completed */
 245:Drivers/STM32G0xx_HAL_Driver/Src/stm32g0xx_hal_flash_ex.c ****   status = FLASH_WaitForLastOperation(FLASH_TIMEOUT_VALUE);
 246:Drivers/STM32G0xx_HAL_Driver/Src/stm32g0xx_hal_flash_ex.c **** 
 247:Drivers/STM32G0xx_HAL_Driver/Src/stm32g0xx_hal_flash_ex.c ****   if (status != HAL_OK)
 248:Drivers/STM32G0xx_HAL_Driver/Src/stm32g0xx_hal_flash_ex.c ****   {
 249:Drivers/STM32G0xx_HAL_Driver/Src/stm32g0xx_hal_flash_ex.c ****     /* Process Unlocked */
 250:Drivers/STM32G0xx_HAL_Driver/Src/stm32g0xx_hal_flash_ex.c ****     __HAL_UNLOCK(&pFlash);
 251:Drivers/STM32G0xx_HAL_Driver/Src/stm32g0xx_hal_flash_ex.c ****   }
 252:Drivers/STM32G0xx_HAL_Driver/Src/stm32g0xx_hal_flash_ex.c ****   else
 253:Drivers/STM32G0xx_HAL_Driver/Src/stm32g0xx_hal_flash_ex.c ****   {
 254:Drivers/STM32G0xx_HAL_Driver/Src/stm32g0xx_hal_flash_ex.c **** #if !defined(FLASH_DBANK_SUPPORT)
 255:Drivers/STM32G0xx_HAL_Driver/Src/stm32g0xx_hal_flash_ex.c ****     /* For single bank product force Banks to Bank 1 */
 256:Drivers/STM32G0xx_HAL_Driver/Src/stm32g0xx_hal_flash_ex.c ****     pEraseInit->Banks = FLASH_BANK_1;
 257:Drivers/STM32G0xx_HAL_Driver/Src/stm32g0xx_hal_flash_ex.c **** #endif /* FLASH_DBANK_SUPPORT */
 258:Drivers/STM32G0xx_HAL_Driver/Src/stm32g0xx_hal_flash_ex.c ****     /* Store Bank number */
 259:Drivers/STM32G0xx_HAL_Driver/Src/stm32g0xx_hal_flash_ex.c ****     pFlash.Banks = pEraseInit->Banks;
 260:Drivers/STM32G0xx_HAL_Driver/Src/stm32g0xx_hal_flash_ex.c **** 
ARM GAS  /tmp/ccdudAn5.s 			page 6


 261:Drivers/STM32G0xx_HAL_Driver/Src/stm32g0xx_hal_flash_ex.c ****     /* Enable End of Operation and Error interrupts */
 262:Drivers/STM32G0xx_HAL_Driver/Src/stm32g0xx_hal_flash_ex.c ****     FLASH->CR |= FLASH_CR_EOPIE | FLASH_CR_ERRIE;
 263:Drivers/STM32G0xx_HAL_Driver/Src/stm32g0xx_hal_flash_ex.c **** 
 264:Drivers/STM32G0xx_HAL_Driver/Src/stm32g0xx_hal_flash_ex.c ****     if (pEraseInit->TypeErase == FLASH_TYPEERASE_MASS)
 265:Drivers/STM32G0xx_HAL_Driver/Src/stm32g0xx_hal_flash_ex.c ****     {
 266:Drivers/STM32G0xx_HAL_Driver/Src/stm32g0xx_hal_flash_ex.c ****       /* Set Page to 0 for Interrupt callback management */
 267:Drivers/STM32G0xx_HAL_Driver/Src/stm32g0xx_hal_flash_ex.c ****       pFlash.Page = 0;
 268:Drivers/STM32G0xx_HAL_Driver/Src/stm32g0xx_hal_flash_ex.c **** 
 269:Drivers/STM32G0xx_HAL_Driver/Src/stm32g0xx_hal_flash_ex.c ****       /* Proceed to Mass Erase */
 270:Drivers/STM32G0xx_HAL_Driver/Src/stm32g0xx_hal_flash_ex.c ****       FLASH_MassErase(pEraseInit->Banks);
 271:Drivers/STM32G0xx_HAL_Driver/Src/stm32g0xx_hal_flash_ex.c ****     }
 272:Drivers/STM32G0xx_HAL_Driver/Src/stm32g0xx_hal_flash_ex.c ****     else
 273:Drivers/STM32G0xx_HAL_Driver/Src/stm32g0xx_hal_flash_ex.c ****     {
 274:Drivers/STM32G0xx_HAL_Driver/Src/stm32g0xx_hal_flash_ex.c ****       /* Erase by page to be done */
 275:Drivers/STM32G0xx_HAL_Driver/Src/stm32g0xx_hal_flash_ex.c ****       pFlash.NbPagesToErase = pEraseInit->NbPages;
 276:Drivers/STM32G0xx_HAL_Driver/Src/stm32g0xx_hal_flash_ex.c ****       pFlash.Page = pEraseInit->Page;
 277:Drivers/STM32G0xx_HAL_Driver/Src/stm32g0xx_hal_flash_ex.c **** 
 278:Drivers/STM32G0xx_HAL_Driver/Src/stm32g0xx_hal_flash_ex.c ****       /*Erase 1st page and wait for IT */
 279:Drivers/STM32G0xx_HAL_Driver/Src/stm32g0xx_hal_flash_ex.c ****       FLASH_PageErase(pEraseInit->Banks, pEraseInit->Page);
 280:Drivers/STM32G0xx_HAL_Driver/Src/stm32g0xx_hal_flash_ex.c ****     }
 281:Drivers/STM32G0xx_HAL_Driver/Src/stm32g0xx_hal_flash_ex.c ****   }
 282:Drivers/STM32G0xx_HAL_Driver/Src/stm32g0xx_hal_flash_ex.c **** 
 283:Drivers/STM32G0xx_HAL_Driver/Src/stm32g0xx_hal_flash_ex.c ****   /* return status */
 284:Drivers/STM32G0xx_HAL_Driver/Src/stm32g0xx_hal_flash_ex.c ****   return status;
 285:Drivers/STM32G0xx_HAL_Driver/Src/stm32g0xx_hal_flash_ex.c **** }
 286:Drivers/STM32G0xx_HAL_Driver/Src/stm32g0xx_hal_flash_ex.c **** 
 287:Drivers/STM32G0xx_HAL_Driver/Src/stm32g0xx_hal_flash_ex.c **** /**
 288:Drivers/STM32G0xx_HAL_Driver/Src/stm32g0xx_hal_flash_ex.c ****   * @brief  Program Option bytes.
 289:Drivers/STM32G0xx_HAL_Driver/Src/stm32g0xx_hal_flash_ex.c ****   * @param  pOBInit Pointer to an @ref FLASH_OBProgramInitTypeDef structure that
 290:Drivers/STM32G0xx_HAL_Driver/Src/stm32g0xx_hal_flash_ex.c ****   *         contains the configuration information for the programming.
 291:Drivers/STM32G0xx_HAL_Driver/Src/stm32g0xx_hal_flash_ex.c ****   * @note   To configure any option bytes, the option lock bit OPTLOCK must be
 292:Drivers/STM32G0xx_HAL_Driver/Src/stm32g0xx_hal_flash_ex.c ****   *         cleared with the call of @ref HAL_FLASH_OB_Unlock() function.
 293:Drivers/STM32G0xx_HAL_Driver/Src/stm32g0xx_hal_flash_ex.c ****   * @note   New option bytes configuration will be taken into account only
 294:Drivers/STM32G0xx_HAL_Driver/Src/stm32g0xx_hal_flash_ex.c ****   *         - after an option bytes launch through the call of @ref HAL_FLASH_OB_Launch()
 295:Drivers/STM32G0xx_HAL_Driver/Src/stm32g0xx_hal_flash_ex.c ****   *         - a Power On Reset
 296:Drivers/STM32G0xx_HAL_Driver/Src/stm32g0xx_hal_flash_ex.c ****   *         - an exit from Standby or Shutdown mode.
 297:Drivers/STM32G0xx_HAL_Driver/Src/stm32g0xx_hal_flash_ex.c ****   * @retval HAL Status
 298:Drivers/STM32G0xx_HAL_Driver/Src/stm32g0xx_hal_flash_ex.c ****   */
 299:Drivers/STM32G0xx_HAL_Driver/Src/stm32g0xx_hal_flash_ex.c **** HAL_StatusTypeDef HAL_FLASHEx_OBProgram(FLASH_OBProgramInitTypeDef *pOBInit)
 300:Drivers/STM32G0xx_HAL_Driver/Src/stm32g0xx_hal_flash_ex.c **** {
 301:Drivers/STM32G0xx_HAL_Driver/Src/stm32g0xx_hal_flash_ex.c ****   uint32_t optr;
 302:Drivers/STM32G0xx_HAL_Driver/Src/stm32g0xx_hal_flash_ex.c ****   HAL_StatusTypeDef status;
 303:Drivers/STM32G0xx_HAL_Driver/Src/stm32g0xx_hal_flash_ex.c **** 
 304:Drivers/STM32G0xx_HAL_Driver/Src/stm32g0xx_hal_flash_ex.c ****   /* Check the parameters */
 305:Drivers/STM32G0xx_HAL_Driver/Src/stm32g0xx_hal_flash_ex.c ****   assert_param(IS_OPTIONBYTE(pOBInit->OptionType));
 306:Drivers/STM32G0xx_HAL_Driver/Src/stm32g0xx_hal_flash_ex.c **** 
 307:Drivers/STM32G0xx_HAL_Driver/Src/stm32g0xx_hal_flash_ex.c ****   /* Process Locked */
 308:Drivers/STM32G0xx_HAL_Driver/Src/stm32g0xx_hal_flash_ex.c ****   __HAL_LOCK(&pFlash);
 309:Drivers/STM32G0xx_HAL_Driver/Src/stm32g0xx_hal_flash_ex.c **** 
 310:Drivers/STM32G0xx_HAL_Driver/Src/stm32g0xx_hal_flash_ex.c ****   pFlash.ErrorCode = HAL_FLASH_ERROR_NONE;
 311:Drivers/STM32G0xx_HAL_Driver/Src/stm32g0xx_hal_flash_ex.c **** 
 312:Drivers/STM32G0xx_HAL_Driver/Src/stm32g0xx_hal_flash_ex.c ****   /* Write protection configuration */
 313:Drivers/STM32G0xx_HAL_Driver/Src/stm32g0xx_hal_flash_ex.c ****   if ((pOBInit->OptionType & OPTIONBYTE_WRP) != 0x00U)
 314:Drivers/STM32G0xx_HAL_Driver/Src/stm32g0xx_hal_flash_ex.c ****   {
 315:Drivers/STM32G0xx_HAL_Driver/Src/stm32g0xx_hal_flash_ex.c ****     /* Configure of Write protection on the selected area */
 316:Drivers/STM32G0xx_HAL_Driver/Src/stm32g0xx_hal_flash_ex.c ****     FLASH_OB_WRPConfig(pOBInit->WRPArea, pOBInit->WRPStartOffset, pOBInit->WRPEndOffset);
 317:Drivers/STM32G0xx_HAL_Driver/Src/stm32g0xx_hal_flash_ex.c ****   }
ARM GAS  /tmp/ccdudAn5.s 			page 7


 318:Drivers/STM32G0xx_HAL_Driver/Src/stm32g0xx_hal_flash_ex.c **** 
 319:Drivers/STM32G0xx_HAL_Driver/Src/stm32g0xx_hal_flash_ex.c ****   /* Option register */
 320:Drivers/STM32G0xx_HAL_Driver/Src/stm32g0xx_hal_flash_ex.c ****   if ((pOBInit->OptionType & (OPTIONBYTE_RDP | OPTIONBYTE_USER)) == (OPTIONBYTE_RDP | OPTIONBYTE_US
 321:Drivers/STM32G0xx_HAL_Driver/Src/stm32g0xx_hal_flash_ex.c ****   {
 322:Drivers/STM32G0xx_HAL_Driver/Src/stm32g0xx_hal_flash_ex.c ****     /* Fully modify OPTR register with RDP & user data */
 323:Drivers/STM32G0xx_HAL_Driver/Src/stm32g0xx_hal_flash_ex.c ****     FLASH_OB_OptrConfig(pOBInit->USERType, pOBInit->USERConfig, pOBInit->RDPLevel);
 324:Drivers/STM32G0xx_HAL_Driver/Src/stm32g0xx_hal_flash_ex.c ****   }
 325:Drivers/STM32G0xx_HAL_Driver/Src/stm32g0xx_hal_flash_ex.c ****   else if ((pOBInit->OptionType & OPTIONBYTE_RDP) != 0x00U)
 326:Drivers/STM32G0xx_HAL_Driver/Src/stm32g0xx_hal_flash_ex.c ****   {
 327:Drivers/STM32G0xx_HAL_Driver/Src/stm32g0xx_hal_flash_ex.c ****     /* Only modify RDP so get current user data */
 328:Drivers/STM32G0xx_HAL_Driver/Src/stm32g0xx_hal_flash_ex.c ****     optr = FLASH_OB_GetUser();
 329:Drivers/STM32G0xx_HAL_Driver/Src/stm32g0xx_hal_flash_ex.c ****     FLASH_OB_OptrConfig(optr, optr, pOBInit->RDPLevel);
 330:Drivers/STM32G0xx_HAL_Driver/Src/stm32g0xx_hal_flash_ex.c ****   }
 331:Drivers/STM32G0xx_HAL_Driver/Src/stm32g0xx_hal_flash_ex.c ****   else if ((pOBInit->OptionType & OPTIONBYTE_USER) != 0x00U)
 332:Drivers/STM32G0xx_HAL_Driver/Src/stm32g0xx_hal_flash_ex.c ****   {
 333:Drivers/STM32G0xx_HAL_Driver/Src/stm32g0xx_hal_flash_ex.c ****     /* Only modify user so get current RDP level */
 334:Drivers/STM32G0xx_HAL_Driver/Src/stm32g0xx_hal_flash_ex.c ****     optr = FLASH_OB_GetRDP();
 335:Drivers/STM32G0xx_HAL_Driver/Src/stm32g0xx_hal_flash_ex.c ****     FLASH_OB_OptrConfig(pOBInit->USERType, pOBInit->USERConfig, optr);
 336:Drivers/STM32G0xx_HAL_Driver/Src/stm32g0xx_hal_flash_ex.c ****   }
 337:Drivers/STM32G0xx_HAL_Driver/Src/stm32g0xx_hal_flash_ex.c ****   else
 338:Drivers/STM32G0xx_HAL_Driver/Src/stm32g0xx_hal_flash_ex.c ****   {
 339:Drivers/STM32G0xx_HAL_Driver/Src/stm32g0xx_hal_flash_ex.c ****     /* nothing to do */
 340:Drivers/STM32G0xx_HAL_Driver/Src/stm32g0xx_hal_flash_ex.c ****   }
 341:Drivers/STM32G0xx_HAL_Driver/Src/stm32g0xx_hal_flash_ex.c **** 
 342:Drivers/STM32G0xx_HAL_Driver/Src/stm32g0xx_hal_flash_ex.c **** #if defined(FLASH_PCROP_SUPPORT)
 343:Drivers/STM32G0xx_HAL_Driver/Src/stm32g0xx_hal_flash_ex.c ****   /* PCROP Configuration */
 344:Drivers/STM32G0xx_HAL_Driver/Src/stm32g0xx_hal_flash_ex.c ****   if ((pOBInit->OptionType & OPTIONBYTE_PCROP) != 0x00U)
 345:Drivers/STM32G0xx_HAL_Driver/Src/stm32g0xx_hal_flash_ex.c ****   {
 346:Drivers/STM32G0xx_HAL_Driver/Src/stm32g0xx_hal_flash_ex.c ****     /* Check the parameters */
 347:Drivers/STM32G0xx_HAL_Driver/Src/stm32g0xx_hal_flash_ex.c ****     assert_param(IS_OB_PCROP_CONFIG(pOBInit->PCROPConfig));
 348:Drivers/STM32G0xx_HAL_Driver/Src/stm32g0xx_hal_flash_ex.c **** 
 349:Drivers/STM32G0xx_HAL_Driver/Src/stm32g0xx_hal_flash_ex.c ****     if ((pOBInit->PCROPConfig & (OB_PCROP_ZONE_A | OB_PCROP_RDP_ERASE)) != 0x00U)
 350:Drivers/STM32G0xx_HAL_Driver/Src/stm32g0xx_hal_flash_ex.c ****     {
 351:Drivers/STM32G0xx_HAL_Driver/Src/stm32g0xx_hal_flash_ex.c ****       /* Configure the 1A Proprietary code readout protection */
 352:Drivers/STM32G0xx_HAL_Driver/Src/stm32g0xx_hal_flash_ex.c ****       FLASH_OB_PCROP1AConfig(pOBInit->PCROPConfig, pOBInit->PCROP1AStartAddr, pOBInit->PCROP1AEndAd
 353:Drivers/STM32G0xx_HAL_Driver/Src/stm32g0xx_hal_flash_ex.c ****     }
 354:Drivers/STM32G0xx_HAL_Driver/Src/stm32g0xx_hal_flash_ex.c **** 
 355:Drivers/STM32G0xx_HAL_Driver/Src/stm32g0xx_hal_flash_ex.c ****     if ((pOBInit->PCROPConfig & OB_PCROP_ZONE_B) != 0x00U)
 356:Drivers/STM32G0xx_HAL_Driver/Src/stm32g0xx_hal_flash_ex.c ****     {
 357:Drivers/STM32G0xx_HAL_Driver/Src/stm32g0xx_hal_flash_ex.c ****       /* Configure the 1B Proprietary code readout protection */
 358:Drivers/STM32G0xx_HAL_Driver/Src/stm32g0xx_hal_flash_ex.c ****       FLASH_OB_PCROP1BConfig(pOBInit->PCROP1BStartAddr, pOBInit->PCROP1BEndAddr);
 359:Drivers/STM32G0xx_HAL_Driver/Src/stm32g0xx_hal_flash_ex.c ****     }
 360:Drivers/STM32G0xx_HAL_Driver/Src/stm32g0xx_hal_flash_ex.c **** 
 361:Drivers/STM32G0xx_HAL_Driver/Src/stm32g0xx_hal_flash_ex.c **** #if defined(FLASH_DBANK_SUPPORT)
 362:Drivers/STM32G0xx_HAL_Driver/Src/stm32g0xx_hal_flash_ex.c ****     if ((pOBInit->PCROPConfig & OB_PCROP_ZONE2_A) != 0x00U)
 363:Drivers/STM32G0xx_HAL_Driver/Src/stm32g0xx_hal_flash_ex.c ****     {
 364:Drivers/STM32G0xx_HAL_Driver/Src/stm32g0xx_hal_flash_ex.c ****       /* Configure the 2A Proprietary code readout protection */
 365:Drivers/STM32G0xx_HAL_Driver/Src/stm32g0xx_hal_flash_ex.c ****       FLASH_OB_PCROP2AConfig(pOBInit->PCROP2AStartAddr, pOBInit->PCROP2AEndAddr);
 366:Drivers/STM32G0xx_HAL_Driver/Src/stm32g0xx_hal_flash_ex.c ****     }
 367:Drivers/STM32G0xx_HAL_Driver/Src/stm32g0xx_hal_flash_ex.c **** 
 368:Drivers/STM32G0xx_HAL_Driver/Src/stm32g0xx_hal_flash_ex.c ****     if ((pOBInit->PCROPConfig & OB_PCROP_ZONE2_B) != 0x00U)
 369:Drivers/STM32G0xx_HAL_Driver/Src/stm32g0xx_hal_flash_ex.c ****     {
 370:Drivers/STM32G0xx_HAL_Driver/Src/stm32g0xx_hal_flash_ex.c ****       /* Configure the 2B Proprietary code readout protection */
 371:Drivers/STM32G0xx_HAL_Driver/Src/stm32g0xx_hal_flash_ex.c ****       FLASH_OB_PCROP2BConfig(pOBInit->PCROP2BStartAddr, pOBInit->PCROP2BEndAddr);
 372:Drivers/STM32G0xx_HAL_Driver/Src/stm32g0xx_hal_flash_ex.c ****     }
 373:Drivers/STM32G0xx_HAL_Driver/Src/stm32g0xx_hal_flash_ex.c **** #endif /* FLASH_DBANK_SUPPORT */
 374:Drivers/STM32G0xx_HAL_Driver/Src/stm32g0xx_hal_flash_ex.c ****   }
ARM GAS  /tmp/ccdudAn5.s 			page 8


 375:Drivers/STM32G0xx_HAL_Driver/Src/stm32g0xx_hal_flash_ex.c **** #endif /* FLASH_PCROP_SUPPORT */
 376:Drivers/STM32G0xx_HAL_Driver/Src/stm32g0xx_hal_flash_ex.c **** 
 377:Drivers/STM32G0xx_HAL_Driver/Src/stm32g0xx_hal_flash_ex.c **** #if defined(FLASH_SECURABLE_MEMORY_SUPPORT)
 378:Drivers/STM32G0xx_HAL_Driver/Src/stm32g0xx_hal_flash_ex.c ****   /* Securable Memory Area Configuration */
 379:Drivers/STM32G0xx_HAL_Driver/Src/stm32g0xx_hal_flash_ex.c ****   if ((pOBInit->OptionType & OPTIONBYTE_SEC) != 0x00U)
 380:Drivers/STM32G0xx_HAL_Driver/Src/stm32g0xx_hal_flash_ex.c ****   {
 381:Drivers/STM32G0xx_HAL_Driver/Src/stm32g0xx_hal_flash_ex.c **** #if defined(FLASH_DBANK_SUPPORT)
 382:Drivers/STM32G0xx_HAL_Driver/Src/stm32g0xx_hal_flash_ex.c ****     /* Configure the securable memory area protection */
 383:Drivers/STM32G0xx_HAL_Driver/Src/stm32g0xx_hal_flash_ex.c ****     FLASH_OB_SecMemConfig(pOBInit->BootEntryPoint, pOBInit->SecSize, pOBInit->SecSize2);
 384:Drivers/STM32G0xx_HAL_Driver/Src/stm32g0xx_hal_flash_ex.c **** #else
 385:Drivers/STM32G0xx_HAL_Driver/Src/stm32g0xx_hal_flash_ex.c ****     /* Configure the securable memory area protection */
 386:Drivers/STM32G0xx_HAL_Driver/Src/stm32g0xx_hal_flash_ex.c ****     FLASH_OB_SecMemConfig(pOBInit->BootEntryPoint, pOBInit->SecSize);
 387:Drivers/STM32G0xx_HAL_Driver/Src/stm32g0xx_hal_flash_ex.c **** #endif /* FLASH_DBANK_SUPPORT */
 388:Drivers/STM32G0xx_HAL_Driver/Src/stm32g0xx_hal_flash_ex.c ****   }
 389:Drivers/STM32G0xx_HAL_Driver/Src/stm32g0xx_hal_flash_ex.c **** #endif /* FLASH_SECURABLE_MEMORY_SUPPORT */
 390:Drivers/STM32G0xx_HAL_Driver/Src/stm32g0xx_hal_flash_ex.c **** 
 391:Drivers/STM32G0xx_HAL_Driver/Src/stm32g0xx_hal_flash_ex.c ****   /* Wait for last operation to be completed */
 392:Drivers/STM32G0xx_HAL_Driver/Src/stm32g0xx_hal_flash_ex.c ****   status = FLASH_WaitForLastOperation(FLASH_TIMEOUT_VALUE);
 393:Drivers/STM32G0xx_HAL_Driver/Src/stm32g0xx_hal_flash_ex.c **** 
 394:Drivers/STM32G0xx_HAL_Driver/Src/stm32g0xx_hal_flash_ex.c ****   if (status == HAL_OK)
 395:Drivers/STM32G0xx_HAL_Driver/Src/stm32g0xx_hal_flash_ex.c ****   {
 396:Drivers/STM32G0xx_HAL_Driver/Src/stm32g0xx_hal_flash_ex.c ****     /* Set OPTSTRT Bit */
 397:Drivers/STM32G0xx_HAL_Driver/Src/stm32g0xx_hal_flash_ex.c ****     SET_BIT(FLASH->CR, FLASH_CR_OPTSTRT);
 398:Drivers/STM32G0xx_HAL_Driver/Src/stm32g0xx_hal_flash_ex.c **** 
 399:Drivers/STM32G0xx_HAL_Driver/Src/stm32g0xx_hal_flash_ex.c ****     /* Wait for last operation to be completed */
 400:Drivers/STM32G0xx_HAL_Driver/Src/stm32g0xx_hal_flash_ex.c ****     status = FLASH_WaitForLastOperation(FLASH_TIMEOUT_VALUE);
 401:Drivers/STM32G0xx_HAL_Driver/Src/stm32g0xx_hal_flash_ex.c **** 
 402:Drivers/STM32G0xx_HAL_Driver/Src/stm32g0xx_hal_flash_ex.c ****     /* If the option byte program operation is completed, disable the OPTSTRT Bit */
 403:Drivers/STM32G0xx_HAL_Driver/Src/stm32g0xx_hal_flash_ex.c ****     CLEAR_BIT(FLASH->CR, FLASH_CR_OPTSTRT);
 404:Drivers/STM32G0xx_HAL_Driver/Src/stm32g0xx_hal_flash_ex.c ****   }
 405:Drivers/STM32G0xx_HAL_Driver/Src/stm32g0xx_hal_flash_ex.c **** 
 406:Drivers/STM32G0xx_HAL_Driver/Src/stm32g0xx_hal_flash_ex.c ****   /* Process Unlocked */
 407:Drivers/STM32G0xx_HAL_Driver/Src/stm32g0xx_hal_flash_ex.c ****   __HAL_UNLOCK(&pFlash);
 408:Drivers/STM32G0xx_HAL_Driver/Src/stm32g0xx_hal_flash_ex.c **** 
 409:Drivers/STM32G0xx_HAL_Driver/Src/stm32g0xx_hal_flash_ex.c ****   /* return status */
 410:Drivers/STM32G0xx_HAL_Driver/Src/stm32g0xx_hal_flash_ex.c ****   return status;
 411:Drivers/STM32G0xx_HAL_Driver/Src/stm32g0xx_hal_flash_ex.c **** }
 412:Drivers/STM32G0xx_HAL_Driver/Src/stm32g0xx_hal_flash_ex.c **** 
 413:Drivers/STM32G0xx_HAL_Driver/Src/stm32g0xx_hal_flash_ex.c **** /**
 414:Drivers/STM32G0xx_HAL_Driver/Src/stm32g0xx_hal_flash_ex.c ****   * @brief  Get the Option bytes configuration.
 415:Drivers/STM32G0xx_HAL_Driver/Src/stm32g0xx_hal_flash_ex.c ****   * @note   warning: this API only read flash register, it does not reflect any
 416:Drivers/STM32G0xx_HAL_Driver/Src/stm32g0xx_hal_flash_ex.c ****   *         change that would have been programmed between previous Option byte
 417:Drivers/STM32G0xx_HAL_Driver/Src/stm32g0xx_hal_flash_ex.c ****   *         loading and current call.
 418:Drivers/STM32G0xx_HAL_Driver/Src/stm32g0xx_hal_flash_ex.c ****   * @param  pOBInit Pointer to an @ref FLASH_OBProgramInitTypeDef structure that contains the
 419:Drivers/STM32G0xx_HAL_Driver/Src/stm32g0xx_hal_flash_ex.c ****   *                  configuration information. The fields pOBInit->WRPArea should
 420:Drivers/STM32G0xx_HAL_Driver/Src/stm32g0xx_hal_flash_ex.c ****   *                  indicate which area is requested for the WRP.
 421:Drivers/STM32G0xx_HAL_Driver/Src/stm32g0xx_hal_flash_ex.c ****   * @retval None
 422:Drivers/STM32G0xx_HAL_Driver/Src/stm32g0xx_hal_flash_ex.c ****   */
 423:Drivers/STM32G0xx_HAL_Driver/Src/stm32g0xx_hal_flash_ex.c **** void HAL_FLASHEx_OBGetConfig(FLASH_OBProgramInitTypeDef *pOBInit)
 424:Drivers/STM32G0xx_HAL_Driver/Src/stm32g0xx_hal_flash_ex.c **** {
 425:Drivers/STM32G0xx_HAL_Driver/Src/stm32g0xx_hal_flash_ex.c ****   pOBInit->OptionType = OPTIONBYTE_ALL;
 426:Drivers/STM32G0xx_HAL_Driver/Src/stm32g0xx_hal_flash_ex.c **** 
 427:Drivers/STM32G0xx_HAL_Driver/Src/stm32g0xx_hal_flash_ex.c ****   /* Get write protection on the selected area */
 428:Drivers/STM32G0xx_HAL_Driver/Src/stm32g0xx_hal_flash_ex.c ****   FLASH_OB_GetWRP(pOBInit->WRPArea, &(pOBInit->WRPStartOffset), &(pOBInit->WRPEndOffset));
 429:Drivers/STM32G0xx_HAL_Driver/Src/stm32g0xx_hal_flash_ex.c **** 
 430:Drivers/STM32G0xx_HAL_Driver/Src/stm32g0xx_hal_flash_ex.c ****   /* Get Read protection level */
 431:Drivers/STM32G0xx_HAL_Driver/Src/stm32g0xx_hal_flash_ex.c ****   pOBInit->RDPLevel = FLASH_OB_GetRDP();
ARM GAS  /tmp/ccdudAn5.s 			page 9


 432:Drivers/STM32G0xx_HAL_Driver/Src/stm32g0xx_hal_flash_ex.c **** 
 433:Drivers/STM32G0xx_HAL_Driver/Src/stm32g0xx_hal_flash_ex.c ****   /* Get the user option bytes */
 434:Drivers/STM32G0xx_HAL_Driver/Src/stm32g0xx_hal_flash_ex.c ****   pOBInit->USERConfig = FLASH_OB_GetUser();
 435:Drivers/STM32G0xx_HAL_Driver/Src/stm32g0xx_hal_flash_ex.c ****   pOBInit->USERType = OB_USER_ALL;
 436:Drivers/STM32G0xx_HAL_Driver/Src/stm32g0xx_hal_flash_ex.c **** 
 437:Drivers/STM32G0xx_HAL_Driver/Src/stm32g0xx_hal_flash_ex.c **** #if defined(FLASH_PCROP_SUPPORT)
 438:Drivers/STM32G0xx_HAL_Driver/Src/stm32g0xx_hal_flash_ex.c ****   /* Get the Proprietary code readout protection */
 439:Drivers/STM32G0xx_HAL_Driver/Src/stm32g0xx_hal_flash_ex.c ****   FLASH_OB_GetPCROP1A(&(pOBInit->PCROPConfig), &(pOBInit->PCROP1AStartAddr), &(pOBInit->PCROP1AEndA
 440:Drivers/STM32G0xx_HAL_Driver/Src/stm32g0xx_hal_flash_ex.c ****   FLASH_OB_GetPCROP1B(&(pOBInit->PCROP1BStartAddr), &(pOBInit->PCROP1BEndAddr));
 441:Drivers/STM32G0xx_HAL_Driver/Src/stm32g0xx_hal_flash_ex.c ****   pOBInit->PCROPConfig |= (OB_PCROP_ZONE_A | OB_PCROP_ZONE_B);
 442:Drivers/STM32G0xx_HAL_Driver/Src/stm32g0xx_hal_flash_ex.c **** #if defined(FLASH_DBANK_SUPPORT)
 443:Drivers/STM32G0xx_HAL_Driver/Src/stm32g0xx_hal_flash_ex.c ****   FLASH_OB_GetPCROP2A(&(pOBInit->PCROP2AStartAddr), &(pOBInit->PCROP2AEndAddr));
 444:Drivers/STM32G0xx_HAL_Driver/Src/stm32g0xx_hal_flash_ex.c ****   FLASH_OB_GetPCROP2B(&(pOBInit->PCROP2BStartAddr), &(pOBInit->PCROP2BEndAddr));
 445:Drivers/STM32G0xx_HAL_Driver/Src/stm32g0xx_hal_flash_ex.c ****   pOBInit->PCROPConfig |= (OB_PCROP_ZONE2_A | OB_PCROP_ZONE2_B);
 446:Drivers/STM32G0xx_HAL_Driver/Src/stm32g0xx_hal_flash_ex.c **** #endif /* FLASH_DBANK_SUPPORT */
 447:Drivers/STM32G0xx_HAL_Driver/Src/stm32g0xx_hal_flash_ex.c **** #endif /* FLASH_PCROP_SUPPORT */
 448:Drivers/STM32G0xx_HAL_Driver/Src/stm32g0xx_hal_flash_ex.c **** 
 449:Drivers/STM32G0xx_HAL_Driver/Src/stm32g0xx_hal_flash_ex.c **** #if defined(FLASH_SECURABLE_MEMORY_SUPPORT)
 450:Drivers/STM32G0xx_HAL_Driver/Src/stm32g0xx_hal_flash_ex.c **** #if defined(FLASH_DBANK_SUPPORT)
 451:Drivers/STM32G0xx_HAL_Driver/Src/stm32g0xx_hal_flash_ex.c ****   /* Get the Securable Memory Area protection */
 452:Drivers/STM32G0xx_HAL_Driver/Src/stm32g0xx_hal_flash_ex.c ****   FLASH_OB_GetSecMem(&(pOBInit->BootEntryPoint), &(pOBInit->SecSize), &(pOBInit->SecSize2));
 453:Drivers/STM32G0xx_HAL_Driver/Src/stm32g0xx_hal_flash_ex.c **** #else
 454:Drivers/STM32G0xx_HAL_Driver/Src/stm32g0xx_hal_flash_ex.c ****   /* Get the Securable Memory Area protection */
 455:Drivers/STM32G0xx_HAL_Driver/Src/stm32g0xx_hal_flash_ex.c ****   FLASH_OB_GetSecMem(&(pOBInit->BootEntryPoint), &(pOBInit->SecSize));
 456:Drivers/STM32G0xx_HAL_Driver/Src/stm32g0xx_hal_flash_ex.c **** #endif /* FLASH_DBANK_SUPPORT */
 457:Drivers/STM32G0xx_HAL_Driver/Src/stm32g0xx_hal_flash_ex.c **** #endif /* FLASH_SECURABLE_MEMORY_SUPPORT */
 458:Drivers/STM32G0xx_HAL_Driver/Src/stm32g0xx_hal_flash_ex.c **** }
 459:Drivers/STM32G0xx_HAL_Driver/Src/stm32g0xx_hal_flash_ex.c **** 
 460:Drivers/STM32G0xx_HAL_Driver/Src/stm32g0xx_hal_flash_ex.c **** #if defined(FLASH_ACR_DBG_SWEN)
 461:Drivers/STM32G0xx_HAL_Driver/Src/stm32g0xx_hal_flash_ex.c **** /**
 462:Drivers/STM32G0xx_HAL_Driver/Src/stm32g0xx_hal_flash_ex.c ****   * @brief  Enable Debugger.
 463:Drivers/STM32G0xx_HAL_Driver/Src/stm32g0xx_hal_flash_ex.c ****   * @note   After calling this API, flash interface allow debugger intrusion.
 464:Drivers/STM32G0xx_HAL_Driver/Src/stm32g0xx_hal_flash_ex.c ****   * @retval None
 465:Drivers/STM32G0xx_HAL_Driver/Src/stm32g0xx_hal_flash_ex.c ****   */
 466:Drivers/STM32G0xx_HAL_Driver/Src/stm32g0xx_hal_flash_ex.c **** void HAL_FLASHEx_EnableDebugger(void)
 467:Drivers/STM32G0xx_HAL_Driver/Src/stm32g0xx_hal_flash_ex.c **** {
 468:Drivers/STM32G0xx_HAL_Driver/Src/stm32g0xx_hal_flash_ex.c ****   FLASH->ACR |= FLASH_ACR_DBG_SWEN;
 469:Drivers/STM32G0xx_HAL_Driver/Src/stm32g0xx_hal_flash_ex.c **** }
 470:Drivers/STM32G0xx_HAL_Driver/Src/stm32g0xx_hal_flash_ex.c **** 
 471:Drivers/STM32G0xx_HAL_Driver/Src/stm32g0xx_hal_flash_ex.c **** 
 472:Drivers/STM32G0xx_HAL_Driver/Src/stm32g0xx_hal_flash_ex.c **** /**
 473:Drivers/STM32G0xx_HAL_Driver/Src/stm32g0xx_hal_flash_ex.c ****   * @brief  Disable Debugger.
 474:Drivers/STM32G0xx_HAL_Driver/Src/stm32g0xx_hal_flash_ex.c ****   * @note   After calling this API, Debugger is disabled: it is no more possible to
 475:Drivers/STM32G0xx_HAL_Driver/Src/stm32g0xx_hal_flash_ex.c ****   *         break, see CPU register, etc...
 476:Drivers/STM32G0xx_HAL_Driver/Src/stm32g0xx_hal_flash_ex.c ****   * @retval None
 477:Drivers/STM32G0xx_HAL_Driver/Src/stm32g0xx_hal_flash_ex.c ****   */
 478:Drivers/STM32G0xx_HAL_Driver/Src/stm32g0xx_hal_flash_ex.c **** void HAL_FLASHEx_DisableDebugger(void)
 479:Drivers/STM32G0xx_HAL_Driver/Src/stm32g0xx_hal_flash_ex.c **** {
 480:Drivers/STM32G0xx_HAL_Driver/Src/stm32g0xx_hal_flash_ex.c ****   FLASH->ACR &= ~FLASH_ACR_DBG_SWEN;
 481:Drivers/STM32G0xx_HAL_Driver/Src/stm32g0xx_hal_flash_ex.c **** }
 482:Drivers/STM32G0xx_HAL_Driver/Src/stm32g0xx_hal_flash_ex.c **** #endif /* FLASH_ACR_DBG_SWEN */
 483:Drivers/STM32G0xx_HAL_Driver/Src/stm32g0xx_hal_flash_ex.c **** 
 484:Drivers/STM32G0xx_HAL_Driver/Src/stm32g0xx_hal_flash_ex.c **** /**
 485:Drivers/STM32G0xx_HAL_Driver/Src/stm32g0xx_hal_flash_ex.c ****   * @brief  Flash Empty check
 486:Drivers/STM32G0xx_HAL_Driver/Src/stm32g0xx_hal_flash_ex.c ****   * @note   This API checks if first location in Flash is programmed or not.
 487:Drivers/STM32G0xx_HAL_Driver/Src/stm32g0xx_hal_flash_ex.c ****   *         This check is done once by Option Byte Loader.
 488:Drivers/STM32G0xx_HAL_Driver/Src/stm32g0xx_hal_flash_ex.c ****   * @retval 0 if 1st location is not programmed else
ARM GAS  /tmp/ccdudAn5.s 			page 10


 489:Drivers/STM32G0xx_HAL_Driver/Src/stm32g0xx_hal_flash_ex.c ****   */
 490:Drivers/STM32G0xx_HAL_Driver/Src/stm32g0xx_hal_flash_ex.c **** uint32_t HAL_FLASHEx_FlashEmptyCheck(void)
 491:Drivers/STM32G0xx_HAL_Driver/Src/stm32g0xx_hal_flash_ex.c **** {
 492:Drivers/STM32G0xx_HAL_Driver/Src/stm32g0xx_hal_flash_ex.c ****   return ((FLASH->ACR & FLASH_ACR_PROGEMPTY));
 493:Drivers/STM32G0xx_HAL_Driver/Src/stm32g0xx_hal_flash_ex.c **** }
 494:Drivers/STM32G0xx_HAL_Driver/Src/stm32g0xx_hal_flash_ex.c **** 
 495:Drivers/STM32G0xx_HAL_Driver/Src/stm32g0xx_hal_flash_ex.c **** 
 496:Drivers/STM32G0xx_HAL_Driver/Src/stm32g0xx_hal_flash_ex.c **** /**
 497:Drivers/STM32G0xx_HAL_Driver/Src/stm32g0xx_hal_flash_ex.c ****   * @brief  Force Empty check value.
 498:Drivers/STM32G0xx_HAL_Driver/Src/stm32g0xx_hal_flash_ex.c ****   * @note   Allows to modify program empty check value in order to force this
 499:Drivers/STM32G0xx_HAL_Driver/Src/stm32g0xx_hal_flash_ex.c ****   *         infrmation in Flash Interface, for all next reset that do not launch
 500:Drivers/STM32G0xx_HAL_Driver/Src/stm32g0xx_hal_flash_ex.c ****   *         Option Byte Loader.
 501:Drivers/STM32G0xx_HAL_Driver/Src/stm32g0xx_hal_flash_ex.c ****   * @param  FlashEmpty this parameter can be a value of @ref FLASHEx_Empty_Check
 502:Drivers/STM32G0xx_HAL_Driver/Src/stm32g0xx_hal_flash_ex.c ****   * @retval None
 503:Drivers/STM32G0xx_HAL_Driver/Src/stm32g0xx_hal_flash_ex.c ****   */
 504:Drivers/STM32G0xx_HAL_Driver/Src/stm32g0xx_hal_flash_ex.c **** void HAL_FLASHEx_ForceFlashEmpty(uint32_t FlashEmpty)
 505:Drivers/STM32G0xx_HAL_Driver/Src/stm32g0xx_hal_flash_ex.c **** {
 506:Drivers/STM32G0xx_HAL_Driver/Src/stm32g0xx_hal_flash_ex.c ****   uint32_t acr;
 507:Drivers/STM32G0xx_HAL_Driver/Src/stm32g0xx_hal_flash_ex.c ****   assert_param(IS_FLASH_EMPTY_CHECK(FlashEmpty));
 508:Drivers/STM32G0xx_HAL_Driver/Src/stm32g0xx_hal_flash_ex.c **** 
 509:Drivers/STM32G0xx_HAL_Driver/Src/stm32g0xx_hal_flash_ex.c ****   acr = (FLASH->ACR & ~FLASH_ACR_PROGEMPTY);
 510:Drivers/STM32G0xx_HAL_Driver/Src/stm32g0xx_hal_flash_ex.c ****   FLASH->ACR = (acr | FlashEmpty);
 511:Drivers/STM32G0xx_HAL_Driver/Src/stm32g0xx_hal_flash_ex.c **** }
 512:Drivers/STM32G0xx_HAL_Driver/Src/stm32g0xx_hal_flash_ex.c **** 
 513:Drivers/STM32G0xx_HAL_Driver/Src/stm32g0xx_hal_flash_ex.c **** 
 514:Drivers/STM32G0xx_HAL_Driver/Src/stm32g0xx_hal_flash_ex.c **** #if defined(FLASH_SECURABLE_MEMORY_SUPPORT)
 515:Drivers/STM32G0xx_HAL_Driver/Src/stm32g0xx_hal_flash_ex.c **** /**
 516:Drivers/STM32G0xx_HAL_Driver/Src/stm32g0xx_hal_flash_ex.c ****   * @brief  Securable memory area protection enable
 517:Drivers/STM32G0xx_HAL_Driver/Src/stm32g0xx_hal_flash_ex.c ****   * @param  Banks Select Bank to be secured.
 518:Drivers/STM32G0xx_HAL_Driver/Src/stm32g0xx_hal_flash_ex.c ****   *         This parameter can be a value of @ref FLASH_Banks
 519:Drivers/STM32G0xx_HAL_Driver/Src/stm32g0xx_hal_flash_ex.c ****   * @note   On some devices, there is only 1 bank so parameter has to be set FLASH_BANK_1.
 520:Drivers/STM32G0xx_HAL_Driver/Src/stm32g0xx_hal_flash_ex.c ****   * @note   This API locks Securable memory area which is defined in SEC_SIZE option byte
 521:Drivers/STM32G0xx_HAL_Driver/Src/stm32g0xx_hal_flash_ex.c ****   *         (that can be retrieved calling HAL_FLASHEx_OBGetConfig API and checking
 522:Drivers/STM32G0xx_HAL_Driver/Src/stm32g0xx_hal_flash_ex.c ****   *         Secsize).
 523:Drivers/STM32G0xx_HAL_Driver/Src/stm32g0xx_hal_flash_ex.c ****   * @note   SEC_PROT bit can only be set, it will be reset by system reset.
 524:Drivers/STM32G0xx_HAL_Driver/Src/stm32g0xx_hal_flash_ex.c ****   * @retval None
 525:Drivers/STM32G0xx_HAL_Driver/Src/stm32g0xx_hal_flash_ex.c ****   */
 526:Drivers/STM32G0xx_HAL_Driver/Src/stm32g0xx_hal_flash_ex.c **** void HAL_FLASHEx_EnableSecMemProtection(uint32_t Banks)
 527:Drivers/STM32G0xx_HAL_Driver/Src/stm32g0xx_hal_flash_ex.c **** {
 528:Drivers/STM32G0xx_HAL_Driver/Src/stm32g0xx_hal_flash_ex.c **** #if defined(FLASH_DBANK_SUPPORT)
 529:Drivers/STM32G0xx_HAL_Driver/Src/stm32g0xx_hal_flash_ex.c ****   assert_param(IS_FLASH_BANK(Banks));
 530:Drivers/STM32G0xx_HAL_Driver/Src/stm32g0xx_hal_flash_ex.c **** 
 531:Drivers/STM32G0xx_HAL_Driver/Src/stm32g0xx_hal_flash_ex.c ****   if (Banks == (FLASH_BANK_2  | FLASH_BANK_1))
 532:Drivers/STM32G0xx_HAL_Driver/Src/stm32g0xx_hal_flash_ex.c ****   {
 533:Drivers/STM32G0xx_HAL_Driver/Src/stm32g0xx_hal_flash_ex.c ****     FLASH->CR |= (FLASH_CR_SEC_PROT2 | FLASH_CR_SEC_PROT);
 534:Drivers/STM32G0xx_HAL_Driver/Src/stm32g0xx_hal_flash_ex.c ****   }
 535:Drivers/STM32G0xx_HAL_Driver/Src/stm32g0xx_hal_flash_ex.c ****   else if (Banks == FLASH_BANK_2)
 536:Drivers/STM32G0xx_HAL_Driver/Src/stm32g0xx_hal_flash_ex.c ****   {
 537:Drivers/STM32G0xx_HAL_Driver/Src/stm32g0xx_hal_flash_ex.c ****     FLASH->CR |= FLASH_CR_SEC_PROT2;
 538:Drivers/STM32G0xx_HAL_Driver/Src/stm32g0xx_hal_flash_ex.c ****   }
 539:Drivers/STM32G0xx_HAL_Driver/Src/stm32g0xx_hal_flash_ex.c ****   else
 540:Drivers/STM32G0xx_HAL_Driver/Src/stm32g0xx_hal_flash_ex.c **** #else
 541:Drivers/STM32G0xx_HAL_Driver/Src/stm32g0xx_hal_flash_ex.c ****   UNUSED(Banks);
 542:Drivers/STM32G0xx_HAL_Driver/Src/stm32g0xx_hal_flash_ex.c **** #endif /* FLASH_DBANK_SUPPORT */
 543:Drivers/STM32G0xx_HAL_Driver/Src/stm32g0xx_hal_flash_ex.c ****   {
 544:Drivers/STM32G0xx_HAL_Driver/Src/stm32g0xx_hal_flash_ex.c ****     FLASH->CR |= FLASH_CR_SEC_PROT;
 545:Drivers/STM32G0xx_HAL_Driver/Src/stm32g0xx_hal_flash_ex.c ****   }
ARM GAS  /tmp/ccdudAn5.s 			page 11


 546:Drivers/STM32G0xx_HAL_Driver/Src/stm32g0xx_hal_flash_ex.c **** }
 547:Drivers/STM32G0xx_HAL_Driver/Src/stm32g0xx_hal_flash_ex.c **** #endif /* FLASH_SECURABLE_MEMORY_SUPPORT */
 548:Drivers/STM32G0xx_HAL_Driver/Src/stm32g0xx_hal_flash_ex.c **** /**
 549:Drivers/STM32G0xx_HAL_Driver/Src/stm32g0xx_hal_flash_ex.c ****   * @}
 550:Drivers/STM32G0xx_HAL_Driver/Src/stm32g0xx_hal_flash_ex.c ****   */
 551:Drivers/STM32G0xx_HAL_Driver/Src/stm32g0xx_hal_flash_ex.c **** 
 552:Drivers/STM32G0xx_HAL_Driver/Src/stm32g0xx_hal_flash_ex.c **** /**
 553:Drivers/STM32G0xx_HAL_Driver/Src/stm32g0xx_hal_flash_ex.c ****   * @}
 554:Drivers/STM32G0xx_HAL_Driver/Src/stm32g0xx_hal_flash_ex.c ****   */
 555:Drivers/STM32G0xx_HAL_Driver/Src/stm32g0xx_hal_flash_ex.c **** 
 556:Drivers/STM32G0xx_HAL_Driver/Src/stm32g0xx_hal_flash_ex.c **** /* Private functions ---------------------------------------------------------*/
 557:Drivers/STM32G0xx_HAL_Driver/Src/stm32g0xx_hal_flash_ex.c **** /** @addtogroup FLASHEx_Private_Functions
 558:Drivers/STM32G0xx_HAL_Driver/Src/stm32g0xx_hal_flash_ex.c ****   * @{
 559:Drivers/STM32G0xx_HAL_Driver/Src/stm32g0xx_hal_flash_ex.c ****   */
 560:Drivers/STM32G0xx_HAL_Driver/Src/stm32g0xx_hal_flash_ex.c **** 
 561:Drivers/STM32G0xx_HAL_Driver/Src/stm32g0xx_hal_flash_ex.c **** /**
 562:Drivers/STM32G0xx_HAL_Driver/Src/stm32g0xx_hal_flash_ex.c ****   * @brief  Mass erase of FLASH memory.
 563:Drivers/STM32G0xx_HAL_Driver/Src/stm32g0xx_hal_flash_ex.c ****   * @param  Banks: Banks to be erased
 564:Drivers/STM32G0xx_HAL_Driver/Src/stm32g0xx_hal_flash_ex.c ****   *         This parameter can be a combination of the following values:
 565:Drivers/STM32G0xx_HAL_Driver/Src/stm32g0xx_hal_flash_ex.c ****   *            @arg FLASH_BANK_1: Bank1 to be erased
 566:Drivers/STM32G0xx_HAL_Driver/Src/stm32g0xx_hal_flash_ex.c ****   *            @arg FLASH_BANK_2: Bank2 to be erased*
 567:Drivers/STM32G0xx_HAL_Driver/Src/stm32g0xx_hal_flash_ex.c ****   * @note (*) availability depends on devices
 568:Drivers/STM32G0xx_HAL_Driver/Src/stm32g0xx_hal_flash_ex.c ****   * @retval None
 569:Drivers/STM32G0xx_HAL_Driver/Src/stm32g0xx_hal_flash_ex.c ****   */
 570:Drivers/STM32G0xx_HAL_Driver/Src/stm32g0xx_hal_flash_ex.c **** static void FLASH_MassErase(uint32_t Banks)
 571:Drivers/STM32G0xx_HAL_Driver/Src/stm32g0xx_hal_flash_ex.c **** {
  27              		.loc 1 571 1 view -0
  28              		.cfi_startproc
  29              		@ args = 0, pretend = 0, frame = 0
  30              		@ frame_needed = 0, uses_anonymous_args = 0
  31              		@ link register save eliminated.
 572:Drivers/STM32G0xx_HAL_Driver/Src/stm32g0xx_hal_flash_ex.c ****   /* Check the parameters */
 573:Drivers/STM32G0xx_HAL_Driver/Src/stm32g0xx_hal_flash_ex.c ****   assert_param(IS_FLASH_BANK(Banks));
  32              		.loc 1 573 3 view .LVU1
 574:Drivers/STM32G0xx_HAL_Driver/Src/stm32g0xx_hal_flash_ex.c **** 
 575:Drivers/STM32G0xx_HAL_Driver/Src/stm32g0xx_hal_flash_ex.c ****   /* Set the Mass Erase Bit and start bit */
 576:Drivers/STM32G0xx_HAL_Driver/Src/stm32g0xx_hal_flash_ex.c ****   FLASH->CR |= (FLASH_CR_STRT | Banks);
  33              		.loc 1 576 3 view .LVU2
  34              		.loc 1 576 13 is_stmt 0 view .LVU3
  35 0000 034A     		ldr	r2, .L2
  36 0002 5369     		ldr	r3, [r2, #20]
  37 0004 0343     		orrs	r3, r0
  38 0006 8020     		movs	r0, #128
  39              	.LVL1:
  40              		.loc 1 576 13 view .LVU4
  41 0008 4002     		lsls	r0, r0, #9
  42 000a 1843     		orrs	r0, r3
  43 000c 5061     		str	r0, [r2, #20]
 577:Drivers/STM32G0xx_HAL_Driver/Src/stm32g0xx_hal_flash_ex.c **** }
  44              		.loc 1 577 1 view .LVU5
  45              		@ sp needed
  46 000e 7047     		bx	lr
  47              	.L3:
  48              		.align	2
  49              	.L2:
  50 0010 00200240 		.word	1073881088
  51              		.cfi_endproc
ARM GAS  /tmp/ccdudAn5.s 			page 12


  52              	.LFE367:
  54              		.section	.text.FLASH_OB_WRPConfig,"ax",%progbits
  55              		.align	1
  56              		.syntax unified
  57              		.code	16
  58              		.thumb_func
  59              		.fpu softvfp
  61              	FLASH_OB_WRPConfig:
  62              	.LVL2:
  63              	.LFB370:
 578:Drivers/STM32G0xx_HAL_Driver/Src/stm32g0xx_hal_flash_ex.c **** 
 579:Drivers/STM32G0xx_HAL_Driver/Src/stm32g0xx_hal_flash_ex.c **** /**
 580:Drivers/STM32G0xx_HAL_Driver/Src/stm32g0xx_hal_flash_ex.c ****   * @brief  Erase the specified FLASH memory page.
 581:Drivers/STM32G0xx_HAL_Driver/Src/stm32g0xx_hal_flash_ex.c ****   * @param  Banks: Banks to be erased
 582:Drivers/STM32G0xx_HAL_Driver/Src/stm32g0xx_hal_flash_ex.c ****   *         This parameter can one of the following values:
 583:Drivers/STM32G0xx_HAL_Driver/Src/stm32g0xx_hal_flash_ex.c ****   *            @arg FLASH_BANK_1: Bank1 to be erased
 584:Drivers/STM32G0xx_HAL_Driver/Src/stm32g0xx_hal_flash_ex.c ****   *            @arg FLASH_BANK_2: Bank2 to be erased*
 585:Drivers/STM32G0xx_HAL_Driver/Src/stm32g0xx_hal_flash_ex.c ****   * @param  Page FLASH page to erase
 586:Drivers/STM32G0xx_HAL_Driver/Src/stm32g0xx_hal_flash_ex.c ****   *         This parameter must be a value between 0 and (max number of pages in Flash - 1)
 587:Drivers/STM32G0xx_HAL_Driver/Src/stm32g0xx_hal_flash_ex.c ****   * @note (*) availability depends on devices
 588:Drivers/STM32G0xx_HAL_Driver/Src/stm32g0xx_hal_flash_ex.c ****   * @retval None
 589:Drivers/STM32G0xx_HAL_Driver/Src/stm32g0xx_hal_flash_ex.c ****   */
 590:Drivers/STM32G0xx_HAL_Driver/Src/stm32g0xx_hal_flash_ex.c **** void FLASH_PageErase(uint32_t Banks, uint32_t Page)
 591:Drivers/STM32G0xx_HAL_Driver/Src/stm32g0xx_hal_flash_ex.c **** {
 592:Drivers/STM32G0xx_HAL_Driver/Src/stm32g0xx_hal_flash_ex.c ****   uint32_t tmp;
 593:Drivers/STM32G0xx_HAL_Driver/Src/stm32g0xx_hal_flash_ex.c **** 
 594:Drivers/STM32G0xx_HAL_Driver/Src/stm32g0xx_hal_flash_ex.c ****   /* Check the parameters */
 595:Drivers/STM32G0xx_HAL_Driver/Src/stm32g0xx_hal_flash_ex.c ****   assert_param(IS_FLASH_BANK(Banks));
 596:Drivers/STM32G0xx_HAL_Driver/Src/stm32g0xx_hal_flash_ex.c ****   assert_param(IS_FLASH_PAGE(Page));
 597:Drivers/STM32G0xx_HAL_Driver/Src/stm32g0xx_hal_flash_ex.c **** 
 598:Drivers/STM32G0xx_HAL_Driver/Src/stm32g0xx_hal_flash_ex.c ****   /* Get configuration register, then clear page number */
 599:Drivers/STM32G0xx_HAL_Driver/Src/stm32g0xx_hal_flash_ex.c ****   tmp = (FLASH->CR & ~FLASH_CR_PNB);
 600:Drivers/STM32G0xx_HAL_Driver/Src/stm32g0xx_hal_flash_ex.c **** 
 601:Drivers/STM32G0xx_HAL_Driver/Src/stm32g0xx_hal_flash_ex.c **** #if defined(FLASH_DBANK_SUPPORT)
 602:Drivers/STM32G0xx_HAL_Driver/Src/stm32g0xx_hal_flash_ex.c ****   /* Check if page has to be erased in bank 1 or 2 */
 603:Drivers/STM32G0xx_HAL_Driver/Src/stm32g0xx_hal_flash_ex.c ****   if (Banks != FLASH_BANK_1)
 604:Drivers/STM32G0xx_HAL_Driver/Src/stm32g0xx_hal_flash_ex.c ****   {
 605:Drivers/STM32G0xx_HAL_Driver/Src/stm32g0xx_hal_flash_ex.c ****     tmp |= FLASH_CR_BKER;
 606:Drivers/STM32G0xx_HAL_Driver/Src/stm32g0xx_hal_flash_ex.c ****   }
 607:Drivers/STM32G0xx_HAL_Driver/Src/stm32g0xx_hal_flash_ex.c ****   else
 608:Drivers/STM32G0xx_HAL_Driver/Src/stm32g0xx_hal_flash_ex.c ****   {
 609:Drivers/STM32G0xx_HAL_Driver/Src/stm32g0xx_hal_flash_ex.c ****     tmp &= ~FLASH_CR_BKER;
 610:Drivers/STM32G0xx_HAL_Driver/Src/stm32g0xx_hal_flash_ex.c ****   }
 611:Drivers/STM32G0xx_HAL_Driver/Src/stm32g0xx_hal_flash_ex.c **** #endif /* FLASH_DBANK_SUPPORT */
 612:Drivers/STM32G0xx_HAL_Driver/Src/stm32g0xx_hal_flash_ex.c **** 
 613:Drivers/STM32G0xx_HAL_Driver/Src/stm32g0xx_hal_flash_ex.c ****   /* Set page number, Page Erase bit & Start bit */
 614:Drivers/STM32G0xx_HAL_Driver/Src/stm32g0xx_hal_flash_ex.c ****   FLASH->CR = (tmp | (FLASH_CR_STRT | (Page <<  FLASH_CR_PNB_Pos) | FLASH_CR_PER));
 615:Drivers/STM32G0xx_HAL_Driver/Src/stm32g0xx_hal_flash_ex.c **** }
 616:Drivers/STM32G0xx_HAL_Driver/Src/stm32g0xx_hal_flash_ex.c **** 
 617:Drivers/STM32G0xx_HAL_Driver/Src/stm32g0xx_hal_flash_ex.c **** /**
 618:Drivers/STM32G0xx_HAL_Driver/Src/stm32g0xx_hal_flash_ex.c ****   * @brief  Flush the instruction cache.
 619:Drivers/STM32G0xx_HAL_Driver/Src/stm32g0xx_hal_flash_ex.c ****   * @retval None
 620:Drivers/STM32G0xx_HAL_Driver/Src/stm32g0xx_hal_flash_ex.c ****   */
 621:Drivers/STM32G0xx_HAL_Driver/Src/stm32g0xx_hal_flash_ex.c **** void FLASH_FlushCaches(void)
 622:Drivers/STM32G0xx_HAL_Driver/Src/stm32g0xx_hal_flash_ex.c **** {
 623:Drivers/STM32G0xx_HAL_Driver/Src/stm32g0xx_hal_flash_ex.c ****   /* Flush instruction cache  */
 624:Drivers/STM32G0xx_HAL_Driver/Src/stm32g0xx_hal_flash_ex.c ****   if (READ_BIT(FLASH->ACR, FLASH_ACR_ICEN) != 0U)
ARM GAS  /tmp/ccdudAn5.s 			page 13


 625:Drivers/STM32G0xx_HAL_Driver/Src/stm32g0xx_hal_flash_ex.c ****   {
 626:Drivers/STM32G0xx_HAL_Driver/Src/stm32g0xx_hal_flash_ex.c ****     /* Disable instruction cache  */
 627:Drivers/STM32G0xx_HAL_Driver/Src/stm32g0xx_hal_flash_ex.c ****     __HAL_FLASH_INSTRUCTION_CACHE_DISABLE();
 628:Drivers/STM32G0xx_HAL_Driver/Src/stm32g0xx_hal_flash_ex.c ****     /* Reset instruction cache */
 629:Drivers/STM32G0xx_HAL_Driver/Src/stm32g0xx_hal_flash_ex.c ****     __HAL_FLASH_INSTRUCTION_CACHE_RESET();
 630:Drivers/STM32G0xx_HAL_Driver/Src/stm32g0xx_hal_flash_ex.c ****     /* Enable instruction cache */
 631:Drivers/STM32G0xx_HAL_Driver/Src/stm32g0xx_hal_flash_ex.c ****     __HAL_FLASH_INSTRUCTION_CACHE_ENABLE();
 632:Drivers/STM32G0xx_HAL_Driver/Src/stm32g0xx_hal_flash_ex.c ****   }
 633:Drivers/STM32G0xx_HAL_Driver/Src/stm32g0xx_hal_flash_ex.c **** }
 634:Drivers/STM32G0xx_HAL_Driver/Src/stm32g0xx_hal_flash_ex.c **** 
 635:Drivers/STM32G0xx_HAL_Driver/Src/stm32g0xx_hal_flash_ex.c **** 
 636:Drivers/STM32G0xx_HAL_Driver/Src/stm32g0xx_hal_flash_ex.c **** /**
 637:Drivers/STM32G0xx_HAL_Driver/Src/stm32g0xx_hal_flash_ex.c ****   * @brief  Configure the write protection of the desired pages.
 638:Drivers/STM32G0xx_HAL_Driver/Src/stm32g0xx_hal_flash_ex.c ****   * @note   When WRP is active in a zone, it cannot be erased or programmed.
 639:Drivers/STM32G0xx_HAL_Driver/Src/stm32g0xx_hal_flash_ex.c ****   *         Consequently, a software mass erase cannot be performed if one zone
 640:Drivers/STM32G0xx_HAL_Driver/Src/stm32g0xx_hal_flash_ex.c ****   *         is write-protected.
 641:Drivers/STM32G0xx_HAL_Driver/Src/stm32g0xx_hal_flash_ex.c ****   * @note   When the memory read protection level is selected (RDP level = 1),
 642:Drivers/STM32G0xx_HAL_Driver/Src/stm32g0xx_hal_flash_ex.c ****   *         it is not possible to program or erase Flash memory if the CPU debug
 643:Drivers/STM32G0xx_HAL_Driver/Src/stm32g0xx_hal_flash_ex.c ****   *         features are connected (JTAG or single wire) or boot code is being
 644:Drivers/STM32G0xx_HAL_Driver/Src/stm32g0xx_hal_flash_ex.c ****   *         executed from RAM or System flash, even if WRP is not activated.
 645:Drivers/STM32G0xx_HAL_Driver/Src/stm32g0xx_hal_flash_ex.c ****   * @param  WRPArea  Specifies the area to be configured.
 646:Drivers/STM32G0xx_HAL_Driver/Src/stm32g0xx_hal_flash_ex.c ****   *         This parameter can be one of the following values:
 647:Drivers/STM32G0xx_HAL_Driver/Src/stm32g0xx_hal_flash_ex.c ****   *           @arg @ref OB_WRPAREA_ZONE_A Flash Zone A
 648:Drivers/STM32G0xx_HAL_Driver/Src/stm32g0xx_hal_flash_ex.c ****   *           @arg @ref OB_WRPAREA_ZONE_B Flash Zone B
 649:Drivers/STM32G0xx_HAL_Driver/Src/stm32g0xx_hal_flash_ex.c ****   *           @arg @ref OB_WRPAREA_ZONE2_A Flash Bank 2 Zone A (*)
 650:Drivers/STM32G0xx_HAL_Driver/Src/stm32g0xx_hal_flash_ex.c ****   *           @arg @ref OB_WRPAREA_ZONE2_B Flash Bank 2 Zone B (*)
 651:Drivers/STM32G0xx_HAL_Driver/Src/stm32g0xx_hal_flash_ex.c ****   * @note  (*) availability depends on devices
 652:Drivers/STM32G0xx_HAL_Driver/Src/stm32g0xx_hal_flash_ex.c ****   * @param  WRPStartOffset  Specifies the start page of the write protected area
 653:Drivers/STM32G0xx_HAL_Driver/Src/stm32g0xx_hal_flash_ex.c ****   *         This parameter can be page number between 0 and (max number of pages in the Flash Bank 
 654:Drivers/STM32G0xx_HAL_Driver/Src/stm32g0xx_hal_flash_ex.c ****   * @param  WRDPEndOffset  Specifies the end page of the write protected area
 655:Drivers/STM32G0xx_HAL_Driver/Src/stm32g0xx_hal_flash_ex.c ****   *         This parameter can be page number between WRPStartOffset and (max number of pages in th
 656:Drivers/STM32G0xx_HAL_Driver/Src/stm32g0xx_hal_flash_ex.c ****   * @retval None
 657:Drivers/STM32G0xx_HAL_Driver/Src/stm32g0xx_hal_flash_ex.c ****   */
 658:Drivers/STM32G0xx_HAL_Driver/Src/stm32g0xx_hal_flash_ex.c **** static void FLASH_OB_WRPConfig(uint32_t WRPArea, uint32_t WRPStartOffset, uint32_t WRDPEndOffset)
 659:Drivers/STM32G0xx_HAL_Driver/Src/stm32g0xx_hal_flash_ex.c **** {
  64              		.loc 1 659 1 is_stmt 1 view -0
  65              		.cfi_startproc
  66              		@ args = 0, pretend = 0, frame = 0
  67              		@ frame_needed = 0, uses_anonymous_args = 0
  68              		@ link register save eliminated.
 660:Drivers/STM32G0xx_HAL_Driver/Src/stm32g0xx_hal_flash_ex.c ****   /* Check the parameters */
 661:Drivers/STM32G0xx_HAL_Driver/Src/stm32g0xx_hal_flash_ex.c ****   assert_param(IS_OB_WRPAREA(WRPArea));
  69              		.loc 1 661 3 view .LVU7
 662:Drivers/STM32G0xx_HAL_Driver/Src/stm32g0xx_hal_flash_ex.c ****   assert_param(IS_FLASH_PAGE(WRPStartOffset));
  70              		.loc 1 662 3 view .LVU8
 663:Drivers/STM32G0xx_HAL_Driver/Src/stm32g0xx_hal_flash_ex.c ****   assert_param(IS_FLASH_PAGE(WRDPEndOffset));
  71              		.loc 1 663 3 view .LVU9
 664:Drivers/STM32G0xx_HAL_Driver/Src/stm32g0xx_hal_flash_ex.c **** 
 665:Drivers/STM32G0xx_HAL_Driver/Src/stm32g0xx_hal_flash_ex.c ****   /* Configure the write protected area */
 666:Drivers/STM32G0xx_HAL_Driver/Src/stm32g0xx_hal_flash_ex.c ****   if (WRPArea == OB_WRPAREA_ZONE_A)
  72              		.loc 1 666 3 view .LVU10
  73              		.loc 1 666 6 is_stmt 0 view .LVU11
  74 0000 0128     		cmp	r0, #1
  75 0002 08D0     		beq	.L9
 667:Drivers/STM32G0xx_HAL_Driver/Src/stm32g0xx_hal_flash_ex.c ****   {
 668:Drivers/STM32G0xx_HAL_Driver/Src/stm32g0xx_hal_flash_ex.c ****     FLASH->WRP1AR = ((WRDPEndOffset << FLASH_WRP1AR_WRP1A_END_Pos) | WRPStartOffset);
 669:Drivers/STM32G0xx_HAL_Driver/Src/stm32g0xx_hal_flash_ex.c ****   }
ARM GAS  /tmp/ccdudAn5.s 			page 14


 670:Drivers/STM32G0xx_HAL_Driver/Src/stm32g0xx_hal_flash_ex.c **** #if defined(FLASH_DBANK_SUPPORT)
 671:Drivers/STM32G0xx_HAL_Driver/Src/stm32g0xx_hal_flash_ex.c ****   else if (WRPArea == OB_WRPAREA_ZONE2_A)
  76              		.loc 1 671 8 is_stmt 1 view .LVU12
  77              		.loc 1 671 11 is_stmt 0 view .LVU13
  78 0004 0428     		cmp	r0, #4
  79 0006 0BD0     		beq	.L10
 672:Drivers/STM32G0xx_HAL_Driver/Src/stm32g0xx_hal_flash_ex.c ****   {
 673:Drivers/STM32G0xx_HAL_Driver/Src/stm32g0xx_hal_flash_ex.c ****     FLASH->WRP2AR = ((WRDPEndOffset << FLASH_WRP2AR_WRP2A_END_Pos) | WRPStartOffset);
 674:Drivers/STM32G0xx_HAL_Driver/Src/stm32g0xx_hal_flash_ex.c ****   }
 675:Drivers/STM32G0xx_HAL_Driver/Src/stm32g0xx_hal_flash_ex.c ****   else if (WRPArea == OB_WRPAREA_ZONE2_B)
  80              		.loc 1 675 8 is_stmt 1 view .LVU14
  81              		.loc 1 675 11 is_stmt 0 view .LVU15
  82 0008 0828     		cmp	r0, #8
  83 000a 0ED0     		beq	.L11
 676:Drivers/STM32G0xx_HAL_Driver/Src/stm32g0xx_hal_flash_ex.c ****   {
 677:Drivers/STM32G0xx_HAL_Driver/Src/stm32g0xx_hal_flash_ex.c ****     FLASH->WRP2BR = ((WRDPEndOffset << FLASH_WRP2BR_WRP2B_END_Pos) | WRPStartOffset);
 678:Drivers/STM32G0xx_HAL_Driver/Src/stm32g0xx_hal_flash_ex.c ****   }
 679:Drivers/STM32G0xx_HAL_Driver/Src/stm32g0xx_hal_flash_ex.c **** #endif /* FLASH_DBANK_SUPPORT */
 680:Drivers/STM32G0xx_HAL_Driver/Src/stm32g0xx_hal_flash_ex.c ****   else
 681:Drivers/STM32G0xx_HAL_Driver/Src/stm32g0xx_hal_flash_ex.c ****   {
 682:Drivers/STM32G0xx_HAL_Driver/Src/stm32g0xx_hal_flash_ex.c ****     FLASH->WRP1BR = ((WRDPEndOffset << FLASH_WRP1BR_WRP1B_END_Pos) | WRPStartOffset);
  84              		.loc 1 682 5 is_stmt 1 view .LVU16
  85              		.loc 1 682 37 is_stmt 0 view .LVU17
  86 000c 1204     		lsls	r2, r2, #16
  87              	.LVL3:
  88              		.loc 1 682 68 view .LVU18
  89 000e 0A43     		orrs	r2, r1
  90              		.loc 1 682 19 view .LVU19
  91 0010 084B     		ldr	r3, .L12
  92 0012 1A63     		str	r2, [r3, #48]
 683:Drivers/STM32G0xx_HAL_Driver/Src/stm32g0xx_hal_flash_ex.c ****   }
 684:Drivers/STM32G0xx_HAL_Driver/Src/stm32g0xx_hal_flash_ex.c **** }
  93              		.loc 1 684 1 view .LVU20
  94 0014 03E0     		b	.L4
  95              	.LVL4:
  96              	.L9:
 668:Drivers/STM32G0xx_HAL_Driver/Src/stm32g0xx_hal_flash_ex.c ****   }
  97              		.loc 1 668 5 is_stmt 1 view .LVU21
 668:Drivers/STM32G0xx_HAL_Driver/Src/stm32g0xx_hal_flash_ex.c ****   }
  98              		.loc 1 668 37 is_stmt 0 view .LVU22
  99 0016 1204     		lsls	r2, r2, #16
 100              	.LVL5:
 668:Drivers/STM32G0xx_HAL_Driver/Src/stm32g0xx_hal_flash_ex.c ****   }
 101              		.loc 1 668 68 view .LVU23
 102 0018 0A43     		orrs	r2, r1
 668:Drivers/STM32G0xx_HAL_Driver/Src/stm32g0xx_hal_flash_ex.c ****   }
 103              		.loc 1 668 19 view .LVU24
 104 001a 064B     		ldr	r3, .L12
 105 001c DA62     		str	r2, [r3, #44]
 106              	.L4:
 107              		.loc 1 684 1 view .LVU25
 108              		@ sp needed
 109 001e 7047     		bx	lr
 110              	.LVL6:
 111              	.L10:
 673:Drivers/STM32G0xx_HAL_Driver/Src/stm32g0xx_hal_flash_ex.c ****   }
 112              		.loc 1 673 5 is_stmt 1 view .LVU26
ARM GAS  /tmp/ccdudAn5.s 			page 15


 673:Drivers/STM32G0xx_HAL_Driver/Src/stm32g0xx_hal_flash_ex.c ****   }
 113              		.loc 1 673 37 is_stmt 0 view .LVU27
 114 0020 1204     		lsls	r2, r2, #16
 115              	.LVL7:
 673:Drivers/STM32G0xx_HAL_Driver/Src/stm32g0xx_hal_flash_ex.c ****   }
 116              		.loc 1 673 68 view .LVU28
 117 0022 0A43     		orrs	r2, r1
 673:Drivers/STM32G0xx_HAL_Driver/Src/stm32g0xx_hal_flash_ex.c ****   }
 118              		.loc 1 673 19 view .LVU29
 119 0024 034B     		ldr	r3, .L12
 120 0026 DA64     		str	r2, [r3, #76]
 121 0028 F9E7     		b	.L4
 122              	.LVL8:
 123              	.L11:
 677:Drivers/STM32G0xx_HAL_Driver/Src/stm32g0xx_hal_flash_ex.c ****   }
 124              		.loc 1 677 5 is_stmt 1 view .LVU30
 677:Drivers/STM32G0xx_HAL_Driver/Src/stm32g0xx_hal_flash_ex.c ****   }
 125              		.loc 1 677 37 is_stmt 0 view .LVU31
 126 002a 1204     		lsls	r2, r2, #16
 127              	.LVL9:
 677:Drivers/STM32G0xx_HAL_Driver/Src/stm32g0xx_hal_flash_ex.c ****   }
 128              		.loc 1 677 68 view .LVU32
 129 002c 0A43     		orrs	r2, r1
 677:Drivers/STM32G0xx_HAL_Driver/Src/stm32g0xx_hal_flash_ex.c ****   }
 130              		.loc 1 677 19 view .LVU33
 131 002e 014B     		ldr	r3, .L12
 132 0030 1A65     		str	r2, [r3, #80]
 133 0032 F4E7     		b	.L4
 134              	.L13:
 135              		.align	2
 136              	.L12:
 137 0034 00200240 		.word	1073881088
 138              		.cfi_endproc
 139              	.LFE370:
 141              		.section	.text.FLASH_OB_GetWRP,"ax",%progbits
 142              		.align	1
 143              		.syntax unified
 144              		.code	16
 145              		.thumb_func
 146              		.fpu softvfp
 148              	FLASH_OB_GetWRP:
 149              	.LVL10:
 150              	.LFB371:
 685:Drivers/STM32G0xx_HAL_Driver/Src/stm32g0xx_hal_flash_ex.c **** 
 686:Drivers/STM32G0xx_HAL_Driver/Src/stm32g0xx_hal_flash_ex.c **** /**
 687:Drivers/STM32G0xx_HAL_Driver/Src/stm32g0xx_hal_flash_ex.c ****   * @brief  Return the FLASH Write Protection Option Bytes value.
 688:Drivers/STM32G0xx_HAL_Driver/Src/stm32g0xx_hal_flash_ex.c ****   * @param[in]  WRPArea Specifies the area to be returned.
 689:Drivers/STM32G0xx_HAL_Driver/Src/stm32g0xx_hal_flash_ex.c ****   *             This parameter can be one of the following values:
 690:Drivers/STM32G0xx_HAL_Driver/Src/stm32g0xx_hal_flash_ex.c ****   *               @arg @ref OB_WRPAREA_ZONE_A Flash Zone A
 691:Drivers/STM32G0xx_HAL_Driver/Src/stm32g0xx_hal_flash_ex.c ****   *               @arg @ref OB_WRPAREA_ZONE_B Flash Zone B
 692:Drivers/STM32G0xx_HAL_Driver/Src/stm32g0xx_hal_flash_ex.c ****   *               @arg @ref OB_WRPAREA_ZONE2_A Flash Bank 2 Zone A (*)
 693:Drivers/STM32G0xx_HAL_Driver/Src/stm32g0xx_hal_flash_ex.c ****   *               @arg @ref OB_WRPAREA_ZONE2_B Flash Bank 2 Zone B (*)
 694:Drivers/STM32G0xx_HAL_Driver/Src/stm32g0xx_hal_flash_ex.c ****   * @note  (*) availability depends on devices
 695:Drivers/STM32G0xx_HAL_Driver/Src/stm32g0xx_hal_flash_ex.c ****   * @param[out]  WRPStartOffset  Specifies the address where to copied the start page
 696:Drivers/STM32G0xx_HAL_Driver/Src/stm32g0xx_hal_flash_ex.c ****   *                         of the write protected area
 697:Drivers/STM32G0xx_HAL_Driver/Src/stm32g0xx_hal_flash_ex.c ****   * @param[out]  WRDPEndOffset  Dpecifies the address where to copied the end page of
 698:Drivers/STM32G0xx_HAL_Driver/Src/stm32g0xx_hal_flash_ex.c ****   *                        the write protected area
ARM GAS  /tmp/ccdudAn5.s 			page 16


 699:Drivers/STM32G0xx_HAL_Driver/Src/stm32g0xx_hal_flash_ex.c ****   * @retval None
 700:Drivers/STM32G0xx_HAL_Driver/Src/stm32g0xx_hal_flash_ex.c ****   */
 701:Drivers/STM32G0xx_HAL_Driver/Src/stm32g0xx_hal_flash_ex.c **** static void FLASH_OB_GetWRP(uint32_t WRPArea, uint32_t *WRPStartOffset, uint32_t *WRDPEndOffset)
 702:Drivers/STM32G0xx_HAL_Driver/Src/stm32g0xx_hal_flash_ex.c **** {
 151              		.loc 1 702 1 is_stmt 1 view -0
 152              		.cfi_startproc
 153              		@ args = 0, pretend = 0, frame = 0
 154              		@ frame_needed = 0, uses_anonymous_args = 0
 155              		.loc 1 702 1 is_stmt 0 view .LVU35
 156 0000 10B5     		push	{r4, lr}
 157              	.LCFI0:
 158              		.cfi_def_cfa_offset 8
 159              		.cfi_offset 4, -8
 160              		.cfi_offset 14, -4
 703:Drivers/STM32G0xx_HAL_Driver/Src/stm32g0xx_hal_flash_ex.c ****   /* Check the parameters */
 704:Drivers/STM32G0xx_HAL_Driver/Src/stm32g0xx_hal_flash_ex.c ****   assert_param(IS_OB_WRPAREA(WRPArea));
 161              		.loc 1 704 3 is_stmt 1 view .LVU36
 705:Drivers/STM32G0xx_HAL_Driver/Src/stm32g0xx_hal_flash_ex.c **** 
 706:Drivers/STM32G0xx_HAL_Driver/Src/stm32g0xx_hal_flash_ex.c ****   /* Get the configuration of the write protected area */
 707:Drivers/STM32G0xx_HAL_Driver/Src/stm32g0xx_hal_flash_ex.c ****   if (WRPArea == OB_WRPAREA_ZONE_A)
 162              		.loc 1 707 3 view .LVU37
 163              		.loc 1 707 6 is_stmt 0 view .LVU38
 164 0002 0128     		cmp	r0, #1
 165 0004 0DD0     		beq	.L19
 708:Drivers/STM32G0xx_HAL_Driver/Src/stm32g0xx_hal_flash_ex.c ****   {
 709:Drivers/STM32G0xx_HAL_Driver/Src/stm32g0xx_hal_flash_ex.c ****     *WRPStartOffset = READ_BIT(FLASH->WRP1AR, FLASH_WRP1AR_WRP1A_STRT);
 710:Drivers/STM32G0xx_HAL_Driver/Src/stm32g0xx_hal_flash_ex.c ****     *WRDPEndOffset = (READ_BIT(FLASH->WRP1AR, FLASH_WRP1AR_WRP1A_END) >> FLASH_WRP1AR_WRP1A_END_Pos
 711:Drivers/STM32G0xx_HAL_Driver/Src/stm32g0xx_hal_flash_ex.c ****   }
 712:Drivers/STM32G0xx_HAL_Driver/Src/stm32g0xx_hal_flash_ex.c **** #if defined(FLASH_DBANK_SUPPORT)
 713:Drivers/STM32G0xx_HAL_Driver/Src/stm32g0xx_hal_flash_ex.c ****   else if (WRPArea == OB_WRPAREA_ZONE2_A)
 166              		.loc 1 713 8 is_stmt 1 view .LVU39
 167              		.loc 1 713 11 is_stmt 0 view .LVU40
 168 0006 0428     		cmp	r0, #4
 169 0008 15D0     		beq	.L20
 714:Drivers/STM32G0xx_HAL_Driver/Src/stm32g0xx_hal_flash_ex.c ****   {
 715:Drivers/STM32G0xx_HAL_Driver/Src/stm32g0xx_hal_flash_ex.c ****     *WRPStartOffset = READ_BIT(FLASH->WRP2AR, FLASH_WRP2AR_WRP2A_STRT);
 716:Drivers/STM32G0xx_HAL_Driver/Src/stm32g0xx_hal_flash_ex.c ****     *WRDPEndOffset = (READ_BIT(FLASH->WRP2AR, FLASH_WRP2AR_WRP2A_END) >> FLASH_WRP2AR_WRP2A_END_Pos
 717:Drivers/STM32G0xx_HAL_Driver/Src/stm32g0xx_hal_flash_ex.c ****   }
 718:Drivers/STM32G0xx_HAL_Driver/Src/stm32g0xx_hal_flash_ex.c ****   else if (WRPArea == OB_WRPAREA_ZONE2_B)
 170              		.loc 1 718 8 is_stmt 1 view .LVU41
 171              		.loc 1 718 11 is_stmt 0 view .LVU42
 172 000a 0828     		cmp	r0, #8
 173 000c 1DD0     		beq	.L21
 719:Drivers/STM32G0xx_HAL_Driver/Src/stm32g0xx_hal_flash_ex.c ****   {
 720:Drivers/STM32G0xx_HAL_Driver/Src/stm32g0xx_hal_flash_ex.c ****     *WRPStartOffset = READ_BIT(FLASH->WRP2BR, FLASH_WRP2BR_WRP2B_STRT);
 721:Drivers/STM32G0xx_HAL_Driver/Src/stm32g0xx_hal_flash_ex.c ****     *WRDPEndOffset = (READ_BIT(FLASH->WRP2BR, FLASH_WRP2BR_WRP2B_END) >> FLASH_WRP2BR_WRP2B_END_Pos
 722:Drivers/STM32G0xx_HAL_Driver/Src/stm32g0xx_hal_flash_ex.c ****   }
 723:Drivers/STM32G0xx_HAL_Driver/Src/stm32g0xx_hal_flash_ex.c **** #endif /* FLASH_DBANK_SUPPORT */
 724:Drivers/STM32G0xx_HAL_Driver/Src/stm32g0xx_hal_flash_ex.c ****   else
 725:Drivers/STM32G0xx_HAL_Driver/Src/stm32g0xx_hal_flash_ex.c ****   {
 726:Drivers/STM32G0xx_HAL_Driver/Src/stm32g0xx_hal_flash_ex.c ****     *WRPStartOffset = READ_BIT(FLASH->WRP1BR, FLASH_WRP1BR_WRP1B_STRT);
 174              		.loc 1 726 5 is_stmt 1 view .LVU43
 175              		.loc 1 726 23 is_stmt 0 view .LVU44
 176 000e 144C     		ldr	r4, .L22
 177 0010 206B     		ldr	r0, [r4, #48]
 178              	.LVL11:
 179              		.loc 1 726 23 view .LVU45
ARM GAS  /tmp/ccdudAn5.s 			page 17


 180 0012 7F23     		movs	r3, #127
 181 0014 1840     		ands	r0, r3
 182              		.loc 1 726 21 view .LVU46
 183 0016 0860     		str	r0, [r1]
 727:Drivers/STM32G0xx_HAL_Driver/Src/stm32g0xx_hal_flash_ex.c ****     *WRDPEndOffset = (READ_BIT(FLASH->WRP1BR, FLASH_WRP1BR_WRP1B_END) >> FLASH_WRP1BR_WRP1B_END_Pos
 184              		.loc 1 727 5 is_stmt 1 view .LVU47
 185              		.loc 1 727 23 is_stmt 0 view .LVU48
 186 0018 216B     		ldr	r1, [r4, #48]
 187              	.LVL12:
 188              		.loc 1 727 71 view .LVU49
 189 001a 090C     		lsrs	r1, r1, #16
 190 001c 0B40     		ands	r3, r1
 191              		.loc 1 727 20 view .LVU50
 192 001e 1360     		str	r3, [r2]
 728:Drivers/STM32G0xx_HAL_Driver/Src/stm32g0xx_hal_flash_ex.c ****   }
 729:Drivers/STM32G0xx_HAL_Driver/Src/stm32g0xx_hal_flash_ex.c **** }
 193              		.loc 1 729 1 view .LVU51
 194 0020 08E0     		b	.L14
 195              	.LVL13:
 196              	.L19:
 709:Drivers/STM32G0xx_HAL_Driver/Src/stm32g0xx_hal_flash_ex.c ****     *WRDPEndOffset = (READ_BIT(FLASH->WRP1AR, FLASH_WRP1AR_WRP1A_END) >> FLASH_WRP1AR_WRP1A_END_Pos
 197              		.loc 1 709 5 is_stmt 1 view .LVU52
 709:Drivers/STM32G0xx_HAL_Driver/Src/stm32g0xx_hal_flash_ex.c ****     *WRDPEndOffset = (READ_BIT(FLASH->WRP1AR, FLASH_WRP1AR_WRP1A_END) >> FLASH_WRP1AR_WRP1A_END_Pos
 198              		.loc 1 709 23 is_stmt 0 view .LVU53
 199 0022 0F4C     		ldr	r4, .L22
 200 0024 E06A     		ldr	r0, [r4, #44]
 201              	.LVL14:
 709:Drivers/STM32G0xx_HAL_Driver/Src/stm32g0xx_hal_flash_ex.c ****     *WRDPEndOffset = (READ_BIT(FLASH->WRP1AR, FLASH_WRP1AR_WRP1A_END) >> FLASH_WRP1AR_WRP1A_END_Pos
 202              		.loc 1 709 23 view .LVU54
 203 0026 7F23     		movs	r3, #127
 204 0028 1840     		ands	r0, r3
 709:Drivers/STM32G0xx_HAL_Driver/Src/stm32g0xx_hal_flash_ex.c ****     *WRDPEndOffset = (READ_BIT(FLASH->WRP1AR, FLASH_WRP1AR_WRP1A_END) >> FLASH_WRP1AR_WRP1A_END_Pos
 205              		.loc 1 709 21 view .LVU55
 206 002a 0860     		str	r0, [r1]
 710:Drivers/STM32G0xx_HAL_Driver/Src/stm32g0xx_hal_flash_ex.c ****   }
 207              		.loc 1 710 5 is_stmt 1 view .LVU56
 710:Drivers/STM32G0xx_HAL_Driver/Src/stm32g0xx_hal_flash_ex.c ****   }
 208              		.loc 1 710 23 is_stmt 0 view .LVU57
 209 002c E16A     		ldr	r1, [r4, #44]
 210              	.LVL15:
 710:Drivers/STM32G0xx_HAL_Driver/Src/stm32g0xx_hal_flash_ex.c ****   }
 211              		.loc 1 710 71 view .LVU58
 212 002e 090C     		lsrs	r1, r1, #16
 213 0030 0B40     		ands	r3, r1
 710:Drivers/STM32G0xx_HAL_Driver/Src/stm32g0xx_hal_flash_ex.c ****   }
 214              		.loc 1 710 20 view .LVU59
 215 0032 1360     		str	r3, [r2]
 216              	.L14:
 217              		.loc 1 729 1 view .LVU60
 218              		@ sp needed
 219 0034 10BD     		pop	{r4, pc}
 220              	.LVL16:
 221              	.L20:
 715:Drivers/STM32G0xx_HAL_Driver/Src/stm32g0xx_hal_flash_ex.c ****     *WRDPEndOffset = (READ_BIT(FLASH->WRP2AR, FLASH_WRP2AR_WRP2A_END) >> FLASH_WRP2AR_WRP2A_END_Pos
 222              		.loc 1 715 5 is_stmt 1 view .LVU61
 715:Drivers/STM32G0xx_HAL_Driver/Src/stm32g0xx_hal_flash_ex.c ****     *WRDPEndOffset = (READ_BIT(FLASH->WRP2AR, FLASH_WRP2AR_WRP2A_END) >> FLASH_WRP2AR_WRP2A_END_Pos
 223              		.loc 1 715 23 is_stmt 0 view .LVU62
ARM GAS  /tmp/ccdudAn5.s 			page 18


 224 0036 0A4C     		ldr	r4, .L22
 225 0038 E06C     		ldr	r0, [r4, #76]
 226              	.LVL17:
 715:Drivers/STM32G0xx_HAL_Driver/Src/stm32g0xx_hal_flash_ex.c ****     *WRDPEndOffset = (READ_BIT(FLASH->WRP2AR, FLASH_WRP2AR_WRP2A_END) >> FLASH_WRP2AR_WRP2A_END_Pos
 227              		.loc 1 715 23 view .LVU63
 228 003a 7F23     		movs	r3, #127
 229 003c 1840     		ands	r0, r3
 715:Drivers/STM32G0xx_HAL_Driver/Src/stm32g0xx_hal_flash_ex.c ****     *WRDPEndOffset = (READ_BIT(FLASH->WRP2AR, FLASH_WRP2AR_WRP2A_END) >> FLASH_WRP2AR_WRP2A_END_Pos
 230              		.loc 1 715 21 view .LVU64
 231 003e 0860     		str	r0, [r1]
 716:Drivers/STM32G0xx_HAL_Driver/Src/stm32g0xx_hal_flash_ex.c ****   }
 232              		.loc 1 716 5 is_stmt 1 view .LVU65
 716:Drivers/STM32G0xx_HAL_Driver/Src/stm32g0xx_hal_flash_ex.c ****   }
 233              		.loc 1 716 23 is_stmt 0 view .LVU66
 234 0040 E16C     		ldr	r1, [r4, #76]
 235              	.LVL18:
 716:Drivers/STM32G0xx_HAL_Driver/Src/stm32g0xx_hal_flash_ex.c ****   }
 236              		.loc 1 716 71 view .LVU67
 237 0042 090C     		lsrs	r1, r1, #16
 238 0044 0B40     		ands	r3, r1
 716:Drivers/STM32G0xx_HAL_Driver/Src/stm32g0xx_hal_flash_ex.c ****   }
 239              		.loc 1 716 20 view .LVU68
 240 0046 1360     		str	r3, [r2]
 241 0048 F4E7     		b	.L14
 242              	.LVL19:
 243              	.L21:
 720:Drivers/STM32G0xx_HAL_Driver/Src/stm32g0xx_hal_flash_ex.c ****     *WRDPEndOffset = (READ_BIT(FLASH->WRP2BR, FLASH_WRP2BR_WRP2B_END) >> FLASH_WRP2BR_WRP2B_END_Pos
 244              		.loc 1 720 5 is_stmt 1 view .LVU69
 720:Drivers/STM32G0xx_HAL_Driver/Src/stm32g0xx_hal_flash_ex.c ****     *WRDPEndOffset = (READ_BIT(FLASH->WRP2BR, FLASH_WRP2BR_WRP2B_END) >> FLASH_WRP2BR_WRP2B_END_Pos
 245              		.loc 1 720 23 is_stmt 0 view .LVU70
 246 004a 054C     		ldr	r4, .L22
 247 004c 206D     		ldr	r0, [r4, #80]
 248              	.LVL20:
 720:Drivers/STM32G0xx_HAL_Driver/Src/stm32g0xx_hal_flash_ex.c ****     *WRDPEndOffset = (READ_BIT(FLASH->WRP2BR, FLASH_WRP2BR_WRP2B_END) >> FLASH_WRP2BR_WRP2B_END_Pos
 249              		.loc 1 720 23 view .LVU71
 250 004e 7F23     		movs	r3, #127
 251 0050 1840     		ands	r0, r3
 720:Drivers/STM32G0xx_HAL_Driver/Src/stm32g0xx_hal_flash_ex.c ****     *WRDPEndOffset = (READ_BIT(FLASH->WRP2BR, FLASH_WRP2BR_WRP2B_END) >> FLASH_WRP2BR_WRP2B_END_Pos
 252              		.loc 1 720 21 view .LVU72
 253 0052 0860     		str	r0, [r1]
 721:Drivers/STM32G0xx_HAL_Driver/Src/stm32g0xx_hal_flash_ex.c ****   }
 254              		.loc 1 721 5 is_stmt 1 view .LVU73
 721:Drivers/STM32G0xx_HAL_Driver/Src/stm32g0xx_hal_flash_ex.c ****   }
 255              		.loc 1 721 23 is_stmt 0 view .LVU74
 256 0054 216D     		ldr	r1, [r4, #80]
 257              	.LVL21:
 721:Drivers/STM32G0xx_HAL_Driver/Src/stm32g0xx_hal_flash_ex.c ****   }
 258              		.loc 1 721 71 view .LVU75
 259 0056 090C     		lsrs	r1, r1, #16
 260 0058 0B40     		ands	r3, r1
 721:Drivers/STM32G0xx_HAL_Driver/Src/stm32g0xx_hal_flash_ex.c ****   }
 261              		.loc 1 721 20 view .LVU76
 262 005a 1360     		str	r3, [r2]
 263 005c EAE7     		b	.L14
 264              	.L23:
 265 005e C046     		.align	2
 266              	.L22:
ARM GAS  /tmp/ccdudAn5.s 			page 19


 267 0060 00200240 		.word	1073881088
 268              		.cfi_endproc
 269              	.LFE371:
 271              		.section	.text.FLASH_OB_OptrConfig,"ax",%progbits
 272              		.align	1
 273              		.syntax unified
 274              		.code	16
 275              		.thumb_func
 276              		.fpu softvfp
 278              	FLASH_OB_OptrConfig:
 279              	.LVL22:
 280              	.LFB372:
 730:Drivers/STM32G0xx_HAL_Driver/Src/stm32g0xx_hal_flash_ex.c **** 
 731:Drivers/STM32G0xx_HAL_Driver/Src/stm32g0xx_hal_flash_ex.c **** /**
 732:Drivers/STM32G0xx_HAL_Driver/Src/stm32g0xx_hal_flash_ex.c ****   * @brief  Set user & RDP configuration
 733:Drivers/STM32G0xx_HAL_Driver/Src/stm32g0xx_hal_flash_ex.c ****   * @note   !!! Warning : When enabling OB_RDP level 2 it is no more possible
 734:Drivers/STM32G0xx_HAL_Driver/Src/stm32g0xx_hal_flash_ex.c ****   *         to go back to level 1 or 0 !!!
 735:Drivers/STM32G0xx_HAL_Driver/Src/stm32g0xx_hal_flash_ex.c ****   * @param  UserType  The FLASH User Option Bytes to be modified.
 736:Drivers/STM32G0xx_HAL_Driver/Src/stm32g0xx_hal_flash_ex.c ****   *         This parameter can be a combination of @ref FLASH_OB_USER_Type
 737:Drivers/STM32G0xx_HAL_Driver/Src/stm32g0xx_hal_flash_ex.c ****   * @param  UserConfig  The FLASH User Option Bytes values.
 738:Drivers/STM32G0xx_HAL_Driver/Src/stm32g0xx_hal_flash_ex.c ****   *         This parameter can be a combination of:
 739:Drivers/STM32G0xx_HAL_Driver/Src/stm32g0xx_hal_flash_ex.c ****   *           @arg @ref FLASH_OB_USER_BOR_ENABLE(*)
 740:Drivers/STM32G0xx_HAL_Driver/Src/stm32g0xx_hal_flash_ex.c ****   *           @arg @ref FLASH_OB_USER_BOR_LEVEL(*)
 741:Drivers/STM32G0xx_HAL_Driver/Src/stm32g0xx_hal_flash_ex.c ****   *           @arg @ref FLASH_OB_USER_RESET_CONFIG(*)
 742:Drivers/STM32G0xx_HAL_Driver/Src/stm32g0xx_hal_flash_ex.c ****   *           @arg @ref FLASH_OB_USER_nRST_STOP
 743:Drivers/STM32G0xx_HAL_Driver/Src/stm32g0xx_hal_flash_ex.c ****   *           @arg @ref FLASH_OB_USER_nRST_STANDBY
 744:Drivers/STM32G0xx_HAL_Driver/Src/stm32g0xx_hal_flash_ex.c ****   *           @arg @ref FLASH_OB_USER_nRST_SHUTDOWN(*)
 745:Drivers/STM32G0xx_HAL_Driver/Src/stm32g0xx_hal_flash_ex.c ****   *           @arg @ref FLASH_OB_USER_IWDG_SW
 746:Drivers/STM32G0xx_HAL_Driver/Src/stm32g0xx_hal_flash_ex.c ****   *           @arg @ref FLASH_OB_USER_IWDG_STOP
 747:Drivers/STM32G0xx_HAL_Driver/Src/stm32g0xx_hal_flash_ex.c ****   *           @arg @ref FLASH_OB_USER_IWDG_STANDBY
 748:Drivers/STM32G0xx_HAL_Driver/Src/stm32g0xx_hal_flash_ex.c ****   *           @arg @ref FLASH_OB_USER_WWDG_SW
 749:Drivers/STM32G0xx_HAL_Driver/Src/stm32g0xx_hal_flash_ex.c ****   *           @arg @ref FLASH_OB_USER_SRAM_PARITY
 750:Drivers/STM32G0xx_HAL_Driver/Src/stm32g0xx_hal_flash_ex.c ****   *           @arg @ref FLASH_OB_USER_BANK_SWAP(*)
 751:Drivers/STM32G0xx_HAL_Driver/Src/stm32g0xx_hal_flash_ex.c ****   *           @arg @ref FLASH_OB_USER_DUAL_BANK(*)
 752:Drivers/STM32G0xx_HAL_Driver/Src/stm32g0xx_hal_flash_ex.c ****   *           @arg @ref FLASH_OB_USER_nBOOT_SEL
 753:Drivers/STM32G0xx_HAL_Driver/Src/stm32g0xx_hal_flash_ex.c ****   *           @arg @ref FLASH_OB_USER_nBOOT1
 754:Drivers/STM32G0xx_HAL_Driver/Src/stm32g0xx_hal_flash_ex.c ****   *           @arg @ref FLASH_OB_USER_nBOOT0
 755:Drivers/STM32G0xx_HAL_Driver/Src/stm32g0xx_hal_flash_ex.c ****   *           @arg @ref FLASH_OB_USER_INPUT_RESET_HOLDER(*)
 756:Drivers/STM32G0xx_HAL_Driver/Src/stm32g0xx_hal_flash_ex.c ****   * @param  RDPLevel  specifies the read protection level.
 757:Drivers/STM32G0xx_HAL_Driver/Src/stm32g0xx_hal_flash_ex.c ****   *         This parameter can be one of the following values:
 758:Drivers/STM32G0xx_HAL_Driver/Src/stm32g0xx_hal_flash_ex.c ****   *           @arg @ref OB_RDP_LEVEL_0 No protection
 759:Drivers/STM32G0xx_HAL_Driver/Src/stm32g0xx_hal_flash_ex.c ****   *           @arg @ref OB_RDP_LEVEL_1 Memory Read protection
 760:Drivers/STM32G0xx_HAL_Driver/Src/stm32g0xx_hal_flash_ex.c ****   *           @arg @ref OB_RDP_LEVEL_2 Full chip protection
 761:Drivers/STM32G0xx_HAL_Driver/Src/stm32g0xx_hal_flash_ex.c ****   * @note  (*) availability depends on devices
 762:Drivers/STM32G0xx_HAL_Driver/Src/stm32g0xx_hal_flash_ex.c ****   * @retval None
 763:Drivers/STM32G0xx_HAL_Driver/Src/stm32g0xx_hal_flash_ex.c ****   */
 764:Drivers/STM32G0xx_HAL_Driver/Src/stm32g0xx_hal_flash_ex.c **** static void FLASH_OB_OptrConfig(uint32_t UserType, uint32_t UserConfig, uint32_t RDPLevel)
 765:Drivers/STM32G0xx_HAL_Driver/Src/stm32g0xx_hal_flash_ex.c **** {
 281              		.loc 1 765 1 is_stmt 1 view -0
 282              		.cfi_startproc
 283              		@ args = 0, pretend = 0, frame = 0
 284              		@ frame_needed = 0, uses_anonymous_args = 0
 285              		.loc 1 765 1 is_stmt 0 view .LVU78
 286 0000 30B5     		push	{r4, r5, lr}
 287              	.LCFI1:
 288              		.cfi_def_cfa_offset 12
 289              		.cfi_offset 4, -12
ARM GAS  /tmp/ccdudAn5.s 			page 20


 290              		.cfi_offset 5, -8
 291              		.cfi_offset 14, -4
 766:Drivers/STM32G0xx_HAL_Driver/Src/stm32g0xx_hal_flash_ex.c ****   uint32_t optr;
 292              		.loc 1 766 3 is_stmt 1 view .LVU79
 767:Drivers/STM32G0xx_HAL_Driver/Src/stm32g0xx_hal_flash_ex.c **** 
 768:Drivers/STM32G0xx_HAL_Driver/Src/stm32g0xx_hal_flash_ex.c ****   /* Check the parameters */
 769:Drivers/STM32G0xx_HAL_Driver/Src/stm32g0xx_hal_flash_ex.c ****   assert_param(IS_OB_USER_TYPE(UserType));
 293              		.loc 1 769 3 view .LVU80
 770:Drivers/STM32G0xx_HAL_Driver/Src/stm32g0xx_hal_flash_ex.c ****   assert_param(IS_OB_USER_CONFIG(UserType, UserConfig));
 294              		.loc 1 770 3 view .LVU81
 771:Drivers/STM32G0xx_HAL_Driver/Src/stm32g0xx_hal_flash_ex.c ****   assert_param(IS_OB_RDP_LEVEL(RDPLevel));
 295              		.loc 1 771 3 view .LVU82
 772:Drivers/STM32G0xx_HAL_Driver/Src/stm32g0xx_hal_flash_ex.c **** 
 773:Drivers/STM32G0xx_HAL_Driver/Src/stm32g0xx_hal_flash_ex.c ****   /* Configure the RDP level in the option bytes register */
 774:Drivers/STM32G0xx_HAL_Driver/Src/stm32g0xx_hal_flash_ex.c ****   optr = FLASH->OPTR;
 296              		.loc 1 774 3 view .LVU83
 297              		.loc 1 774 8 is_stmt 0 view .LVU84
 298 0002 044C     		ldr	r4, .L25
 299 0004 236A     		ldr	r3, [r4, #32]
 300              	.LVL23:
 775:Drivers/STM32G0xx_HAL_Driver/Src/stm32g0xx_hal_flash_ex.c ****   optr &= ~(UserType | FLASH_OPTR_RDP);
 301              		.loc 1 775 3 is_stmt 1 view .LVU85
 302              		.loc 1 775 22 is_stmt 0 view .LVU86
 303 0006 FF25     		movs	r5, #255
 304 0008 2843     		orrs	r0, r5
 305              	.LVL24:
 306              		.loc 1 775 8 view .LVU87
 307 000a 8343     		bics	r3, r0
 308              	.LVL25:
 776:Drivers/STM32G0xx_HAL_Driver/Src/stm32g0xx_hal_flash_ex.c ****   FLASH->OPTR = (optr | UserConfig | RDPLevel);
 309              		.loc 1 776 3 is_stmt 1 view .LVU88
 310              		.loc 1 776 23 is_stmt 0 view .LVU89
 311 000c 0B43     		orrs	r3, r1
 312              	.LVL26:
 313              		.loc 1 776 36 view .LVU90
 314 000e 1343     		orrs	r3, r2
 315              		.loc 1 776 15 view .LVU91
 316 0010 2362     		str	r3, [r4, #32]
 777:Drivers/STM32G0xx_HAL_Driver/Src/stm32g0xx_hal_flash_ex.c **** }
 317              		.loc 1 777 1 view .LVU92
 318              		@ sp needed
 319 0012 30BD     		pop	{r4, r5, pc}
 320              	.L26:
 321              		.align	2
 322              	.L25:
 323 0014 00200240 		.word	1073881088
 324              		.cfi_endproc
 325              	.LFE372:
 327              		.section	.text.FLASH_OB_GetRDP,"ax",%progbits
 328              		.align	1
 329              		.syntax unified
 330              		.code	16
 331              		.thumb_func
 332              		.fpu softvfp
 334              	FLASH_OB_GetRDP:
 335              	.LFB373:
 778:Drivers/STM32G0xx_HAL_Driver/Src/stm32g0xx_hal_flash_ex.c **** 
ARM GAS  /tmp/ccdudAn5.s 			page 21


 779:Drivers/STM32G0xx_HAL_Driver/Src/stm32g0xx_hal_flash_ex.c **** /**
 780:Drivers/STM32G0xx_HAL_Driver/Src/stm32g0xx_hal_flash_ex.c ****   * @brief  Return the FLASH Read Protection level.
 781:Drivers/STM32G0xx_HAL_Driver/Src/stm32g0xx_hal_flash_ex.c ****   * @retval FLASH ReadOut Protection Status:
 782:Drivers/STM32G0xx_HAL_Driver/Src/stm32g0xx_hal_flash_ex.c ****   *         This return value can be one of the following values:
 783:Drivers/STM32G0xx_HAL_Driver/Src/stm32g0xx_hal_flash_ex.c ****   *           @arg @ref OB_RDP_LEVEL_0 No protection
 784:Drivers/STM32G0xx_HAL_Driver/Src/stm32g0xx_hal_flash_ex.c ****   *           @arg @ref OB_RDP_LEVEL_1 Read protection of the memory
 785:Drivers/STM32G0xx_HAL_Driver/Src/stm32g0xx_hal_flash_ex.c ****   *           @arg @ref OB_RDP_LEVEL_2 Full chip protection
 786:Drivers/STM32G0xx_HAL_Driver/Src/stm32g0xx_hal_flash_ex.c ****   */
 787:Drivers/STM32G0xx_HAL_Driver/Src/stm32g0xx_hal_flash_ex.c **** static uint32_t FLASH_OB_GetRDP(void)
 788:Drivers/STM32G0xx_HAL_Driver/Src/stm32g0xx_hal_flash_ex.c **** {
 336              		.loc 1 788 1 is_stmt 1 view -0
 337              		.cfi_startproc
 338              		@ args = 0, pretend = 0, frame = 0
 339              		@ frame_needed = 0, uses_anonymous_args = 0
 340              		@ link register save eliminated.
 789:Drivers/STM32G0xx_HAL_Driver/Src/stm32g0xx_hal_flash_ex.c ****   uint32_t rdplvl = READ_BIT(FLASH->OPTR, FLASH_OPTR_RDP);
 341              		.loc 1 789 3 view .LVU94
 342              		.loc 1 789 21 is_stmt 0 view .LVU95
 343 0000 044B     		ldr	r3, .L30
 344 0002 1B6A     		ldr	r3, [r3, #32]
 345              		.loc 1 789 12 view .LVU96
 346 0004 FF20     		movs	r0, #255
 347 0006 1840     		ands	r0, r3
 348              	.LVL27:
 790:Drivers/STM32G0xx_HAL_Driver/Src/stm32g0xx_hal_flash_ex.c **** 
 791:Drivers/STM32G0xx_HAL_Driver/Src/stm32g0xx_hal_flash_ex.c ****   if ((rdplvl != OB_RDP_LEVEL_0) && (rdplvl != OB_RDP_LEVEL_2))
 349              		.loc 1 791 3 is_stmt 1 view .LVU97
 350              		.loc 1 791 6 is_stmt 0 view .LVU98
 351 0008 AA28     		cmp	r0, #170
 352 000a 02D0     		beq	.L27
 353              		.loc 1 791 34 discriminator 1 view .LVU99
 354 000c CC28     		cmp	r0, #204
 355 000e 00D0     		beq	.L27
 792:Drivers/STM32G0xx_HAL_Driver/Src/stm32g0xx_hal_flash_ex.c ****   {
 793:Drivers/STM32G0xx_HAL_Driver/Src/stm32g0xx_hal_flash_ex.c ****     return (OB_RDP_LEVEL_1);
 356              		.loc 1 793 12 view .LVU100
 357 0010 BB20     		movs	r0, #187
 358              	.LVL28:
 359              	.L27:
 794:Drivers/STM32G0xx_HAL_Driver/Src/stm32g0xx_hal_flash_ex.c ****   }
 795:Drivers/STM32G0xx_HAL_Driver/Src/stm32g0xx_hal_flash_ex.c ****   else
 796:Drivers/STM32G0xx_HAL_Driver/Src/stm32g0xx_hal_flash_ex.c ****   {
 797:Drivers/STM32G0xx_HAL_Driver/Src/stm32g0xx_hal_flash_ex.c ****     return rdplvl;
 798:Drivers/STM32G0xx_HAL_Driver/Src/stm32g0xx_hal_flash_ex.c ****   }
 799:Drivers/STM32G0xx_HAL_Driver/Src/stm32g0xx_hal_flash_ex.c **** }
 360              		.loc 1 799 1 view .LVU101
 361              		@ sp needed
 362 0012 7047     		bx	lr
 363              	.L31:
 364              		.align	2
 365              	.L30:
 366 0014 00200240 		.word	1073881088
 367              		.cfi_endproc
 368              	.LFE373:
 370              		.section	.text.FLASH_OB_GetUser,"ax",%progbits
 371              		.align	1
 372              		.syntax unified
ARM GAS  /tmp/ccdudAn5.s 			page 22


 373              		.code	16
 374              		.thumb_func
 375              		.fpu softvfp
 377              	FLASH_OB_GetUser:
 378              	.LFB374:
 800:Drivers/STM32G0xx_HAL_Driver/Src/stm32g0xx_hal_flash_ex.c **** 
 801:Drivers/STM32G0xx_HAL_Driver/Src/stm32g0xx_hal_flash_ex.c **** /**
 802:Drivers/STM32G0xx_HAL_Driver/Src/stm32g0xx_hal_flash_ex.c ****   * @brief  Return the FLASH User Option Byte value.
 803:Drivers/STM32G0xx_HAL_Driver/Src/stm32g0xx_hal_flash_ex.c ****   * @retval The FLASH User Option Bytes values. It will be a combination of all the following value
 804:Drivers/STM32G0xx_HAL_Driver/Src/stm32g0xx_hal_flash_ex.c ****   *           @arg @ref FLASH_OB_USER_BOR_ENABLE(*)
 805:Drivers/STM32G0xx_HAL_Driver/Src/stm32g0xx_hal_flash_ex.c ****   *           @arg @ref FLASH_OB_USER_BOR_LEVEL(*)
 806:Drivers/STM32G0xx_HAL_Driver/Src/stm32g0xx_hal_flash_ex.c ****   *           @arg @ref FLASH_OB_USER_RESET_CONFIG(*)
 807:Drivers/STM32G0xx_HAL_Driver/Src/stm32g0xx_hal_flash_ex.c ****   *           @arg @ref FLASH_OB_USER_nRST_STOP
 808:Drivers/STM32G0xx_HAL_Driver/Src/stm32g0xx_hal_flash_ex.c ****   *           @arg @ref FLASH_OB_USER_nRST_STANDBY
 809:Drivers/STM32G0xx_HAL_Driver/Src/stm32g0xx_hal_flash_ex.c ****   *           @arg @ref FLASH_OB_USER_nRST_SHUTDOWN(*)
 810:Drivers/STM32G0xx_HAL_Driver/Src/stm32g0xx_hal_flash_ex.c ****   *           @arg @ref FLASH_OB_USER_IWDG_SW
 811:Drivers/STM32G0xx_HAL_Driver/Src/stm32g0xx_hal_flash_ex.c ****   *           @arg @ref FLASH_OB_USER_IWDG_STOP
 812:Drivers/STM32G0xx_HAL_Driver/Src/stm32g0xx_hal_flash_ex.c ****   *           @arg @ref FLASH_OB_USER_IWDG_STANDBY
 813:Drivers/STM32G0xx_HAL_Driver/Src/stm32g0xx_hal_flash_ex.c ****   *           @arg @ref FLASH_OB_USER_WWDG_SW
 814:Drivers/STM32G0xx_HAL_Driver/Src/stm32g0xx_hal_flash_ex.c ****   *           @arg @ref FLASH_OB_USER_SRAM_PARITY
 815:Drivers/STM32G0xx_HAL_Driver/Src/stm32g0xx_hal_flash_ex.c ****   *           @arg @ref FLASH_OB_USER_BANK_SWAP(*)
 816:Drivers/STM32G0xx_HAL_Driver/Src/stm32g0xx_hal_flash_ex.c ****   *           @arg @ref FLASH_OB_USER_DUAL_BANK(*)
 817:Drivers/STM32G0xx_HAL_Driver/Src/stm32g0xx_hal_flash_ex.c ****   *           @arg @ref FLASH_OB_USER_nBOOT_SEL
 818:Drivers/STM32G0xx_HAL_Driver/Src/stm32g0xx_hal_flash_ex.c ****   *           @arg @ref FLASH_OB_USER_nBOOT1
 819:Drivers/STM32G0xx_HAL_Driver/Src/stm32g0xx_hal_flash_ex.c ****   *           @arg @ref FLASH_OB_USER_nBOOT0
 820:Drivers/STM32G0xx_HAL_Driver/Src/stm32g0xx_hal_flash_ex.c ****   *           @arg @ref FLASH_OB_USER_INPUT_RESET_HOLDER(*)
 821:Drivers/STM32G0xx_HAL_Driver/Src/stm32g0xx_hal_flash_ex.c ****   * @note  (*) availability depends on devices
 822:Drivers/STM32G0xx_HAL_Driver/Src/stm32g0xx_hal_flash_ex.c ****   */
 823:Drivers/STM32G0xx_HAL_Driver/Src/stm32g0xx_hal_flash_ex.c **** static uint32_t FLASH_OB_GetUser(void)
 824:Drivers/STM32G0xx_HAL_Driver/Src/stm32g0xx_hal_flash_ex.c **** {
 379              		.loc 1 824 1 is_stmt 1 view -0
 380              		.cfi_startproc
 381              		@ args = 0, pretend = 0, frame = 0
 382              		@ frame_needed = 0, uses_anonymous_args = 0
 383              		@ link register save eliminated.
 825:Drivers/STM32G0xx_HAL_Driver/Src/stm32g0xx_hal_flash_ex.c ****   uint32_t user = ((FLASH->OPTR & ~FLASH_OPTR_RDP) & OB_USER_ALL);
 384              		.loc 1 825 3 view .LVU103
 385              		.loc 1 825 26 is_stmt 0 view .LVU104
 386 0000 024B     		ldr	r3, .L33
 387 0002 186A     		ldr	r0, [r3, #32]
 388              		.loc 1 825 12 view .LVU105
 389 0004 024B     		ldr	r3, .L33+4
 390 0006 1840     		ands	r0, r3
 391              	.LVL29:
 826:Drivers/STM32G0xx_HAL_Driver/Src/stm32g0xx_hal_flash_ex.c ****   return user;
 392              		.loc 1 826 3 is_stmt 1 view .LVU106
 827:Drivers/STM32G0xx_HAL_Driver/Src/stm32g0xx_hal_flash_ex.c **** }
 393              		.loc 1 827 1 is_stmt 0 view .LVU107
 394              		@ sp needed
 395 0008 7047     		bx	lr
 396              	.L34:
 397 000a C046     		.align	2
 398              	.L33:
 399 000c 00200240 		.word	1073881088
 400 0010 00FF7F3F 		.word	1065352960
 401              		.cfi_endproc
 402              	.LFE374:
ARM GAS  /tmp/ccdudAn5.s 			page 23


 404              		.section	.text.FLASH_OB_PCROP1AConfig,"ax",%progbits
 405              		.align	1
 406              		.syntax unified
 407              		.code	16
 408              		.thumb_func
 409              		.fpu softvfp
 411              	FLASH_OB_PCROP1AConfig:
 412              	.LVL30:
 413              	.LFB375:
 828:Drivers/STM32G0xx_HAL_Driver/Src/stm32g0xx_hal_flash_ex.c **** 
 829:Drivers/STM32G0xx_HAL_Driver/Src/stm32g0xx_hal_flash_ex.c **** #if defined(FLASH_PCROP_SUPPORT)
 830:Drivers/STM32G0xx_HAL_Driver/Src/stm32g0xx_hal_flash_ex.c **** /**
 831:Drivers/STM32G0xx_HAL_Driver/Src/stm32g0xx_hal_flash_ex.c ****   * @brief  Configure the 1A Proprietary code readout protection & erase configuration on RDP regre
 832:Drivers/STM32G0xx_HAL_Driver/Src/stm32g0xx_hal_flash_ex.c ****   * @note   It is recommended to align PCROP zone with page granularity when using PCROP_RDP or avo
 833:Drivers/STM32G0xx_HAL_Driver/Src/stm32g0xx_hal_flash_ex.c ****   *         having some executable code in a page where PCROP zone starts or ends.
 834:Drivers/STM32G0xx_HAL_Driver/Src/stm32g0xx_hal_flash_ex.c ****   * @note   Minimum PCROP area size is 2 times the chosen granularity: PCROPA_STRT and PCROPA_END.
 835:Drivers/STM32G0xx_HAL_Driver/Src/stm32g0xx_hal_flash_ex.c ****   *         So if the requirement is to be able to read-protect 1KB areas, the ROP granularity
 836:Drivers/STM32G0xx_HAL_Driver/Src/stm32g0xx_hal_flash_ex.c ****   *         has to be set to 512 Bytes
 837:Drivers/STM32G0xx_HAL_Driver/Src/stm32g0xx_hal_flash_ex.c ****   * @param  PCROPConfig  specifies the erase configuration (OB_PCROP_RDP_NOT_ERASE or OB_PCROP_RDP_
 838:Drivers/STM32G0xx_HAL_Driver/Src/stm32g0xx_hal_flash_ex.c ****   *         on RDP level 1 regression.
 839:Drivers/STM32G0xx_HAL_Driver/Src/stm32g0xx_hal_flash_ex.c ****   * @param  PCROP1AStartAddr Specifies the Zone 1A Start address of the Proprietary code readout pr
 840:Drivers/STM32G0xx_HAL_Driver/Src/stm32g0xx_hal_flash_ex.c ****   *          This parameter can be an address between begin and end of the flash
 841:Drivers/STM32G0xx_HAL_Driver/Src/stm32g0xx_hal_flash_ex.c ****   * @param  PCROP1AEndAddr Specifies the Zone 1A end address of the Proprietary code readout protec
 842:Drivers/STM32G0xx_HAL_Driver/Src/stm32g0xx_hal_flash_ex.c ****   *          This parameter can be an address between PCROP1AStartAddr and end of the flash
 843:Drivers/STM32G0xx_HAL_Driver/Src/stm32g0xx_hal_flash_ex.c ****   * @retval None
 844:Drivers/STM32G0xx_HAL_Driver/Src/stm32g0xx_hal_flash_ex.c ****   */
 845:Drivers/STM32G0xx_HAL_Driver/Src/stm32g0xx_hal_flash_ex.c **** static void FLASH_OB_PCROP1AConfig(uint32_t PCROPConfig, uint32_t PCROP1AStartAddr, uint32_t PCROP1
 846:Drivers/STM32G0xx_HAL_Driver/Src/stm32g0xx_hal_flash_ex.c **** {
 414              		.loc 1 846 1 is_stmt 1 view -0
 415              		.cfi_startproc
 416              		@ args = 0, pretend = 0, frame = 0
 417              		@ frame_needed = 0, uses_anonymous_args = 0
 418              		.loc 1 846 1 is_stmt 0 view .LVU109
 419 0000 30B5     		push	{r4, r5, lr}
 420              	.LCFI2:
 421              		.cfi_def_cfa_offset 12
 422              		.cfi_offset 4, -12
 423              		.cfi_offset 5, -8
 424              		.cfi_offset 14, -4
 847:Drivers/STM32G0xx_HAL_Driver/Src/stm32g0xx_hal_flash_ex.c ****   uint32_t startoffset;
 425              		.loc 1 847 3 is_stmt 1 view .LVU110
 848:Drivers/STM32G0xx_HAL_Driver/Src/stm32g0xx_hal_flash_ex.c ****   uint32_t endoffset;
 426              		.loc 1 848 3 view .LVU111
 849:Drivers/STM32G0xx_HAL_Driver/Src/stm32g0xx_hal_flash_ex.c ****   uint32_t pcrop1aend;
 427              		.loc 1 849 3 view .LVU112
 850:Drivers/STM32G0xx_HAL_Driver/Src/stm32g0xx_hal_flash_ex.c ****   uint32_t ropbase;
 428              		.loc 1 850 3 view .LVU113
 851:Drivers/STM32G0xx_HAL_Driver/Src/stm32g0xx_hal_flash_ex.c **** 
 852:Drivers/STM32G0xx_HAL_Driver/Src/stm32g0xx_hal_flash_ex.c ****   /* Check the parameters */
 853:Drivers/STM32G0xx_HAL_Driver/Src/stm32g0xx_hal_flash_ex.c ****   assert_param(IS_OB_PCROP_CONFIG(PCROPConfig));
 429              		.loc 1 853 3 view .LVU114
 854:Drivers/STM32G0xx_HAL_Driver/Src/stm32g0xx_hal_flash_ex.c **** 
 855:Drivers/STM32G0xx_HAL_Driver/Src/stm32g0xx_hal_flash_ex.c **** #if defined(FLASH_DBANK_SUPPORT)
 856:Drivers/STM32G0xx_HAL_Driver/Src/stm32g0xx_hal_flash_ex.c ****   /* Check if banks are swapped (valid if only one bank) */
 857:Drivers/STM32G0xx_HAL_Driver/Src/stm32g0xx_hal_flash_ex.c ****   if (((FLASH->OPTR & FLASH_OPTR_nSWAP_BANK) != FLASH_OPTR_nSWAP_BANK) && (FLASH_BANK_NB == 2U))
 430              		.loc 1 857 3 view .LVU115
 431              		.loc 1 857 14 is_stmt 0 view .LVU116
ARM GAS  /tmp/ccdudAn5.s 			page 24


 432 0002 274B     		ldr	r3, .L49
 433 0004 1B6A     		ldr	r3, [r3, #32]
 434              		.loc 1 857 6 view .LVU117
 435 0006 DB02     		lsls	r3, r3, #11
 436 0008 2FD4     		bmi	.L41
 437              		.loc 1 857 76 discriminator 1 view .LVU118
 438 000a 264B     		ldr	r3, .L49+4
 439 000c 1C68     		ldr	r4, [r3]
 440 000e C023     		movs	r3, #192
 441 0010 9B04     		lsls	r3, r3, #18
 442 0012 2500     		movs	r5, r4
 443 0014 1D40     		ands	r5, r3
 444              		.loc 1 857 72 discriminator 1 view .LVU119
 445 0016 1C42     		tst	r4, r3
 446 0018 3BD0     		beq	.L42
 447              		.loc 1 857 90 discriminator 2 view .LVU120
 448 001a 8023     		movs	r3, #128
 449 001c 5B04     		lsls	r3, r3, #17
 450 001e 9D42     		cmp	r5, r3
 451 0020 0ED0     		beq	.L46
 452              	.L37:
 858:Drivers/STM32G0xx_HAL_Driver/Src/stm32g0xx_hal_flash_ex.c ****   {
 859:Drivers/STM32G0xx_HAL_Driver/Src/stm32g0xx_hal_flash_ex.c ****     /* Check the parameters */
 860:Drivers/STM32G0xx_HAL_Driver/Src/stm32g0xx_hal_flash_ex.c ****     assert_param(IS_FLASH_MAIN_SECONDHALF_MEM_ADDRESS(PCROP1AStartAddr));
 453              		.loc 1 860 5 is_stmt 1 discriminator 2 view .LVU121
 861:Drivers/STM32G0xx_HAL_Driver/Src/stm32g0xx_hal_flash_ex.c ****     assert_param(IS_FLASH_MAIN_SECONDHALF_MEM_ADDRESS(PCROP1AEndAddr));
 454              		.loc 1 861 5 discriminator 2 view .LVU122
 862:Drivers/STM32G0xx_HAL_Driver/Src/stm32g0xx_hal_flash_ex.c **** 
 863:Drivers/STM32G0xx_HAL_Driver/Src/stm32g0xx_hal_flash_ex.c ****     /* Bank swap, bank 1 read only protection is on second half of Flash */
 864:Drivers/STM32G0xx_HAL_Driver/Src/stm32g0xx_hal_flash_ex.c ****     ropbase = (FLASH_BASE + FLASH_BANK_SIZE);
 455              		.loc 1 864 5 discriminator 2 view .LVU123
 456              		.loc 1 864 29 is_stmt 0 discriminator 2 view .LVU124
 457 0022 8023     		movs	r3, #128
 458 0024 5B04     		lsls	r3, r3, #17
 459 0026 9D42     		cmp	r5, r3
 460 0028 11D0     		beq	.L47
 461              	.L38:
 462              		.loc 1 864 29 discriminator 6 view .LVU125
 463 002a 1F4B     		ldr	r3, .L49+8
 464 002c 1C68     		ldr	r4, [r3]
 465 002e A402     		lsls	r4, r4, #10
 466 0030 6408     		lsrs	r4, r4, #1
 467 0032 1E4B     		ldr	r3, .L49+12
 468 0034 1C40     		ands	r4, r3
 469              		.loc 1 864 27 discriminator 6 view .LVU126
 470 0036 8023     		movs	r3, #128
 471 0038 1B05     		lsls	r3, r3, #20
 472 003a 9C46     		mov	ip, r3
 473 003c 6444     		add	r4, r4, ip
 474 003e 16E0     		b	.L36
 475              	.L46:
 857:Drivers/STM32G0xx_HAL_Driver/Src/stm32g0xx_hal_flash_ex.c ****   {
 476              		.loc 1 857 76 discriminator 3 view .LVU127
 477 0040 1B4B     		ldr	r3, .L49+16
 478 0042 1B68     		ldr	r3, [r3]
 479 0044 9B02     		lsls	r3, r3, #10
 480 0046 ECD4     		bmi	.L37
ARM GAS  /tmp/ccdudAn5.s 			page 25


 865:Drivers/STM32G0xx_HAL_Driver/Src/stm32g0xx_hal_flash_ex.c ****   }
 866:Drivers/STM32G0xx_HAL_Driver/Src/stm32g0xx_hal_flash_ex.c ****   else
 867:Drivers/STM32G0xx_HAL_Driver/Src/stm32g0xx_hal_flash_ex.c **** #endif /* FLASH_DBANK_SUPPORT */
 868:Drivers/STM32G0xx_HAL_Driver/Src/stm32g0xx_hal_flash_ex.c ****   {
 869:Drivers/STM32G0xx_HAL_Driver/Src/stm32g0xx_hal_flash_ex.c ****     /* Check the parameters */
 870:Drivers/STM32G0xx_HAL_Driver/Src/stm32g0xx_hal_flash_ex.c ****     assert_param(IS_FLASH_MAIN_FIRSTHALF_MEM_ADDRESS(PCROP1AStartAddr));
 871:Drivers/STM32G0xx_HAL_Driver/Src/stm32g0xx_hal_flash_ex.c ****     assert_param(IS_FLASH_MAIN_FIRSTHALF_MEM_ADDRESS(PCROP1AEndAddr));
 872:Drivers/STM32G0xx_HAL_Driver/Src/stm32g0xx_hal_flash_ex.c **** 
 873:Drivers/STM32G0xx_HAL_Driver/Src/stm32g0xx_hal_flash_ex.c ****     /* No Bank swap, bank 1 read only protection is on first half of Flash */
 874:Drivers/STM32G0xx_HAL_Driver/Src/stm32g0xx_hal_flash_ex.c ****     ropbase = FLASH_BASE;
 481              		.loc 1 874 13 view .LVU128
 482 0048 8024     		movs	r4, #128
 483 004a 2405     		lsls	r4, r4, #20
 484 004c 0FE0     		b	.L36
 485              	.L47:
 864:Drivers/STM32G0xx_HAL_Driver/Src/stm32g0xx_hal_flash_ex.c ****   }
 486              		.loc 1 864 29 discriminator 3 view .LVU129
 487 004e 184B     		ldr	r3, .L49+16
 488 0050 1B68     		ldr	r3, [r3]
 489 0052 9B02     		lsls	r3, r3, #10
 490 0054 E9D4     		bmi	.L38
 864:Drivers/STM32G0xx_HAL_Driver/Src/stm32g0xx_hal_flash_ex.c ****   }
 491              		.loc 1 864 29 discriminator 5 view .LVU130
 492 0056 144B     		ldr	r3, .L49+8
 493 0058 1C68     		ldr	r4, [r3]
 494 005a A402     		lsls	r4, r4, #10
 495 005c 154B     		ldr	r3, .L49+20
 496 005e 1C40     		ands	r4, r3
 864:Drivers/STM32G0xx_HAL_Driver/Src/stm32g0xx_hal_flash_ex.c ****   }
 497              		.loc 1 864 27 discriminator 5 view .LVU131
 498 0060 8023     		movs	r3, #128
 499 0062 1B05     		lsls	r3, r3, #20
 500 0064 9C46     		mov	ip, r3
 501 0066 6444     		add	r4, r4, ip
 502 0068 01E0     		b	.L36
 503              	.L41:
 504              		.loc 1 874 13 view .LVU132
 505 006a 8024     		movs	r4, #128
 506 006c 2405     		lsls	r4, r4, #20
 507              	.L36:
 508              	.LVL31:
 875:Drivers/STM32G0xx_HAL_Driver/Src/stm32g0xx_hal_flash_ex.c ****   }
 876:Drivers/STM32G0xx_HAL_Driver/Src/stm32g0xx_hal_flash_ex.c **** 
 877:Drivers/STM32G0xx_HAL_Driver/Src/stm32g0xx_hal_flash_ex.c ****   /* get pcrop 1A end register */
 878:Drivers/STM32G0xx_HAL_Driver/Src/stm32g0xx_hal_flash_ex.c ****   pcrop1aend = FLASH->PCROP1AER;
 509              		.loc 1 878 3 is_stmt 1 view .LVU133
 510              		.loc 1 878 14 is_stmt 0 view .LVU134
 511 006e 0C4B     		ldr	r3, .L49
 512 0070 9B6A     		ldr	r3, [r3, #40]
 513              	.LVL32:
 879:Drivers/STM32G0xx_HAL_Driver/Src/stm32g0xx_hal_flash_ex.c **** 
 880:Drivers/STM32G0xx_HAL_Driver/Src/stm32g0xx_hal_flash_ex.c ****   /* Configure the Proprietary code readout protection offset */
 881:Drivers/STM32G0xx_HAL_Driver/Src/stm32g0xx_hal_flash_ex.c ****   if ((PCROPConfig & OB_PCROP_ZONE_A) != 0x00U)
 514              		.loc 1 881 3 is_stmt 1 view .LVU135
 515              		.loc 1 881 6 is_stmt 0 view .LVU136
 516 0072 C507     		lsls	r5, r0, #31
 517 0074 08D5     		bpl	.L39
ARM GAS  /tmp/ccdudAn5.s 			page 26


 882:Drivers/STM32G0xx_HAL_Driver/Src/stm32g0xx_hal_flash_ex.c ****   {
 883:Drivers/STM32G0xx_HAL_Driver/Src/stm32g0xx_hal_flash_ex.c ****     /* Compute offset depending on pcrop granularity */
 884:Drivers/STM32G0xx_HAL_Driver/Src/stm32g0xx_hal_flash_ex.c ****     startoffset = ((PCROP1AStartAddr - ropbase) >> FLASH_PCROP_GRANULARITY_OFFSET);
 518              		.loc 1 884 5 is_stmt 1 view .LVU137
 519              		.loc 1 884 38 is_stmt 0 view .LVU138
 520 0076 091B     		subs	r1, r1, r4
 521              	.LVL33:
 522              		.loc 1 884 17 view .LVU139
 523 0078 490A     		lsrs	r1, r1, #9
 524              	.LVL34:
 885:Drivers/STM32G0xx_HAL_Driver/Src/stm32g0xx_hal_flash_ex.c ****     endoffset = ((PCROP1AEndAddr - ropbase) >> FLASH_PCROP_GRANULARITY_OFFSET);
 525              		.loc 1 885 5 is_stmt 1 view .LVU140
 526              		.loc 1 885 34 is_stmt 0 view .LVU141
 527 007a 121B     		subs	r2, r2, r4
 528              	.LVL35:
 529              		.loc 1 885 15 view .LVU142
 530 007c 520A     		lsrs	r2, r2, #9
 531              	.LVL36:
 886:Drivers/STM32G0xx_HAL_Driver/Src/stm32g0xx_hal_flash_ex.c **** 
 887:Drivers/STM32G0xx_HAL_Driver/Src/stm32g0xx_hal_flash_ex.c ****     /* Set Zone A start offset */
 888:Drivers/STM32G0xx_HAL_Driver/Src/stm32g0xx_hal_flash_ex.c ****     FLASH->PCROP1ASR = startoffset;
 532              		.loc 1 888 5 is_stmt 1 view .LVU143
 533              		.loc 1 888 22 is_stmt 0 view .LVU144
 534 007e 084C     		ldr	r4, .L49
 535              	.LVL37:
 536              		.loc 1 888 22 view .LVU145
 537 0080 6162     		str	r1, [r4, #36]
 889:Drivers/STM32G0xx_HAL_Driver/Src/stm32g0xx_hal_flash_ex.c **** 
 890:Drivers/STM32G0xx_HAL_Driver/Src/stm32g0xx_hal_flash_ex.c ****     /* Set Zone A end offset */
 891:Drivers/STM32G0xx_HAL_Driver/Src/stm32g0xx_hal_flash_ex.c ****     pcrop1aend &= ~FLASH_PCROP1AER_PCROP1A_END;
 538              		.loc 1 891 5 is_stmt 1 view .LVU146
 539              		.loc 1 891 16 is_stmt 0 view .LVU147
 540 0082 5B0A     		lsrs	r3, r3, #9
 541              	.LVL38:
 542              		.loc 1 891 16 view .LVU148
 543 0084 5B02     		lsls	r3, r3, #9
 544              	.LVL39:
 892:Drivers/STM32G0xx_HAL_Driver/Src/stm32g0xx_hal_flash_ex.c ****     pcrop1aend |= endoffset;
 545              		.loc 1 892 5 is_stmt 1 view .LVU149
 546              		.loc 1 892 16 is_stmt 0 view .LVU150
 547 0086 1343     		orrs	r3, r2
 548              	.LVL40:
 549              	.L39:
 893:Drivers/STM32G0xx_HAL_Driver/Src/stm32g0xx_hal_flash_ex.c ****   }
 894:Drivers/STM32G0xx_HAL_Driver/Src/stm32g0xx_hal_flash_ex.c **** 
 895:Drivers/STM32G0xx_HAL_Driver/Src/stm32g0xx_hal_flash_ex.c ****   /* Set RDP erase protection if needed. This bit is only set & will be reset by mass erase */
 896:Drivers/STM32G0xx_HAL_Driver/Src/stm32g0xx_hal_flash_ex.c ****   if ((PCROPConfig & OB_PCROP_RDP_ERASE) != 0x00U)
 550              		.loc 1 896 3 is_stmt 1 view .LVU151
 551              		.loc 1 896 6 is_stmt 0 view .LVU152
 552 0088 0028     		cmp	r0, #0
 553 008a 05DB     		blt	.L48
 554              	.L40:
 897:Drivers/STM32G0xx_HAL_Driver/Src/stm32g0xx_hal_flash_ex.c ****   {
 898:Drivers/STM32G0xx_HAL_Driver/Src/stm32g0xx_hal_flash_ex.c ****     pcrop1aend |= FLASH_PCROP1AER_PCROP_RDP;
 899:Drivers/STM32G0xx_HAL_Driver/Src/stm32g0xx_hal_flash_ex.c ****   }
 900:Drivers/STM32G0xx_HAL_Driver/Src/stm32g0xx_hal_flash_ex.c **** 
 901:Drivers/STM32G0xx_HAL_Driver/Src/stm32g0xx_hal_flash_ex.c ****   /* set 1A End register */
ARM GAS  /tmp/ccdudAn5.s 			page 27


 902:Drivers/STM32G0xx_HAL_Driver/Src/stm32g0xx_hal_flash_ex.c ****   FLASH->PCROP1AER = pcrop1aend;
 555              		.loc 1 902 3 is_stmt 1 view .LVU153
 556              		.loc 1 902 20 is_stmt 0 view .LVU154
 557 008c 044A     		ldr	r2, .L49
 558 008e 9362     		str	r3, [r2, #40]
 903:Drivers/STM32G0xx_HAL_Driver/Src/stm32g0xx_hal_flash_ex.c **** }
 559              		.loc 1 903 1 view .LVU155
 560              		@ sp needed
 561 0090 30BD     		pop	{r4, r5, pc}
 562              	.LVL41:
 563              	.L42:
 874:Drivers/STM32G0xx_HAL_Driver/Src/stm32g0xx_hal_flash_ex.c ****   }
 564              		.loc 1 874 13 view .LVU156
 565 0092 8024     		movs	r4, #128
 566 0094 2405     		lsls	r4, r4, #20
 567 0096 EAE7     		b	.L36
 568              	.LVL42:
 569              	.L48:
 898:Drivers/STM32G0xx_HAL_Driver/Src/stm32g0xx_hal_flash_ex.c ****   }
 570              		.loc 1 898 5 is_stmt 1 view .LVU157
 898:Drivers/STM32G0xx_HAL_Driver/Src/stm32g0xx_hal_flash_ex.c ****   }
 571              		.loc 1 898 16 is_stmt 0 view .LVU158
 572 0098 8022     		movs	r2, #128
 573 009a 1206     		lsls	r2, r2, #24
 574 009c 1343     		orrs	r3, r2
 575              	.LVL43:
 898:Drivers/STM32G0xx_HAL_Driver/Src/stm32g0xx_hal_flash_ex.c ****   }
 576              		.loc 1 898 16 view .LVU159
 577 009e F5E7     		b	.L40
 578              	.L50:
 579              		.align	2
 580              	.L49:
 581 00a0 00200240 		.word	1073881088
 582 00a4 0075FF1F 		.word	536835328
 583 00a8 E075FF1F 		.word	536835552
 584 00ac 00FE0700 		.word	523776
 585 00b0 20200240 		.word	1073881120
 586 00b4 00FC0F00 		.word	1047552
 587              		.cfi_endproc
 588              	.LFE375:
 590              		.section	.text.FLASH_OB_PCROP1BConfig,"ax",%progbits
 591              		.align	1
 592              		.syntax unified
 593              		.code	16
 594              		.thumb_func
 595              		.fpu softvfp
 597              	FLASH_OB_PCROP1BConfig:
 598              	.LVL44:
 599              	.LFB376:
 904:Drivers/STM32G0xx_HAL_Driver/Src/stm32g0xx_hal_flash_ex.c **** 
 905:Drivers/STM32G0xx_HAL_Driver/Src/stm32g0xx_hal_flash_ex.c **** /**
 906:Drivers/STM32G0xx_HAL_Driver/Src/stm32g0xx_hal_flash_ex.c ****   * @brief  Configure the 1B Proprietary code readout protection.
 907:Drivers/STM32G0xx_HAL_Driver/Src/stm32g0xx_hal_flash_ex.c ****   * @note   It is recommended to align PCROP zone with page granularity when using PCROP_RDP or avo
 908:Drivers/STM32G0xx_HAL_Driver/Src/stm32g0xx_hal_flash_ex.c ****   *         having some executable code in a page where PCROP zone starts or ends.
 909:Drivers/STM32G0xx_HAL_Driver/Src/stm32g0xx_hal_flash_ex.c ****   * @note   Minimum PCROP area size is 2 times the chosen granularity: PCROPB_STRT and PCROPB_END.
 910:Drivers/STM32G0xx_HAL_Driver/Src/stm32g0xx_hal_flash_ex.c ****   *         So if the requirement is to be able to read-protect 1KB areas, the ROP granularity
 911:Drivers/STM32G0xx_HAL_Driver/Src/stm32g0xx_hal_flash_ex.c ****   *         has to be set to 512 Bytes
ARM GAS  /tmp/ccdudAn5.s 			page 28


 912:Drivers/STM32G0xx_HAL_Driver/Src/stm32g0xx_hal_flash_ex.c ****   * @param  PCROP1BStartAddr  Specifies the Zone 1B Start address of the Proprietary code readout p
 913:Drivers/STM32G0xx_HAL_Driver/Src/stm32g0xx_hal_flash_ex.c ****   *         This parameter can be an address between begin and end of the flash
 914:Drivers/STM32G0xx_HAL_Driver/Src/stm32g0xx_hal_flash_ex.c ****   * @param  PCROP1BEndAddr  Specifies the Zone 1B end address of the Proprietary code readout prote
 915:Drivers/STM32G0xx_HAL_Driver/Src/stm32g0xx_hal_flash_ex.c ****   *         This parameter can be an address between PCROP1BStartAddr and end of the flash
 916:Drivers/STM32G0xx_HAL_Driver/Src/stm32g0xx_hal_flash_ex.c ****   * @retval None
 917:Drivers/STM32G0xx_HAL_Driver/Src/stm32g0xx_hal_flash_ex.c ****   */
 918:Drivers/STM32G0xx_HAL_Driver/Src/stm32g0xx_hal_flash_ex.c **** static void FLASH_OB_PCROP1BConfig(uint32_t PCROP1BStartAddr, uint32_t PCROP1BEndAddr)
 919:Drivers/STM32G0xx_HAL_Driver/Src/stm32g0xx_hal_flash_ex.c **** {
 600              		.loc 1 919 1 is_stmt 1 view -0
 601              		.cfi_startproc
 602              		@ args = 0, pretend = 0, frame = 0
 603              		@ frame_needed = 0, uses_anonymous_args = 0
 604              		.loc 1 919 1 is_stmt 0 view .LVU161
 605 0000 10B5     		push	{r4, lr}
 606              	.LCFI3:
 607              		.cfi_def_cfa_offset 8
 608              		.cfi_offset 4, -8
 609              		.cfi_offset 14, -4
 920:Drivers/STM32G0xx_HAL_Driver/Src/stm32g0xx_hal_flash_ex.c ****   uint32_t startoffset;
 610              		.loc 1 920 3 is_stmt 1 view .LVU162
 921:Drivers/STM32G0xx_HAL_Driver/Src/stm32g0xx_hal_flash_ex.c ****   uint32_t endoffset;
 611              		.loc 1 921 3 view .LVU163
 922:Drivers/STM32G0xx_HAL_Driver/Src/stm32g0xx_hal_flash_ex.c ****   uint32_t ropbase;
 612              		.loc 1 922 3 view .LVU164
 923:Drivers/STM32G0xx_HAL_Driver/Src/stm32g0xx_hal_flash_ex.c **** 
 924:Drivers/STM32G0xx_HAL_Driver/Src/stm32g0xx_hal_flash_ex.c **** #if defined(FLASH_DBANK_SUPPORT)
 925:Drivers/STM32G0xx_HAL_Driver/Src/stm32g0xx_hal_flash_ex.c ****   /* Check if banks are swapped (valid if only one bank) */
 926:Drivers/STM32G0xx_HAL_Driver/Src/stm32g0xx_hal_flash_ex.c ****   if (((FLASH->OPTR & FLASH_OPTR_nSWAP_BANK) != FLASH_OPTR_nSWAP_BANK) && (FLASH_BANK_NB == 2U))
 613              		.loc 1 926 3 view .LVU165
 614              		.loc 1 926 14 is_stmt 0 view .LVU166
 615 0002 204B     		ldr	r3, .L61
 616 0004 1B6A     		ldr	r3, [r3, #32]
 617              		.loc 1 926 6 view .LVU167
 618 0006 DB02     		lsls	r3, r3, #11
 619 0008 2FD4     		bmi	.L55
 620              		.loc 1 926 76 discriminator 1 view .LVU168
 621 000a 1F4B     		ldr	r3, .L61+4
 622 000c 1A68     		ldr	r2, [r3]
 623 000e C023     		movs	r3, #192
 624 0010 9B04     		lsls	r3, r3, #18
 625 0012 1400     		movs	r4, r2
 626 0014 1C40     		ands	r4, r3
 627              		.loc 1 926 72 discriminator 1 view .LVU169
 628 0016 1A42     		tst	r2, r3
 629 0018 31D0     		beq	.L56
 630              		.loc 1 926 90 discriminator 2 view .LVU170
 631 001a 8023     		movs	r3, #128
 632 001c 5B04     		lsls	r3, r3, #17
 633 001e 9C42     		cmp	r4, r3
 634 0020 0ED0     		beq	.L59
 635              	.L53:
 927:Drivers/STM32G0xx_HAL_Driver/Src/stm32g0xx_hal_flash_ex.c ****   {
 928:Drivers/STM32G0xx_HAL_Driver/Src/stm32g0xx_hal_flash_ex.c ****     /* Check the parameters */
 929:Drivers/STM32G0xx_HAL_Driver/Src/stm32g0xx_hal_flash_ex.c ****     assert_param(IS_FLASH_MAIN_SECONDHALF_MEM_ADDRESS(PCROP1BStartAddr));
 636              		.loc 1 929 5 is_stmt 1 discriminator 2 view .LVU171
 930:Drivers/STM32G0xx_HAL_Driver/Src/stm32g0xx_hal_flash_ex.c ****     assert_param(IS_FLASH_MAIN_SECONDHALF_MEM_ADDRESS(PCROP1BEndAddr));
 637              		.loc 1 930 5 discriminator 2 view .LVU172
ARM GAS  /tmp/ccdudAn5.s 			page 29


 931:Drivers/STM32G0xx_HAL_Driver/Src/stm32g0xx_hal_flash_ex.c **** 
 932:Drivers/STM32G0xx_HAL_Driver/Src/stm32g0xx_hal_flash_ex.c ****     /* Bank swap, bank 1 read only protection is on second half of Flash */
 933:Drivers/STM32G0xx_HAL_Driver/Src/stm32g0xx_hal_flash_ex.c ****     ropbase = (FLASH_BASE + FLASH_BANK_SIZE);
 638              		.loc 1 933 5 discriminator 2 view .LVU173
 639              		.loc 1 933 29 is_stmt 0 discriminator 2 view .LVU174
 640 0022 8023     		movs	r3, #128
 641 0024 5B04     		lsls	r3, r3, #17
 642 0026 9C42     		cmp	r4, r3
 643 0028 11D0     		beq	.L60
 644              	.L54:
 645              		.loc 1 933 29 discriminator 6 view .LVU175
 646 002a 184B     		ldr	r3, .L61+8
 647 002c 1B68     		ldr	r3, [r3]
 648 002e 9B02     		lsls	r3, r3, #10
 649 0030 5B08     		lsrs	r3, r3, #1
 650 0032 174A     		ldr	r2, .L61+12
 651 0034 1340     		ands	r3, r2
 652              		.loc 1 933 27 discriminator 6 view .LVU176
 653 0036 8022     		movs	r2, #128
 654 0038 1205     		lsls	r2, r2, #20
 655 003a 9446     		mov	ip, r2
 656 003c 6344     		add	r3, r3, ip
 657 003e 16E0     		b	.L52
 658              	.L59:
 926:Drivers/STM32G0xx_HAL_Driver/Src/stm32g0xx_hal_flash_ex.c ****   {
 659              		.loc 1 926 76 discriminator 3 view .LVU177
 660 0040 144B     		ldr	r3, .L61+16
 661 0042 1B68     		ldr	r3, [r3]
 662 0044 9B02     		lsls	r3, r3, #10
 663 0046 ECD4     		bmi	.L53
 934:Drivers/STM32G0xx_HAL_Driver/Src/stm32g0xx_hal_flash_ex.c ****   }
 935:Drivers/STM32G0xx_HAL_Driver/Src/stm32g0xx_hal_flash_ex.c ****   else
 936:Drivers/STM32G0xx_HAL_Driver/Src/stm32g0xx_hal_flash_ex.c **** #endif /* FLASH_DBANK_SUPPORT */
 937:Drivers/STM32G0xx_HAL_Driver/Src/stm32g0xx_hal_flash_ex.c ****   {
 938:Drivers/STM32G0xx_HAL_Driver/Src/stm32g0xx_hal_flash_ex.c ****     /* Check the parameters */
 939:Drivers/STM32G0xx_HAL_Driver/Src/stm32g0xx_hal_flash_ex.c ****     assert_param(IS_FLASH_MAIN_FIRSTHALF_MEM_ADDRESS(PCROP1BStartAddr));
 940:Drivers/STM32G0xx_HAL_Driver/Src/stm32g0xx_hal_flash_ex.c ****     assert_param(IS_FLASH_MAIN_FIRSTHALF_MEM_ADDRESS(PCROP1BEndAddr));
 941:Drivers/STM32G0xx_HAL_Driver/Src/stm32g0xx_hal_flash_ex.c **** 
 942:Drivers/STM32G0xx_HAL_Driver/Src/stm32g0xx_hal_flash_ex.c ****     /* No Bank swap, bank 1 read only protection is on first half of Flash */
 943:Drivers/STM32G0xx_HAL_Driver/Src/stm32g0xx_hal_flash_ex.c ****     ropbase = FLASH_BASE;
 664              		.loc 1 943 13 view .LVU178
 665 0048 8023     		movs	r3, #128
 666 004a 1B05     		lsls	r3, r3, #20
 667 004c 0FE0     		b	.L52
 668              	.L60:
 933:Drivers/STM32G0xx_HAL_Driver/Src/stm32g0xx_hal_flash_ex.c ****   }
 669              		.loc 1 933 29 discriminator 3 view .LVU179
 670 004e 114B     		ldr	r3, .L61+16
 671 0050 1B68     		ldr	r3, [r3]
 672 0052 9B02     		lsls	r3, r3, #10
 673 0054 E9D4     		bmi	.L54
 933:Drivers/STM32G0xx_HAL_Driver/Src/stm32g0xx_hal_flash_ex.c ****   }
 674              		.loc 1 933 29 discriminator 5 view .LVU180
 675 0056 0D4B     		ldr	r3, .L61+8
 676 0058 1B68     		ldr	r3, [r3]
 677 005a 9B02     		lsls	r3, r3, #10
 678 005c 0E4A     		ldr	r2, .L61+20
ARM GAS  /tmp/ccdudAn5.s 			page 30


 679 005e 1340     		ands	r3, r2
 933:Drivers/STM32G0xx_HAL_Driver/Src/stm32g0xx_hal_flash_ex.c ****   }
 680              		.loc 1 933 27 discriminator 5 view .LVU181
 681 0060 8022     		movs	r2, #128
 682 0062 1205     		lsls	r2, r2, #20
 683 0064 9446     		mov	ip, r2
 684 0066 6344     		add	r3, r3, ip
 685 0068 01E0     		b	.L52
 686              	.L55:
 687              		.loc 1 943 13 view .LVU182
 688 006a 8023     		movs	r3, #128
 689 006c 1B05     		lsls	r3, r3, #20
 690              	.L52:
 691              	.LVL45:
 944:Drivers/STM32G0xx_HAL_Driver/Src/stm32g0xx_hal_flash_ex.c ****   }
 945:Drivers/STM32G0xx_HAL_Driver/Src/stm32g0xx_hal_flash_ex.c **** 
 946:Drivers/STM32G0xx_HAL_Driver/Src/stm32g0xx_hal_flash_ex.c ****   /* Configure the Proprietary code readout protection offset */
 947:Drivers/STM32G0xx_HAL_Driver/Src/stm32g0xx_hal_flash_ex.c ****   startoffset = ((PCROP1BStartAddr - ropbase) >> FLASH_PCROP_GRANULARITY_OFFSET);
 692              		.loc 1 947 3 is_stmt 1 view .LVU183
 693              		.loc 1 947 36 is_stmt 0 view .LVU184
 694 006e C01A     		subs	r0, r0, r3
 695              	.LVL46:
 696              		.loc 1 947 15 view .LVU185
 697 0070 400A     		lsrs	r0, r0, #9
 698              	.LVL47:
 948:Drivers/STM32G0xx_HAL_Driver/Src/stm32g0xx_hal_flash_ex.c ****   endoffset = ((PCROP1BEndAddr - ropbase) >> FLASH_PCROP_GRANULARITY_OFFSET);
 699              		.loc 1 948 3 is_stmt 1 view .LVU186
 700              		.loc 1 948 32 is_stmt 0 view .LVU187
 701 0072 C91A     		subs	r1, r1, r3
 702              	.LVL48:
 703              		.loc 1 948 13 view .LVU188
 704 0074 490A     		lsrs	r1, r1, #9
 705              	.LVL49:
 949:Drivers/STM32G0xx_HAL_Driver/Src/stm32g0xx_hal_flash_ex.c **** 
 950:Drivers/STM32G0xx_HAL_Driver/Src/stm32g0xx_hal_flash_ex.c ****   /* Set Zone B start offset */
 951:Drivers/STM32G0xx_HAL_Driver/Src/stm32g0xx_hal_flash_ex.c ****   FLASH->PCROP1BSR = startoffset;
 706              		.loc 1 951 3 is_stmt 1 view .LVU189
 707              		.loc 1 951 20 is_stmt 0 view .LVU190
 708 0076 034B     		ldr	r3, .L61
 709              	.LVL50:
 710              		.loc 1 951 20 view .LVU191
 711 0078 5863     		str	r0, [r3, #52]
 952:Drivers/STM32G0xx_HAL_Driver/Src/stm32g0xx_hal_flash_ex.c ****   /* Set Zone B end offset */
 953:Drivers/STM32G0xx_HAL_Driver/Src/stm32g0xx_hal_flash_ex.c ****   FLASH->PCROP1BER = endoffset;
 712              		.loc 1 953 3 is_stmt 1 view .LVU192
 713              		.loc 1 953 20 is_stmt 0 view .LVU193
 714 007a 9963     		str	r1, [r3, #56]
 954:Drivers/STM32G0xx_HAL_Driver/Src/stm32g0xx_hal_flash_ex.c **** }
 715              		.loc 1 954 1 view .LVU194
 716              		@ sp needed
 717 007c 10BD     		pop	{r4, pc}
 718              	.LVL51:
 719              	.L56:
 943:Drivers/STM32G0xx_HAL_Driver/Src/stm32g0xx_hal_flash_ex.c ****   }
 720              		.loc 1 943 13 view .LVU195
 721 007e 8023     		movs	r3, #128
 722 0080 1B05     		lsls	r3, r3, #20
ARM GAS  /tmp/ccdudAn5.s 			page 31


 723 0082 F4E7     		b	.L52
 724              	.L62:
 725              		.align	2
 726              	.L61:
 727 0084 00200240 		.word	1073881088
 728 0088 0075FF1F 		.word	536835328
 729 008c E075FF1F 		.word	536835552
 730 0090 00FE0700 		.word	523776
 731 0094 20200240 		.word	1073881120
 732 0098 00FC0F00 		.word	1047552
 733              		.cfi_endproc
 734              	.LFE376:
 736              		.section	.text.FLASH_OB_GetPCROP1A,"ax",%progbits
 737              		.align	1
 738              		.syntax unified
 739              		.code	16
 740              		.thumb_func
 741              		.fpu softvfp
 743              	FLASH_OB_GetPCROP1A:
 744              	.LVL52:
 745              	.LFB377:
 955:Drivers/STM32G0xx_HAL_Driver/Src/stm32g0xx_hal_flash_ex.c **** 
 956:Drivers/STM32G0xx_HAL_Driver/Src/stm32g0xx_hal_flash_ex.c **** /**
 957:Drivers/STM32G0xx_HAL_Driver/Src/stm32g0xx_hal_flash_ex.c ****   * @brief  Return the FLASH PCROP Protection Option Bytes value.
 958:Drivers/STM32G0xx_HAL_Driver/Src/stm32g0xx_hal_flash_ex.c ****   * @param  PCROPConfig [out]  specifies the configuration of PCROP_RDP option.
 959:Drivers/STM32G0xx_HAL_Driver/Src/stm32g0xx_hal_flash_ex.c ****   * @param  PCROP1AStartAddr [out]  Specifies the address where to copied the start address
 960:Drivers/STM32G0xx_HAL_Driver/Src/stm32g0xx_hal_flash_ex.c ****   *         of the 1A Proprietary code readout protection
 961:Drivers/STM32G0xx_HAL_Driver/Src/stm32g0xx_hal_flash_ex.c ****   * @param  PCROP1AEndAddr [out]  Specifies the address where to copied the end address of
 962:Drivers/STM32G0xx_HAL_Driver/Src/stm32g0xx_hal_flash_ex.c ****   *         the 1A Proprietary code readout protection
 963:Drivers/STM32G0xx_HAL_Driver/Src/stm32g0xx_hal_flash_ex.c ****   * @retval None
 964:Drivers/STM32G0xx_HAL_Driver/Src/stm32g0xx_hal_flash_ex.c ****   */
 965:Drivers/STM32G0xx_HAL_Driver/Src/stm32g0xx_hal_flash_ex.c **** static void FLASH_OB_GetPCROP1A(uint32_t *PCROPConfig, uint32_t *PCROP1AStartAddr, uint32_t *PCROP1
 966:Drivers/STM32G0xx_HAL_Driver/Src/stm32g0xx_hal_flash_ex.c **** {
 746              		.loc 1 966 1 is_stmt 1 view -0
 747              		.cfi_startproc
 748              		@ args = 0, pretend = 0, frame = 0
 749              		@ frame_needed = 0, uses_anonymous_args = 0
 750              		.loc 1 966 1 is_stmt 0 view .LVU197
 751 0000 70B5     		push	{r4, r5, r6, lr}
 752              	.LCFI4:
 753              		.cfi_def_cfa_offset 16
 754              		.cfi_offset 4, -16
 755              		.cfi_offset 5, -12
 756              		.cfi_offset 6, -8
 757              		.cfi_offset 14, -4
 967:Drivers/STM32G0xx_HAL_Driver/Src/stm32g0xx_hal_flash_ex.c ****   uint32_t pcrop;
 758              		.loc 1 967 3 is_stmt 1 view .LVU198
 968:Drivers/STM32G0xx_HAL_Driver/Src/stm32g0xx_hal_flash_ex.c ****   uint32_t ropbase;
 759              		.loc 1 968 3 view .LVU199
 969:Drivers/STM32G0xx_HAL_Driver/Src/stm32g0xx_hal_flash_ex.c **** 
 970:Drivers/STM32G0xx_HAL_Driver/Src/stm32g0xx_hal_flash_ex.c **** #if defined(FLASH_DBANK_SUPPORT)
 971:Drivers/STM32G0xx_HAL_Driver/Src/stm32g0xx_hal_flash_ex.c ****   /* Check if banks are swapped (valid if only one bank) */
 972:Drivers/STM32G0xx_HAL_Driver/Src/stm32g0xx_hal_flash_ex.c ****   if (((FLASH->OPTR & FLASH_OPTR_nSWAP_BANK) != FLASH_OPTR_nSWAP_BANK) && (FLASH_BANK_NB == 2U))
 760              		.loc 1 972 3 view .LVU200
 761              		.loc 1 972 14 is_stmt 0 view .LVU201
 762 0002 294B     		ldr	r3, .L73
 763 0004 1B6A     		ldr	r3, [r3, #32]
ARM GAS  /tmp/ccdudAn5.s 			page 32


 764              		.loc 1 972 6 view .LVU202
 765 0006 DB02     		lsls	r3, r3, #11
 766 0008 2FD4     		bmi	.L67
 767              		.loc 1 972 76 discriminator 1 view .LVU203
 768 000a 284B     		ldr	r3, .L73+4
 769 000c 1C68     		ldr	r4, [r3]
 770 000e C023     		movs	r3, #192
 771 0010 9B04     		lsls	r3, r3, #18
 772 0012 2500     		movs	r5, r4
 773 0014 1D40     		ands	r5, r3
 774              		.loc 1 972 72 discriminator 1 view .LVU204
 775 0016 1C42     		tst	r4, r3
 776 0018 43D0     		beq	.L68
 777              		.loc 1 972 90 discriminator 2 view .LVU205
 778 001a 8023     		movs	r3, #128
 779 001c 5B04     		lsls	r3, r3, #17
 780 001e 9D42     		cmp	r5, r3
 781 0020 0ED0     		beq	.L71
 782              	.L65:
 973:Drivers/STM32G0xx_HAL_Driver/Src/stm32g0xx_hal_flash_ex.c ****   {
 974:Drivers/STM32G0xx_HAL_Driver/Src/stm32g0xx_hal_flash_ex.c ****     /* Bank swap, bank 1 read only protection is on second half of Flash */
 975:Drivers/STM32G0xx_HAL_Driver/Src/stm32g0xx_hal_flash_ex.c ****     ropbase = (FLASH_BASE + FLASH_BANK_SIZE);
 783              		.loc 1 975 5 is_stmt 1 discriminator 2 view .LVU206
 784              		.loc 1 975 29 is_stmt 0 discriminator 2 view .LVU207
 785 0022 8023     		movs	r3, #128
 786 0024 5B04     		lsls	r3, r3, #17
 787 0026 9D42     		cmp	r5, r3
 788 0028 11D0     		beq	.L72
 789              	.L66:
 790              		.loc 1 975 29 discriminator 6 view .LVU208
 791 002a 214B     		ldr	r3, .L73+8
 792 002c 1C68     		ldr	r4, [r3]
 793 002e A402     		lsls	r4, r4, #10
 794 0030 6408     		lsrs	r4, r4, #1
 795 0032 204B     		ldr	r3, .L73+12
 796 0034 1C40     		ands	r4, r3
 797              		.loc 1 975 27 discriminator 6 view .LVU209
 798 0036 8023     		movs	r3, #128
 799 0038 1B05     		lsls	r3, r3, #20
 800 003a 9C46     		mov	ip, r3
 801 003c 6444     		add	r4, r4, ip
 802 003e 16E0     		b	.L64
 803              	.L71:
 972:Drivers/STM32G0xx_HAL_Driver/Src/stm32g0xx_hal_flash_ex.c ****   {
 804              		.loc 1 972 76 discriminator 3 view .LVU210
 805 0040 1D4B     		ldr	r3, .L73+16
 806 0042 1B68     		ldr	r3, [r3]
 807 0044 9B02     		lsls	r3, r3, #10
 808 0046 ECD4     		bmi	.L65
 976:Drivers/STM32G0xx_HAL_Driver/Src/stm32g0xx_hal_flash_ex.c ****   }
 977:Drivers/STM32G0xx_HAL_Driver/Src/stm32g0xx_hal_flash_ex.c ****   else
 978:Drivers/STM32G0xx_HAL_Driver/Src/stm32g0xx_hal_flash_ex.c **** #endif /* FLASH_DBANK_SUPPORT */
 979:Drivers/STM32G0xx_HAL_Driver/Src/stm32g0xx_hal_flash_ex.c ****   {
 980:Drivers/STM32G0xx_HAL_Driver/Src/stm32g0xx_hal_flash_ex.c ****     /* No Bank swap, bank 1 read only protection is on first half of Flash */
 981:Drivers/STM32G0xx_HAL_Driver/Src/stm32g0xx_hal_flash_ex.c ****     ropbase = FLASH_BASE;
 809              		.loc 1 981 13 view .LVU211
 810 0048 8024     		movs	r4, #128
ARM GAS  /tmp/ccdudAn5.s 			page 33


 811 004a 2405     		lsls	r4, r4, #20
 812 004c 0FE0     		b	.L64
 813              	.L72:
 975:Drivers/STM32G0xx_HAL_Driver/Src/stm32g0xx_hal_flash_ex.c ****   }
 814              		.loc 1 975 29 discriminator 3 view .LVU212
 815 004e 1A4B     		ldr	r3, .L73+16
 816 0050 1B68     		ldr	r3, [r3]
 817 0052 9B02     		lsls	r3, r3, #10
 818 0054 E9D4     		bmi	.L66
 975:Drivers/STM32G0xx_HAL_Driver/Src/stm32g0xx_hal_flash_ex.c ****   }
 819              		.loc 1 975 29 discriminator 5 view .LVU213
 820 0056 164B     		ldr	r3, .L73+8
 821 0058 1C68     		ldr	r4, [r3]
 822 005a A402     		lsls	r4, r4, #10
 823 005c 174B     		ldr	r3, .L73+20
 824 005e 1C40     		ands	r4, r3
 975:Drivers/STM32G0xx_HAL_Driver/Src/stm32g0xx_hal_flash_ex.c ****   }
 825              		.loc 1 975 27 discriminator 5 view .LVU214
 826 0060 8023     		movs	r3, #128
 827 0062 1B05     		lsls	r3, r3, #20
 828 0064 9C46     		mov	ip, r3
 829 0066 6444     		add	r4, r4, ip
 830 0068 01E0     		b	.L64
 831              	.L67:
 832              		.loc 1 981 13 view .LVU215
 833 006a 8024     		movs	r4, #128
 834 006c 2405     		lsls	r4, r4, #20
 835              	.L64:
 836              	.LVL53:
 982:Drivers/STM32G0xx_HAL_Driver/Src/stm32g0xx_hal_flash_ex.c ****   }
 983:Drivers/STM32G0xx_HAL_Driver/Src/stm32g0xx_hal_flash_ex.c **** 
 984:Drivers/STM32G0xx_HAL_Driver/Src/stm32g0xx_hal_flash_ex.c ****   pcrop = (FLASH->PCROP1ASR & FLASH_PCROP1ASR_PCROP1A_STRT);
 837              		.loc 1 984 3 is_stmt 1 view .LVU216
 838              		.loc 1 984 17 is_stmt 0 view .LVU217
 839 006e 0E4E     		ldr	r6, .L73
 840 0070 736A     		ldr	r3, [r6, #36]
 841              	.LVL54:
 985:Drivers/STM32G0xx_HAL_Driver/Src/stm32g0xx_hal_flash_ex.c ****   *PCROP1AStartAddr = (pcrop << FLASH_PCROP_GRANULARITY_OFFSET);
 842              		.loc 1 985 3 is_stmt 1 view .LVU218
 843              		.loc 1 985 30 is_stmt 0 view .LVU219
 844 0072 5B02     		lsls	r3, r3, #9
 845              	.LVL55:
 846              		.loc 1 985 30 view .LVU220
 847 0074 124D     		ldr	r5, .L73+24
 848 0076 2B40     		ands	r3, r5
 849              		.loc 1 985 21 view .LVU221
 850 0078 0B60     		str	r3, [r1]
 986:Drivers/STM32G0xx_HAL_Driver/Src/stm32g0xx_hal_flash_ex.c ****   *PCROP1AStartAddr += ropbase;
 851              		.loc 1 986 3 is_stmt 1 view .LVU222
 852              		.loc 1 986 21 is_stmt 0 view .LVU223
 853 007a 1B19     		adds	r3, r3, r4
 854 007c 0B60     		str	r3, [r1]
 987:Drivers/STM32G0xx_HAL_Driver/Src/stm32g0xx_hal_flash_ex.c **** 
 988:Drivers/STM32G0xx_HAL_Driver/Src/stm32g0xx_hal_flash_ex.c ****   pcrop = FLASH->PCROP1AER;
 855              		.loc 1 988 3 is_stmt 1 view .LVU224
 856              		.loc 1 988 9 is_stmt 0 view .LVU225
 857 007e B16A     		ldr	r1, [r6, #40]
ARM GAS  /tmp/ccdudAn5.s 			page 34


 858              	.LVL56:
 989:Drivers/STM32G0xx_HAL_Driver/Src/stm32g0xx_hal_flash_ex.c ****   *PCROP1AEndAddr = ((pcrop & FLASH_PCROP1AER_PCROP1A_END) << FLASH_PCROP_GRANULARITY_OFFSET);
 859              		.loc 1 989 3 is_stmt 1 view .LVU226
 860              		.loc 1 989 60 is_stmt 0 view .LVU227
 861 0080 4B02     		lsls	r3, r1, #9
 862 0082 2B40     		ands	r3, r5
 863              		.loc 1 989 19 view .LVU228
 864 0084 1360     		str	r3, [r2]
 990:Drivers/STM32G0xx_HAL_Driver/Src/stm32g0xx_hal_flash_ex.c ****   *PCROP1AEndAddr += (ropbase + FLASH_PCROP_GRANULARITY - 1U);
 865              		.loc 1 990 3 is_stmt 1 view .LVU229
 866              		.loc 1 990 19 is_stmt 0 view .LVU230
 867 0086 1B19     		adds	r3, r3, r4
 868 0088 0E4C     		ldr	r4, .L73+28
 869              	.LVL57:
 870              		.loc 1 990 19 view .LVU231
 871 008a A446     		mov	ip, r4
 872 008c 6344     		add	r3, r3, ip
 873 008e 1360     		str	r3, [r2]
 991:Drivers/STM32G0xx_HAL_Driver/Src/stm32g0xx_hal_flash_ex.c **** 
 992:Drivers/STM32G0xx_HAL_Driver/Src/stm32g0xx_hal_flash_ex.c ****   *PCROPConfig &= ~OB_PCROP_RDP_ERASE;
 874              		.loc 1 992 3 is_stmt 1 view .LVU232
 875              		.loc 1 992 16 is_stmt 0 view .LVU233
 876 0090 0368     		ldr	r3, [r0]
 877 0092 5B00     		lsls	r3, r3, #1
 878 0094 5B08     		lsrs	r3, r3, #1
 879 0096 0360     		str	r3, [r0]
 993:Drivers/STM32G0xx_HAL_Driver/Src/stm32g0xx_hal_flash_ex.c ****   *PCROPConfig |= (pcrop & FLASH_PCROP1AER_PCROP_RDP);
 880              		.loc 1 993 3 is_stmt 1 view .LVU234
 881              		.loc 1 993 26 is_stmt 0 view .LVU235
 882 0098 C90F     		lsrs	r1, r1, #31
 883              	.LVL58:
 884              		.loc 1 993 26 view .LVU236
 885 009a C907     		lsls	r1, r1, #31
 886              		.loc 1 993 16 view .LVU237
 887 009c 0B43     		orrs	r3, r1
 888 009e 0360     		str	r3, [r0]
 994:Drivers/STM32G0xx_HAL_Driver/Src/stm32g0xx_hal_flash_ex.c **** }
 889              		.loc 1 994 1 view .LVU238
 890              		@ sp needed
 891 00a0 70BD     		pop	{r4, r5, r6, pc}
 892              	.LVL59:
 893              	.L68:
 981:Drivers/STM32G0xx_HAL_Driver/Src/stm32g0xx_hal_flash_ex.c ****   }
 894              		.loc 1 981 13 view .LVU239
 895 00a2 8024     		movs	r4, #128
 896 00a4 2405     		lsls	r4, r4, #20
 897 00a6 E2E7     		b	.L64
 898              	.L74:
 899              		.align	2
 900              	.L73:
 901 00a8 00200240 		.word	1073881088
 902 00ac 0075FF1F 		.word	536835328
 903 00b0 E075FF1F 		.word	536835552
 904 00b4 00FE0700 		.word	523776
 905 00b8 20200240 		.word	1073881120
 906 00bc 00FC0F00 		.word	1047552
 907 00c0 00FE0300 		.word	261632
ARM GAS  /tmp/ccdudAn5.s 			page 35


 908 00c4 FF010000 		.word	511
 909              		.cfi_endproc
 910              	.LFE377:
 912              		.section	.text.FLASH_OB_GetPCROP1B,"ax",%progbits
 913              		.align	1
 914              		.syntax unified
 915              		.code	16
 916              		.thumb_func
 917              		.fpu softvfp
 919              	FLASH_OB_GetPCROP1B:
 920              	.LVL60:
 921              	.LFB378:
 995:Drivers/STM32G0xx_HAL_Driver/Src/stm32g0xx_hal_flash_ex.c **** 
 996:Drivers/STM32G0xx_HAL_Driver/Src/stm32g0xx_hal_flash_ex.c **** /**
 997:Drivers/STM32G0xx_HAL_Driver/Src/stm32g0xx_hal_flash_ex.c ****   * @brief  Return the FLASH PCROP Protection Option Bytes value.
 998:Drivers/STM32G0xx_HAL_Driver/Src/stm32g0xx_hal_flash_ex.c ****   * @param  PCROP1BStartAddr [out]  Specifies the address where to copied the start address
 999:Drivers/STM32G0xx_HAL_Driver/Src/stm32g0xx_hal_flash_ex.c ****   *         of the 1B Proprietary code readout protection
1000:Drivers/STM32G0xx_HAL_Driver/Src/stm32g0xx_hal_flash_ex.c ****   * @param  PCROP1BEndAddr [out]  Specifies the address where to copied the end address of
1001:Drivers/STM32G0xx_HAL_Driver/Src/stm32g0xx_hal_flash_ex.c ****   *         the 1B Proprietary code readout protection
1002:Drivers/STM32G0xx_HAL_Driver/Src/stm32g0xx_hal_flash_ex.c ****   * @retval None
1003:Drivers/STM32G0xx_HAL_Driver/Src/stm32g0xx_hal_flash_ex.c ****   */
1004:Drivers/STM32G0xx_HAL_Driver/Src/stm32g0xx_hal_flash_ex.c **** static void FLASH_OB_GetPCROP1B(uint32_t *PCROP1BStartAddr, uint32_t *PCROP1BEndAddr)
1005:Drivers/STM32G0xx_HAL_Driver/Src/stm32g0xx_hal_flash_ex.c **** {
 922              		.loc 1 1005 1 is_stmt 1 view -0
 923              		.cfi_startproc
 924              		@ args = 0, pretend = 0, frame = 0
 925              		@ frame_needed = 0, uses_anonymous_args = 0
 926              		.loc 1 1005 1 is_stmt 0 view .LVU241
 927 0000 30B5     		push	{r4, r5, lr}
 928              	.LCFI5:
 929              		.cfi_def_cfa_offset 12
 930              		.cfi_offset 4, -12
 931              		.cfi_offset 5, -8
 932              		.cfi_offset 14, -4
1006:Drivers/STM32G0xx_HAL_Driver/Src/stm32g0xx_hal_flash_ex.c ****   uint32_t pcrop;
 933              		.loc 1 1006 3 is_stmt 1 view .LVU242
1007:Drivers/STM32G0xx_HAL_Driver/Src/stm32g0xx_hal_flash_ex.c ****   uint32_t ropbase;
 934              		.loc 1 1007 3 view .LVU243
1008:Drivers/STM32G0xx_HAL_Driver/Src/stm32g0xx_hal_flash_ex.c **** 
1009:Drivers/STM32G0xx_HAL_Driver/Src/stm32g0xx_hal_flash_ex.c **** #if defined(FLASH_DBANK_SUPPORT)
1010:Drivers/STM32G0xx_HAL_Driver/Src/stm32g0xx_hal_flash_ex.c ****   /* Check if banks are swapped (valid if only one bank) */
1011:Drivers/STM32G0xx_HAL_Driver/Src/stm32g0xx_hal_flash_ex.c ****   if (((FLASH->OPTR & FLASH_OPTR_nSWAP_BANK) != FLASH_OPTR_nSWAP_BANK) && (FLASH_BANK_NB == 2U))
 935              		.loc 1 1011 3 view .LVU244
 936              		.loc 1 1011 14 is_stmt 0 view .LVU245
 937 0002 254B     		ldr	r3, .L85
 938 0004 1B6A     		ldr	r3, [r3, #32]
 939              		.loc 1 1011 6 view .LVU246
 940 0006 DB02     		lsls	r3, r3, #11
 941 0008 2FD4     		bmi	.L79
 942              		.loc 1 1011 76 discriminator 1 view .LVU247
 943 000a 244B     		ldr	r3, .L85+4
 944 000c 1A68     		ldr	r2, [r3]
 945 000e C023     		movs	r3, #192
 946 0010 9B04     		lsls	r3, r3, #18
 947 0012 1400     		movs	r4, r2
 948 0014 1C40     		ands	r4, r3
 949              		.loc 1 1011 72 discriminator 1 view .LVU248
ARM GAS  /tmp/ccdudAn5.s 			page 36


 950 0016 1A42     		tst	r2, r3
 951 0018 3BD0     		beq	.L80
 952              		.loc 1 1011 90 discriminator 2 view .LVU249
 953 001a 8023     		movs	r3, #128
 954 001c 5B04     		lsls	r3, r3, #17
 955 001e 9C42     		cmp	r4, r3
 956 0020 0ED0     		beq	.L83
 957              	.L77:
1012:Drivers/STM32G0xx_HAL_Driver/Src/stm32g0xx_hal_flash_ex.c ****   {
1013:Drivers/STM32G0xx_HAL_Driver/Src/stm32g0xx_hal_flash_ex.c ****     /* Bank swap, bank 1 read only protection is on second half of Flash */
1014:Drivers/STM32G0xx_HAL_Driver/Src/stm32g0xx_hal_flash_ex.c ****     ropbase = (FLASH_BASE + FLASH_BANK_SIZE);
 958              		.loc 1 1014 5 is_stmt 1 discriminator 2 view .LVU250
 959              		.loc 1 1014 29 is_stmt 0 discriminator 2 view .LVU251
 960 0022 8023     		movs	r3, #128
 961 0024 5B04     		lsls	r3, r3, #17
 962 0026 9C42     		cmp	r4, r3
 963 0028 11D0     		beq	.L84
 964              	.L78:
 965              		.loc 1 1014 29 discriminator 6 view .LVU252
 966 002a 1D4B     		ldr	r3, .L85+8
 967 002c 1A68     		ldr	r2, [r3]
 968 002e 9202     		lsls	r2, r2, #10
 969 0030 5208     		lsrs	r2, r2, #1
 970 0032 1C4B     		ldr	r3, .L85+12
 971 0034 1A40     		ands	r2, r3
 972              		.loc 1 1014 27 discriminator 6 view .LVU253
 973 0036 8023     		movs	r3, #128
 974 0038 1B05     		lsls	r3, r3, #20
 975 003a 9C46     		mov	ip, r3
 976 003c 6244     		add	r2, r2, ip
 977 003e 16E0     		b	.L76
 978              	.L83:
1011:Drivers/STM32G0xx_HAL_Driver/Src/stm32g0xx_hal_flash_ex.c ****   {
 979              		.loc 1 1011 76 discriminator 3 view .LVU254
 980 0040 194B     		ldr	r3, .L85+16
 981 0042 1B68     		ldr	r3, [r3]
 982 0044 9B02     		lsls	r3, r3, #10
 983 0046 ECD4     		bmi	.L77
1015:Drivers/STM32G0xx_HAL_Driver/Src/stm32g0xx_hal_flash_ex.c ****   }
1016:Drivers/STM32G0xx_HAL_Driver/Src/stm32g0xx_hal_flash_ex.c ****   else
1017:Drivers/STM32G0xx_HAL_Driver/Src/stm32g0xx_hal_flash_ex.c **** #endif /* FLASH_DBANK_SUPPORT */
1018:Drivers/STM32G0xx_HAL_Driver/Src/stm32g0xx_hal_flash_ex.c ****   {
1019:Drivers/STM32G0xx_HAL_Driver/Src/stm32g0xx_hal_flash_ex.c ****     /* No Bank swap, bank 1 read only protection is on first half of Flash */
1020:Drivers/STM32G0xx_HAL_Driver/Src/stm32g0xx_hal_flash_ex.c ****     ropbase = FLASH_BASE;
 984              		.loc 1 1020 13 view .LVU255
 985 0048 8022     		movs	r2, #128
 986 004a 1205     		lsls	r2, r2, #20
 987 004c 0FE0     		b	.L76
 988              	.L84:
1014:Drivers/STM32G0xx_HAL_Driver/Src/stm32g0xx_hal_flash_ex.c ****   }
 989              		.loc 1 1014 29 discriminator 3 view .LVU256
 990 004e 164B     		ldr	r3, .L85+16
 991 0050 1B68     		ldr	r3, [r3]
 992 0052 9B02     		lsls	r3, r3, #10
 993 0054 E9D4     		bmi	.L78
1014:Drivers/STM32G0xx_HAL_Driver/Src/stm32g0xx_hal_flash_ex.c ****   }
 994              		.loc 1 1014 29 discriminator 5 view .LVU257
ARM GAS  /tmp/ccdudAn5.s 			page 37


 995 0056 124B     		ldr	r3, .L85+8
 996 0058 1A68     		ldr	r2, [r3]
 997 005a 9202     		lsls	r2, r2, #10
 998 005c 134B     		ldr	r3, .L85+20
 999 005e 1A40     		ands	r2, r3
1014:Drivers/STM32G0xx_HAL_Driver/Src/stm32g0xx_hal_flash_ex.c ****   }
 1000              		.loc 1 1014 27 discriminator 5 view .LVU258
 1001 0060 8023     		movs	r3, #128
 1002 0062 1B05     		lsls	r3, r3, #20
 1003 0064 9C46     		mov	ip, r3
 1004 0066 6244     		add	r2, r2, ip
 1005 0068 01E0     		b	.L76
 1006              	.L79:
 1007              		.loc 1 1020 13 view .LVU259
 1008 006a 8022     		movs	r2, #128
 1009 006c 1205     		lsls	r2, r2, #20
 1010              	.L76:
 1011              	.LVL61:
1021:Drivers/STM32G0xx_HAL_Driver/Src/stm32g0xx_hal_flash_ex.c ****   }
1022:Drivers/STM32G0xx_HAL_Driver/Src/stm32g0xx_hal_flash_ex.c **** 
1023:Drivers/STM32G0xx_HAL_Driver/Src/stm32g0xx_hal_flash_ex.c ****   pcrop = (FLASH->PCROP1BSR & FLASH_PCROP1BSR_PCROP1B_STRT);
 1012              		.loc 1 1023 3 is_stmt 1 view .LVU260
 1013              		.loc 1 1023 17 is_stmt 0 view .LVU261
 1014 006e 0A4D     		ldr	r5, .L85
 1015 0070 6B6B     		ldr	r3, [r5, #52]
 1016              	.LVL62:
1024:Drivers/STM32G0xx_HAL_Driver/Src/stm32g0xx_hal_flash_ex.c ****   *PCROP1BStartAddr = (pcrop << FLASH_PCROP_GRANULARITY_OFFSET);
 1017              		.loc 1 1024 3 is_stmt 1 view .LVU262
 1018              		.loc 1 1024 30 is_stmt 0 view .LVU263
 1019 0072 5B02     		lsls	r3, r3, #9
 1020              	.LVL63:
 1021              		.loc 1 1024 30 view .LVU264
 1022 0074 0E4C     		ldr	r4, .L85+24
 1023 0076 2340     		ands	r3, r4
 1024              		.loc 1 1024 21 view .LVU265
 1025 0078 0360     		str	r3, [r0]
1025:Drivers/STM32G0xx_HAL_Driver/Src/stm32g0xx_hal_flash_ex.c ****   *PCROP1BStartAddr += ropbase;
 1026              		.loc 1 1025 3 is_stmt 1 view .LVU266
 1027              		.loc 1 1025 21 is_stmt 0 view .LVU267
 1028 007a 9B18     		adds	r3, r3, r2
 1029 007c 0360     		str	r3, [r0]
1026:Drivers/STM32G0xx_HAL_Driver/Src/stm32g0xx_hal_flash_ex.c **** 
1027:Drivers/STM32G0xx_HAL_Driver/Src/stm32g0xx_hal_flash_ex.c ****   pcrop = (FLASH->PCROP1BER & FLASH_PCROP1BER_PCROP1B_END);
 1030              		.loc 1 1027 3 is_stmt 1 view .LVU268
 1031              		.loc 1 1027 17 is_stmt 0 view .LVU269
 1032 007e AB6B     		ldr	r3, [r5, #56]
 1033              	.LVL64:
1028:Drivers/STM32G0xx_HAL_Driver/Src/stm32g0xx_hal_flash_ex.c ****   *PCROP1BEndAddr = (pcrop << FLASH_PCROP_GRANULARITY_OFFSET);
 1034              		.loc 1 1028 3 is_stmt 1 view .LVU270
 1035              		.loc 1 1028 28 is_stmt 0 view .LVU271
 1036 0080 5B02     		lsls	r3, r3, #9
 1037              	.LVL65:
 1038              		.loc 1 1028 28 view .LVU272
 1039 0082 2340     		ands	r3, r4
 1040              		.loc 1 1028 19 view .LVU273
 1041 0084 0B60     		str	r3, [r1]
1029:Drivers/STM32G0xx_HAL_Driver/Src/stm32g0xx_hal_flash_ex.c ****   *PCROP1BEndAddr += (ropbase + FLASH_PCROP_GRANULARITY - 1U);
ARM GAS  /tmp/ccdudAn5.s 			page 38


 1042              		.loc 1 1029 3 is_stmt 1 view .LVU274
 1043              		.loc 1 1029 19 is_stmt 0 view .LVU275
 1044 0086 9B18     		adds	r3, r3, r2
 1045 0088 0A4A     		ldr	r2, .L85+28
 1046              	.LVL66:
 1047              		.loc 1 1029 19 view .LVU276
 1048 008a 9446     		mov	ip, r2
 1049 008c 6344     		add	r3, r3, ip
 1050 008e 0B60     		str	r3, [r1]
1030:Drivers/STM32G0xx_HAL_Driver/Src/stm32g0xx_hal_flash_ex.c **** }
 1051              		.loc 1 1030 1 view .LVU277
 1052              		@ sp needed
 1053 0090 30BD     		pop	{r4, r5, pc}
 1054              	.L80:
1020:Drivers/STM32G0xx_HAL_Driver/Src/stm32g0xx_hal_flash_ex.c ****   }
 1055              		.loc 1 1020 13 view .LVU278
 1056 0092 8022     		movs	r2, #128
 1057 0094 1205     		lsls	r2, r2, #20
 1058 0096 EAE7     		b	.L76
 1059              	.L86:
 1060              		.align	2
 1061              	.L85:
 1062 0098 00200240 		.word	1073881088
 1063 009c 0075FF1F 		.word	536835328
 1064 00a0 E075FF1F 		.word	536835552
 1065 00a4 00FE0700 		.word	523776
 1066 00a8 20200240 		.word	1073881120
 1067 00ac 00FC0F00 		.word	1047552
 1068 00b0 00FE0300 		.word	261632
 1069 00b4 FF010000 		.word	511
 1070              		.cfi_endproc
 1071              	.LFE378:
 1073              		.section	.text.FLASH_OB_PCROP2AConfig,"ax",%progbits
 1074              		.align	1
 1075              		.syntax unified
 1076              		.code	16
 1077              		.thumb_func
 1078              		.fpu softvfp
 1080              	FLASH_OB_PCROP2AConfig:
 1081              	.LVL67:
 1082              	.LFB379:
1031:Drivers/STM32G0xx_HAL_Driver/Src/stm32g0xx_hal_flash_ex.c **** 
1032:Drivers/STM32G0xx_HAL_Driver/Src/stm32g0xx_hal_flash_ex.c **** #if defined(FLASH_DBANK_SUPPORT)
1033:Drivers/STM32G0xx_HAL_Driver/Src/stm32g0xx_hal_flash_ex.c **** /**
1034:Drivers/STM32G0xx_HAL_Driver/Src/stm32g0xx_hal_flash_ex.c ****   * @brief  Configure the 2A Proprietary code readout protection.
1035:Drivers/STM32G0xx_HAL_Driver/Src/stm32g0xx_hal_flash_ex.c ****   * @note   It is recommended to align PCROP zone with page granularity when using PCROP_RDP or avo
1036:Drivers/STM32G0xx_HAL_Driver/Src/stm32g0xx_hal_flash_ex.c ****   *         having some executable code in a page where PCROP zone starts or ends.
1037:Drivers/STM32G0xx_HAL_Driver/Src/stm32g0xx_hal_flash_ex.c ****   * @note   Minimum PCROP area size is 2 times the chosen granularity: PCROPA_STRT and PCROPA_END.
1038:Drivers/STM32G0xx_HAL_Driver/Src/stm32g0xx_hal_flash_ex.c ****   *         So if the requirement is to be able to read-protect 1KB areas, the ROP granularity
1039:Drivers/STM32G0xx_HAL_Driver/Src/stm32g0xx_hal_flash_ex.c ****   *         has to be set to 512 Bytes
1040:Drivers/STM32G0xx_HAL_Driver/Src/stm32g0xx_hal_flash_ex.c ****   * @param  PCROP2AStartAddr  Specifies the Zone 2A Start address of the Proprietary code readout p
1041:Drivers/STM32G0xx_HAL_Driver/Src/stm32g0xx_hal_flash_ex.c ****   *         This parameter can be an address between begin and end of the flash
1042:Drivers/STM32G0xx_HAL_Driver/Src/stm32g0xx_hal_flash_ex.c ****   * @param  PCROP2AEndAddr  Specifies the Zone 2A end address of the Proprietary code readout prote
1043:Drivers/STM32G0xx_HAL_Driver/Src/stm32g0xx_hal_flash_ex.c ****   *         This parameter can be an address between PCROP2AStartAddr and end of the flash
1044:Drivers/STM32G0xx_HAL_Driver/Src/stm32g0xx_hal_flash_ex.c ****   * @retval None
1045:Drivers/STM32G0xx_HAL_Driver/Src/stm32g0xx_hal_flash_ex.c ****   */
1046:Drivers/STM32G0xx_HAL_Driver/Src/stm32g0xx_hal_flash_ex.c **** static void FLASH_OB_PCROP2AConfig(uint32_t PCROP2AStartAddr, uint32_t PCROP2AEndAddr)
ARM GAS  /tmp/ccdudAn5.s 			page 39


1047:Drivers/STM32G0xx_HAL_Driver/Src/stm32g0xx_hal_flash_ex.c **** {
 1083              		.loc 1 1047 1 is_stmt 1 view -0
 1084              		.cfi_startproc
 1085              		@ args = 0, pretend = 0, frame = 0
 1086              		@ frame_needed = 0, uses_anonymous_args = 0
 1087              		.loc 1 1047 1 is_stmt 0 view .LVU280
 1088 0000 10B5     		push	{r4, lr}
 1089              	.LCFI6:
 1090              		.cfi_def_cfa_offset 8
 1091              		.cfi_offset 4, -8
 1092              		.cfi_offset 14, -4
1048:Drivers/STM32G0xx_HAL_Driver/Src/stm32g0xx_hal_flash_ex.c ****   uint32_t startoffset;
 1093              		.loc 1 1048 3 is_stmt 1 view .LVU281
1049:Drivers/STM32G0xx_HAL_Driver/Src/stm32g0xx_hal_flash_ex.c ****   uint32_t endoffset;
 1094              		.loc 1 1049 3 view .LVU282
1050:Drivers/STM32G0xx_HAL_Driver/Src/stm32g0xx_hal_flash_ex.c ****   uint32_t ropbase;
 1095              		.loc 1 1050 3 view .LVU283
1051:Drivers/STM32G0xx_HAL_Driver/Src/stm32g0xx_hal_flash_ex.c **** 
1052:Drivers/STM32G0xx_HAL_Driver/Src/stm32g0xx_hal_flash_ex.c ****   /* Check if banks are swapped */
1053:Drivers/STM32G0xx_HAL_Driver/Src/stm32g0xx_hal_flash_ex.c ****   if ((FLASH->OPTR & FLASH_OPTR_nSWAP_BANK) != 0x00u)
 1096              		.loc 1 1053 3 view .LVU284
 1097              		.loc 1 1053 13 is_stmt 0 view .LVU285
 1098 0002 194B     		ldr	r3, .L94
 1099 0004 1B6A     		ldr	r3, [r3, #32]
 1100              		.loc 1 1053 6 view .LVU286
 1101 0006 DB02     		lsls	r3, r3, #11
 1102 0008 24D5     		bpl	.L91
1054:Drivers/STM32G0xx_HAL_Driver/Src/stm32g0xx_hal_flash_ex.c ****   {
1055:Drivers/STM32G0xx_HAL_Driver/Src/stm32g0xx_hal_flash_ex.c ****     /* Check the parameters */
1056:Drivers/STM32G0xx_HAL_Driver/Src/stm32g0xx_hal_flash_ex.c ****     assert_param(IS_FLASH_MAIN_SECONDHALF_MEM_ADDRESS(PCROP2AStartAddr));
 1103              		.loc 1 1056 5 is_stmt 1 view .LVU287
1057:Drivers/STM32G0xx_HAL_Driver/Src/stm32g0xx_hal_flash_ex.c ****     assert_param(IS_FLASH_MAIN_SECONDHALF_MEM_ADDRESS(PCROP2AEndAddr));
 1104              		.loc 1 1057 5 view .LVU288
1058:Drivers/STM32G0xx_HAL_Driver/Src/stm32g0xx_hal_flash_ex.c **** 
1059:Drivers/STM32G0xx_HAL_Driver/Src/stm32g0xx_hal_flash_ex.c ****     /* No Bank swap, bank 2 read only protection is on second half of Flash */
1060:Drivers/STM32G0xx_HAL_Driver/Src/stm32g0xx_hal_flash_ex.c ****     ropbase = (FLASH_BASE + FLASH_BANK_SIZE);
 1105              		.loc 1 1060 5 view .LVU289
 1106              		.loc 1 1060 29 is_stmt 0 view .LVU290
 1107 000a 184B     		ldr	r3, .L94+4
 1108 000c 1A68     		ldr	r2, [r3]
 1109 000e C023     		movs	r3, #192
 1110 0010 9B04     		lsls	r3, r3, #18
 1111 0012 1400     		movs	r4, r2
 1112 0014 1C40     		ands	r4, r3
 1113              		.loc 1 1060 27 view .LVU291
 1114 0016 1A42     		tst	r2, r3
 1115 0018 12D0     		beq	.L89
 1116              		.loc 1 1060 29 discriminator 2 view .LVU292
 1117 001a 8023     		movs	r3, #128
 1118 001c 5B04     		lsls	r3, r3, #17
 1119 001e 9C42     		cmp	r4, r3
 1120 0020 0AD0     		beq	.L93
 1121              	.L90:
 1122              		.loc 1 1060 29 discriminator 6 view .LVU293
 1123 0022 134B     		ldr	r3, .L94+8
 1124 0024 1B68     		ldr	r3, [r3]
 1125 0026 9B02     		lsls	r3, r3, #10
ARM GAS  /tmp/ccdudAn5.s 			page 40


 1126 0028 5B08     		lsrs	r3, r3, #1
 1127 002a 124A     		ldr	r2, .L94+12
 1128 002c 1340     		ands	r3, r2
 1129              		.loc 1 1060 27 discriminator 6 view .LVU294
 1130 002e 8022     		movs	r2, #128
 1131 0030 1205     		lsls	r2, r2, #20
 1132 0032 9446     		mov	ip, r2
 1133 0034 6344     		add	r3, r3, ip
 1134 0036 0FE0     		b	.L88
 1135              	.L93:
 1136              		.loc 1 1060 29 discriminator 3 view .LVU295
 1137 0038 0F4B     		ldr	r3, .L94+16
 1138 003a 1B68     		ldr	r3, [r3]
 1139 003c 9B02     		lsls	r3, r3, #10
 1140 003e F0D4     		bmi	.L90
 1141              	.L89:
 1142              		.loc 1 1060 29 discriminator 5 view .LVU296
 1143 0040 0B4B     		ldr	r3, .L94+8
 1144 0042 1B68     		ldr	r3, [r3]
 1145 0044 9B02     		lsls	r3, r3, #10
 1146 0046 0D4A     		ldr	r2, .L94+20
 1147 0048 1340     		ands	r3, r2
 1148              		.loc 1 1060 27 discriminator 5 view .LVU297
 1149 004a 8022     		movs	r2, #128
 1150 004c 1205     		lsls	r2, r2, #20
 1151 004e 9446     		mov	ip, r2
 1152 0050 6344     		add	r3, r3, ip
 1153 0052 01E0     		b	.L88
 1154              	.L91:
1061:Drivers/STM32G0xx_HAL_Driver/Src/stm32g0xx_hal_flash_ex.c ****   }
1062:Drivers/STM32G0xx_HAL_Driver/Src/stm32g0xx_hal_flash_ex.c ****   else
1063:Drivers/STM32G0xx_HAL_Driver/Src/stm32g0xx_hal_flash_ex.c ****   {
1064:Drivers/STM32G0xx_HAL_Driver/Src/stm32g0xx_hal_flash_ex.c ****     /* Check the parameters */
1065:Drivers/STM32G0xx_HAL_Driver/Src/stm32g0xx_hal_flash_ex.c ****     assert_param(IS_FLASH_MAIN_FIRSTHALF_MEM_ADDRESS(PCROP2AStartAddr));
1066:Drivers/STM32G0xx_HAL_Driver/Src/stm32g0xx_hal_flash_ex.c ****     assert_param(IS_FLASH_MAIN_FIRSTHALF_MEM_ADDRESS(PCROP2AEndAddr));
1067:Drivers/STM32G0xx_HAL_Driver/Src/stm32g0xx_hal_flash_ex.c **** 
1068:Drivers/STM32G0xx_HAL_Driver/Src/stm32g0xx_hal_flash_ex.c ****     /* Bank swap, bank 2 read only protection is on first half of Flash */
1069:Drivers/STM32G0xx_HAL_Driver/Src/stm32g0xx_hal_flash_ex.c ****     ropbase = FLASH_BASE;
 1155              		.loc 1 1069 13 view .LVU298
 1156 0054 8023     		movs	r3, #128
 1157 0056 1B05     		lsls	r3, r3, #20
 1158              	.L88:
 1159              	.LVL68:
1070:Drivers/STM32G0xx_HAL_Driver/Src/stm32g0xx_hal_flash_ex.c ****   }
1071:Drivers/STM32G0xx_HAL_Driver/Src/stm32g0xx_hal_flash_ex.c **** 
1072:Drivers/STM32G0xx_HAL_Driver/Src/stm32g0xx_hal_flash_ex.c ****   /* Configure the Proprietary code readout protection offset */
1073:Drivers/STM32G0xx_HAL_Driver/Src/stm32g0xx_hal_flash_ex.c ****   startoffset = ((PCROP2AStartAddr - ropbase) >> FLASH_PCROP_GRANULARITY_OFFSET);
 1160              		.loc 1 1073 3 is_stmt 1 view .LVU299
 1161              		.loc 1 1073 36 is_stmt 0 view .LVU300
 1162 0058 C01A     		subs	r0, r0, r3
 1163              	.LVL69:
 1164              		.loc 1 1073 15 view .LVU301
 1165 005a 400A     		lsrs	r0, r0, #9
 1166              	.LVL70:
1074:Drivers/STM32G0xx_HAL_Driver/Src/stm32g0xx_hal_flash_ex.c ****   endoffset = ((PCROP2AEndAddr - ropbase) >> FLASH_PCROP_GRANULARITY_OFFSET);
 1167              		.loc 1 1074 3 is_stmt 1 view .LVU302
 1168              		.loc 1 1074 32 is_stmt 0 view .LVU303
ARM GAS  /tmp/ccdudAn5.s 			page 41


 1169 005c C91A     		subs	r1, r1, r3
 1170              	.LVL71:
 1171              		.loc 1 1074 13 view .LVU304
 1172 005e 490A     		lsrs	r1, r1, #9
 1173              	.LVL72:
1075:Drivers/STM32G0xx_HAL_Driver/Src/stm32g0xx_hal_flash_ex.c **** 
1076:Drivers/STM32G0xx_HAL_Driver/Src/stm32g0xx_hal_flash_ex.c ****   /* Set Zone A start offset */
1077:Drivers/STM32G0xx_HAL_Driver/Src/stm32g0xx_hal_flash_ex.c ****   FLASH->PCROP2ASR = startoffset;
 1174              		.loc 1 1077 3 is_stmt 1 view .LVU305
 1175              		.loc 1 1077 20 is_stmt 0 view .LVU306
 1176 0060 014B     		ldr	r3, .L94
 1177              	.LVL73:
 1178              		.loc 1 1077 20 view .LVU307
 1179 0062 5864     		str	r0, [r3, #68]
1078:Drivers/STM32G0xx_HAL_Driver/Src/stm32g0xx_hal_flash_ex.c ****   /* Set Zone A end offset */
1079:Drivers/STM32G0xx_HAL_Driver/Src/stm32g0xx_hal_flash_ex.c ****   FLASH->PCROP2AER = endoffset;
 1180              		.loc 1 1079 3 is_stmt 1 view .LVU308
 1181              		.loc 1 1079 20 is_stmt 0 view .LVU309
 1182 0064 9964     		str	r1, [r3, #72]
1080:Drivers/STM32G0xx_HAL_Driver/Src/stm32g0xx_hal_flash_ex.c **** }
 1183              		.loc 1 1080 1 view .LVU310
 1184              		@ sp needed
 1185 0066 10BD     		pop	{r4, pc}
 1186              	.L95:
 1187              		.align	2
 1188              	.L94:
 1189 0068 00200240 		.word	1073881088
 1190 006c 0075FF1F 		.word	536835328
 1191 0070 E075FF1F 		.word	536835552
 1192 0074 00FE0700 		.word	523776
 1193 0078 20200240 		.word	1073881120
 1194 007c 00FC0F00 		.word	1047552
 1195              		.cfi_endproc
 1196              	.LFE379:
 1198              		.section	.text.FLASH_OB_PCROP2BConfig,"ax",%progbits
 1199              		.align	1
 1200              		.syntax unified
 1201              		.code	16
 1202              		.thumb_func
 1203              		.fpu softvfp
 1205              	FLASH_OB_PCROP2BConfig:
 1206              	.LVL74:
 1207              	.LFB380:
1081:Drivers/STM32G0xx_HAL_Driver/Src/stm32g0xx_hal_flash_ex.c **** 
1082:Drivers/STM32G0xx_HAL_Driver/Src/stm32g0xx_hal_flash_ex.c **** /**
1083:Drivers/STM32G0xx_HAL_Driver/Src/stm32g0xx_hal_flash_ex.c ****   * @brief  Configure the 2B Proprietary code readout protection.
1084:Drivers/STM32G0xx_HAL_Driver/Src/stm32g0xx_hal_flash_ex.c ****   * @note   It is recommended to align PCROP zone with page granularity when using PCROP_RDP or avo
1085:Drivers/STM32G0xx_HAL_Driver/Src/stm32g0xx_hal_flash_ex.c ****   *         having some executable code in a page where PCROP zone starts or ends.
1086:Drivers/STM32G0xx_HAL_Driver/Src/stm32g0xx_hal_flash_ex.c ****   * @note   Minimum PCROP area size is 2 times the chosen granularity: PCROP_STRT and PCROP_END.
1087:Drivers/STM32G0xx_HAL_Driver/Src/stm32g0xx_hal_flash_ex.c ****   *         So if the requirement is to be able to read-protect 1KB areas, the ROP granularity
1088:Drivers/STM32G0xx_HAL_Driver/Src/stm32g0xx_hal_flash_ex.c ****   *         has to be set to 512 Bytes
1089:Drivers/STM32G0xx_HAL_Driver/Src/stm32g0xx_hal_flash_ex.c ****   * @param  PCROP2BStartAddr  Specifies the Zone 2B Start address of the Proprietary code readout p
1090:Drivers/STM32G0xx_HAL_Driver/Src/stm32g0xx_hal_flash_ex.c ****   *         This parameter can be an address between begin and end of the flash
1091:Drivers/STM32G0xx_HAL_Driver/Src/stm32g0xx_hal_flash_ex.c ****   * @param  PCROP2BEndAddr  Specifies the Zone 2B end address of the Proprietary code readout prote
1092:Drivers/STM32G0xx_HAL_Driver/Src/stm32g0xx_hal_flash_ex.c ****   *         This parameter can be an address between PCROP2BStartAddr and end of the flash
1093:Drivers/STM32G0xx_HAL_Driver/Src/stm32g0xx_hal_flash_ex.c ****   * @retval None
1094:Drivers/STM32G0xx_HAL_Driver/Src/stm32g0xx_hal_flash_ex.c ****   */
ARM GAS  /tmp/ccdudAn5.s 			page 42


1095:Drivers/STM32G0xx_HAL_Driver/Src/stm32g0xx_hal_flash_ex.c **** static void FLASH_OB_PCROP2BConfig(uint32_t PCROP2BStartAddr, uint32_t PCROP2BEndAddr)
1096:Drivers/STM32G0xx_HAL_Driver/Src/stm32g0xx_hal_flash_ex.c **** {
 1208              		.loc 1 1096 1 is_stmt 1 view -0
 1209              		.cfi_startproc
 1210              		@ args = 0, pretend = 0, frame = 0
 1211              		@ frame_needed = 0, uses_anonymous_args = 0
 1212              		.loc 1 1096 1 is_stmt 0 view .LVU312
 1213 0000 10B5     		push	{r4, lr}
 1214              	.LCFI7:
 1215              		.cfi_def_cfa_offset 8
 1216              		.cfi_offset 4, -8
 1217              		.cfi_offset 14, -4
1097:Drivers/STM32G0xx_HAL_Driver/Src/stm32g0xx_hal_flash_ex.c ****   uint32_t startoffset;
 1218              		.loc 1 1097 3 is_stmt 1 view .LVU313
1098:Drivers/STM32G0xx_HAL_Driver/Src/stm32g0xx_hal_flash_ex.c ****   uint32_t endoffset;
 1219              		.loc 1 1098 3 view .LVU314
1099:Drivers/STM32G0xx_HAL_Driver/Src/stm32g0xx_hal_flash_ex.c ****   uint32_t ropbase;
 1220              		.loc 1 1099 3 view .LVU315
1100:Drivers/STM32G0xx_HAL_Driver/Src/stm32g0xx_hal_flash_ex.c **** 
1101:Drivers/STM32G0xx_HAL_Driver/Src/stm32g0xx_hal_flash_ex.c ****   /* Check if banks are swapped */
1102:Drivers/STM32G0xx_HAL_Driver/Src/stm32g0xx_hal_flash_ex.c ****   if ((FLASH->OPTR & FLASH_OPTR_nSWAP_BANK) != 0x00u)
 1221              		.loc 1 1102 3 view .LVU316
 1222              		.loc 1 1102 13 is_stmt 0 view .LVU317
 1223 0002 194B     		ldr	r3, .L103
 1224 0004 1B6A     		ldr	r3, [r3, #32]
 1225              		.loc 1 1102 6 view .LVU318
 1226 0006 DB02     		lsls	r3, r3, #11
 1227 0008 24D5     		bpl	.L100
1103:Drivers/STM32G0xx_HAL_Driver/Src/stm32g0xx_hal_flash_ex.c ****   {
1104:Drivers/STM32G0xx_HAL_Driver/Src/stm32g0xx_hal_flash_ex.c ****     /* Check the parameters */
1105:Drivers/STM32G0xx_HAL_Driver/Src/stm32g0xx_hal_flash_ex.c ****     assert_param(IS_FLASH_MAIN_SECONDHALF_MEM_ADDRESS(PCROP2BStartAddr));
 1228              		.loc 1 1105 5 is_stmt 1 view .LVU319
1106:Drivers/STM32G0xx_HAL_Driver/Src/stm32g0xx_hal_flash_ex.c ****     assert_param(IS_FLASH_MAIN_SECONDHALF_MEM_ADDRESS(PCROP2BEndAddr));
 1229              		.loc 1 1106 5 view .LVU320
1107:Drivers/STM32G0xx_HAL_Driver/Src/stm32g0xx_hal_flash_ex.c **** 
1108:Drivers/STM32G0xx_HAL_Driver/Src/stm32g0xx_hal_flash_ex.c ****     /* No Bank swap, bank 2 read only protection is on second half of Flash */
1109:Drivers/STM32G0xx_HAL_Driver/Src/stm32g0xx_hal_flash_ex.c ****     ropbase = (FLASH_BASE + FLASH_BANK_SIZE);
 1230              		.loc 1 1109 5 view .LVU321
 1231              		.loc 1 1109 29 is_stmt 0 view .LVU322
 1232 000a 184B     		ldr	r3, .L103+4
 1233 000c 1A68     		ldr	r2, [r3]
 1234 000e C023     		movs	r3, #192
 1235 0010 9B04     		lsls	r3, r3, #18
 1236 0012 1400     		movs	r4, r2
 1237 0014 1C40     		ands	r4, r3
 1238              		.loc 1 1109 27 view .LVU323
 1239 0016 1A42     		tst	r2, r3
 1240 0018 12D0     		beq	.L98
 1241              		.loc 1 1109 29 discriminator 2 view .LVU324
 1242 001a 8023     		movs	r3, #128
 1243 001c 5B04     		lsls	r3, r3, #17
 1244 001e 9C42     		cmp	r4, r3
 1245 0020 0AD0     		beq	.L102
 1246              	.L99:
 1247              		.loc 1 1109 29 discriminator 6 view .LVU325
 1248 0022 134B     		ldr	r3, .L103+8
 1249 0024 1B68     		ldr	r3, [r3]
ARM GAS  /tmp/ccdudAn5.s 			page 43


 1250 0026 9B02     		lsls	r3, r3, #10
 1251 0028 5B08     		lsrs	r3, r3, #1
 1252 002a 124A     		ldr	r2, .L103+12
 1253 002c 1340     		ands	r3, r2
 1254              		.loc 1 1109 27 discriminator 6 view .LVU326
 1255 002e 8022     		movs	r2, #128
 1256 0030 1205     		lsls	r2, r2, #20
 1257 0032 9446     		mov	ip, r2
 1258 0034 6344     		add	r3, r3, ip
 1259 0036 0FE0     		b	.L97
 1260              	.L102:
 1261              		.loc 1 1109 29 discriminator 3 view .LVU327
 1262 0038 0F4B     		ldr	r3, .L103+16
 1263 003a 1B68     		ldr	r3, [r3]
 1264 003c 9B02     		lsls	r3, r3, #10
 1265 003e F0D4     		bmi	.L99
 1266              	.L98:
 1267              		.loc 1 1109 29 discriminator 5 view .LVU328
 1268 0040 0B4B     		ldr	r3, .L103+8
 1269 0042 1B68     		ldr	r3, [r3]
 1270 0044 9B02     		lsls	r3, r3, #10
 1271 0046 0D4A     		ldr	r2, .L103+20
 1272 0048 1340     		ands	r3, r2
 1273              		.loc 1 1109 27 discriminator 5 view .LVU329
 1274 004a 8022     		movs	r2, #128
 1275 004c 1205     		lsls	r2, r2, #20
 1276 004e 9446     		mov	ip, r2
 1277 0050 6344     		add	r3, r3, ip
 1278 0052 01E0     		b	.L97
 1279              	.L100:
1110:Drivers/STM32G0xx_HAL_Driver/Src/stm32g0xx_hal_flash_ex.c ****   }
1111:Drivers/STM32G0xx_HAL_Driver/Src/stm32g0xx_hal_flash_ex.c ****   else
1112:Drivers/STM32G0xx_HAL_Driver/Src/stm32g0xx_hal_flash_ex.c ****   {
1113:Drivers/STM32G0xx_HAL_Driver/Src/stm32g0xx_hal_flash_ex.c ****     /* Check the parameters */
1114:Drivers/STM32G0xx_HAL_Driver/Src/stm32g0xx_hal_flash_ex.c ****     assert_param(IS_FLASH_MAIN_FIRSTHALF_MEM_ADDRESS(PCROP2BStartAddr));
1115:Drivers/STM32G0xx_HAL_Driver/Src/stm32g0xx_hal_flash_ex.c ****     assert_param(IS_FLASH_MAIN_FIRSTHALF_MEM_ADDRESS(PCROP2BEndAddr));
1116:Drivers/STM32G0xx_HAL_Driver/Src/stm32g0xx_hal_flash_ex.c **** 
1117:Drivers/STM32G0xx_HAL_Driver/Src/stm32g0xx_hal_flash_ex.c ****     /* Bank swap, bank 2 read only protection is on first half of Flash */
1118:Drivers/STM32G0xx_HAL_Driver/Src/stm32g0xx_hal_flash_ex.c ****     ropbase = FLASH_BASE;
 1280              		.loc 1 1118 13 view .LVU330
 1281 0054 8023     		movs	r3, #128
 1282 0056 1B05     		lsls	r3, r3, #20
 1283              	.L97:
 1284              	.LVL75:
1119:Drivers/STM32G0xx_HAL_Driver/Src/stm32g0xx_hal_flash_ex.c ****   }
1120:Drivers/STM32G0xx_HAL_Driver/Src/stm32g0xx_hal_flash_ex.c **** 
1121:Drivers/STM32G0xx_HAL_Driver/Src/stm32g0xx_hal_flash_ex.c ****   /* Configure the Proprietary code readout protection offset */
1122:Drivers/STM32G0xx_HAL_Driver/Src/stm32g0xx_hal_flash_ex.c ****   startoffset = ((PCROP2BStartAddr - ropbase) >> FLASH_PCROP_GRANULARITY_OFFSET);
 1285              		.loc 1 1122 3 is_stmt 1 view .LVU331
 1286              		.loc 1 1122 36 is_stmt 0 view .LVU332
 1287 0058 C01A     		subs	r0, r0, r3
 1288              	.LVL76:
 1289              		.loc 1 1122 15 view .LVU333
 1290 005a 400A     		lsrs	r0, r0, #9
 1291              	.LVL77:
1123:Drivers/STM32G0xx_HAL_Driver/Src/stm32g0xx_hal_flash_ex.c ****   endoffset = ((PCROP2BEndAddr - ropbase) >> FLASH_PCROP_GRANULARITY_OFFSET);
 1292              		.loc 1 1123 3 is_stmt 1 view .LVU334
ARM GAS  /tmp/ccdudAn5.s 			page 44


 1293              		.loc 1 1123 32 is_stmt 0 view .LVU335
 1294 005c C91A     		subs	r1, r1, r3
 1295              	.LVL78:
 1296              		.loc 1 1123 13 view .LVU336
 1297 005e 490A     		lsrs	r1, r1, #9
 1298              	.LVL79:
1124:Drivers/STM32G0xx_HAL_Driver/Src/stm32g0xx_hal_flash_ex.c **** 
1125:Drivers/STM32G0xx_HAL_Driver/Src/stm32g0xx_hal_flash_ex.c ****   /* Set Zone B start offset */
1126:Drivers/STM32G0xx_HAL_Driver/Src/stm32g0xx_hal_flash_ex.c ****   FLASH->PCROP2BSR = startoffset;
 1299              		.loc 1 1126 3 is_stmt 1 view .LVU337
 1300              		.loc 1 1126 20 is_stmt 0 view .LVU338
 1301 0060 014B     		ldr	r3, .L103
 1302              	.LVL80:
 1303              		.loc 1 1126 20 view .LVU339
 1304 0062 5865     		str	r0, [r3, #84]
1127:Drivers/STM32G0xx_HAL_Driver/Src/stm32g0xx_hal_flash_ex.c ****   /* Set Zone B end offset */
1128:Drivers/STM32G0xx_HAL_Driver/Src/stm32g0xx_hal_flash_ex.c ****   FLASH->PCROP2BER = endoffset;
 1305              		.loc 1 1128 3 is_stmt 1 view .LVU340
 1306              		.loc 1 1128 20 is_stmt 0 view .LVU341
 1307 0064 9965     		str	r1, [r3, #88]
1129:Drivers/STM32G0xx_HAL_Driver/Src/stm32g0xx_hal_flash_ex.c **** }
 1308              		.loc 1 1129 1 view .LVU342
 1309              		@ sp needed
 1310 0066 10BD     		pop	{r4, pc}
 1311              	.L104:
 1312              		.align	2
 1313              	.L103:
 1314 0068 00200240 		.word	1073881088
 1315 006c 0075FF1F 		.word	536835328
 1316 0070 E075FF1F 		.word	536835552
 1317 0074 00FE0700 		.word	523776
 1318 0078 20200240 		.word	1073881120
 1319 007c 00FC0F00 		.word	1047552
 1320              		.cfi_endproc
 1321              	.LFE380:
 1323              		.section	.text.FLASH_OB_GetPCROP2A,"ax",%progbits
 1324              		.align	1
 1325              		.syntax unified
 1326              		.code	16
 1327              		.thumb_func
 1328              		.fpu softvfp
 1330              	FLASH_OB_GetPCROP2A:
 1331              	.LVL81:
 1332              	.LFB381:
1130:Drivers/STM32G0xx_HAL_Driver/Src/stm32g0xx_hal_flash_ex.c **** 
1131:Drivers/STM32G0xx_HAL_Driver/Src/stm32g0xx_hal_flash_ex.c **** /**
1132:Drivers/STM32G0xx_HAL_Driver/Src/stm32g0xx_hal_flash_ex.c ****   * @brief  Return the FLASH PCROP Protection Option Bytes value.
1133:Drivers/STM32G0xx_HAL_Driver/Src/stm32g0xx_hal_flash_ex.c ****   * @param  PCROP2AStartAddr [out]  Specifies the address where to copied the start address
1134:Drivers/STM32G0xx_HAL_Driver/Src/stm32g0xx_hal_flash_ex.c ****   *         of the 2A Proprietary code readout protection
1135:Drivers/STM32G0xx_HAL_Driver/Src/stm32g0xx_hal_flash_ex.c ****   * @param  PCROP2AEndAddr [out]  Specifies the address where to copied the end address of
1136:Drivers/STM32G0xx_HAL_Driver/Src/stm32g0xx_hal_flash_ex.c ****   *         the 2A Proprietary code readout protection
1137:Drivers/STM32G0xx_HAL_Driver/Src/stm32g0xx_hal_flash_ex.c ****   * @retval None
1138:Drivers/STM32G0xx_HAL_Driver/Src/stm32g0xx_hal_flash_ex.c ****   */
1139:Drivers/STM32G0xx_HAL_Driver/Src/stm32g0xx_hal_flash_ex.c **** static void FLASH_OB_GetPCROP2A(uint32_t *PCROP2AStartAddr, uint32_t *PCROP2AEndAddr)
1140:Drivers/STM32G0xx_HAL_Driver/Src/stm32g0xx_hal_flash_ex.c **** {
 1333              		.loc 1 1140 1 is_stmt 1 view -0
 1334              		.cfi_startproc
ARM GAS  /tmp/ccdudAn5.s 			page 45


 1335              		@ args = 0, pretend = 0, frame = 0
 1336              		@ frame_needed = 0, uses_anonymous_args = 0
 1337              		.loc 1 1140 1 is_stmt 0 view .LVU344
 1338 0000 30B5     		push	{r4, r5, lr}
 1339              	.LCFI8:
 1340              		.cfi_def_cfa_offset 12
 1341              		.cfi_offset 4, -12
 1342              		.cfi_offset 5, -8
 1343              		.cfi_offset 14, -4
1141:Drivers/STM32G0xx_HAL_Driver/Src/stm32g0xx_hal_flash_ex.c ****   uint32_t pcrop;
 1344              		.loc 1 1141 3 is_stmt 1 view .LVU345
1142:Drivers/STM32G0xx_HAL_Driver/Src/stm32g0xx_hal_flash_ex.c ****   uint32_t ropbase;
 1345              		.loc 1 1142 3 view .LVU346
1143:Drivers/STM32G0xx_HAL_Driver/Src/stm32g0xx_hal_flash_ex.c **** 
1144:Drivers/STM32G0xx_HAL_Driver/Src/stm32g0xx_hal_flash_ex.c ****   /* Check if banks are swapped */
1145:Drivers/STM32G0xx_HAL_Driver/Src/stm32g0xx_hal_flash_ex.c ****   if ((FLASH->OPTR & FLASH_OPTR_nSWAP_BANK) != 0x00u)
 1346              		.loc 1 1145 3 view .LVU347
 1347              		.loc 1 1145 13 is_stmt 0 view .LVU348
 1348 0002 1E4B     		ldr	r3, .L112
 1349 0004 1B6A     		ldr	r3, [r3, #32]
 1350              		.loc 1 1145 6 view .LVU349
 1351 0006 DB02     		lsls	r3, r3, #11
 1352 0008 24D5     		bpl	.L109
1146:Drivers/STM32G0xx_HAL_Driver/Src/stm32g0xx_hal_flash_ex.c ****   {
1147:Drivers/STM32G0xx_HAL_Driver/Src/stm32g0xx_hal_flash_ex.c ****     /* No Bank swap, bank 2 read only protection is on second half of Flash */
1148:Drivers/STM32G0xx_HAL_Driver/Src/stm32g0xx_hal_flash_ex.c ****     ropbase = (FLASH_BASE + FLASH_BANK_SIZE);
 1353              		.loc 1 1148 5 is_stmt 1 view .LVU350
 1354              		.loc 1 1148 29 is_stmt 0 view .LVU351
 1355 000a 1D4B     		ldr	r3, .L112+4
 1356 000c 1A68     		ldr	r2, [r3]
 1357 000e C023     		movs	r3, #192
 1358 0010 9B04     		lsls	r3, r3, #18
 1359 0012 1400     		movs	r4, r2
 1360 0014 1C40     		ands	r4, r3
 1361              		.loc 1 1148 27 view .LVU352
 1362 0016 1A42     		tst	r2, r3
 1363 0018 12D0     		beq	.L107
 1364              		.loc 1 1148 29 discriminator 2 view .LVU353
 1365 001a 8023     		movs	r3, #128
 1366 001c 5B04     		lsls	r3, r3, #17
 1367 001e 9C42     		cmp	r4, r3
 1368 0020 0AD0     		beq	.L111
 1369              	.L108:
 1370              		.loc 1 1148 29 discriminator 6 view .LVU354
 1371 0022 184B     		ldr	r3, .L112+8
 1372 0024 1A68     		ldr	r2, [r3]
 1373 0026 9202     		lsls	r2, r2, #10
 1374 0028 5208     		lsrs	r2, r2, #1
 1375 002a 174B     		ldr	r3, .L112+12
 1376 002c 1A40     		ands	r2, r3
 1377              		.loc 1 1148 27 discriminator 6 view .LVU355
 1378 002e 8023     		movs	r3, #128
 1379 0030 1B05     		lsls	r3, r3, #20
 1380 0032 9C46     		mov	ip, r3
 1381 0034 6244     		add	r2, r2, ip
 1382 0036 0FE0     		b	.L106
 1383              	.L111:
ARM GAS  /tmp/ccdudAn5.s 			page 46


 1384              		.loc 1 1148 29 discriminator 3 view .LVU356
 1385 0038 144B     		ldr	r3, .L112+16
 1386 003a 1B68     		ldr	r3, [r3]
 1387 003c 9B02     		lsls	r3, r3, #10
 1388 003e F0D4     		bmi	.L108
 1389              	.L107:
 1390              		.loc 1 1148 29 discriminator 5 view .LVU357
 1391 0040 104B     		ldr	r3, .L112+8
 1392 0042 1A68     		ldr	r2, [r3]
 1393 0044 9202     		lsls	r2, r2, #10
 1394 0046 124B     		ldr	r3, .L112+20
 1395 0048 1A40     		ands	r2, r3
 1396              		.loc 1 1148 27 discriminator 5 view .LVU358
 1397 004a 8023     		movs	r3, #128
 1398 004c 1B05     		lsls	r3, r3, #20
 1399 004e 9C46     		mov	ip, r3
 1400 0050 6244     		add	r2, r2, ip
 1401 0052 01E0     		b	.L106
 1402              	.L109:
1149:Drivers/STM32G0xx_HAL_Driver/Src/stm32g0xx_hal_flash_ex.c ****   }
1150:Drivers/STM32G0xx_HAL_Driver/Src/stm32g0xx_hal_flash_ex.c ****   else
1151:Drivers/STM32G0xx_HAL_Driver/Src/stm32g0xx_hal_flash_ex.c ****   {
1152:Drivers/STM32G0xx_HAL_Driver/Src/stm32g0xx_hal_flash_ex.c ****     /* Bank swap, bank 2 read only protection is on first half of Flash */
1153:Drivers/STM32G0xx_HAL_Driver/Src/stm32g0xx_hal_flash_ex.c ****     ropbase = FLASH_BASE;
 1403              		.loc 1 1153 13 view .LVU359
 1404 0054 8022     		movs	r2, #128
 1405 0056 1205     		lsls	r2, r2, #20
 1406              	.L106:
 1407              	.LVL82:
1154:Drivers/STM32G0xx_HAL_Driver/Src/stm32g0xx_hal_flash_ex.c ****   }
1155:Drivers/STM32G0xx_HAL_Driver/Src/stm32g0xx_hal_flash_ex.c **** 
1156:Drivers/STM32G0xx_HAL_Driver/Src/stm32g0xx_hal_flash_ex.c ****   pcrop = (FLASH->PCROP2ASR & FLASH_PCROP2ASR_PCROP2A_STRT);
 1408              		.loc 1 1156 3 is_stmt 1 view .LVU360
 1409              		.loc 1 1156 17 is_stmt 0 view .LVU361
 1410 0058 084D     		ldr	r5, .L112
 1411 005a 6B6C     		ldr	r3, [r5, #68]
 1412              	.LVL83:
1157:Drivers/STM32G0xx_HAL_Driver/Src/stm32g0xx_hal_flash_ex.c ****   *PCROP2AStartAddr = (pcrop << FLASH_PCROP_GRANULARITY_OFFSET);
 1413              		.loc 1 1157 3 is_stmt 1 view .LVU362
 1414              		.loc 1 1157 30 is_stmt 0 view .LVU363
 1415 005c 5B02     		lsls	r3, r3, #9
 1416              	.LVL84:
 1417              		.loc 1 1157 30 view .LVU364
 1418 005e 0D4C     		ldr	r4, .L112+24
 1419 0060 2340     		ands	r3, r4
 1420              		.loc 1 1157 21 view .LVU365
 1421 0062 0360     		str	r3, [r0]
1158:Drivers/STM32G0xx_HAL_Driver/Src/stm32g0xx_hal_flash_ex.c ****   *PCROP2AStartAddr += ropbase;
 1422              		.loc 1 1158 3 is_stmt 1 view .LVU366
 1423              		.loc 1 1158 21 is_stmt 0 view .LVU367
 1424 0064 9B18     		adds	r3, r3, r2
 1425 0066 0360     		str	r3, [r0]
1159:Drivers/STM32G0xx_HAL_Driver/Src/stm32g0xx_hal_flash_ex.c **** 
1160:Drivers/STM32G0xx_HAL_Driver/Src/stm32g0xx_hal_flash_ex.c ****   pcrop = (FLASH->PCROP2AER & FLASH_PCROP2AER_PCROP2A_END);
 1426              		.loc 1 1160 3 is_stmt 1 view .LVU368
 1427              		.loc 1 1160 17 is_stmt 0 view .LVU369
 1428 0068 AB6C     		ldr	r3, [r5, #72]
ARM GAS  /tmp/ccdudAn5.s 			page 47


 1429              	.LVL85:
1161:Drivers/STM32G0xx_HAL_Driver/Src/stm32g0xx_hal_flash_ex.c ****   *PCROP2AEndAddr = (pcrop << FLASH_PCROP_GRANULARITY_OFFSET);
 1430              		.loc 1 1161 3 is_stmt 1 view .LVU370
 1431              		.loc 1 1161 28 is_stmt 0 view .LVU371
 1432 006a 5B02     		lsls	r3, r3, #9
 1433              	.LVL86:
 1434              		.loc 1 1161 28 view .LVU372
 1435 006c 2340     		ands	r3, r4
 1436              		.loc 1 1161 19 view .LVU373
 1437 006e 0B60     		str	r3, [r1]
1162:Drivers/STM32G0xx_HAL_Driver/Src/stm32g0xx_hal_flash_ex.c ****   *PCROP2AEndAddr += (ropbase + FLASH_PCROP_GRANULARITY - 1U);
 1438              		.loc 1 1162 3 is_stmt 1 view .LVU374
 1439              		.loc 1 1162 19 is_stmt 0 view .LVU375
 1440 0070 9B18     		adds	r3, r3, r2
 1441 0072 094A     		ldr	r2, .L112+28
 1442              	.LVL87:
 1443              		.loc 1 1162 19 view .LVU376
 1444 0074 9446     		mov	ip, r2
 1445 0076 6344     		add	r3, r3, ip
 1446 0078 0B60     		str	r3, [r1]
1163:Drivers/STM32G0xx_HAL_Driver/Src/stm32g0xx_hal_flash_ex.c **** }
 1447              		.loc 1 1163 1 view .LVU377
 1448              		@ sp needed
 1449 007a 30BD     		pop	{r4, r5, pc}
 1450              	.L113:
 1451              		.align	2
 1452              	.L112:
 1453 007c 00200240 		.word	1073881088
 1454 0080 0075FF1F 		.word	536835328
 1455 0084 E075FF1F 		.word	536835552
 1456 0088 00FE0700 		.word	523776
 1457 008c 20200240 		.word	1073881120
 1458 0090 00FC0F00 		.word	1047552
 1459 0094 00FE0300 		.word	261632
 1460 0098 FF010000 		.word	511
 1461              		.cfi_endproc
 1462              	.LFE381:
 1464              		.section	.text.FLASH_OB_GetPCROP2B,"ax",%progbits
 1465              		.align	1
 1466              		.syntax unified
 1467              		.code	16
 1468              		.thumb_func
 1469              		.fpu softvfp
 1471              	FLASH_OB_GetPCROP2B:
 1472              	.LVL88:
 1473              	.LFB382:
1164:Drivers/STM32G0xx_HAL_Driver/Src/stm32g0xx_hal_flash_ex.c **** 
1165:Drivers/STM32G0xx_HAL_Driver/Src/stm32g0xx_hal_flash_ex.c **** /**
1166:Drivers/STM32G0xx_HAL_Driver/Src/stm32g0xx_hal_flash_ex.c ****   * @brief  Return the FLASH PCROP Protection Option Bytes value.
1167:Drivers/STM32G0xx_HAL_Driver/Src/stm32g0xx_hal_flash_ex.c ****   * @param  PCROP2BStartAddr [out]  Specifies the address where to copied the start address
1168:Drivers/STM32G0xx_HAL_Driver/Src/stm32g0xx_hal_flash_ex.c ****   *         of the 2B Proprietary code readout protection
1169:Drivers/STM32G0xx_HAL_Driver/Src/stm32g0xx_hal_flash_ex.c ****   * @param  PCROP2BEndAddr [out]  Specifies the address where to copied the end address of
1170:Drivers/STM32G0xx_HAL_Driver/Src/stm32g0xx_hal_flash_ex.c ****   *         the 2B Proprietary code readout protection
1171:Drivers/STM32G0xx_HAL_Driver/Src/stm32g0xx_hal_flash_ex.c ****   * @retval None
1172:Drivers/STM32G0xx_HAL_Driver/Src/stm32g0xx_hal_flash_ex.c ****   */
1173:Drivers/STM32G0xx_HAL_Driver/Src/stm32g0xx_hal_flash_ex.c **** static void FLASH_OB_GetPCROP2B(uint32_t *PCROP2BStartAddr, uint32_t *PCROP2BEndAddr)
1174:Drivers/STM32G0xx_HAL_Driver/Src/stm32g0xx_hal_flash_ex.c **** {
ARM GAS  /tmp/ccdudAn5.s 			page 48


 1474              		.loc 1 1174 1 is_stmt 1 view -0
 1475              		.cfi_startproc
 1476              		@ args = 0, pretend = 0, frame = 0
 1477              		@ frame_needed = 0, uses_anonymous_args = 0
 1478              		.loc 1 1174 1 is_stmt 0 view .LVU379
 1479 0000 30B5     		push	{r4, r5, lr}
 1480              	.LCFI9:
 1481              		.cfi_def_cfa_offset 12
 1482              		.cfi_offset 4, -12
 1483              		.cfi_offset 5, -8
 1484              		.cfi_offset 14, -4
1175:Drivers/STM32G0xx_HAL_Driver/Src/stm32g0xx_hal_flash_ex.c ****   uint32_t pcrop;
 1485              		.loc 1 1175 3 is_stmt 1 view .LVU380
1176:Drivers/STM32G0xx_HAL_Driver/Src/stm32g0xx_hal_flash_ex.c ****   uint32_t ropbase;
 1486              		.loc 1 1176 3 view .LVU381
1177:Drivers/STM32G0xx_HAL_Driver/Src/stm32g0xx_hal_flash_ex.c **** 
1178:Drivers/STM32G0xx_HAL_Driver/Src/stm32g0xx_hal_flash_ex.c ****   /* Check if banks are swapped */
1179:Drivers/STM32G0xx_HAL_Driver/Src/stm32g0xx_hal_flash_ex.c ****   if ((FLASH->OPTR & FLASH_OPTR_nSWAP_BANK) != 0x00u)
 1487              		.loc 1 1179 3 view .LVU382
 1488              		.loc 1 1179 13 is_stmt 0 view .LVU383
 1489 0002 1E4B     		ldr	r3, .L121
 1490 0004 1B6A     		ldr	r3, [r3, #32]
 1491              		.loc 1 1179 6 view .LVU384
 1492 0006 DB02     		lsls	r3, r3, #11
 1493 0008 24D5     		bpl	.L118
1180:Drivers/STM32G0xx_HAL_Driver/Src/stm32g0xx_hal_flash_ex.c ****   {
1181:Drivers/STM32G0xx_HAL_Driver/Src/stm32g0xx_hal_flash_ex.c ****     /* No Bank swap, bank 2 read only protection is on second half of Flash */
1182:Drivers/STM32G0xx_HAL_Driver/Src/stm32g0xx_hal_flash_ex.c ****     ropbase = (FLASH_BASE + FLASH_BANK_SIZE);
 1494              		.loc 1 1182 5 is_stmt 1 view .LVU385
 1495              		.loc 1 1182 29 is_stmt 0 view .LVU386
 1496 000a 1D4B     		ldr	r3, .L121+4
 1497 000c 1A68     		ldr	r2, [r3]
 1498 000e C023     		movs	r3, #192
 1499 0010 9B04     		lsls	r3, r3, #18
 1500 0012 1400     		movs	r4, r2
 1501 0014 1C40     		ands	r4, r3
 1502              		.loc 1 1182 27 view .LVU387
 1503 0016 1A42     		tst	r2, r3
 1504 0018 12D0     		beq	.L116
 1505              		.loc 1 1182 29 discriminator 2 view .LVU388
 1506 001a 8023     		movs	r3, #128
 1507 001c 5B04     		lsls	r3, r3, #17
 1508 001e 9C42     		cmp	r4, r3
 1509 0020 0AD0     		beq	.L120
 1510              	.L117:
 1511              		.loc 1 1182 29 discriminator 6 view .LVU389
 1512 0022 184B     		ldr	r3, .L121+8
 1513 0024 1A68     		ldr	r2, [r3]
 1514 0026 9202     		lsls	r2, r2, #10
 1515 0028 5208     		lsrs	r2, r2, #1
 1516 002a 174B     		ldr	r3, .L121+12
 1517 002c 1A40     		ands	r2, r3
 1518              		.loc 1 1182 27 discriminator 6 view .LVU390
 1519 002e 8023     		movs	r3, #128
 1520 0030 1B05     		lsls	r3, r3, #20
 1521 0032 9C46     		mov	ip, r3
 1522 0034 6244     		add	r2, r2, ip
ARM GAS  /tmp/ccdudAn5.s 			page 49


 1523 0036 0FE0     		b	.L115
 1524              	.L120:
 1525              		.loc 1 1182 29 discriminator 3 view .LVU391
 1526 0038 144B     		ldr	r3, .L121+16
 1527 003a 1B68     		ldr	r3, [r3]
 1528 003c 9B02     		lsls	r3, r3, #10
 1529 003e F0D4     		bmi	.L117
 1530              	.L116:
 1531              		.loc 1 1182 29 discriminator 5 view .LVU392
 1532 0040 104B     		ldr	r3, .L121+8
 1533 0042 1A68     		ldr	r2, [r3]
 1534 0044 9202     		lsls	r2, r2, #10
 1535 0046 124B     		ldr	r3, .L121+20
 1536 0048 1A40     		ands	r2, r3
 1537              		.loc 1 1182 27 discriminator 5 view .LVU393
 1538 004a 8023     		movs	r3, #128
 1539 004c 1B05     		lsls	r3, r3, #20
 1540 004e 9C46     		mov	ip, r3
 1541 0050 6244     		add	r2, r2, ip
 1542 0052 01E0     		b	.L115
 1543              	.L118:
1183:Drivers/STM32G0xx_HAL_Driver/Src/stm32g0xx_hal_flash_ex.c ****   }
1184:Drivers/STM32G0xx_HAL_Driver/Src/stm32g0xx_hal_flash_ex.c ****   else
1185:Drivers/STM32G0xx_HAL_Driver/Src/stm32g0xx_hal_flash_ex.c ****   {
1186:Drivers/STM32G0xx_HAL_Driver/Src/stm32g0xx_hal_flash_ex.c ****     /* Bank swap, bank 2 read only protection is on first half of Flash */
1187:Drivers/STM32G0xx_HAL_Driver/Src/stm32g0xx_hal_flash_ex.c ****     ropbase = FLASH_BASE;
 1544              		.loc 1 1187 13 view .LVU394
 1545 0054 8022     		movs	r2, #128
 1546 0056 1205     		lsls	r2, r2, #20
 1547              	.L115:
 1548              	.LVL89:
1188:Drivers/STM32G0xx_HAL_Driver/Src/stm32g0xx_hal_flash_ex.c ****   }
1189:Drivers/STM32G0xx_HAL_Driver/Src/stm32g0xx_hal_flash_ex.c **** 
1190:Drivers/STM32G0xx_HAL_Driver/Src/stm32g0xx_hal_flash_ex.c ****   pcrop = (FLASH->PCROP2BSR & FLASH_PCROP2BSR_PCROP2B_STRT);
 1549              		.loc 1 1190 3 is_stmt 1 view .LVU395
 1550              		.loc 1 1190 17 is_stmt 0 view .LVU396
 1551 0058 084D     		ldr	r5, .L121
 1552 005a 6B6D     		ldr	r3, [r5, #84]
 1553              	.LVL90:
1191:Drivers/STM32G0xx_HAL_Driver/Src/stm32g0xx_hal_flash_ex.c ****   *PCROP2BStartAddr = (pcrop << FLASH_PCROP_GRANULARITY_OFFSET);
 1554              		.loc 1 1191 3 is_stmt 1 view .LVU397
 1555              		.loc 1 1191 30 is_stmt 0 view .LVU398
 1556 005c 5B02     		lsls	r3, r3, #9
 1557              	.LVL91:
 1558              		.loc 1 1191 30 view .LVU399
 1559 005e 0D4C     		ldr	r4, .L121+24
 1560 0060 2340     		ands	r3, r4
 1561              		.loc 1 1191 21 view .LVU400
 1562 0062 0360     		str	r3, [r0]
1192:Drivers/STM32G0xx_HAL_Driver/Src/stm32g0xx_hal_flash_ex.c ****   *PCROP2BStartAddr += ropbase;
 1563              		.loc 1 1192 3 is_stmt 1 view .LVU401
 1564              		.loc 1 1192 21 is_stmt 0 view .LVU402
 1565 0064 9B18     		adds	r3, r3, r2
 1566 0066 0360     		str	r3, [r0]
1193:Drivers/STM32G0xx_HAL_Driver/Src/stm32g0xx_hal_flash_ex.c **** 
1194:Drivers/STM32G0xx_HAL_Driver/Src/stm32g0xx_hal_flash_ex.c ****   pcrop = (FLASH->PCROP2BER & FLASH_PCROP2BER_PCROP2B_END);
 1567              		.loc 1 1194 3 is_stmt 1 view .LVU403
ARM GAS  /tmp/ccdudAn5.s 			page 50


 1568              		.loc 1 1194 17 is_stmt 0 view .LVU404
 1569 0068 AB6D     		ldr	r3, [r5, #88]
 1570              	.LVL92:
1195:Drivers/STM32G0xx_HAL_Driver/Src/stm32g0xx_hal_flash_ex.c ****   *PCROP2BEndAddr = (pcrop << FLASH_PCROP_GRANULARITY_OFFSET);
 1571              		.loc 1 1195 3 is_stmt 1 view .LVU405
 1572              		.loc 1 1195 28 is_stmt 0 view .LVU406
 1573 006a 5B02     		lsls	r3, r3, #9
 1574              	.LVL93:
 1575              		.loc 1 1195 28 view .LVU407
 1576 006c 2340     		ands	r3, r4
 1577              		.loc 1 1195 19 view .LVU408
 1578 006e 0B60     		str	r3, [r1]
1196:Drivers/STM32G0xx_HAL_Driver/Src/stm32g0xx_hal_flash_ex.c ****   *PCROP2BEndAddr += (ropbase + FLASH_PCROP_GRANULARITY - 1U);
 1579              		.loc 1 1196 3 is_stmt 1 view .LVU409
 1580              		.loc 1 1196 19 is_stmt 0 view .LVU410
 1581 0070 9B18     		adds	r3, r3, r2
 1582 0072 094A     		ldr	r2, .L121+28
 1583              	.LVL94:
 1584              		.loc 1 1196 19 view .LVU411
 1585 0074 9446     		mov	ip, r2
 1586 0076 6344     		add	r3, r3, ip
 1587 0078 0B60     		str	r3, [r1]
1197:Drivers/STM32G0xx_HAL_Driver/Src/stm32g0xx_hal_flash_ex.c **** }
 1588              		.loc 1 1197 1 view .LVU412
 1589              		@ sp needed
 1590 007a 30BD     		pop	{r4, r5, pc}
 1591              	.L122:
 1592              		.align	2
 1593              	.L121:
 1594 007c 00200240 		.word	1073881088
 1595 0080 0075FF1F 		.word	536835328
 1596 0084 E075FF1F 		.word	536835552
 1597 0088 00FE0700 		.word	523776
 1598 008c 20200240 		.word	1073881120
 1599 0090 00FC0F00 		.word	1047552
 1600 0094 00FE0300 		.word	261632
 1601 0098 FF010000 		.word	511
 1602              		.cfi_endproc
 1603              	.LFE382:
 1605              		.section	.text.FLASH_OB_SecMemConfig,"ax",%progbits
 1606              		.align	1
 1607              		.syntax unified
 1608              		.code	16
 1609              		.thumb_func
 1610              		.fpu softvfp
 1612              	FLASH_OB_SecMemConfig:
 1613              	.LVL95:
 1614              	.LFB383:
1198:Drivers/STM32G0xx_HAL_Driver/Src/stm32g0xx_hal_flash_ex.c **** #endif /* FLASH_DBANK_SUPPORT */
1199:Drivers/STM32G0xx_HAL_Driver/Src/stm32g0xx_hal_flash_ex.c **** #endif /* FLASH_PCROP_SUPPORT */
1200:Drivers/STM32G0xx_HAL_Driver/Src/stm32g0xx_hal_flash_ex.c **** 
1201:Drivers/STM32G0xx_HAL_Driver/Src/stm32g0xx_hal_flash_ex.c **** #if defined(FLASH_SECURABLE_MEMORY_SUPPORT)
1202:Drivers/STM32G0xx_HAL_Driver/Src/stm32g0xx_hal_flash_ex.c **** #if defined(FLASH_DBANK_SUPPORT)
1203:Drivers/STM32G0xx_HAL_Driver/Src/stm32g0xx_hal_flash_ex.c **** /**
1204:Drivers/STM32G0xx_HAL_Driver/Src/stm32g0xx_hal_flash_ex.c ****   * @brief  Configure Securable Memory area feature.
1205:Drivers/STM32G0xx_HAL_Driver/Src/stm32g0xx_hal_flash_ex.c ****   * @param  BootEntry  specifies if boot scheme is forced to Flash (System or user) or not
1206:Drivers/STM32G0xx_HAL_Driver/Src/stm32g0xx_hal_flash_ex.c ****   *         This parameter can be one of the following values:
ARM GAS  /tmp/ccdudAn5.s 			page 51


1207:Drivers/STM32G0xx_HAL_Driver/Src/stm32g0xx_hal_flash_ex.c ****   *           @arg @ref OB_BOOT_ENTRY_FORCED_NONE No boot entry forced
1208:Drivers/STM32G0xx_HAL_Driver/Src/stm32g0xx_hal_flash_ex.c ****   *           @arg @ref OB_BOOT_ENTRY_FORCED_FLASH Flash selected as unique entry boot
1209:Drivers/STM32G0xx_HAL_Driver/Src/stm32g0xx_hal_flash_ex.c ****   * @param  SecSize specifies number of pages to protect as securable memory area, starting from
1210:Drivers/STM32G0xx_HAL_Driver/Src/stm32g0xx_hal_flash_ex.c ****   *         beginning of Bank1 (page 0).
1211:Drivers/STM32G0xx_HAL_Driver/Src/stm32g0xx_hal_flash_ex.c ****   * @param  SecSize2 specifies number of pages to protect as securable memory area, starting from
1212:Drivers/STM32G0xx_HAL_Driver/Src/stm32g0xx_hal_flash_ex.c ****   *         beginning of Bank2 (page 0).
1213:Drivers/STM32G0xx_HAL_Driver/Src/stm32g0xx_hal_flash_ex.c ****   * @retval None
1214:Drivers/STM32G0xx_HAL_Driver/Src/stm32g0xx_hal_flash_ex.c ****   */
1215:Drivers/STM32G0xx_HAL_Driver/Src/stm32g0xx_hal_flash_ex.c **** static void FLASH_OB_SecMemConfig(uint32_t BootEntry, uint32_t SecSize, uint32_t SecSize2)
1216:Drivers/STM32G0xx_HAL_Driver/Src/stm32g0xx_hal_flash_ex.c **** {
 1615              		.loc 1 1216 1 is_stmt 1 view -0
 1616              		.cfi_startproc
 1617              		@ args = 0, pretend = 0, frame = 0
 1618              		@ frame_needed = 0, uses_anonymous_args = 0
 1619              		.loc 1 1216 1 is_stmt 0 view .LVU414
 1620 0000 70B5     		push	{r4, r5, r6, lr}
 1621              	.LCFI10:
 1622              		.cfi_def_cfa_offset 16
 1623              		.cfi_offset 4, -16
 1624              		.cfi_offset 5, -12
 1625              		.cfi_offset 6, -8
 1626              		.cfi_offset 14, -4
1217:Drivers/STM32G0xx_HAL_Driver/Src/stm32g0xx_hal_flash_ex.c ****   uint32_t secmem;
 1627              		.loc 1 1217 3 is_stmt 1 view .LVU415
1218:Drivers/STM32G0xx_HAL_Driver/Src/stm32g0xx_hal_flash_ex.c **** 
1219:Drivers/STM32G0xx_HAL_Driver/Src/stm32g0xx_hal_flash_ex.c ****   /* Check the parameters */
1220:Drivers/STM32G0xx_HAL_Driver/Src/stm32g0xx_hal_flash_ex.c ****   assert_param(IS_OB_SEC_BOOT_LOCK(BootEntry));
 1628              		.loc 1 1220 3 view .LVU416
1221:Drivers/STM32G0xx_HAL_Driver/Src/stm32g0xx_hal_flash_ex.c ****   assert_param(IS_OB_SEC_SIZE(SecSize));
 1629              		.loc 1 1221 3 view .LVU417
1222:Drivers/STM32G0xx_HAL_Driver/Src/stm32g0xx_hal_flash_ex.c **** 
1223:Drivers/STM32G0xx_HAL_Driver/Src/stm32g0xx_hal_flash_ex.c ****   if ((FLASH_BANK_NB == 2U))
 1630              		.loc 1 1223 3 view .LVU418
1224:Drivers/STM32G0xx_HAL_Driver/Src/stm32g0xx_hal_flash_ex.c ****   {
1225:Drivers/STM32G0xx_HAL_Driver/Src/stm32g0xx_hal_flash_ex.c ****     assert_param(IS_OB_SEC_SIZE(SecSize2));
 1631              		.loc 1 1225 5 view .LVU419
1226:Drivers/STM32G0xx_HAL_Driver/Src/stm32g0xx_hal_flash_ex.c ****   }
1227:Drivers/STM32G0xx_HAL_Driver/Src/stm32g0xx_hal_flash_ex.c **** 
1228:Drivers/STM32G0xx_HAL_Driver/Src/stm32g0xx_hal_flash_ex.c ****   /* Set securable memory area configuration */
1229:Drivers/STM32G0xx_HAL_Driver/Src/stm32g0xx_hal_flash_ex.c ****   secmem = (FLASH->SECR & ~(FLASH_SECR_BOOT_LOCK | FLASH_SECR_SEC_SIZE | FLASH_SECR_SEC_SIZE2));
 1632              		.loc 1 1229 3 view .LVU420
 1633              		.loc 1 1229 18 is_stmt 0 view .LVU421
 1634 0002 054D     		ldr	r5, .L124
 1635 0004 8024     		movs	r4, #128
 1636 0006 2B59     		ldr	r3, [r5, r4]
 1637              		.loc 1 1229 10 view .LVU422
 1638 0008 044E     		ldr	r6, .L124+4
 1639 000a 3340     		ands	r3, r6
 1640              	.LVL96:
1230:Drivers/STM32G0xx_HAL_Driver/Src/stm32g0xx_hal_flash_ex.c ****   FLASH->SECR = (secmem | BootEntry | SecSize | (SecSize2 << FLASH_SECR_SEC_SIZE2_Pos));
 1641              		.loc 1 1230 3 is_stmt 1 view .LVU423
 1642              		.loc 1 1230 25 is_stmt 0 view .LVU424
 1643 000c 0343     		orrs	r3, r0
 1644              	.LVL97:
 1645              		.loc 1 1230 37 view .LVU425
 1646 000e 0B43     		orrs	r3, r1
 1647              		.loc 1 1230 59 view .LVU426
ARM GAS  /tmp/ccdudAn5.s 			page 52


 1648 0010 1205     		lsls	r2, r2, #20
 1649              	.LVL98:
 1650              		.loc 1 1230 47 view .LVU427
 1651 0012 1343     		orrs	r3, r2
 1652              		.loc 1 1230 15 view .LVU428
 1653 0014 2B51     		str	r3, [r5, r4]
1231:Drivers/STM32G0xx_HAL_Driver/Src/stm32g0xx_hal_flash_ex.c **** }
 1654              		.loc 1 1231 1 view .LVU429
 1655              		@ sp needed
 1656 0016 70BD     		pop	{r4, r5, r6, pc}
 1657              	.L125:
 1658              		.align	2
 1659              	.L124:
 1660 0018 00200240 		.word	1073881088
 1661 001c 00FF0EF0 		.word	-267452672
 1662              		.cfi_endproc
 1663              	.LFE383:
 1665              		.section	.text.FLASH_OB_GetSecMem,"ax",%progbits
 1666              		.align	1
 1667              		.syntax unified
 1668              		.code	16
 1669              		.thumb_func
 1670              		.fpu softvfp
 1672              	FLASH_OB_GetSecMem:
 1673              	.LVL99:
 1674              	.LFB384:
1232:Drivers/STM32G0xx_HAL_Driver/Src/stm32g0xx_hal_flash_ex.c **** 
1233:Drivers/STM32G0xx_HAL_Driver/Src/stm32g0xx_hal_flash_ex.c **** /**
1234:Drivers/STM32G0xx_HAL_Driver/Src/stm32g0xx_hal_flash_ex.c ****   * @brief  Return the FLASH Securable memory area protection Option Bytes value.
1235:Drivers/STM32G0xx_HAL_Driver/Src/stm32g0xx_hal_flash_ex.c ****   * @param  BootEntry  specifies boot scheme configuration
1236:Drivers/STM32G0xx_HAL_Driver/Src/stm32g0xx_hal_flash_ex.c ****   * @param  SecSize specifies number of pages to protect as secure memory area, starting from
1237:Drivers/STM32G0xx_HAL_Driver/Src/stm32g0xx_hal_flash_ex.c ****   *         beginning of Bank1 (page 0).
1238:Drivers/STM32G0xx_HAL_Driver/Src/stm32g0xx_hal_flash_ex.c ****   * @param  SecSize2 specifies number of pages to protect as secure memory area, starting from
1239:Drivers/STM32G0xx_HAL_Driver/Src/stm32g0xx_hal_flash_ex.c ****   *         beginning of Bank2 (page 0).
1240:Drivers/STM32G0xx_HAL_Driver/Src/stm32g0xx_hal_flash_ex.c ****   * @retval None
1241:Drivers/STM32G0xx_HAL_Driver/Src/stm32g0xx_hal_flash_ex.c ****   */
1242:Drivers/STM32G0xx_HAL_Driver/Src/stm32g0xx_hal_flash_ex.c **** static void FLASH_OB_GetSecMem(uint32_t *BootEntry, uint32_t *SecSize, uint32_t *SecSize2)
1243:Drivers/STM32G0xx_HAL_Driver/Src/stm32g0xx_hal_flash_ex.c **** {
 1675              		.loc 1 1243 1 is_stmt 1 view -0
 1676              		.cfi_startproc
 1677              		@ args = 0, pretend = 0, frame = 0
 1678              		@ frame_needed = 0, uses_anonymous_args = 0
 1679              		.loc 1 1243 1 is_stmt 0 view .LVU431
 1680 0000 10B5     		push	{r4, lr}
 1681              	.LCFI11:
 1682              		.cfi_def_cfa_offset 8
 1683              		.cfi_offset 4, -8
 1684              		.cfi_offset 14, -4
1244:Drivers/STM32G0xx_HAL_Driver/Src/stm32g0xx_hal_flash_ex.c ****   uint32_t secmem = FLASH->SECR;
 1685              		.loc 1 1244 3 is_stmt 1 view .LVU432
 1686              		.loc 1 1244 12 is_stmt 0 view .LVU433
 1687 0002 074C     		ldr	r4, .L127
 1688 0004 8023     		movs	r3, #128
 1689 0006 E358     		ldr	r3, [r4, r3]
 1690              	.LVL100:
1245:Drivers/STM32G0xx_HAL_Driver/Src/stm32g0xx_hal_flash_ex.c **** 
1246:Drivers/STM32G0xx_HAL_Driver/Src/stm32g0xx_hal_flash_ex.c ****   *BootEntry = (secmem & FLASH_SECR_BOOT_LOCK);
ARM GAS  /tmp/ccdudAn5.s 			page 53


 1691              		.loc 1 1246 3 is_stmt 1 view .LVU434
 1692              		.loc 1 1246 24 is_stmt 0 view .LVU435
 1693 0008 8024     		movs	r4, #128
 1694 000a 6402     		lsls	r4, r4, #9
 1695 000c 1C40     		ands	r4, r3
 1696              		.loc 1 1246 14 view .LVU436
 1697 000e 0460     		str	r4, [r0]
1247:Drivers/STM32G0xx_HAL_Driver/Src/stm32g0xx_hal_flash_ex.c ****   *SecSize = (secmem & FLASH_SECR_SEC_SIZE);
 1698              		.loc 1 1247 3 is_stmt 1 view .LVU437
 1699              		.loc 1 1247 22 is_stmt 0 view .LVU438
 1700 0010 FF20     		movs	r0, #255
 1701              	.LVL101:
 1702              		.loc 1 1247 22 view .LVU439
 1703 0012 0400     		movs	r4, r0
 1704 0014 1C40     		ands	r4, r3
 1705              		.loc 1 1247 12 view .LVU440
 1706 0016 0C60     		str	r4, [r1]
1248:Drivers/STM32G0xx_HAL_Driver/Src/stm32g0xx_hal_flash_ex.c ****   *SecSize2 = (secmem & FLASH_SECR_SEC_SIZE2) >> FLASH_SECR_SEC_SIZE2_Pos;
 1707              		.loc 1 1248 3 is_stmt 1 view .LVU441
 1708              		.loc 1 1248 47 is_stmt 0 view .LVU442
 1709 0018 1B0D     		lsrs	r3, r3, #20
 1710              	.LVL102:
 1711              		.loc 1 1248 47 view .LVU443
 1712 001a 1840     		ands	r0, r3
 1713              		.loc 1 1248 13 view .LVU444
 1714 001c 1060     		str	r0, [r2]
1249:Drivers/STM32G0xx_HAL_Driver/Src/stm32g0xx_hal_flash_ex.c **** }
 1715              		.loc 1 1249 1 view .LVU445
 1716              		@ sp needed
 1717 001e 10BD     		pop	{r4, pc}
 1718              	.L128:
 1719              		.align	2
 1720              	.L127:
 1721 0020 00200240 		.word	1073881088
 1722              		.cfi_endproc
 1723              	.LFE384:
 1725              		.section	.text.HAL_FLASHEx_OBProgram,"ax",%progbits
 1726              		.align	1
 1727              		.global	HAL_FLASHEx_OBProgram
 1728              		.syntax unified
 1729              		.code	16
 1730              		.thumb_func
 1731              		.fpu softvfp
 1733              	HAL_FLASHEx_OBProgram:
 1734              	.LVL103:
 1735              	.LFB360:
 300:Drivers/STM32G0xx_HAL_Driver/Src/stm32g0xx_hal_flash_ex.c ****   uint32_t optr;
 1736              		.loc 1 300 1 is_stmt 1 view -0
 1737              		.cfi_startproc
 1738              		@ args = 0, pretend = 0, frame = 0
 1739              		@ frame_needed = 0, uses_anonymous_args = 0
 300:Drivers/STM32G0xx_HAL_Driver/Src/stm32g0xx_hal_flash_ex.c ****   uint32_t optr;
 1740              		.loc 1 300 1 is_stmt 0 view .LVU447
 1741 0000 10B5     		push	{r4, lr}
 1742              	.LCFI12:
 1743              		.cfi_def_cfa_offset 8
 1744              		.cfi_offset 4, -8
ARM GAS  /tmp/ccdudAn5.s 			page 54


 1745              		.cfi_offset 14, -4
 1746 0002 0400     		movs	r4, r0
 301:Drivers/STM32G0xx_HAL_Driver/Src/stm32g0xx_hal_flash_ex.c ****   HAL_StatusTypeDef status;
 1747              		.loc 1 301 3 is_stmt 1 view .LVU448
 302:Drivers/STM32G0xx_HAL_Driver/Src/stm32g0xx_hal_flash_ex.c **** 
 1748              		.loc 1 302 3 view .LVU449
 305:Drivers/STM32G0xx_HAL_Driver/Src/stm32g0xx_hal_flash_ex.c **** 
 1749              		.loc 1 305 3 view .LVU450
 308:Drivers/STM32G0xx_HAL_Driver/Src/stm32g0xx_hal_flash_ex.c **** 
 1750              		.loc 1 308 3 view .LVU451
 308:Drivers/STM32G0xx_HAL_Driver/Src/stm32g0xx_hal_flash_ex.c **** 
 1751              		.loc 1 308 3 view .LVU452
 1752 0004 3C4B     		ldr	r3, .L158
 1753 0006 1B78     		ldrb	r3, [r3]
 1754 0008 012B     		cmp	r3, #1
 1755 000a 00D1     		bne	.LCB1547
 1756 000c 71E0     		b	.L141	@long jump
 1757              	.LCB1547:
 308:Drivers/STM32G0xx_HAL_Driver/Src/stm32g0xx_hal_flash_ex.c **** 
 1758              		.loc 1 308 3 discriminator 2 view .LVU453
 1759 000e 3A4B     		ldr	r3, .L158
 1760 0010 0122     		movs	r2, #1
 1761 0012 1A70     		strb	r2, [r3]
 308:Drivers/STM32G0xx_HAL_Driver/Src/stm32g0xx_hal_flash_ex.c **** 
 1762              		.loc 1 308 3 discriminator 2 view .LVU454
 310:Drivers/STM32G0xx_HAL_Driver/Src/stm32g0xx_hal_flash_ex.c **** 
 1763              		.loc 1 310 3 discriminator 2 view .LVU455
 310:Drivers/STM32G0xx_HAL_Driver/Src/stm32g0xx_hal_flash_ex.c **** 
 1764              		.loc 1 310 20 is_stmt 0 discriminator 2 view .LVU456
 1765 0014 0021     		movs	r1, #0
 1766 0016 5960     		str	r1, [r3, #4]
 313:Drivers/STM32G0xx_HAL_Driver/Src/stm32g0xx_hal_flash_ex.c ****   {
 1767              		.loc 1 313 3 is_stmt 1 discriminator 2 view .LVU457
 313:Drivers/STM32G0xx_HAL_Driver/Src/stm32g0xx_hal_flash_ex.c ****   {
 1768              		.loc 1 313 15 is_stmt 0 discriminator 2 view .LVU458
 1769 0018 0368     		ldr	r3, [r0]
 313:Drivers/STM32G0xx_HAL_Driver/Src/stm32g0xx_hal_flash_ex.c ****   {
 1770              		.loc 1 313 6 discriminator 2 view .LVU459
 1771 001a 1A42     		tst	r2, r3
 1772 001c 25D1     		bne	.L148
 1773              	.LVL104:
 1774              	.L131:
 320:Drivers/STM32G0xx_HAL_Driver/Src/stm32g0xx_hal_flash_ex.c ****   {
 1775              		.loc 1 320 3 is_stmt 1 view .LVU460
 320:Drivers/STM32G0xx_HAL_Driver/Src/stm32g0xx_hal_flash_ex.c ****   {
 1776              		.loc 1 320 15 is_stmt 0 view .LVU461
 1777 001e 2268     		ldr	r2, [r4]
 320:Drivers/STM32G0xx_HAL_Driver/Src/stm32g0xx_hal_flash_ex.c ****   {
 1778              		.loc 1 320 28 view .LVU462
 1779 0020 0623     		movs	r3, #6
 1780 0022 1340     		ands	r3, r2
 320:Drivers/STM32G0xx_HAL_Driver/Src/stm32g0xx_hal_flash_ex.c ****   {
 1781              		.loc 1 320 6 view .LVU463
 1782 0024 062B     		cmp	r3, #6
 1783 0026 26D0     		beq	.L149
 325:Drivers/STM32G0xx_HAL_Driver/Src/stm32g0xx_hal_flash_ex.c ****   {
 1784              		.loc 1 325 8 is_stmt 1 view .LVU464
ARM GAS  /tmp/ccdudAn5.s 			page 55


 325:Drivers/STM32G0xx_HAL_Driver/Src/stm32g0xx_hal_flash_ex.c ****   {
 1785              		.loc 1 325 11 is_stmt 0 view .LVU465
 1786 0028 9307     		lsls	r3, r2, #30
 1787 002a 2AD4     		bmi	.L150
 331:Drivers/STM32G0xx_HAL_Driver/Src/stm32g0xx_hal_flash_ex.c ****   {
 1788              		.loc 1 331 8 is_stmt 1 view .LVU466
 331:Drivers/STM32G0xx_HAL_Driver/Src/stm32g0xx_hal_flash_ex.c ****   {
 1789              		.loc 1 331 11 is_stmt 0 view .LVU467
 1790 002c 5207     		lsls	r2, r2, #29
 1791 002e 2FD4     		bmi	.L151
 1792              	.L133:
 340:Drivers/STM32G0xx_HAL_Driver/Src/stm32g0xx_hal_flash_ex.c **** 
 1793              		.loc 1 340 3 is_stmt 1 view .LVU468
 344:Drivers/STM32G0xx_HAL_Driver/Src/stm32g0xx_hal_flash_ex.c ****   {
 1794              		.loc 1 344 3 view .LVU469
 344:Drivers/STM32G0xx_HAL_Driver/Src/stm32g0xx_hal_flash_ex.c ****   {
 1795              		.loc 1 344 15 is_stmt 0 view .LVU470
 1796 0030 2368     		ldr	r3, [r4]
 344:Drivers/STM32G0xx_HAL_Driver/Src/stm32g0xx_hal_flash_ex.c ****   {
 1797              		.loc 1 344 6 view .LVU471
 1798 0032 1B07     		lsls	r3, r3, #28
 1799 0034 0CD5     		bpl	.L135
 347:Drivers/STM32G0xx_HAL_Driver/Src/stm32g0xx_hal_flash_ex.c **** 
 1800              		.loc 1 347 5 is_stmt 1 view .LVU472
 349:Drivers/STM32G0xx_HAL_Driver/Src/stm32g0xx_hal_flash_ex.c ****     {
 1801              		.loc 1 349 5 view .LVU473
 349:Drivers/STM32G0xx_HAL_Driver/Src/stm32g0xx_hal_flash_ex.c ****     {
 1802              		.loc 1 349 17 is_stmt 0 view .LVU474
 1803 0036 E069     		ldr	r0, [r4, #28]
 349:Drivers/STM32G0xx_HAL_Driver/Src/stm32g0xx_hal_flash_ex.c ****     {
 1804              		.loc 1 349 31 view .LVU475
 1805 0038 304B     		ldr	r3, .L158+4
 349:Drivers/STM32G0xx_HAL_Driver/Src/stm32g0xx_hal_flash_ex.c ****     {
 1806              		.loc 1 349 8 view .LVU476
 1807 003a 1842     		tst	r0, r3
 1808 003c 30D1     		bne	.L152
 1809              	.L136:
 355:Drivers/STM32G0xx_HAL_Driver/Src/stm32g0xx_hal_flash_ex.c ****     {
 1810              		.loc 1 355 5 is_stmt 1 view .LVU477
 355:Drivers/STM32G0xx_HAL_Driver/Src/stm32g0xx_hal_flash_ex.c ****     {
 1811              		.loc 1 355 17 is_stmt 0 view .LVU478
 1812 003e E369     		ldr	r3, [r4, #28]
 355:Drivers/STM32G0xx_HAL_Driver/Src/stm32g0xx_hal_flash_ex.c ****     {
 1813              		.loc 1 355 8 view .LVU479
 1814 0040 9B07     		lsls	r3, r3, #30
 1815 0042 32D4     		bmi	.L153
 1816              	.L137:
 362:Drivers/STM32G0xx_HAL_Driver/Src/stm32g0xx_hal_flash_ex.c ****     {
 1817              		.loc 1 362 5 is_stmt 1 view .LVU480
 362:Drivers/STM32G0xx_HAL_Driver/Src/stm32g0xx_hal_flash_ex.c ****     {
 1818              		.loc 1 362 17 is_stmt 0 view .LVU481
 1819 0044 E369     		ldr	r3, [r4, #28]
 362:Drivers/STM32G0xx_HAL_Driver/Src/stm32g0xx_hal_flash_ex.c ****     {
 1820              		.loc 1 362 8 view .LVU482
 1821 0046 5B07     		lsls	r3, r3, #29
 1822 0048 34D4     		bmi	.L154
 1823              	.L138:
ARM GAS  /tmp/ccdudAn5.s 			page 56


 368:Drivers/STM32G0xx_HAL_Driver/Src/stm32g0xx_hal_flash_ex.c ****     {
 1824              		.loc 1 368 5 is_stmt 1 view .LVU483
 368:Drivers/STM32G0xx_HAL_Driver/Src/stm32g0xx_hal_flash_ex.c ****     {
 1825              		.loc 1 368 17 is_stmt 0 view .LVU484
 1826 004a E369     		ldr	r3, [r4, #28]
 368:Drivers/STM32G0xx_HAL_Driver/Src/stm32g0xx_hal_flash_ex.c ****     {
 1827              		.loc 1 368 8 view .LVU485
 1828 004c 1B07     		lsls	r3, r3, #28
 1829 004e 36D4     		bmi	.L155
 1830              	.L135:
 379:Drivers/STM32G0xx_HAL_Driver/Src/stm32g0xx_hal_flash_ex.c ****   {
 1831              		.loc 1 379 3 is_stmt 1 view .LVU486
 379:Drivers/STM32G0xx_HAL_Driver/Src/stm32g0xx_hal_flash_ex.c ****   {
 1832              		.loc 1 379 15 is_stmt 0 view .LVU487
 1833 0050 2368     		ldr	r3, [r4]
 379:Drivers/STM32G0xx_HAL_Driver/Src/stm32g0xx_hal_flash_ex.c ****   {
 1834              		.loc 1 379 6 view .LVU488
 1835 0052 DB06     		lsls	r3, r3, #27
 1836 0054 38D4     		bmi	.L156
 1837              	.L139:
 392:Drivers/STM32G0xx_HAL_Driver/Src/stm32g0xx_hal_flash_ex.c **** 
 1838              		.loc 1 392 3 is_stmt 1 view .LVU489
 392:Drivers/STM32G0xx_HAL_Driver/Src/stm32g0xx_hal_flash_ex.c **** 
 1839              		.loc 1 392 12 is_stmt 0 view .LVU490
 1840 0056 FA20     		movs	r0, #250
 1841 0058 8000     		lsls	r0, r0, #2
 1842 005a FFF7FEFF 		bl	FLASH_WaitForLastOperation
 1843              	.LVL105:
 394:Drivers/STM32G0xx_HAL_Driver/Src/stm32g0xx_hal_flash_ex.c ****   {
 1844              		.loc 1 394 3 is_stmt 1 view .LVU491
 394:Drivers/STM32G0xx_HAL_Driver/Src/stm32g0xx_hal_flash_ex.c ****   {
 1845              		.loc 1 394 6 is_stmt 0 view .LVU492
 1846 005e 0028     		cmp	r0, #0
 1847 0060 38D0     		beq	.L157
 1848              	.LVL106:
 1849              	.L140:
 407:Drivers/STM32G0xx_HAL_Driver/Src/stm32g0xx_hal_flash_ex.c **** 
 1850              		.loc 1 407 3 is_stmt 1 view .LVU493
 407:Drivers/STM32G0xx_HAL_Driver/Src/stm32g0xx_hal_flash_ex.c **** 
 1851              		.loc 1 407 3 view .LVU494
 1852 0062 254B     		ldr	r3, .L158
 1853 0064 0022     		movs	r2, #0
 1854 0066 1A70     		strb	r2, [r3]
 407:Drivers/STM32G0xx_HAL_Driver/Src/stm32g0xx_hal_flash_ex.c **** 
 1855              		.loc 1 407 3 view .LVU495
 410:Drivers/STM32G0xx_HAL_Driver/Src/stm32g0xx_hal_flash_ex.c **** }
 1856              		.loc 1 410 3 view .LVU496
 1857              	.LVL107:
 1858              	.L130:
 411:Drivers/STM32G0xx_HAL_Driver/Src/stm32g0xx_hal_flash_ex.c **** 
 1859              		.loc 1 411 1 is_stmt 0 view .LVU497
 1860              		@ sp needed
 1861 0068 10BD     		pop	{r4, pc}
 1862              	.LVL108:
 1863              	.L148:
 316:Drivers/STM32G0xx_HAL_Driver/Src/stm32g0xx_hal_flash_ex.c ****   }
 1864              		.loc 1 316 5 is_stmt 1 view .LVU498
ARM GAS  /tmp/ccdudAn5.s 			page 57


 1865 006a C268     		ldr	r2, [r0, #12]
 1866 006c 8168     		ldr	r1, [r0, #8]
 1867 006e 4068     		ldr	r0, [r0, #4]
 1868              	.LVL109:
 316:Drivers/STM32G0xx_HAL_Driver/Src/stm32g0xx_hal_flash_ex.c ****   }
 1869              		.loc 1 316 5 is_stmt 0 view .LVU499
 1870 0070 FFF7FEFF 		bl	FLASH_OB_WRPConfig
 1871              	.LVL110:
 1872 0074 D3E7     		b	.L131
 1873              	.L149:
 323:Drivers/STM32G0xx_HAL_Driver/Src/stm32g0xx_hal_flash_ex.c ****   }
 1874              		.loc 1 323 5 is_stmt 1 view .LVU500
 1875 0076 2269     		ldr	r2, [r4, #16]
 1876 0078 A169     		ldr	r1, [r4, #24]
 1877 007a 6069     		ldr	r0, [r4, #20]
 1878 007c FFF7FEFF 		bl	FLASH_OB_OptrConfig
 1879              	.LVL111:
 1880 0080 D6E7     		b	.L133
 1881              	.L150:
 328:Drivers/STM32G0xx_HAL_Driver/Src/stm32g0xx_hal_flash_ex.c ****     FLASH_OB_OptrConfig(optr, optr, pOBInit->RDPLevel);
 1882              		.loc 1 328 5 view .LVU501
 328:Drivers/STM32G0xx_HAL_Driver/Src/stm32g0xx_hal_flash_ex.c ****     FLASH_OB_OptrConfig(optr, optr, pOBInit->RDPLevel);
 1883              		.loc 1 328 12 is_stmt 0 view .LVU502
 1884 0082 FFF7FEFF 		bl	FLASH_OB_GetUser
 1885              	.LVL112:
 329:Drivers/STM32G0xx_HAL_Driver/Src/stm32g0xx_hal_flash_ex.c ****   }
 1886              		.loc 1 329 5 is_stmt 1 view .LVU503
 1887 0086 2269     		ldr	r2, [r4, #16]
 1888 0088 0100     		movs	r1, r0
 1889 008a FFF7FEFF 		bl	FLASH_OB_OptrConfig
 1890              	.LVL113:
 329:Drivers/STM32G0xx_HAL_Driver/Src/stm32g0xx_hal_flash_ex.c ****   }
 1891              		.loc 1 329 5 is_stmt 0 view .LVU504
 1892 008e CFE7     		b	.L133
 1893              	.L151:
 334:Drivers/STM32G0xx_HAL_Driver/Src/stm32g0xx_hal_flash_ex.c ****     FLASH_OB_OptrConfig(pOBInit->USERType, pOBInit->USERConfig, optr);
 1894              		.loc 1 334 5 is_stmt 1 view .LVU505
 334:Drivers/STM32G0xx_HAL_Driver/Src/stm32g0xx_hal_flash_ex.c ****     FLASH_OB_OptrConfig(pOBInit->USERType, pOBInit->USERConfig, optr);
 1895              		.loc 1 334 12 is_stmt 0 view .LVU506
 1896 0090 FFF7FEFF 		bl	FLASH_OB_GetRDP
 1897              	.LVL114:
 1898 0094 0200     		movs	r2, r0
 1899              	.LVL115:
 335:Drivers/STM32G0xx_HAL_Driver/Src/stm32g0xx_hal_flash_ex.c ****   }
 1900              		.loc 1 335 5 is_stmt 1 view .LVU507
 1901 0096 A169     		ldr	r1, [r4, #24]
 1902 0098 6069     		ldr	r0, [r4, #20]
 1903              	.LVL116:
 335:Drivers/STM32G0xx_HAL_Driver/Src/stm32g0xx_hal_flash_ex.c ****   }
 1904              		.loc 1 335 5 is_stmt 0 view .LVU508
 1905 009a FFF7FEFF 		bl	FLASH_OB_OptrConfig
 1906              	.LVL117:
 335:Drivers/STM32G0xx_HAL_Driver/Src/stm32g0xx_hal_flash_ex.c ****   }
 1907              		.loc 1 335 5 view .LVU509
 1908 009e C7E7     		b	.L133
 1909              	.L152:
 352:Drivers/STM32G0xx_HAL_Driver/Src/stm32g0xx_hal_flash_ex.c ****     }
ARM GAS  /tmp/ccdudAn5.s 			page 58


 1910              		.loc 1 352 7 is_stmt 1 view .LVU510
 1911 00a0 626A     		ldr	r2, [r4, #36]
 1912 00a2 216A     		ldr	r1, [r4, #32]
 1913 00a4 FFF7FEFF 		bl	FLASH_OB_PCROP1AConfig
 1914              	.LVL118:
 1915 00a8 C9E7     		b	.L136
 1916              	.L153:
 358:Drivers/STM32G0xx_HAL_Driver/Src/stm32g0xx_hal_flash_ex.c ****     }
 1917              		.loc 1 358 7 view .LVU511
 1918 00aa E16A     		ldr	r1, [r4, #44]
 1919 00ac A06A     		ldr	r0, [r4, #40]
 1920 00ae FFF7FEFF 		bl	FLASH_OB_PCROP1BConfig
 1921              	.LVL119:
 1922 00b2 C7E7     		b	.L137
 1923              	.L154:
 365:Drivers/STM32G0xx_HAL_Driver/Src/stm32g0xx_hal_flash_ex.c ****     }
 1924              		.loc 1 365 7 view .LVU512
 1925 00b4 616B     		ldr	r1, [r4, #52]
 1926 00b6 206B     		ldr	r0, [r4, #48]
 1927 00b8 FFF7FEFF 		bl	FLASH_OB_PCROP2AConfig
 1928              	.LVL120:
 1929 00bc C5E7     		b	.L138
 1930              	.L155:
 371:Drivers/STM32G0xx_HAL_Driver/Src/stm32g0xx_hal_flash_ex.c ****     }
 1931              		.loc 1 371 7 view .LVU513
 1932 00be E16B     		ldr	r1, [r4, #60]
 1933 00c0 A06B     		ldr	r0, [r4, #56]
 1934 00c2 FFF7FEFF 		bl	FLASH_OB_PCROP2BConfig
 1935              	.LVL121:
 1936 00c6 C3E7     		b	.L135
 1937              	.L156:
 383:Drivers/STM32G0xx_HAL_Driver/Src/stm32g0xx_hal_flash_ex.c **** #else
 1938              		.loc 1 383 5 view .LVU514
 1939 00c8 A26C     		ldr	r2, [r4, #72]
 1940 00ca 616C     		ldr	r1, [r4, #68]
 1941 00cc 206C     		ldr	r0, [r4, #64]
 1942 00ce FFF7FEFF 		bl	FLASH_OB_SecMemConfig
 1943              	.LVL122:
 1944 00d2 C0E7     		b	.L139
 1945              	.LVL123:
 1946              	.L157:
 397:Drivers/STM32G0xx_HAL_Driver/Src/stm32g0xx_hal_flash_ex.c **** 
 1947              		.loc 1 397 5 view .LVU515
 1948 00d4 0A4C     		ldr	r4, .L158+8
 1949              	.LVL124:
 397:Drivers/STM32G0xx_HAL_Driver/Src/stm32g0xx_hal_flash_ex.c **** 
 1950              		.loc 1 397 5 is_stmt 0 view .LVU516
 1951 00d6 6269     		ldr	r2, [r4, #20]
 1952 00d8 8023     		movs	r3, #128
 1953 00da 9B02     		lsls	r3, r3, #10
 1954 00dc 1343     		orrs	r3, r2
 1955 00de 6361     		str	r3, [r4, #20]
 400:Drivers/STM32G0xx_HAL_Driver/Src/stm32g0xx_hal_flash_ex.c **** 
 1956              		.loc 1 400 5 is_stmt 1 view .LVU517
 400:Drivers/STM32G0xx_HAL_Driver/Src/stm32g0xx_hal_flash_ex.c **** 
 1957              		.loc 1 400 14 is_stmt 0 view .LVU518
 1958 00e0 FA30     		adds	r0, r0, #250
ARM GAS  /tmp/ccdudAn5.s 			page 59


 1959              	.LVL125:
 400:Drivers/STM32G0xx_HAL_Driver/Src/stm32g0xx_hal_flash_ex.c **** 
 1960              		.loc 1 400 14 view .LVU519
 1961 00e2 8000     		lsls	r0, r0, #2
 1962              	.LVL126:
 400:Drivers/STM32G0xx_HAL_Driver/Src/stm32g0xx_hal_flash_ex.c **** 
 1963              		.loc 1 400 14 view .LVU520
 1964 00e4 FFF7FEFF 		bl	FLASH_WaitForLastOperation
 1965              	.LVL127:
 403:Drivers/STM32G0xx_HAL_Driver/Src/stm32g0xx_hal_flash_ex.c ****   }
 1966              		.loc 1 403 5 is_stmt 1 view .LVU521
 1967 00e8 6369     		ldr	r3, [r4, #20]
 1968 00ea 064A     		ldr	r2, .L158+12
 1969 00ec 1340     		ands	r3, r2
 1970 00ee 6361     		str	r3, [r4, #20]
 1971 00f0 B7E7     		b	.L140
 1972              	.LVL128:
 1973              	.L141:
 308:Drivers/STM32G0xx_HAL_Driver/Src/stm32g0xx_hal_flash_ex.c **** 
 1974              		.loc 1 308 3 is_stmt 0 view .LVU522
 1975 00f2 0220     		movs	r0, #2
 1976              	.LVL129:
 308:Drivers/STM32G0xx_HAL_Driver/Src/stm32g0xx_hal_flash_ex.c **** 
 1977              		.loc 1 308 3 view .LVU523
 1978 00f4 B8E7     		b	.L130
 1979              	.L159:
 1980 00f6 C046     		.align	2
 1981              	.L158:
 1982 00f8 00000000 		.word	pFlash
 1983 00fc 01000080 		.word	-2147483647
 1984 0100 00200240 		.word	1073881088
 1985 0104 FFFFFDFF 		.word	-131073
 1986              		.cfi_endproc
 1987              	.LFE360:
 1989              		.section	.text.HAL_FLASHEx_OBGetConfig,"ax",%progbits
 1990              		.align	1
 1991              		.global	HAL_FLASHEx_OBGetConfig
 1992              		.syntax unified
 1993              		.code	16
 1994              		.thumb_func
 1995              		.fpu softvfp
 1997              	HAL_FLASHEx_OBGetConfig:
 1998              	.LVL130:
 1999              	.LFB361:
 424:Drivers/STM32G0xx_HAL_Driver/Src/stm32g0xx_hal_flash_ex.c ****   pOBInit->OptionType = OPTIONBYTE_ALL;
 2000              		.loc 1 424 1 is_stmt 1 view -0
 2001              		.cfi_startproc
 2002              		@ args = 0, pretend = 0, frame = 0
 2003              		@ frame_needed = 0, uses_anonymous_args = 0
 424:Drivers/STM32G0xx_HAL_Driver/Src/stm32g0xx_hal_flash_ex.c ****   pOBInit->OptionType = OPTIONBYTE_ALL;
 2004              		.loc 1 424 1 is_stmt 0 view .LVU525
 2005 0000 10B5     		push	{r4, lr}
 2006              	.LCFI13:
 2007              		.cfi_def_cfa_offset 8
 2008              		.cfi_offset 4, -8
 2009              		.cfi_offset 14, -4
 2010 0002 0400     		movs	r4, r0
ARM GAS  /tmp/ccdudAn5.s 			page 60


 425:Drivers/STM32G0xx_HAL_Driver/Src/stm32g0xx_hal_flash_ex.c **** 
 2011              		.loc 1 425 3 is_stmt 1 view .LVU526
 425:Drivers/STM32G0xx_HAL_Driver/Src/stm32g0xx_hal_flash_ex.c **** 
 2012              		.loc 1 425 23 is_stmt 0 view .LVU527
 2013 0004 1F23     		movs	r3, #31
 2014 0006 0360     		str	r3, [r0]
 428:Drivers/STM32G0xx_HAL_Driver/Src/stm32g0xx_hal_flash_ex.c **** 
 2015              		.loc 1 428 3 is_stmt 1 view .LVU528
 2016 0008 0200     		movs	r2, r0
 2017 000a 0C32     		adds	r2, r2, #12
 2018 000c 0100     		movs	r1, r0
 2019 000e 0831     		adds	r1, r1, #8
 2020 0010 4068     		ldr	r0, [r0, #4]
 2021              	.LVL131:
 428:Drivers/STM32G0xx_HAL_Driver/Src/stm32g0xx_hal_flash_ex.c **** 
 2022              		.loc 1 428 3 is_stmt 0 view .LVU529
 2023 0012 FFF7FEFF 		bl	FLASH_OB_GetWRP
 2024              	.LVL132:
 431:Drivers/STM32G0xx_HAL_Driver/Src/stm32g0xx_hal_flash_ex.c **** 
 2025              		.loc 1 431 3 is_stmt 1 view .LVU530
 431:Drivers/STM32G0xx_HAL_Driver/Src/stm32g0xx_hal_flash_ex.c **** 
 2026              		.loc 1 431 23 is_stmt 0 view .LVU531
 2027 0016 FFF7FEFF 		bl	FLASH_OB_GetRDP
 2028              	.LVL133:
 431:Drivers/STM32G0xx_HAL_Driver/Src/stm32g0xx_hal_flash_ex.c **** 
 2029              		.loc 1 431 21 view .LVU532
 2030 001a 2061     		str	r0, [r4, #16]
 434:Drivers/STM32G0xx_HAL_Driver/Src/stm32g0xx_hal_flash_ex.c ****   pOBInit->USERType = OB_USER_ALL;
 2031              		.loc 1 434 3 is_stmt 1 view .LVU533
 434:Drivers/STM32G0xx_HAL_Driver/Src/stm32g0xx_hal_flash_ex.c ****   pOBInit->USERType = OB_USER_ALL;
 2032              		.loc 1 434 25 is_stmt 0 view .LVU534
 2033 001c FFF7FEFF 		bl	FLASH_OB_GetUser
 2034              	.LVL134:
 434:Drivers/STM32G0xx_HAL_Driver/Src/stm32g0xx_hal_flash_ex.c ****   pOBInit->USERType = OB_USER_ALL;
 2035              		.loc 1 434 23 view .LVU535
 2036 0020 A061     		str	r0, [r4, #24]
 435:Drivers/STM32G0xx_HAL_Driver/Src/stm32g0xx_hal_flash_ex.c **** 
 2037              		.loc 1 435 3 is_stmt 1 view .LVU536
 435:Drivers/STM32G0xx_HAL_Driver/Src/stm32g0xx_hal_flash_ex.c **** 
 2038              		.loc 1 435 21 is_stmt 0 view .LVU537
 2039 0022 164B     		ldr	r3, .L161
 2040 0024 6361     		str	r3, [r4, #20]
 439:Drivers/STM32G0xx_HAL_Driver/Src/stm32g0xx_hal_flash_ex.c ****   FLASH_OB_GetPCROP1B(&(pOBInit->PCROP1BStartAddr), &(pOBInit->PCROP1BEndAddr));
 2041              		.loc 1 439 3 is_stmt 1 view .LVU538
 2042 0026 2200     		movs	r2, r4
 2043 0028 2432     		adds	r2, r2, #36
 2044 002a 2100     		movs	r1, r4
 2045 002c 2031     		adds	r1, r1, #32
 2046 002e 2000     		movs	r0, r4
 2047 0030 1C30     		adds	r0, r0, #28
 2048 0032 FFF7FEFF 		bl	FLASH_OB_GetPCROP1A
 2049              	.LVL135:
 440:Drivers/STM32G0xx_HAL_Driver/Src/stm32g0xx_hal_flash_ex.c ****   pOBInit->PCROPConfig |= (OB_PCROP_ZONE_A | OB_PCROP_ZONE_B);
 2050              		.loc 1 440 3 view .LVU539
 2051 0036 2100     		movs	r1, r4
 2052 0038 2C31     		adds	r1, r1, #44
 2053 003a 2000     		movs	r0, r4
ARM GAS  /tmp/ccdudAn5.s 			page 61


 2054 003c 2830     		adds	r0, r0, #40
 2055 003e FFF7FEFF 		bl	FLASH_OB_GetPCROP1B
 2056              	.LVL136:
 441:Drivers/STM32G0xx_HAL_Driver/Src/stm32g0xx_hal_flash_ex.c **** #if defined(FLASH_DBANK_SUPPORT)
 2057              		.loc 1 441 3 view .LVU540
 441:Drivers/STM32G0xx_HAL_Driver/Src/stm32g0xx_hal_flash_ex.c **** #if defined(FLASH_DBANK_SUPPORT)
 2058              		.loc 1 441 24 is_stmt 0 view .LVU541
 2059 0042 E369     		ldr	r3, [r4, #28]
 2060 0044 0322     		movs	r2, #3
 2061 0046 1343     		orrs	r3, r2
 2062 0048 E361     		str	r3, [r4, #28]
 443:Drivers/STM32G0xx_HAL_Driver/Src/stm32g0xx_hal_flash_ex.c ****   FLASH_OB_GetPCROP2B(&(pOBInit->PCROP2BStartAddr), &(pOBInit->PCROP2BEndAddr));
 2063              		.loc 1 443 3 is_stmt 1 view .LVU542
 2064 004a 2100     		movs	r1, r4
 2065 004c 3431     		adds	r1, r1, #52
 2066 004e 2000     		movs	r0, r4
 2067 0050 3030     		adds	r0, r0, #48
 2068 0052 FFF7FEFF 		bl	FLASH_OB_GetPCROP2A
 2069              	.LVL137:
 444:Drivers/STM32G0xx_HAL_Driver/Src/stm32g0xx_hal_flash_ex.c ****   pOBInit->PCROPConfig |= (OB_PCROP_ZONE2_A | OB_PCROP_ZONE2_B);
 2070              		.loc 1 444 3 view .LVU543
 2071 0056 2100     		movs	r1, r4
 2072 0058 3C31     		adds	r1, r1, #60
 2073 005a 2000     		movs	r0, r4
 2074 005c 3830     		adds	r0, r0, #56
 2075 005e FFF7FEFF 		bl	FLASH_OB_GetPCROP2B
 2076              	.LVL138:
 445:Drivers/STM32G0xx_HAL_Driver/Src/stm32g0xx_hal_flash_ex.c **** #endif /* FLASH_DBANK_SUPPORT */
 2077              		.loc 1 445 3 view .LVU544
 445:Drivers/STM32G0xx_HAL_Driver/Src/stm32g0xx_hal_flash_ex.c **** #endif /* FLASH_DBANK_SUPPORT */
 2078              		.loc 1 445 24 is_stmt 0 view .LVU545
 2079 0062 E369     		ldr	r3, [r4, #28]
 2080 0064 0C22     		movs	r2, #12
 2081 0066 1343     		orrs	r3, r2
 2082 0068 E361     		str	r3, [r4, #28]
 452:Drivers/STM32G0xx_HAL_Driver/Src/stm32g0xx_hal_flash_ex.c **** #else
 2083              		.loc 1 452 3 is_stmt 1 view .LVU546
 2084 006a 2200     		movs	r2, r4
 2085 006c 4832     		adds	r2, r2, #72
 2086 006e 2100     		movs	r1, r4
 2087 0070 4431     		adds	r1, r1, #68
 2088 0072 2000     		movs	r0, r4
 2089 0074 4030     		adds	r0, r0, #64
 2090 0076 FFF7FEFF 		bl	FLASH_OB_GetSecMem
 2091              	.LVL139:
 458:Drivers/STM32G0xx_HAL_Driver/Src/stm32g0xx_hal_flash_ex.c **** 
 2092              		.loc 1 458 1 is_stmt 0 view .LVU547
 2093              		@ sp needed
 2094              	.LVL140:
 458:Drivers/STM32G0xx_HAL_Driver/Src/stm32g0xx_hal_flash_ex.c **** 
 2095              		.loc 1 458 1 view .LVU548
 2096 007a 10BD     		pop	{r4, pc}
 2097              	.L162:
 2098              		.align	2
 2099              	.L161:
 2100 007c 00FF7F3F 		.word	1065352960
 2101              		.cfi_endproc
ARM GAS  /tmp/ccdudAn5.s 			page 62


 2102              	.LFE361:
 2104              		.section	.text.HAL_FLASHEx_EnableDebugger,"ax",%progbits
 2105              		.align	1
 2106              		.global	HAL_FLASHEx_EnableDebugger
 2107              		.syntax unified
 2108              		.code	16
 2109              		.thumb_func
 2110              		.fpu softvfp
 2112              	HAL_FLASHEx_EnableDebugger:
 2113              	.LFB362:
 467:Drivers/STM32G0xx_HAL_Driver/Src/stm32g0xx_hal_flash_ex.c ****   FLASH->ACR |= FLASH_ACR_DBG_SWEN;
 2114              		.loc 1 467 1 is_stmt 1 view -0
 2115              		.cfi_startproc
 2116              		@ args = 0, pretend = 0, frame = 0
 2117              		@ frame_needed = 0, uses_anonymous_args = 0
 2118              		@ link register save eliminated.
 468:Drivers/STM32G0xx_HAL_Driver/Src/stm32g0xx_hal_flash_ex.c **** }
 2119              		.loc 1 468 3 view .LVU550
 468:Drivers/STM32G0xx_HAL_Driver/Src/stm32g0xx_hal_flash_ex.c **** }
 2120              		.loc 1 468 14 is_stmt 0 view .LVU551
 2121 0000 034A     		ldr	r2, .L164
 2122 0002 1168     		ldr	r1, [r2]
 2123 0004 8023     		movs	r3, #128
 2124 0006 DB02     		lsls	r3, r3, #11
 2125 0008 0B43     		orrs	r3, r1
 2126 000a 1360     		str	r3, [r2]
 469:Drivers/STM32G0xx_HAL_Driver/Src/stm32g0xx_hal_flash_ex.c **** 
 2127              		.loc 1 469 1 view .LVU552
 2128              		@ sp needed
 2129 000c 7047     		bx	lr
 2130              	.L165:
 2131 000e C046     		.align	2
 2132              	.L164:
 2133 0010 00200240 		.word	1073881088
 2134              		.cfi_endproc
 2135              	.LFE362:
 2137              		.section	.text.HAL_FLASHEx_DisableDebugger,"ax",%progbits
 2138              		.align	1
 2139              		.global	HAL_FLASHEx_DisableDebugger
 2140              		.syntax unified
 2141              		.code	16
 2142              		.thumb_func
 2143              		.fpu softvfp
 2145              	HAL_FLASHEx_DisableDebugger:
 2146              	.LFB363:
 479:Drivers/STM32G0xx_HAL_Driver/Src/stm32g0xx_hal_flash_ex.c ****   FLASH->ACR &= ~FLASH_ACR_DBG_SWEN;
 2147              		.loc 1 479 1 is_stmt 1 view -0
 2148              		.cfi_startproc
 2149              		@ args = 0, pretend = 0, frame = 0
 2150              		@ frame_needed = 0, uses_anonymous_args = 0
 2151              		@ link register save eliminated.
 480:Drivers/STM32G0xx_HAL_Driver/Src/stm32g0xx_hal_flash_ex.c **** }
 2152              		.loc 1 480 3 view .LVU554
 480:Drivers/STM32G0xx_HAL_Driver/Src/stm32g0xx_hal_flash_ex.c **** }
 2153              		.loc 1 480 14 is_stmt 0 view .LVU555
 2154 0000 024A     		ldr	r2, .L167
 2155 0002 1368     		ldr	r3, [r2]
ARM GAS  /tmp/ccdudAn5.s 			page 63


 2156 0004 0249     		ldr	r1, .L167+4
 2157 0006 0B40     		ands	r3, r1
 2158 0008 1360     		str	r3, [r2]
 481:Drivers/STM32G0xx_HAL_Driver/Src/stm32g0xx_hal_flash_ex.c **** #endif /* FLASH_ACR_DBG_SWEN */
 2159              		.loc 1 481 1 view .LVU556
 2160              		@ sp needed
 2161 000a 7047     		bx	lr
 2162              	.L168:
 2163              		.align	2
 2164              	.L167:
 2165 000c 00200240 		.word	1073881088
 2166 0010 FFFFFBFF 		.word	-262145
 2167              		.cfi_endproc
 2168              	.LFE363:
 2170              		.section	.text.HAL_FLASHEx_FlashEmptyCheck,"ax",%progbits
 2171              		.align	1
 2172              		.global	HAL_FLASHEx_FlashEmptyCheck
 2173              		.syntax unified
 2174              		.code	16
 2175              		.thumb_func
 2176              		.fpu softvfp
 2178              	HAL_FLASHEx_FlashEmptyCheck:
 2179              	.LFB364:
 491:Drivers/STM32G0xx_HAL_Driver/Src/stm32g0xx_hal_flash_ex.c ****   return ((FLASH->ACR & FLASH_ACR_PROGEMPTY));
 2180              		.loc 1 491 1 is_stmt 1 view -0
 2181              		.cfi_startproc
 2182              		@ args = 0, pretend = 0, frame = 0
 2183              		@ frame_needed = 0, uses_anonymous_args = 0
 2184              		@ link register save eliminated.
 492:Drivers/STM32G0xx_HAL_Driver/Src/stm32g0xx_hal_flash_ex.c **** }
 2185              		.loc 1 492 3 view .LVU558
 492:Drivers/STM32G0xx_HAL_Driver/Src/stm32g0xx_hal_flash_ex.c **** }
 2186              		.loc 1 492 17 is_stmt 0 view .LVU559
 2187 0000 024B     		ldr	r3, .L170
 2188 0002 1868     		ldr	r0, [r3]
 492:Drivers/STM32G0xx_HAL_Driver/Src/stm32g0xx_hal_flash_ex.c **** }
 2189              		.loc 1 492 23 view .LVU560
 2190 0004 8023     		movs	r3, #128
 2191 0006 5B02     		lsls	r3, r3, #9
 2192 0008 1840     		ands	r0, r3
 493:Drivers/STM32G0xx_HAL_Driver/Src/stm32g0xx_hal_flash_ex.c **** 
 2193              		.loc 1 493 1 view .LVU561
 2194              		@ sp needed
 2195 000a 7047     		bx	lr
 2196              	.L171:
 2197              		.align	2
 2198              	.L170:
 2199 000c 00200240 		.word	1073881088
 2200              		.cfi_endproc
 2201              	.LFE364:
 2203              		.section	.text.HAL_FLASHEx_ForceFlashEmpty,"ax",%progbits
 2204              		.align	1
 2205              		.global	HAL_FLASHEx_ForceFlashEmpty
 2206              		.syntax unified
 2207              		.code	16
 2208              		.thumb_func
 2209              		.fpu softvfp
ARM GAS  /tmp/ccdudAn5.s 			page 64


 2211              	HAL_FLASHEx_ForceFlashEmpty:
 2212              	.LVL141:
 2213              	.LFB365:
 505:Drivers/STM32G0xx_HAL_Driver/Src/stm32g0xx_hal_flash_ex.c ****   uint32_t acr;
 2214              		.loc 1 505 1 is_stmt 1 view -0
 2215              		.cfi_startproc
 2216              		@ args = 0, pretend = 0, frame = 0
 2217              		@ frame_needed = 0, uses_anonymous_args = 0
 2218              		@ link register save eliminated.
 506:Drivers/STM32G0xx_HAL_Driver/Src/stm32g0xx_hal_flash_ex.c ****   assert_param(IS_FLASH_EMPTY_CHECK(FlashEmpty));
 2219              		.loc 1 506 3 view .LVU563
 507:Drivers/STM32G0xx_HAL_Driver/Src/stm32g0xx_hal_flash_ex.c **** 
 2220              		.loc 1 507 3 view .LVU564
 509:Drivers/STM32G0xx_HAL_Driver/Src/stm32g0xx_hal_flash_ex.c ****   FLASH->ACR = (acr | FlashEmpty);
 2221              		.loc 1 509 3 view .LVU565
 509:Drivers/STM32G0xx_HAL_Driver/Src/stm32g0xx_hal_flash_ex.c ****   FLASH->ACR = (acr | FlashEmpty);
 2222              		.loc 1 509 15 is_stmt 0 view .LVU566
 2223 0000 034A     		ldr	r2, .L173
 2224 0002 1368     		ldr	r3, [r2]
 509:Drivers/STM32G0xx_HAL_Driver/Src/stm32g0xx_hal_flash_ex.c ****   FLASH->ACR = (acr | FlashEmpty);
 2225              		.loc 1 509 7 view .LVU567
 2226 0004 0349     		ldr	r1, .L173+4
 2227 0006 0B40     		ands	r3, r1
 2228              	.LVL142:
 510:Drivers/STM32G0xx_HAL_Driver/Src/stm32g0xx_hal_flash_ex.c **** }
 2229              		.loc 1 510 3 is_stmt 1 view .LVU568
 510:Drivers/STM32G0xx_HAL_Driver/Src/stm32g0xx_hal_flash_ex.c **** }
 2230              		.loc 1 510 21 is_stmt 0 view .LVU569
 2231 0008 0343     		orrs	r3, r0
 2232              	.LVL143:
 510:Drivers/STM32G0xx_HAL_Driver/Src/stm32g0xx_hal_flash_ex.c **** }
 2233              		.loc 1 510 14 view .LVU570
 2234 000a 1360     		str	r3, [r2]
 511:Drivers/STM32G0xx_HAL_Driver/Src/stm32g0xx_hal_flash_ex.c **** 
 2235              		.loc 1 511 1 view .LVU571
 2236              		@ sp needed
 2237 000c 7047     		bx	lr
 2238              	.L174:
 2239 000e C046     		.align	2
 2240              	.L173:
 2241 0010 00200240 		.word	1073881088
 2242 0014 FFFFFEFF 		.word	-65537
 2243              		.cfi_endproc
 2244              	.LFE365:
 2246              		.section	.text.HAL_FLASHEx_EnableSecMemProtection,"ax",%progbits
 2247              		.align	1
 2248              		.global	HAL_FLASHEx_EnableSecMemProtection
 2249              		.syntax unified
 2250              		.code	16
 2251              		.thumb_func
 2252              		.fpu softvfp
 2254              	HAL_FLASHEx_EnableSecMemProtection:
 2255              	.LVL144:
 2256              	.LFB366:
 527:Drivers/STM32G0xx_HAL_Driver/Src/stm32g0xx_hal_flash_ex.c **** #if defined(FLASH_DBANK_SUPPORT)
 2257              		.loc 1 527 1 is_stmt 1 view -0
 2258              		.cfi_startproc
ARM GAS  /tmp/ccdudAn5.s 			page 65


 2259              		@ args = 0, pretend = 0, frame = 0
 2260              		@ frame_needed = 0, uses_anonymous_args = 0
 2261              		@ link register save eliminated.
 529:Drivers/STM32G0xx_HAL_Driver/Src/stm32g0xx_hal_flash_ex.c **** 
 2262              		.loc 1 529 3 view .LVU573
 531:Drivers/STM32G0xx_HAL_Driver/Src/stm32g0xx_hal_flash_ex.c ****   {
 2263              		.loc 1 531 3 view .LVU574
 531:Drivers/STM32G0xx_HAL_Driver/Src/stm32g0xx_hal_flash_ex.c ****   {
 2264              		.loc 1 531 6 is_stmt 0 view .LVU575
 2265 0000 0D4B     		ldr	r3, .L181
 2266 0002 9842     		cmp	r0, r3
 2267 0004 0AD0     		beq	.L179
 535:Drivers/STM32G0xx_HAL_Driver/Src/stm32g0xx_hal_flash_ex.c ****   {
 2268              		.loc 1 535 8 is_stmt 1 view .LVU576
 535:Drivers/STM32G0xx_HAL_Driver/Src/stm32g0xx_hal_flash_ex.c ****   {
 2269              		.loc 1 535 11 is_stmt 0 view .LVU577
 2270 0006 8023     		movs	r3, #128
 2271 0008 1B02     		lsls	r3, r3, #8
 2272 000a 9842     		cmp	r0, r3
 2273 000c 0DD0     		beq	.L180
 544:Drivers/STM32G0xx_HAL_Driver/Src/stm32g0xx_hal_flash_ex.c ****   }
 2274              		.loc 1 544 5 is_stmt 1 view .LVU578
 544:Drivers/STM32G0xx_HAL_Driver/Src/stm32g0xx_hal_flash_ex.c ****   }
 2275              		.loc 1 544 15 is_stmt 0 view .LVU579
 2276 000e 0B4A     		ldr	r2, .L181+4
 2277 0010 5169     		ldr	r1, [r2, #20]
 2278 0012 8023     		movs	r3, #128
 2279 0014 5B05     		lsls	r3, r3, #21
 2280 0016 0B43     		orrs	r3, r1
 2281 0018 5361     		str	r3, [r2, #20]
 2282              	.L175:
 546:Drivers/STM32G0xx_HAL_Driver/Src/stm32g0xx_hal_flash_ex.c **** #endif /* FLASH_SECURABLE_MEMORY_SUPPORT */
 2283              		.loc 1 546 1 view .LVU580
 2284              		@ sp needed
 2285 001a 7047     		bx	lr
 2286              	.L179:
 533:Drivers/STM32G0xx_HAL_Driver/Src/stm32g0xx_hal_flash_ex.c ****   }
 2287              		.loc 1 533 5 is_stmt 1 view .LVU581
 533:Drivers/STM32G0xx_HAL_Driver/Src/stm32g0xx_hal_flash_ex.c ****   }
 2288              		.loc 1 533 15 is_stmt 0 view .LVU582
 2289 001c 074A     		ldr	r2, .L181+4
 2290 001e 5169     		ldr	r1, [r2, #20]
 2291 0020 C023     		movs	r3, #192
 2292 0022 9B05     		lsls	r3, r3, #22
 2293 0024 0B43     		orrs	r3, r1
 2294 0026 5361     		str	r3, [r2, #20]
 2295 0028 F7E7     		b	.L175
 2296              	.L180:
 537:Drivers/STM32G0xx_HAL_Driver/Src/stm32g0xx_hal_flash_ex.c ****   }
 2297              		.loc 1 537 5 is_stmt 1 view .LVU583
 537:Drivers/STM32G0xx_HAL_Driver/Src/stm32g0xx_hal_flash_ex.c ****   }
 2298              		.loc 1 537 15 is_stmt 0 view .LVU584
 2299 002a 044A     		ldr	r2, .L181+4
 2300 002c 5169     		ldr	r1, [r2, #20]
 2301 002e 8023     		movs	r3, #128
 2302 0030 9B05     		lsls	r3, r3, #22
 2303 0032 0B43     		orrs	r3, r1
ARM GAS  /tmp/ccdudAn5.s 			page 66


 2304 0034 5361     		str	r3, [r2, #20]
 2305 0036 F0E7     		b	.L175
 2306              	.L182:
 2307              		.align	2
 2308              	.L181:
 2309 0038 04800000 		.word	32772
 2310 003c 00200240 		.word	1073881088
 2311              		.cfi_endproc
 2312              	.LFE366:
 2314              		.section	.text.FLASH_PageErase,"ax",%progbits
 2315              		.align	1
 2316              		.global	FLASH_PageErase
 2317              		.syntax unified
 2318              		.code	16
 2319              		.thumb_func
 2320              		.fpu softvfp
 2322              	FLASH_PageErase:
 2323              	.LVL145:
 2324              	.LFB368:
 591:Drivers/STM32G0xx_HAL_Driver/Src/stm32g0xx_hal_flash_ex.c ****   uint32_t tmp;
 2325              		.loc 1 591 1 is_stmt 1 view -0
 2326              		.cfi_startproc
 2327              		@ args = 0, pretend = 0, frame = 0
 2328              		@ frame_needed = 0, uses_anonymous_args = 0
 2329              		@ link register save eliminated.
 592:Drivers/STM32G0xx_HAL_Driver/Src/stm32g0xx_hal_flash_ex.c **** 
 2330              		.loc 1 592 3 view .LVU586
 595:Drivers/STM32G0xx_HAL_Driver/Src/stm32g0xx_hal_flash_ex.c ****   assert_param(IS_FLASH_PAGE(Page));
 2331              		.loc 1 595 3 view .LVU587
 596:Drivers/STM32G0xx_HAL_Driver/Src/stm32g0xx_hal_flash_ex.c **** 
 2332              		.loc 1 596 3 view .LVU588
 599:Drivers/STM32G0xx_HAL_Driver/Src/stm32g0xx_hal_flash_ex.c **** 
 2333              		.loc 1 599 3 view .LVU589
 599:Drivers/STM32G0xx_HAL_Driver/Src/stm32g0xx_hal_flash_ex.c **** 
 2334              		.loc 1 599 15 is_stmt 0 view .LVU590
 2335 0000 094B     		ldr	r3, .L186
 2336 0002 5B69     		ldr	r3, [r3, #20]
 599:Drivers/STM32G0xx_HAL_Driver/Src/stm32g0xx_hal_flash_ex.c **** 
 2337              		.loc 1 599 7 view .LVU591
 2338 0004 094A     		ldr	r2, .L186+4
 2339 0006 1A40     		ands	r2, r3
 2340              	.LVL146:
 603:Drivers/STM32G0xx_HAL_Driver/Src/stm32g0xx_hal_flash_ex.c ****   {
 2341              		.loc 1 603 3 is_stmt 1 view .LVU592
 603:Drivers/STM32G0xx_HAL_Driver/Src/stm32g0xx_hal_flash_ex.c ****   {
 2342              		.loc 1 603 6 is_stmt 0 view .LVU593
 2343 0008 0428     		cmp	r0, #4
 2344 000a 09D0     		beq	.L184
 605:Drivers/STM32G0xx_HAL_Driver/Src/stm32g0xx_hal_flash_ex.c ****   }
 2345              		.loc 1 605 5 is_stmt 1 view .LVU594
 605:Drivers/STM32G0xx_HAL_Driver/Src/stm32g0xx_hal_flash_ex.c ****   }
 2346              		.loc 1 605 9 is_stmt 0 view .LVU595
 2347 000c 8023     		movs	r3, #128
 2348 000e 9B01     		lsls	r3, r3, #6
 2349 0010 1343     		orrs	r3, r2
 2350              	.LVL147:
 2351              	.L185:
ARM GAS  /tmp/ccdudAn5.s 			page 67


 614:Drivers/STM32G0xx_HAL_Driver/Src/stm32g0xx_hal_flash_ex.c **** }
 2352              		.loc 1 614 3 is_stmt 1 view .LVU596
 614:Drivers/STM32G0xx_HAL_Driver/Src/stm32g0xx_hal_flash_ex.c **** }
 2353              		.loc 1 614 45 is_stmt 0 view .LVU597
 2354 0012 C900     		lsls	r1, r1, #3
 2355              	.LVL148:
 614:Drivers/STM32G0xx_HAL_Driver/Src/stm32g0xx_hal_flash_ex.c **** }
 2356              		.loc 1 614 20 view .LVU598
 2357 0014 1943     		orrs	r1, r3
 2358 0016 064B     		ldr	r3, .L186+8
 2359              	.LVL149:
 614:Drivers/STM32G0xx_HAL_Driver/Src/stm32g0xx_hal_flash_ex.c **** }
 2360              		.loc 1 614 20 view .LVU599
 2361 0018 0B43     		orrs	r3, r1
 614:Drivers/STM32G0xx_HAL_Driver/Src/stm32g0xx_hal_flash_ex.c **** }
 2362              		.loc 1 614 13 view .LVU600
 2363 001a 034A     		ldr	r2, .L186
 2364 001c 5361     		str	r3, [r2, #20]
 615:Drivers/STM32G0xx_HAL_Driver/Src/stm32g0xx_hal_flash_ex.c **** 
 2365              		.loc 1 615 1 view .LVU601
 2366              		@ sp needed
 2367 001e 7047     		bx	lr
 2368              	.LVL150:
 2369              	.L184:
 609:Drivers/STM32G0xx_HAL_Driver/Src/stm32g0xx_hal_flash_ex.c ****   }
 2370              		.loc 1 609 5 is_stmt 1 view .LVU602
 609:Drivers/STM32G0xx_HAL_Driver/Src/stm32g0xx_hal_flash_ex.c ****   }
 2371              		.loc 1 609 9 is_stmt 0 view .LVU603
 2372 0020 044A     		ldr	r2, .L186+12
 2373              	.LVL151:
 609:Drivers/STM32G0xx_HAL_Driver/Src/stm32g0xx_hal_flash_ex.c ****   }
 2374              		.loc 1 609 9 view .LVU604
 2375 0022 1340     		ands	r3, r2
 2376              	.LVL152:
 609:Drivers/STM32G0xx_HAL_Driver/Src/stm32g0xx_hal_flash_ex.c ****   }
 2377              		.loc 1 609 9 view .LVU605
 2378 0024 F5E7     		b	.L185
 2379              	.L187:
 2380 0026 C046     		.align	2
 2381              	.L186:
 2382 0028 00200240 		.word	1073881088
 2383 002c 07FCFFFF 		.word	-1017
 2384 0030 02000100 		.word	65538
 2385 0034 07DCFFFF 		.word	-9209
 2386              		.cfi_endproc
 2387              	.LFE368:
 2389              		.section	.text.HAL_FLASHEx_Erase,"ax",%progbits
 2390              		.align	1
 2391              		.global	HAL_FLASHEx_Erase
 2392              		.syntax unified
 2393              		.code	16
 2394              		.thumb_func
 2395              		.fpu softvfp
 2397              	HAL_FLASHEx_Erase:
 2398              	.LVL153:
 2399              	.LFB358:
 157:Drivers/STM32G0xx_HAL_Driver/Src/stm32g0xx_hal_flash_ex.c ****   HAL_StatusTypeDef status;
ARM GAS  /tmp/ccdudAn5.s 			page 68


 2400              		.loc 1 157 1 is_stmt 1 view -0
 2401              		.cfi_startproc
 2402              		@ args = 0, pretend = 0, frame = 0
 2403              		@ frame_needed = 0, uses_anonymous_args = 0
 157:Drivers/STM32G0xx_HAL_Driver/Src/stm32g0xx_hal_flash_ex.c ****   HAL_StatusTypeDef status;
 2404              		.loc 1 157 1 is_stmt 0 view .LVU607
 2405 0000 70B5     		push	{r4, r5, r6, lr}
 2406              	.LCFI14:
 2407              		.cfi_def_cfa_offset 16
 2408              		.cfi_offset 4, -16
 2409              		.cfi_offset 5, -12
 2410              		.cfi_offset 6, -8
 2411              		.cfi_offset 14, -4
 2412 0002 0400     		movs	r4, r0
 2413 0004 0E00     		movs	r6, r1
 158:Drivers/STM32G0xx_HAL_Driver/Src/stm32g0xx_hal_flash_ex.c ****   uint32_t index;
 2414              		.loc 1 158 3 is_stmt 1 view .LVU608
 159:Drivers/STM32G0xx_HAL_Driver/Src/stm32g0xx_hal_flash_ex.c **** 
 2415              		.loc 1 159 3 view .LVU609
 162:Drivers/STM32G0xx_HAL_Driver/Src/stm32g0xx_hal_flash_ex.c **** 
 2416              		.loc 1 162 3 view .LVU610
 165:Drivers/STM32G0xx_HAL_Driver/Src/stm32g0xx_hal_flash_ex.c **** 
 2417              		.loc 1 165 3 view .LVU611
 165:Drivers/STM32G0xx_HAL_Driver/Src/stm32g0xx_hal_flash_ex.c **** 
 2418              		.loc 1 165 3 view .LVU612
 2419 0006 1D4B     		ldr	r3, .L199
 2420 0008 1B78     		ldrb	r3, [r3]
 2421 000a 012B     		cmp	r3, #1
 2422 000c 34D0     		beq	.L196
 165:Drivers/STM32G0xx_HAL_Driver/Src/stm32g0xx_hal_flash_ex.c **** 
 2423              		.loc 1 165 3 discriminator 2 view .LVU613
 2424 000e 1B4B     		ldr	r3, .L199
 2425 0010 0122     		movs	r2, #1
 2426 0012 1A70     		strb	r2, [r3]
 165:Drivers/STM32G0xx_HAL_Driver/Src/stm32g0xx_hal_flash_ex.c **** 
 2427              		.loc 1 165 3 discriminator 2 view .LVU614
 168:Drivers/STM32G0xx_HAL_Driver/Src/stm32g0xx_hal_flash_ex.c **** 
 2428              		.loc 1 168 3 discriminator 2 view .LVU615
 168:Drivers/STM32G0xx_HAL_Driver/Src/stm32g0xx_hal_flash_ex.c **** 
 2429              		.loc 1 168 20 is_stmt 0 discriminator 2 view .LVU616
 2430 0014 0022     		movs	r2, #0
 2431 0016 5A60     		str	r2, [r3, #4]
 171:Drivers/STM32G0xx_HAL_Driver/Src/stm32g0xx_hal_flash_ex.c **** 
 2432              		.loc 1 171 3 is_stmt 1 discriminator 2 view .LVU617
 171:Drivers/STM32G0xx_HAL_Driver/Src/stm32g0xx_hal_flash_ex.c **** 
 2433              		.loc 1 171 12 is_stmt 0 discriminator 2 view .LVU618
 2434 0018 FA20     		movs	r0, #250
 2435              	.LVL154:
 171:Drivers/STM32G0xx_HAL_Driver/Src/stm32g0xx_hal_flash_ex.c **** 
 2436              		.loc 1 171 12 discriminator 2 view .LVU619
 2437 001a 8000     		lsls	r0, r0, #2
 2438 001c FFF7FEFF 		bl	FLASH_WaitForLastOperation
 2439              	.LVL155:
 173:Drivers/STM32G0xx_HAL_Driver/Src/stm32g0xx_hal_flash_ex.c ****   {
 2440              		.loc 1 173 3 is_stmt 1 discriminator 2 view .LVU620
 173:Drivers/STM32G0xx_HAL_Driver/Src/stm32g0xx_hal_flash_ex.c ****   {
 2441              		.loc 1 173 6 is_stmt 0 discriminator 2 view .LVU621
ARM GAS  /tmp/ccdudAn5.s 			page 69


