ARM GAS  /tmp/ccVU8yv2.s 			page 1


   1              		.cpu cortex-m0plus
   2              		.eabi_attribute 20, 1
   3              		.eabi_attribute 21, 1
   4              		.eabi_attribute 23, 3
   5              		.eabi_attribute 24, 1
   6              		.eabi_attribute 25, 1
   7              		.eabi_attribute 26, 1
   8              		.eabi_attribute 30, 1
   9              		.eabi_attribute 34, 0
  10              		.eabi_attribute 18, 4
  11              		.file	"stm32g0xx_hal_rcc_ex.c"
  12              		.text
  13              	.Ltext0:
  14              		.cfi_sections	.debug_frame
  15              		.section	.text.HAL_RCCEx_PeriphCLKConfig,"ax",%progbits
  16              		.align	1
  17              		.global	HAL_RCCEx_PeriphCLKConfig
  18              		.arch armv6s-m
  19              		.syntax unified
  20              		.code	16
  21              		.thumb_func
  22              		.fpu softvfp
  24              	HAL_RCCEx_PeriphCLKConfig:
  25              	.LVL0:
  26              	.LFB358:
  27              		.file 1 "Drivers/STM32G0xx_HAL_Driver/Src/stm32g0xx_hal_rcc_ex.c"
   1:Drivers/STM32G0xx_HAL_Driver/Src/stm32g0xx_hal_rcc_ex.c **** /**
   2:Drivers/STM32G0xx_HAL_Driver/Src/stm32g0xx_hal_rcc_ex.c ****   ******************************************************************************
   3:Drivers/STM32G0xx_HAL_Driver/Src/stm32g0xx_hal_rcc_ex.c ****   * @file    stm32g0xx_hal_rcc_ex.c
   4:Drivers/STM32G0xx_HAL_Driver/Src/stm32g0xx_hal_rcc_ex.c ****   * @author  MCD Application Team
   5:Drivers/STM32G0xx_HAL_Driver/Src/stm32g0xx_hal_rcc_ex.c ****   * @brief   Extended RCC HAL module driver.
   6:Drivers/STM32G0xx_HAL_Driver/Src/stm32g0xx_hal_rcc_ex.c ****   *          This file provides firmware functions to manage the following
   7:Drivers/STM32G0xx_HAL_Driver/Src/stm32g0xx_hal_rcc_ex.c ****   *          functionalities RCC extended peripheral:
   8:Drivers/STM32G0xx_HAL_Driver/Src/stm32g0xx_hal_rcc_ex.c ****   *           + Extended Peripheral Control functions
   9:Drivers/STM32G0xx_HAL_Driver/Src/stm32g0xx_hal_rcc_ex.c ****   *           + Extended Clock management functions
  10:Drivers/STM32G0xx_HAL_Driver/Src/stm32g0xx_hal_rcc_ex.c ****   *           + Extended Clock Recovery System Control functions
  11:Drivers/STM32G0xx_HAL_Driver/Src/stm32g0xx_hal_rcc_ex.c ****   *
  12:Drivers/STM32G0xx_HAL_Driver/Src/stm32g0xx_hal_rcc_ex.c ****   ******************************************************************************
  13:Drivers/STM32G0xx_HAL_Driver/Src/stm32g0xx_hal_rcc_ex.c ****   * @attention
  14:Drivers/STM32G0xx_HAL_Driver/Src/stm32g0xx_hal_rcc_ex.c ****   *
  15:Drivers/STM32G0xx_HAL_Driver/Src/stm32g0xx_hal_rcc_ex.c ****   * <h2><center>&copy; Copyright (c) 2018 STMicroelectronics.
  16:Drivers/STM32G0xx_HAL_Driver/Src/stm32g0xx_hal_rcc_ex.c ****   * All rights reserved.</center></h2>
  17:Drivers/STM32G0xx_HAL_Driver/Src/stm32g0xx_hal_rcc_ex.c ****   *
  18:Drivers/STM32G0xx_HAL_Driver/Src/stm32g0xx_hal_rcc_ex.c ****   * This software component is licensed by ST under BSD 3-Clause license,
  19:Drivers/STM32G0xx_HAL_Driver/Src/stm32g0xx_hal_rcc_ex.c ****   * the "License"; You may not use this file except in compliance with the
  20:Drivers/STM32G0xx_HAL_Driver/Src/stm32g0xx_hal_rcc_ex.c ****   * License. You may obtain a copy of the License at:
  21:Drivers/STM32G0xx_HAL_Driver/Src/stm32g0xx_hal_rcc_ex.c ****   *                        opensource.org/licenses/BSD-3-Clause
  22:Drivers/STM32G0xx_HAL_Driver/Src/stm32g0xx_hal_rcc_ex.c ****   *
  23:Drivers/STM32G0xx_HAL_Driver/Src/stm32g0xx_hal_rcc_ex.c ****   ******************************************************************************
  24:Drivers/STM32G0xx_HAL_Driver/Src/stm32g0xx_hal_rcc_ex.c ****   */
  25:Drivers/STM32G0xx_HAL_Driver/Src/stm32g0xx_hal_rcc_ex.c **** 
  26:Drivers/STM32G0xx_HAL_Driver/Src/stm32g0xx_hal_rcc_ex.c **** /* Includes ------------------------------------------------------------------*/
  27:Drivers/STM32G0xx_HAL_Driver/Src/stm32g0xx_hal_rcc_ex.c **** #include "stm32g0xx_hal.h"
  28:Drivers/STM32G0xx_HAL_Driver/Src/stm32g0xx_hal_rcc_ex.c **** 
  29:Drivers/STM32G0xx_HAL_Driver/Src/stm32g0xx_hal_rcc_ex.c **** /** @addtogroup STM32G0xx_HAL_Driver
  30:Drivers/STM32G0xx_HAL_Driver/Src/stm32g0xx_hal_rcc_ex.c ****   * @{
  31:Drivers/STM32G0xx_HAL_Driver/Src/stm32g0xx_hal_rcc_ex.c ****   */
ARM GAS  /tmp/ccVU8yv2.s 			page 2


  32:Drivers/STM32G0xx_HAL_Driver/Src/stm32g0xx_hal_rcc_ex.c **** 
  33:Drivers/STM32G0xx_HAL_Driver/Src/stm32g0xx_hal_rcc_ex.c **** /** @defgroup RCCEx RCCEx
  34:Drivers/STM32G0xx_HAL_Driver/Src/stm32g0xx_hal_rcc_ex.c ****   * @brief RCC Extended HAL module driver
  35:Drivers/STM32G0xx_HAL_Driver/Src/stm32g0xx_hal_rcc_ex.c ****   * @{
  36:Drivers/STM32G0xx_HAL_Driver/Src/stm32g0xx_hal_rcc_ex.c ****   */
  37:Drivers/STM32G0xx_HAL_Driver/Src/stm32g0xx_hal_rcc_ex.c **** 
  38:Drivers/STM32G0xx_HAL_Driver/Src/stm32g0xx_hal_rcc_ex.c **** #ifdef HAL_RCC_MODULE_ENABLED
  39:Drivers/STM32G0xx_HAL_Driver/Src/stm32g0xx_hal_rcc_ex.c **** 
  40:Drivers/STM32G0xx_HAL_Driver/Src/stm32g0xx_hal_rcc_ex.c **** /* Private typedef -----------------------------------------------------------*/
  41:Drivers/STM32G0xx_HAL_Driver/Src/stm32g0xx_hal_rcc_ex.c **** /* Private defines -----------------------------------------------------------*/
  42:Drivers/STM32G0xx_HAL_Driver/Src/stm32g0xx_hal_rcc_ex.c **** /** @defgroup RCCEx_Private_Constants RCCEx Private Constants
  43:Drivers/STM32G0xx_HAL_Driver/Src/stm32g0xx_hal_rcc_ex.c ****   * @{
  44:Drivers/STM32G0xx_HAL_Driver/Src/stm32g0xx_hal_rcc_ex.c ****   */
  45:Drivers/STM32G0xx_HAL_Driver/Src/stm32g0xx_hal_rcc_ex.c **** #define PLL_TIMEOUT_VALUE        100U /* 100 ms (minimum Tick + 1)  */
  46:Drivers/STM32G0xx_HAL_Driver/Src/stm32g0xx_hal_rcc_ex.c **** 
  47:Drivers/STM32G0xx_HAL_Driver/Src/stm32g0xx_hal_rcc_ex.c **** #define LSCO_CLK_ENABLE()     __HAL_RCC_GPIOA_CLK_ENABLE()
  48:Drivers/STM32G0xx_HAL_Driver/Src/stm32g0xx_hal_rcc_ex.c **** #define LSCO_GPIO_PORT        GPIOA
  49:Drivers/STM32G0xx_HAL_Driver/Src/stm32g0xx_hal_rcc_ex.c **** #define LSCO_PIN              GPIO_PIN_2
  50:Drivers/STM32G0xx_HAL_Driver/Src/stm32g0xx_hal_rcc_ex.c **** /**
  51:Drivers/STM32G0xx_HAL_Driver/Src/stm32g0xx_hal_rcc_ex.c ****   * @}
  52:Drivers/STM32G0xx_HAL_Driver/Src/stm32g0xx_hal_rcc_ex.c ****   */
  53:Drivers/STM32G0xx_HAL_Driver/Src/stm32g0xx_hal_rcc_ex.c **** 
  54:Drivers/STM32G0xx_HAL_Driver/Src/stm32g0xx_hal_rcc_ex.c **** /* Private macros ------------------------------------------------------------*/
  55:Drivers/STM32G0xx_HAL_Driver/Src/stm32g0xx_hal_rcc_ex.c **** /* Private variables ---------------------------------------------------------*/
  56:Drivers/STM32G0xx_HAL_Driver/Src/stm32g0xx_hal_rcc_ex.c **** /* Private function prototypes -----------------------------------------------*/
  57:Drivers/STM32G0xx_HAL_Driver/Src/stm32g0xx_hal_rcc_ex.c **** /* Exported functions --------------------------------------------------------*/
  58:Drivers/STM32G0xx_HAL_Driver/Src/stm32g0xx_hal_rcc_ex.c **** 
  59:Drivers/STM32G0xx_HAL_Driver/Src/stm32g0xx_hal_rcc_ex.c **** /** @defgroup RCCEx_Exported_Functions RCCEx Exported Functions
  60:Drivers/STM32G0xx_HAL_Driver/Src/stm32g0xx_hal_rcc_ex.c ****   * @{
  61:Drivers/STM32G0xx_HAL_Driver/Src/stm32g0xx_hal_rcc_ex.c ****   */
  62:Drivers/STM32G0xx_HAL_Driver/Src/stm32g0xx_hal_rcc_ex.c **** 
  63:Drivers/STM32G0xx_HAL_Driver/Src/stm32g0xx_hal_rcc_ex.c **** /** @defgroup RCCEx_Exported_Functions_Group1 Extended Peripheral Control functions
  64:Drivers/STM32G0xx_HAL_Driver/Src/stm32g0xx_hal_rcc_ex.c ****   * @brief  Extended Peripheral Control functions
  65:Drivers/STM32G0xx_HAL_Driver/Src/stm32g0xx_hal_rcc_ex.c ****   *
  66:Drivers/STM32G0xx_HAL_Driver/Src/stm32g0xx_hal_rcc_ex.c **** @verbatim
  67:Drivers/STM32G0xx_HAL_Driver/Src/stm32g0xx_hal_rcc_ex.c ****  ===============================================================================
  68:Drivers/STM32G0xx_HAL_Driver/Src/stm32g0xx_hal_rcc_ex.c ****                 ##### Extended Peripheral Control functions  #####
  69:Drivers/STM32G0xx_HAL_Driver/Src/stm32g0xx_hal_rcc_ex.c ****  ===============================================================================
  70:Drivers/STM32G0xx_HAL_Driver/Src/stm32g0xx_hal_rcc_ex.c ****     [..]
  71:Drivers/STM32G0xx_HAL_Driver/Src/stm32g0xx_hal_rcc_ex.c ****     This subsection provides a set of functions allowing to control the RCC Clocks
  72:Drivers/STM32G0xx_HAL_Driver/Src/stm32g0xx_hal_rcc_ex.c ****     frequencies.
  73:Drivers/STM32G0xx_HAL_Driver/Src/stm32g0xx_hal_rcc_ex.c ****     [..]
  74:Drivers/STM32G0xx_HAL_Driver/Src/stm32g0xx_hal_rcc_ex.c ****     (@) Important note: Care must be taken when @ref HAL_RCCEx_PeriphCLKConfig() is used to
  75:Drivers/STM32G0xx_HAL_Driver/Src/stm32g0xx_hal_rcc_ex.c ****         select the RTC clock source; in this case the Backup domain will be reset in
  76:Drivers/STM32G0xx_HAL_Driver/Src/stm32g0xx_hal_rcc_ex.c ****         order to modify the RTC Clock source, as consequence RTC registers (including
  77:Drivers/STM32G0xx_HAL_Driver/Src/stm32g0xx_hal_rcc_ex.c ****         the backup registers) and RCC_BDCR register are set to their reset values.
  78:Drivers/STM32G0xx_HAL_Driver/Src/stm32g0xx_hal_rcc_ex.c **** 
  79:Drivers/STM32G0xx_HAL_Driver/Src/stm32g0xx_hal_rcc_ex.c **** @endverbatim
  80:Drivers/STM32G0xx_HAL_Driver/Src/stm32g0xx_hal_rcc_ex.c ****   * @{
  81:Drivers/STM32G0xx_HAL_Driver/Src/stm32g0xx_hal_rcc_ex.c ****   */
  82:Drivers/STM32G0xx_HAL_Driver/Src/stm32g0xx_hal_rcc_ex.c **** /**
  83:Drivers/STM32G0xx_HAL_Driver/Src/stm32g0xx_hal_rcc_ex.c ****   * @brief  Initialize the RCC extended peripherals clocks according to the specified
  84:Drivers/STM32G0xx_HAL_Driver/Src/stm32g0xx_hal_rcc_ex.c ****   *         parameters in the @ref RCC_PeriphCLKInitTypeDef.
  85:Drivers/STM32G0xx_HAL_Driver/Src/stm32g0xx_hal_rcc_ex.c ****   * @param  PeriphClkInit  pointer to a @ref RCC_PeriphCLKInitTypeDef structure that
  86:Drivers/STM32G0xx_HAL_Driver/Src/stm32g0xx_hal_rcc_ex.c ****   *         contains a field PeriphClockSelection which can be a combination of the following value
  87:Drivers/STM32G0xx_HAL_Driver/Src/stm32g0xx_hal_rcc_ex.c ****   *            @arg @ref RCC_PERIPHCLK_RTC     RTC peripheral clock
  88:Drivers/STM32G0xx_HAL_Driver/Src/stm32g0xx_hal_rcc_ex.c ****   *            @arg @ref RCC_PERIPHCLK_ADC     ADC peripheral clock
ARM GAS  /tmp/ccVU8yv2.s 			page 3


  89:Drivers/STM32G0xx_HAL_Driver/Src/stm32g0xx_hal_rcc_ex.c ****   *            @arg @ref RCC_PERIPHCLK_I2C1    I2C1 peripheral clock
  90:Drivers/STM32G0xx_HAL_Driver/Src/stm32g0xx_hal_rcc_ex.c ****   *            @arg @ref RCC_PERIPHCLK_I2C2    I2C2 peripheral clock (2)
  91:Drivers/STM32G0xx_HAL_Driver/Src/stm32g0xx_hal_rcc_ex.c ****   *            @arg @ref RCC_PERIPHCLK_I2S1    I2S1 peripheral clock
  92:Drivers/STM32G0xx_HAL_Driver/Src/stm32g0xx_hal_rcc_ex.c ****   *            @arg @ref RCC_PERIPHCLK_I2S2    I2S2 peripheral clock (1)
  93:Drivers/STM32G0xx_HAL_Driver/Src/stm32g0xx_hal_rcc_ex.c ****   *            @arg @ref RCC_PERIPHCLK_USART1  USART1 peripheral clock
  94:Drivers/STM32G0xx_HAL_Driver/Src/stm32g0xx_hal_rcc_ex.c ****   *            @arg @ref RCC_PERIPHCLK_CEC     CEC peripheral clock     (1)
  95:Drivers/STM32G0xx_HAL_Driver/Src/stm32g0xx_hal_rcc_ex.c ****   *            @arg @ref RCC_PERIPHCLK_LPTIM1  LPTIM1 peripheral clock  (1)
  96:Drivers/STM32G0xx_HAL_Driver/Src/stm32g0xx_hal_rcc_ex.c ****   *            @arg @ref RCC_PERIPHCLK_LPTIM2  LPTIM2 peripheral clock  (1)
  97:Drivers/STM32G0xx_HAL_Driver/Src/stm32g0xx_hal_rcc_ex.c ****   *            @arg @ref RCC_PERIPHCLK_LPUART1 LPUART1 peripheral clock (1)
  98:Drivers/STM32G0xx_HAL_Driver/Src/stm32g0xx_hal_rcc_ex.c ****   *            @arg @ref RCC_PERIPHCLK_LPUART2 LPUART2 peripheral clock (1)
  99:Drivers/STM32G0xx_HAL_Driver/Src/stm32g0xx_hal_rcc_ex.c ****   *            @arg @ref RCC_PERIPHCLK_RNG     RNG peripheral clock     (1)
 100:Drivers/STM32G0xx_HAL_Driver/Src/stm32g0xx_hal_rcc_ex.c ****   *            @arg @ref RCC_PERIPHCLK_TIM1    TIM1 peripheral clock    (1)(2)
 101:Drivers/STM32G0xx_HAL_Driver/Src/stm32g0xx_hal_rcc_ex.c ****   *            @arg @ref RCC_PERIPHCLK_TIM15   TIM15 peripheral clock   (1)(2)
 102:Drivers/STM32G0xx_HAL_Driver/Src/stm32g0xx_hal_rcc_ex.c ****   *            @arg @ref RCC_PERIPHCLK_USART2  USART2 peripheral clock     (2)
 103:Drivers/STM32G0xx_HAL_Driver/Src/stm32g0xx_hal_rcc_ex.c ****   *            @arg @ref RCC_PERIPHCLK_USART3  USART3 peripheral clock     (2)
 104:Drivers/STM32G0xx_HAL_Driver/Src/stm32g0xx_hal_rcc_ex.c ****   *            @arg @ref RCC_PERIPHCLK_FDCAN   FDCAN peripheral clock   (1)
 105:Drivers/STM32G0xx_HAL_Driver/Src/stm32g0xx_hal_rcc_ex.c ****   *            @arg @ref RCC_PERIPHCLK_USB     USB peripheral clock     (1)
 106:Drivers/STM32G0xx_HAL_Driver/Src/stm32g0xx_hal_rcc_ex.c ****   *
 107:Drivers/STM32G0xx_HAL_Driver/Src/stm32g0xx_hal_rcc_ex.c ****   * @note   (1) Peripherals are not available on all devices
 108:Drivers/STM32G0xx_HAL_Driver/Src/stm32g0xx_hal_rcc_ex.c ****   * @note   (2) Peripherals clock selection is not available on all devices
 109:Drivers/STM32G0xx_HAL_Driver/Src/stm32g0xx_hal_rcc_ex.c ****   * @note   Care must be taken when @ref HAL_RCCEx_PeriphCLKConfig() is used to select
 110:Drivers/STM32G0xx_HAL_Driver/Src/stm32g0xx_hal_rcc_ex.c ****   *         the RTC clock source: in this case the access to Backup domain is enabled.
 111:Drivers/STM32G0xx_HAL_Driver/Src/stm32g0xx_hal_rcc_ex.c ****   *
 112:Drivers/STM32G0xx_HAL_Driver/Src/stm32g0xx_hal_rcc_ex.c ****   * @retval HAL status
 113:Drivers/STM32G0xx_HAL_Driver/Src/stm32g0xx_hal_rcc_ex.c ****   */
 114:Drivers/STM32G0xx_HAL_Driver/Src/stm32g0xx_hal_rcc_ex.c **** HAL_StatusTypeDef HAL_RCCEx_PeriphCLKConfig(RCC_PeriphCLKInitTypeDef  *PeriphClkInit)
 115:Drivers/STM32G0xx_HAL_Driver/Src/stm32g0xx_hal_rcc_ex.c **** {
  28              		.loc 1 115 1 view -0
  29              		.cfi_startproc
  30              		@ args = 0, pretend = 0, frame = 8
  31              		@ frame_needed = 0, uses_anonymous_args = 0
  32              		.loc 1 115 1 is_stmt 0 view .LVU1
  33 0000 F0B5     		push	{r4, r5, r6, r7, lr}
  34              	.LCFI0:
  35              		.cfi_def_cfa_offset 20
  36              		.cfi_offset 4, -20
  37              		.cfi_offset 5, -16
  38              		.cfi_offset 6, -12
  39              		.cfi_offset 7, -8
  40              		.cfi_offset 14, -4
  41 0002 83B0     		sub	sp, sp, #12
  42              	.LCFI1:
  43              		.cfi_def_cfa_offset 32
  44 0004 0400     		movs	r4, r0
 116:Drivers/STM32G0xx_HAL_Driver/Src/stm32g0xx_hal_rcc_ex.c ****   uint32_t tmpregister;
  45              		.loc 1 116 3 is_stmt 1 view .LVU2
 117:Drivers/STM32G0xx_HAL_Driver/Src/stm32g0xx_hal_rcc_ex.c ****   uint32_t tickstart;
  46              		.loc 1 117 3 view .LVU3
 118:Drivers/STM32G0xx_HAL_Driver/Src/stm32g0xx_hal_rcc_ex.c ****   HAL_StatusTypeDef ret    = HAL_OK;   /* Intermediate status */
  47              		.loc 1 118 3 view .LVU4
  48              	.LVL1:
 119:Drivers/STM32G0xx_HAL_Driver/Src/stm32g0xx_hal_rcc_ex.c ****   HAL_StatusTypeDef status = HAL_OK;   /* Final status */
  49              		.loc 1 119 3 view .LVU5
 120:Drivers/STM32G0xx_HAL_Driver/Src/stm32g0xx_hal_rcc_ex.c **** 
 121:Drivers/STM32G0xx_HAL_Driver/Src/stm32g0xx_hal_rcc_ex.c ****   /* Check the parameters */
 122:Drivers/STM32G0xx_HAL_Driver/Src/stm32g0xx_hal_rcc_ex.c ****   assert_param(IS_RCC_PERIPHCLOCK(PeriphClkInit->PeriphClockSelection));
  50              		.loc 1 122 3 view .LVU6
ARM GAS  /tmp/ccVU8yv2.s 			page 4


 123:Drivers/STM32G0xx_HAL_Driver/Src/stm32g0xx_hal_rcc_ex.c **** 
 124:Drivers/STM32G0xx_HAL_Driver/Src/stm32g0xx_hal_rcc_ex.c ****   /*-------------------------- RTC clock source configuration ----------------------*/
 125:Drivers/STM32G0xx_HAL_Driver/Src/stm32g0xx_hal_rcc_ex.c ****   if ((PeriphClkInit->PeriphClockSelection & RCC_PERIPHCLK_RTC) == RCC_PERIPHCLK_RTC)
  51              		.loc 1 125 3 view .LVU7
  52              		.loc 1 125 21 is_stmt 0 view .LVU8
  53 0006 0368     		ldr	r3, [r0]
  54              		.loc 1 125 6 view .LVU9
  55 0008 9B03     		lsls	r3, r3, #14
  56 000a 62D5     		bpl	.L29
  57              	.LBB2:
 126:Drivers/STM32G0xx_HAL_Driver/Src/stm32g0xx_hal_rcc_ex.c ****   {
 127:Drivers/STM32G0xx_HAL_Driver/Src/stm32g0xx_hal_rcc_ex.c ****     FlagStatus       pwrclkchanged = RESET;
  58              		.loc 1 127 5 is_stmt 1 view .LVU10
  59              	.LVL2:
 128:Drivers/STM32G0xx_HAL_Driver/Src/stm32g0xx_hal_rcc_ex.c **** 
 129:Drivers/STM32G0xx_HAL_Driver/Src/stm32g0xx_hal_rcc_ex.c ****     /* Check for RTC Parameters used to output RTCCLK */
 130:Drivers/STM32G0xx_HAL_Driver/Src/stm32g0xx_hal_rcc_ex.c ****     assert_param(IS_RCC_RTCCLKSOURCE(PeriphClkInit->RTCClockSelection));
  60              		.loc 1 130 5 view .LVU11
 131:Drivers/STM32G0xx_HAL_Driver/Src/stm32g0xx_hal_rcc_ex.c **** 
 132:Drivers/STM32G0xx_HAL_Driver/Src/stm32g0xx_hal_rcc_ex.c ****     /* Enable Power Clock */
 133:Drivers/STM32G0xx_HAL_Driver/Src/stm32g0xx_hal_rcc_ex.c ****     if (__HAL_RCC_PWR_IS_CLK_DISABLED())
  61              		.loc 1 133 5 view .LVU12
  62              		.loc 1 133 9 is_stmt 0 view .LVU13
  63 000c AE4B     		ldr	r3, .L60
  64 000e DB6B     		ldr	r3, [r3, #60]
  65              		.loc 1 133 8 view .LVU14
  66 0010 DB00     		lsls	r3, r3, #3
  67 0012 1ED4     		bmi	.L30
 134:Drivers/STM32G0xx_HAL_Driver/Src/stm32g0xx_hal_rcc_ex.c ****     {
 135:Drivers/STM32G0xx_HAL_Driver/Src/stm32g0xx_hal_rcc_ex.c ****       __HAL_RCC_PWR_CLK_ENABLE();
  68              		.loc 1 135 7 is_stmt 1 view .LVU15
  69              	.LBB3:
  70              		.loc 1 135 7 view .LVU16
  71              		.loc 1 135 7 view .LVU17
  72 0014 AC4B     		ldr	r3, .L60
  73 0016 DA6B     		ldr	r2, [r3, #60]
  74 0018 8021     		movs	r1, #128
  75 001a 4905     		lsls	r1, r1, #21
  76 001c 0A43     		orrs	r2, r1
  77 001e DA63     		str	r2, [r3, #60]
  78              		.loc 1 135 7 view .LVU18
  79 0020 DB6B     		ldr	r3, [r3, #60]
  80 0022 0B40     		ands	r3, r1
  81 0024 0193     		str	r3, [sp, #4]
  82              		.loc 1 135 7 view .LVU19
  83 0026 019B     		ldr	r3, [sp, #4]
  84              	.LBE3:
  85              		.loc 1 135 7 view .LVU20
 136:Drivers/STM32G0xx_HAL_Driver/Src/stm32g0xx_hal_rcc_ex.c ****       pwrclkchanged = SET;
  86              		.loc 1 136 7 view .LVU21
  87              	.LVL3:
  88              		.loc 1 136 21 is_stmt 0 view .LVU22
  89 0028 0126     		movs	r6, #1
  90              	.LVL4:
  91              	.L3:
 137:Drivers/STM32G0xx_HAL_Driver/Src/stm32g0xx_hal_rcc_ex.c ****     }
 138:Drivers/STM32G0xx_HAL_Driver/Src/stm32g0xx_hal_rcc_ex.c **** 
ARM GAS  /tmp/ccVU8yv2.s 			page 5


 139:Drivers/STM32G0xx_HAL_Driver/Src/stm32g0xx_hal_rcc_ex.c ****     /* Enable write access to Backup domain */
 140:Drivers/STM32G0xx_HAL_Driver/Src/stm32g0xx_hal_rcc_ex.c ****     SET_BIT(PWR->CR1, PWR_CR1_DBP);
  92              		.loc 1 140 5 is_stmt 1 view .LVU23
  93 002a A84A     		ldr	r2, .L60+4
  94 002c 1168     		ldr	r1, [r2]
  95 002e 8023     		movs	r3, #128
  96 0030 5B00     		lsls	r3, r3, #1
  97 0032 0B43     		orrs	r3, r1
  98 0034 1360     		str	r3, [r2]
 141:Drivers/STM32G0xx_HAL_Driver/Src/stm32g0xx_hal_rcc_ex.c **** 
 142:Drivers/STM32G0xx_HAL_Driver/Src/stm32g0xx_hal_rcc_ex.c ****     /* Wait for Backup domain Write protection disable */
 143:Drivers/STM32G0xx_HAL_Driver/Src/stm32g0xx_hal_rcc_ex.c ****     tickstart = HAL_GetTick();
  99              		.loc 1 143 5 view .LVU24
 100              		.loc 1 143 17 is_stmt 0 view .LVU25
 101 0036 FFF7FEFF 		bl	HAL_GetTick
 102              	.LVL5:
 103              		.loc 1 143 17 view .LVU26
 104 003a 0500     		movs	r5, r0
 105              	.LVL6:
 144:Drivers/STM32G0xx_HAL_Driver/Src/stm32g0xx_hal_rcc_ex.c **** 
 145:Drivers/STM32G0xx_HAL_Driver/Src/stm32g0xx_hal_rcc_ex.c ****     while ((PWR->CR1 & PWR_CR1_DBP) == 0U)
 106              		.loc 1 145 5 is_stmt 1 view .LVU27
 107              	.L4:
 108              		.loc 1 145 37 view .LVU28
 109              		.loc 1 145 16 is_stmt 0 view .LVU29
 110 003c A34B     		ldr	r3, .L60+4
 111 003e 1B68     		ldr	r3, [r3]
 112              		.loc 1 145 37 view .LVU30
 113 0040 DB05     		lsls	r3, r3, #23
 114 0042 08D4     		bmi	.L51
 146:Drivers/STM32G0xx_HAL_Driver/Src/stm32g0xx_hal_rcc_ex.c ****     {
 147:Drivers/STM32G0xx_HAL_Driver/Src/stm32g0xx_hal_rcc_ex.c ****       if ((HAL_GetTick() - tickstart) > RCC_DBP_TIMEOUT_VALUE)
 115              		.loc 1 147 7 is_stmt 1 view .LVU31
 116              		.loc 1 147 12 is_stmt 0 view .LVU32
 117 0044 FFF7FEFF 		bl	HAL_GetTick
 118              	.LVL7:
 119              		.loc 1 147 26 view .LVU33
 120 0048 401B     		subs	r0, r0, r5
 121              		.loc 1 147 10 view .LVU34
 122 004a 0228     		cmp	r0, #2
 123 004c F6D9     		bls	.L4
 148:Drivers/STM32G0xx_HAL_Driver/Src/stm32g0xx_hal_rcc_ex.c ****       {
 149:Drivers/STM32G0xx_HAL_Driver/Src/stm32g0xx_hal_rcc_ex.c ****         ret = HAL_TIMEOUT;
 124              		.loc 1 149 13 view .LVU35
 125 004e 0325     		movs	r5, #3
 126              	.LVL8:
 127              		.loc 1 149 13 view .LVU36
 128 0050 02E0     		b	.L5
 129              	.LVL9:
 130              	.L30:
 127:Drivers/STM32G0xx_HAL_Driver/Src/stm32g0xx_hal_rcc_ex.c **** 
 131              		.loc 1 127 22 view .LVU37
 132 0052 0026     		movs	r6, #0
 133 0054 E9E7     		b	.L3
 134              	.LVL10:
 135              	.L51:
 127:Drivers/STM32G0xx_HAL_Driver/Src/stm32g0xx_hal_rcc_ex.c **** 
ARM GAS  /tmp/ccVU8yv2.s 			page 6


 136              		.loc 1 127 22 view .LVU38
 137              	.LBE2:
 118:Drivers/STM32G0xx_HAL_Driver/Src/stm32g0xx_hal_rcc_ex.c ****   HAL_StatusTypeDef status = HAL_OK;   /* Final status */
 138              		.loc 1 118 21 view .LVU39
 139 0056 0025     		movs	r5, #0
 140              	.LVL11:
 141              	.L5:
 142              	.LBB4:
 150:Drivers/STM32G0xx_HAL_Driver/Src/stm32g0xx_hal_rcc_ex.c ****         break;
 151:Drivers/STM32G0xx_HAL_Driver/Src/stm32g0xx_hal_rcc_ex.c ****       }
 152:Drivers/STM32G0xx_HAL_Driver/Src/stm32g0xx_hal_rcc_ex.c ****     }
 153:Drivers/STM32G0xx_HAL_Driver/Src/stm32g0xx_hal_rcc_ex.c **** 
 154:Drivers/STM32G0xx_HAL_Driver/Src/stm32g0xx_hal_rcc_ex.c ****     if (ret == HAL_OK)
 143              		.loc 1 154 5 is_stmt 1 view .LVU40
 144              		.loc 1 154 8 is_stmt 0 view .LVU41
 145 0058 002D     		cmp	r5, #0
 146 005a 23D1     		bne	.L7
 155:Drivers/STM32G0xx_HAL_Driver/Src/stm32g0xx_hal_rcc_ex.c ****     {
 156:Drivers/STM32G0xx_HAL_Driver/Src/stm32g0xx_hal_rcc_ex.c ****       /* Reset the Backup domain only if the RTC Clock source selection is modified from default */
 157:Drivers/STM32G0xx_HAL_Driver/Src/stm32g0xx_hal_rcc_ex.c ****       tmpregister = READ_BIT(RCC->BDCR, RCC_BDCR_RTCSEL);
 147              		.loc 1 157 7 is_stmt 1 view .LVU42
 148              		.loc 1 157 21 is_stmt 0 view .LVU43
 149 005c 9A4B     		ldr	r3, .L60
 150 005e D96D     		ldr	r1, [r3, #92]
 151              		.loc 1 157 19 view .LVU44
 152 0060 C022     		movs	r2, #192
 153 0062 9200     		lsls	r2, r2, #2
 154 0064 0B00     		movs	r3, r1
 155 0066 1340     		ands	r3, r2
 156              	.LVL12:
 158:Drivers/STM32G0xx_HAL_Driver/Src/stm32g0xx_hal_rcc_ex.c **** 
 159:Drivers/STM32G0xx_HAL_Driver/Src/stm32g0xx_hal_rcc_ex.c ****       /* Reset the Backup domain only if the RTC Clock source selection is modified */
 160:Drivers/STM32G0xx_HAL_Driver/Src/stm32g0xx_hal_rcc_ex.c ****       if ((tmpregister != RCC_RTCCLKSOURCE_NONE) && (tmpregister != PeriphClkInit->RTCClockSelectio
 157              		.loc 1 160 7 is_stmt 1 view .LVU45
 158              		.loc 1 160 10 is_stmt 0 view .LVU46
 159 0068 1142     		tst	r1, r2
 160 006a 10D0     		beq	.L8
 161              		.loc 1 160 82 discriminator 1 view .LVU47
 162 006c 226C     		ldr	r2, [r4, #64]
 163              		.loc 1 160 50 discriminator 1 view .LVU48
 164 006e 9A42     		cmp	r2, r3
 165 0070 0DD0     		beq	.L8
 161:Drivers/STM32G0xx_HAL_Driver/Src/stm32g0xx_hal_rcc_ex.c ****       {
 162:Drivers/STM32G0xx_HAL_Driver/Src/stm32g0xx_hal_rcc_ex.c ****         /* Store the content of BDCR register before the reset of Backup Domain */
 163:Drivers/STM32G0xx_HAL_Driver/Src/stm32g0xx_hal_rcc_ex.c ****         tmpregister = READ_BIT(RCC->BDCR, ~(RCC_BDCR_RTCSEL));
 166              		.loc 1 163 9 is_stmt 1 view .LVU49
 167              		.loc 1 163 23 is_stmt 0 view .LVU50
 168 0072 954A     		ldr	r2, .L60
 169 0074 D36D     		ldr	r3, [r2, #92]
 170              	.LVL13:
 171              		.loc 1 163 21 view .LVU51
 172 0076 9649     		ldr	r1, .L60+8
 173              	.LVL14:
 174              		.loc 1 163 21 view .LVU52
 175 0078 0B40     		ands	r3, r1
 176              	.LVL15:
 164:Drivers/STM32G0xx_HAL_Driver/Src/stm32g0xx_hal_rcc_ex.c ****         /* RTC Clock selection can be changed only if the Backup Domain is reset */
ARM GAS  /tmp/ccVU8yv2.s 			page 7


 165:Drivers/STM32G0xx_HAL_Driver/Src/stm32g0xx_hal_rcc_ex.c ****         __HAL_RCC_BACKUPRESET_FORCE();
 177              		.loc 1 165 9 is_stmt 1 view .LVU53
 178 007a D06D     		ldr	r0, [r2, #92]
 179 007c 8021     		movs	r1, #128
 180 007e 4902     		lsls	r1, r1, #9
 181 0080 0143     		orrs	r1, r0
 182 0082 D165     		str	r1, [r2, #92]
 166:Drivers/STM32G0xx_HAL_Driver/Src/stm32g0xx_hal_rcc_ex.c ****         __HAL_RCC_BACKUPRESET_RELEASE();
 183              		.loc 1 166 9 view .LVU54
 184 0084 D16D     		ldr	r1, [r2, #92]
 185 0086 9348     		ldr	r0, .L60+12
 186 0088 0140     		ands	r1, r0
 187 008a D165     		str	r1, [r2, #92]
 167:Drivers/STM32G0xx_HAL_Driver/Src/stm32g0xx_hal_rcc_ex.c ****         /* Restore the Content of BDCR register */
 168:Drivers/STM32G0xx_HAL_Driver/Src/stm32g0xx_hal_rcc_ex.c ****         RCC->BDCR = tmpregister;
 188              		.loc 1 168 9 view .LVU55
 189              		.loc 1 168 19 is_stmt 0 view .LVU56
 190 008c D365     		str	r3, [r2, #92]
 191              	.L8:
 169:Drivers/STM32G0xx_HAL_Driver/Src/stm32g0xx_hal_rcc_ex.c ****       }
 170:Drivers/STM32G0xx_HAL_Driver/Src/stm32g0xx_hal_rcc_ex.c **** 
 171:Drivers/STM32G0xx_HAL_Driver/Src/stm32g0xx_hal_rcc_ex.c ****       /* Wait for LSE reactivation if LSE was enable prior to Backup Domain reset */
 172:Drivers/STM32G0xx_HAL_Driver/Src/stm32g0xx_hal_rcc_ex.c ****       if (HAL_IS_BIT_SET(tmpregister, RCC_BDCR_LSEON))
 192              		.loc 1 172 7 is_stmt 1 view .LVU57
 193              		.loc 1 172 10 is_stmt 0 view .LVU58
 194 008e DB07     		lsls	r3, r3, #31
 195 0090 10D4     		bmi	.L52
 196              	.LVL16:
 197              	.L9:
 173:Drivers/STM32G0xx_HAL_Driver/Src/stm32g0xx_hal_rcc_ex.c ****       {
 174:Drivers/STM32G0xx_HAL_Driver/Src/stm32g0xx_hal_rcc_ex.c ****         /* Get Start Tick*/
 175:Drivers/STM32G0xx_HAL_Driver/Src/stm32g0xx_hal_rcc_ex.c ****         tickstart = HAL_GetTick();
 176:Drivers/STM32G0xx_HAL_Driver/Src/stm32g0xx_hal_rcc_ex.c **** 
 177:Drivers/STM32G0xx_HAL_Driver/Src/stm32g0xx_hal_rcc_ex.c ****         /* Wait till LSE is ready */
 178:Drivers/STM32G0xx_HAL_Driver/Src/stm32g0xx_hal_rcc_ex.c ****         while (READ_BIT(RCC->BDCR, RCC_BDCR_LSERDY) == 0U)
 179:Drivers/STM32G0xx_HAL_Driver/Src/stm32g0xx_hal_rcc_ex.c ****         {
 180:Drivers/STM32G0xx_HAL_Driver/Src/stm32g0xx_hal_rcc_ex.c ****           if ((HAL_GetTick() - tickstart) > RCC_LSE_TIMEOUT_VALUE)
 181:Drivers/STM32G0xx_HAL_Driver/Src/stm32g0xx_hal_rcc_ex.c ****           {
 182:Drivers/STM32G0xx_HAL_Driver/Src/stm32g0xx_hal_rcc_ex.c ****             ret = HAL_TIMEOUT;
 183:Drivers/STM32G0xx_HAL_Driver/Src/stm32g0xx_hal_rcc_ex.c ****             break;
 184:Drivers/STM32G0xx_HAL_Driver/Src/stm32g0xx_hal_rcc_ex.c ****           }
 185:Drivers/STM32G0xx_HAL_Driver/Src/stm32g0xx_hal_rcc_ex.c ****         }
 186:Drivers/STM32G0xx_HAL_Driver/Src/stm32g0xx_hal_rcc_ex.c ****       }
 187:Drivers/STM32G0xx_HAL_Driver/Src/stm32g0xx_hal_rcc_ex.c **** 
 188:Drivers/STM32G0xx_HAL_Driver/Src/stm32g0xx_hal_rcc_ex.c ****       if (ret == HAL_OK)
 198              		.loc 1 188 7 is_stmt 1 view .LVU59
 199              		.loc 1 188 10 is_stmt 0 view .LVU60
 200 0092 002D     		cmp	r5, #0
 201 0094 06D1     		bne	.L7
 189:Drivers/STM32G0xx_HAL_Driver/Src/stm32g0xx_hal_rcc_ex.c ****       {
 190:Drivers/STM32G0xx_HAL_Driver/Src/stm32g0xx_hal_rcc_ex.c ****         /* Apply new RTC clock source selection */
 191:Drivers/STM32G0xx_HAL_Driver/Src/stm32g0xx_hal_rcc_ex.c ****         __HAL_RCC_RTC_CONFIG(PeriphClkInit->RTCClockSelection);
 202              		.loc 1 191 9 is_stmt 1 view .LVU61
 203 0096 8C4A     		ldr	r2, .L60
 204 0098 D36D     		ldr	r3, [r2, #92]
 205 009a 8D49     		ldr	r1, .L60+8
 206 009c 0B40     		ands	r3, r1
ARM GAS  /tmp/ccVU8yv2.s 			page 8


 207 009e 216C     		ldr	r1, [r4, #64]
 208 00a0 0B43     		orrs	r3, r1
 209 00a2 D365     		str	r3, [r2, #92]
 210              	.L7:
 211              	.LVL17:
 192:Drivers/STM32G0xx_HAL_Driver/Src/stm32g0xx_hal_rcc_ex.c ****       }
 193:Drivers/STM32G0xx_HAL_Driver/Src/stm32g0xx_hal_rcc_ex.c ****       else
 194:Drivers/STM32G0xx_HAL_Driver/Src/stm32g0xx_hal_rcc_ex.c ****       {
 195:Drivers/STM32G0xx_HAL_Driver/Src/stm32g0xx_hal_rcc_ex.c ****         /* set overall return value */
 196:Drivers/STM32G0xx_HAL_Driver/Src/stm32g0xx_hal_rcc_ex.c ****         status = ret;
 197:Drivers/STM32G0xx_HAL_Driver/Src/stm32g0xx_hal_rcc_ex.c ****       }
 198:Drivers/STM32G0xx_HAL_Driver/Src/stm32g0xx_hal_rcc_ex.c ****     }
 199:Drivers/STM32G0xx_HAL_Driver/Src/stm32g0xx_hal_rcc_ex.c ****     else
 200:Drivers/STM32G0xx_HAL_Driver/Src/stm32g0xx_hal_rcc_ex.c ****     {
 201:Drivers/STM32G0xx_HAL_Driver/Src/stm32g0xx_hal_rcc_ex.c ****       /* set overall return value */
 202:Drivers/STM32G0xx_HAL_Driver/Src/stm32g0xx_hal_rcc_ex.c ****       status = ret;
 203:Drivers/STM32G0xx_HAL_Driver/Src/stm32g0xx_hal_rcc_ex.c ****     }
 204:Drivers/STM32G0xx_HAL_Driver/Src/stm32g0xx_hal_rcc_ex.c **** 
 205:Drivers/STM32G0xx_HAL_Driver/Src/stm32g0xx_hal_rcc_ex.c ****     /* Restore clock configuration if changed */
 206:Drivers/STM32G0xx_HAL_Driver/Src/stm32g0xx_hal_rcc_ex.c ****     if (pwrclkchanged == SET)
 212              		.loc 1 206 5 view .LVU62
 213              		.loc 1 206 8 is_stmt 0 view .LVU63
 214 00a4 012E     		cmp	r6, #1
 215 00a6 15D1     		bne	.L2
 207:Drivers/STM32G0xx_HAL_Driver/Src/stm32g0xx_hal_rcc_ex.c ****     {
 208:Drivers/STM32G0xx_HAL_Driver/Src/stm32g0xx_hal_rcc_ex.c ****       __HAL_RCC_PWR_CLK_DISABLE();
 216              		.loc 1 208 7 is_stmt 1 view .LVU64
 217 00a8 874A     		ldr	r2, .L60
 218 00aa D36B     		ldr	r3, [r2, #60]
 219 00ac 8A49     		ldr	r1, .L60+16
 220 00ae 0B40     		ands	r3, r1
 221 00b0 D363     		str	r3, [r2, #60]
 222 00b2 0FE0     		b	.L2
 223              	.LVL18:
 224              	.L52:
 175:Drivers/STM32G0xx_HAL_Driver/Src/stm32g0xx_hal_rcc_ex.c **** 
 225              		.loc 1 175 9 view .LVU65
 175:Drivers/STM32G0xx_HAL_Driver/Src/stm32g0xx_hal_rcc_ex.c **** 
 226              		.loc 1 175 21 is_stmt 0 view .LVU66
 227 00b4 FFF7FEFF 		bl	HAL_GetTick
 228              	.LVL19:
 229 00b8 0700     		movs	r7, r0
 230              	.LVL20:
 178:Drivers/STM32G0xx_HAL_Driver/Src/stm32g0xx_hal_rcc_ex.c ****         {
 231              		.loc 1 178 9 is_stmt 1 view .LVU67
 232              	.L10:
 178:Drivers/STM32G0xx_HAL_Driver/Src/stm32g0xx_hal_rcc_ex.c ****         {
 233              		.loc 1 178 53 view .LVU68
 178:Drivers/STM32G0xx_HAL_Driver/Src/stm32g0xx_hal_rcc_ex.c ****         {
 234              		.loc 1 178 16 is_stmt 0 view .LVU69
 235 00ba 834B     		ldr	r3, .L60
 236 00bc DB6D     		ldr	r3, [r3, #92]
 178:Drivers/STM32G0xx_HAL_Driver/Src/stm32g0xx_hal_rcc_ex.c ****         {
 237              		.loc 1 178 53 view .LVU70
 238 00be 9B07     		lsls	r3, r3, #30
 239 00c0 E7D4     		bmi	.L9
 180:Drivers/STM32G0xx_HAL_Driver/Src/stm32g0xx_hal_rcc_ex.c ****           {
ARM GAS  /tmp/ccVU8yv2.s 			page 9


 240              		.loc 1 180 11 is_stmt 1 view .LVU71
 180:Drivers/STM32G0xx_HAL_Driver/Src/stm32g0xx_hal_rcc_ex.c ****           {
 241              		.loc 1 180 16 is_stmt 0 view .LVU72
 242 00c2 FFF7FEFF 		bl	HAL_GetTick
 243              	.LVL21:
 180:Drivers/STM32G0xx_HAL_Driver/Src/stm32g0xx_hal_rcc_ex.c ****           {
 244              		.loc 1 180 30 view .LVU73
 245 00c6 C01B     		subs	r0, r0, r7
 180:Drivers/STM32G0xx_HAL_Driver/Src/stm32g0xx_hal_rcc_ex.c ****           {
 246              		.loc 1 180 14 view .LVU74
 247 00c8 844B     		ldr	r3, .L60+20
 248 00ca 9842     		cmp	r0, r3
 249 00cc F5D9     		bls	.L10
 182:Drivers/STM32G0xx_HAL_Driver/Src/stm32g0xx_hal_rcc_ex.c ****             break;
 250              		.loc 1 182 17 view .LVU75
 251 00ce 0325     		movs	r5, #3
 252              	.LVL22:
 182:Drivers/STM32G0xx_HAL_Driver/Src/stm32g0xx_hal_rcc_ex.c ****             break;
 253              		.loc 1 182 17 view .LVU76
 254 00d0 DFE7     		b	.L9
 255              	.LVL23:
 256              	.L29:
 182:Drivers/STM32G0xx_HAL_Driver/Src/stm32g0xx_hal_rcc_ex.c ****             break;
 257              		.loc 1 182 17 view .LVU77
 258              	.LBE4:
 119:Drivers/STM32G0xx_HAL_Driver/Src/stm32g0xx_hal_rcc_ex.c **** 
 259              		.loc 1 119 21 view .LVU78
 260 00d2 0025     		movs	r5, #0
 261              	.LVL24:
 262              	.L2:
 209:Drivers/STM32G0xx_HAL_Driver/Src/stm32g0xx_hal_rcc_ex.c ****     }
 210:Drivers/STM32G0xx_HAL_Driver/Src/stm32g0xx_hal_rcc_ex.c ****   }
 211:Drivers/STM32G0xx_HAL_Driver/Src/stm32g0xx_hal_rcc_ex.c **** 
 212:Drivers/STM32G0xx_HAL_Driver/Src/stm32g0xx_hal_rcc_ex.c ****   /*-------------------------- USART1 clock source configuration -------------------*/
 213:Drivers/STM32G0xx_HAL_Driver/Src/stm32g0xx_hal_rcc_ex.c ****   if (((PeriphClkInit->PeriphClockSelection) & RCC_PERIPHCLK_USART1) == RCC_PERIPHCLK_USART1)
 263              		.loc 1 213 3 is_stmt 1 view .LVU79
 264              		.loc 1 213 22 is_stmt 0 view .LVU80
 265 00d4 2368     		ldr	r3, [r4]
 266              		.loc 1 213 6 view .LVU81
 267 00d6 DB07     		lsls	r3, r3, #31
 268 00d8 06D5     		bpl	.L12
 214:Drivers/STM32G0xx_HAL_Driver/Src/stm32g0xx_hal_rcc_ex.c ****   {
 215:Drivers/STM32G0xx_HAL_Driver/Src/stm32g0xx_hal_rcc_ex.c ****     /* Check the parameters */
 216:Drivers/STM32G0xx_HAL_Driver/Src/stm32g0xx_hal_rcc_ex.c ****     assert_param(IS_RCC_USART1CLKSOURCE(PeriphClkInit->Usart1ClockSelection));
 269              		.loc 1 216 5 is_stmt 1 view .LVU82
 217:Drivers/STM32G0xx_HAL_Driver/Src/stm32g0xx_hal_rcc_ex.c **** 
 218:Drivers/STM32G0xx_HAL_Driver/Src/stm32g0xx_hal_rcc_ex.c ****     /* Configure the USART1 clock source */
 219:Drivers/STM32G0xx_HAL_Driver/Src/stm32g0xx_hal_rcc_ex.c ****     __HAL_RCC_USART1_CONFIG(PeriphClkInit->Usart1ClockSelection);
 270              		.loc 1 219 5 view .LVU83
 271 00da 7B4A     		ldr	r2, .L60
 272 00dc 536D     		ldr	r3, [r2, #84]
 273 00de 0321     		movs	r1, #3
 274 00e0 8B43     		bics	r3, r1
 275 00e2 6168     		ldr	r1, [r4, #4]
 276 00e4 0B43     		orrs	r3, r1
 277 00e6 5365     		str	r3, [r2, #84]
 278              	.L12:
ARM GAS  /tmp/ccVU8yv2.s 			page 10


 220:Drivers/STM32G0xx_HAL_Driver/Src/stm32g0xx_hal_rcc_ex.c ****   }
 221:Drivers/STM32G0xx_HAL_Driver/Src/stm32g0xx_hal_rcc_ex.c **** 
 222:Drivers/STM32G0xx_HAL_Driver/Src/stm32g0xx_hal_rcc_ex.c **** #if defined(RCC_CCIPR_USART2SEL)
 223:Drivers/STM32G0xx_HAL_Driver/Src/stm32g0xx_hal_rcc_ex.c ****   /*-------------------------- USART2 clock source configuration -------------------*/
 224:Drivers/STM32G0xx_HAL_Driver/Src/stm32g0xx_hal_rcc_ex.c ****   if (((PeriphClkInit->PeriphClockSelection) & RCC_PERIPHCLK_USART2) == RCC_PERIPHCLK_USART2)
 279              		.loc 1 224 3 view .LVU84
 280              		.loc 1 224 22 is_stmt 0 view .LVU85
 281 00e8 2368     		ldr	r3, [r4]
 282              		.loc 1 224 6 view .LVU86
 283 00ea 9B07     		lsls	r3, r3, #30
 284 00ec 06D5     		bpl	.L13
 225:Drivers/STM32G0xx_HAL_Driver/Src/stm32g0xx_hal_rcc_ex.c ****   {
 226:Drivers/STM32G0xx_HAL_Driver/Src/stm32g0xx_hal_rcc_ex.c ****     /* Check the parameters */
 227:Drivers/STM32G0xx_HAL_Driver/Src/stm32g0xx_hal_rcc_ex.c ****     assert_param(IS_RCC_USART2CLKSOURCE(PeriphClkInit->Usart2ClockSelection));
 285              		.loc 1 227 5 is_stmt 1 view .LVU87
 228:Drivers/STM32G0xx_HAL_Driver/Src/stm32g0xx_hal_rcc_ex.c **** 
 229:Drivers/STM32G0xx_HAL_Driver/Src/stm32g0xx_hal_rcc_ex.c ****     /* Configure the USART2 clock source */
 230:Drivers/STM32G0xx_HAL_Driver/Src/stm32g0xx_hal_rcc_ex.c ****     __HAL_RCC_USART2_CONFIG(PeriphClkInit->Usart2ClockSelection);
 286              		.loc 1 230 5 view .LVU88
 287 00ee 764A     		ldr	r2, .L60
 288 00f0 536D     		ldr	r3, [r2, #84]
 289 00f2 0C21     		movs	r1, #12
 290 00f4 8B43     		bics	r3, r1
 291 00f6 A168     		ldr	r1, [r4, #8]
 292 00f8 0B43     		orrs	r3, r1
 293 00fa 5365     		str	r3, [r2, #84]
 294              	.L13:
 231:Drivers/STM32G0xx_HAL_Driver/Src/stm32g0xx_hal_rcc_ex.c ****   }
 232:Drivers/STM32G0xx_HAL_Driver/Src/stm32g0xx_hal_rcc_ex.c **** #endif /* RCC_CCIPR_USART2SEL */
 233:Drivers/STM32G0xx_HAL_Driver/Src/stm32g0xx_hal_rcc_ex.c **** 
 234:Drivers/STM32G0xx_HAL_Driver/Src/stm32g0xx_hal_rcc_ex.c **** #if defined(RCC_CCIPR_USART3SEL)
 235:Drivers/STM32G0xx_HAL_Driver/Src/stm32g0xx_hal_rcc_ex.c ****   /*-------------------------- USART3 clock source configuration -------------------*/
 236:Drivers/STM32G0xx_HAL_Driver/Src/stm32g0xx_hal_rcc_ex.c ****   if (((PeriphClkInit->PeriphClockSelection) & RCC_PERIPHCLK_USART3) == RCC_PERIPHCLK_USART3)
 295              		.loc 1 236 3 view .LVU89
 296              		.loc 1 236 22 is_stmt 0 view .LVU90
 297 00fc 2368     		ldr	r3, [r4]
 298              		.loc 1 236 6 view .LVU91
 299 00fe 5B07     		lsls	r3, r3, #29
 300 0100 06D5     		bpl	.L14
 237:Drivers/STM32G0xx_HAL_Driver/Src/stm32g0xx_hal_rcc_ex.c ****   {
 238:Drivers/STM32G0xx_HAL_Driver/Src/stm32g0xx_hal_rcc_ex.c ****     /* Check the parameters */
 239:Drivers/STM32G0xx_HAL_Driver/Src/stm32g0xx_hal_rcc_ex.c ****     assert_param(IS_RCC_USART3CLKSOURCE(PeriphClkInit->Usart3ClockSelection));
 301              		.loc 1 239 5 is_stmt 1 view .LVU92
 240:Drivers/STM32G0xx_HAL_Driver/Src/stm32g0xx_hal_rcc_ex.c **** 
 241:Drivers/STM32G0xx_HAL_Driver/Src/stm32g0xx_hal_rcc_ex.c ****     /* Configure the USART3 clock source */
 242:Drivers/STM32G0xx_HAL_Driver/Src/stm32g0xx_hal_rcc_ex.c ****     __HAL_RCC_USART3_CONFIG(PeriphClkInit->Usart3ClockSelection);
 302              		.loc 1 242 5 view .LVU93
 303 0102 714A     		ldr	r2, .L60
 304 0104 536D     		ldr	r3, [r2, #84]
 305 0106 3021     		movs	r1, #48
 306 0108 8B43     		bics	r3, r1
 307 010a E168     		ldr	r1, [r4, #12]
 308 010c 0B43     		orrs	r3, r1
 309 010e 5365     		str	r3, [r2, #84]
 310              	.L14:
 243:Drivers/STM32G0xx_HAL_Driver/Src/stm32g0xx_hal_rcc_ex.c ****   }
 244:Drivers/STM32G0xx_HAL_Driver/Src/stm32g0xx_hal_rcc_ex.c **** #endif /* RCC_CCIPR_USART3SEL */
ARM GAS  /tmp/ccVU8yv2.s 			page 11


 245:Drivers/STM32G0xx_HAL_Driver/Src/stm32g0xx_hal_rcc_ex.c **** 
 246:Drivers/STM32G0xx_HAL_Driver/Src/stm32g0xx_hal_rcc_ex.c **** #if defined(LPUART1)
 247:Drivers/STM32G0xx_HAL_Driver/Src/stm32g0xx_hal_rcc_ex.c ****   /*-------------------------- LPUART1 clock source configuration ------------------*/
 248:Drivers/STM32G0xx_HAL_Driver/Src/stm32g0xx_hal_rcc_ex.c ****   if (((PeriphClkInit->PeriphClockSelection) & RCC_PERIPHCLK_LPUART1) == RCC_PERIPHCLK_LPUART1)
 311              		.loc 1 248 3 view .LVU94
 312              		.loc 1 248 22 is_stmt 0 view .LVU95
 313 0110 2368     		ldr	r3, [r4]
 314              		.loc 1 248 6 view .LVU96
 315 0112 DB06     		lsls	r3, r3, #27
 316 0114 06D5     		bpl	.L15
 249:Drivers/STM32G0xx_HAL_Driver/Src/stm32g0xx_hal_rcc_ex.c ****   {
 250:Drivers/STM32G0xx_HAL_Driver/Src/stm32g0xx_hal_rcc_ex.c ****     /* Check the parameters */
 251:Drivers/STM32G0xx_HAL_Driver/Src/stm32g0xx_hal_rcc_ex.c ****     assert_param(IS_RCC_LPUART1CLKSOURCE(PeriphClkInit->Lpuart1ClockSelection));
 317              		.loc 1 251 5 is_stmt 1 view .LVU97
 252:Drivers/STM32G0xx_HAL_Driver/Src/stm32g0xx_hal_rcc_ex.c **** 
 253:Drivers/STM32G0xx_HAL_Driver/Src/stm32g0xx_hal_rcc_ex.c ****     /* Configure the LPUART1 clock source */
 254:Drivers/STM32G0xx_HAL_Driver/Src/stm32g0xx_hal_rcc_ex.c ****     __HAL_RCC_LPUART1_CONFIG(PeriphClkInit->Lpuart1ClockSelection);
 318              		.loc 1 254 5 view .LVU98
 319 0116 6C4A     		ldr	r2, .L60
 320 0118 536D     		ldr	r3, [r2, #84]
 321 011a 7149     		ldr	r1, .L60+24
 322 011c 0B40     		ands	r3, r1
 323 011e 2169     		ldr	r1, [r4, #16]
 324 0120 0B43     		orrs	r3, r1
 325 0122 5365     		str	r3, [r2, #84]
 326              	.L15:
 255:Drivers/STM32G0xx_HAL_Driver/Src/stm32g0xx_hal_rcc_ex.c ****   }
 256:Drivers/STM32G0xx_HAL_Driver/Src/stm32g0xx_hal_rcc_ex.c **** #endif /* LPUART1 */
 257:Drivers/STM32G0xx_HAL_Driver/Src/stm32g0xx_hal_rcc_ex.c **** 
 258:Drivers/STM32G0xx_HAL_Driver/Src/stm32g0xx_hal_rcc_ex.c **** #if defined(LPUART2)
 259:Drivers/STM32G0xx_HAL_Driver/Src/stm32g0xx_hal_rcc_ex.c ****   /*-------------------------- LPUART2 clock source configuration ------------------*/
 260:Drivers/STM32G0xx_HAL_Driver/Src/stm32g0xx_hal_rcc_ex.c ****   if (((PeriphClkInit->PeriphClockSelection) & RCC_PERIPHCLK_LPUART2) == RCC_PERIPHCLK_LPUART2)
 327              		.loc 1 260 3 view .LVU99
 328              		.loc 1 260 22 is_stmt 0 view .LVU100
 329 0124 2368     		ldr	r3, [r4]
 330              		.loc 1 260 6 view .LVU101
 331 0126 DB04     		lsls	r3, r3, #19
 332 0128 06D5     		bpl	.L16
 261:Drivers/STM32G0xx_HAL_Driver/Src/stm32g0xx_hal_rcc_ex.c ****   {
 262:Drivers/STM32G0xx_HAL_Driver/Src/stm32g0xx_hal_rcc_ex.c ****     /* Check the parameters */
 263:Drivers/STM32G0xx_HAL_Driver/Src/stm32g0xx_hal_rcc_ex.c ****     assert_param(IS_RCC_LPUART2CLKSOURCE(PeriphClkInit->Lpuart2ClockSelection));
 333              		.loc 1 263 5 is_stmt 1 view .LVU102
 264:Drivers/STM32G0xx_HAL_Driver/Src/stm32g0xx_hal_rcc_ex.c **** 
 265:Drivers/STM32G0xx_HAL_Driver/Src/stm32g0xx_hal_rcc_ex.c ****     /* Configure the LPUART clock source */
 266:Drivers/STM32G0xx_HAL_Driver/Src/stm32g0xx_hal_rcc_ex.c ****     __HAL_RCC_LPUART2_CONFIG(PeriphClkInit->Lpuart2ClockSelection);
 334              		.loc 1 266 5 view .LVU103
 335 012a 674A     		ldr	r2, .L60
 336 012c 536D     		ldr	r3, [r2, #84]
 337 012e 6849     		ldr	r1, .L60+8
 338 0130 0B40     		ands	r3, r1
 339 0132 6169     		ldr	r1, [r4, #20]
 340 0134 0B43     		orrs	r3, r1
 341 0136 5365     		str	r3, [r2, #84]
 342              	.L16:
 267:Drivers/STM32G0xx_HAL_Driver/Src/stm32g0xx_hal_rcc_ex.c ****   }
 268:Drivers/STM32G0xx_HAL_Driver/Src/stm32g0xx_hal_rcc_ex.c **** #endif /* LPUART2 */
 269:Drivers/STM32G0xx_HAL_Driver/Src/stm32g0xx_hal_rcc_ex.c **** 
ARM GAS  /tmp/ccVU8yv2.s 			page 12


 270:Drivers/STM32G0xx_HAL_Driver/Src/stm32g0xx_hal_rcc_ex.c **** #if defined(RCC_CCIPR_LPTIM1SEL)
 271:Drivers/STM32G0xx_HAL_Driver/Src/stm32g0xx_hal_rcc_ex.c ****   /*-------------------------- LPTIM1 clock source configuration -------------------*/
 272:Drivers/STM32G0xx_HAL_Driver/Src/stm32g0xx_hal_rcc_ex.c ****   if (((PeriphClkInit->PeriphClockSelection) & RCC_PERIPHCLK_LPTIM1) == (RCC_PERIPHCLK_LPTIM1))
 343              		.loc 1 272 3 view .LVU104
 344              		.loc 1 272 22 is_stmt 0 view .LVU105
 345 0138 2368     		ldr	r3, [r4]
 346              		.loc 1 272 6 view .LVU106
 347 013a 9B05     		lsls	r3, r3, #22
 348 013c 06D5     		bpl	.L17
 273:Drivers/STM32G0xx_HAL_Driver/Src/stm32g0xx_hal_rcc_ex.c ****   {
 274:Drivers/STM32G0xx_HAL_Driver/Src/stm32g0xx_hal_rcc_ex.c ****     assert_param(IS_RCC_LPTIM1CLKSOURCE(PeriphClkInit->Lptim1ClockSelection));
 349              		.loc 1 274 5 is_stmt 1 view .LVU107
 275:Drivers/STM32G0xx_HAL_Driver/Src/stm32g0xx_hal_rcc_ex.c ****     __HAL_RCC_LPTIM1_CONFIG(PeriphClkInit->Lptim1ClockSelection);
 350              		.loc 1 275 5 view .LVU108
 351 013e 624A     		ldr	r2, .L60
 352 0140 536D     		ldr	r3, [r2, #84]
 353 0142 6849     		ldr	r1, .L60+28
 354 0144 0B40     		ands	r3, r1
 355 0146 A16A     		ldr	r1, [r4, #40]
 356 0148 0B43     		orrs	r3, r1
 357 014a 5365     		str	r3, [r2, #84]
 358              	.L17:
 276:Drivers/STM32G0xx_HAL_Driver/Src/stm32g0xx_hal_rcc_ex.c ****   }
 277:Drivers/STM32G0xx_HAL_Driver/Src/stm32g0xx_hal_rcc_ex.c **** #endif /* RCC_CCIPR_LPTIM1SEL */
 278:Drivers/STM32G0xx_HAL_Driver/Src/stm32g0xx_hal_rcc_ex.c **** 
 279:Drivers/STM32G0xx_HAL_Driver/Src/stm32g0xx_hal_rcc_ex.c **** #if defined(RCC_CCIPR_LPTIM2SEL)
 280:Drivers/STM32G0xx_HAL_Driver/Src/stm32g0xx_hal_rcc_ex.c ****   /*-------------------------- LPTIM2 clock source configuration -------------------*/
 281:Drivers/STM32G0xx_HAL_Driver/Src/stm32g0xx_hal_rcc_ex.c ****   if (((PeriphClkInit->PeriphClockSelection) & RCC_PERIPHCLK_LPTIM2) == (RCC_PERIPHCLK_LPTIM2))
 359              		.loc 1 281 3 view .LVU109
 360              		.loc 1 281 22 is_stmt 0 view .LVU110
 361 014c 2368     		ldr	r3, [r4]
 362              		.loc 1 281 6 view .LVU111
 363 014e 5B05     		lsls	r3, r3, #21
 364 0150 06D5     		bpl	.L18
 282:Drivers/STM32G0xx_HAL_Driver/Src/stm32g0xx_hal_rcc_ex.c ****   {
 283:Drivers/STM32G0xx_HAL_Driver/Src/stm32g0xx_hal_rcc_ex.c ****     assert_param(IS_RCC_LPTIM2CLKSOURCE(PeriphClkInit->Lptim2ClockSelection));
 365              		.loc 1 283 5 is_stmt 1 view .LVU112
 284:Drivers/STM32G0xx_HAL_Driver/Src/stm32g0xx_hal_rcc_ex.c ****     __HAL_RCC_LPTIM2_CONFIG(PeriphClkInit->Lptim2ClockSelection);
 366              		.loc 1 284 5 view .LVU113
 367 0152 5D4A     		ldr	r2, .L60
 368 0154 536D     		ldr	r3, [r2, #84]
 369 0156 6449     		ldr	r1, .L60+32
 370 0158 0B40     		ands	r3, r1
 371 015a E16A     		ldr	r1, [r4, #44]
 372 015c 0B43     		orrs	r3, r1
 373 015e 5365     		str	r3, [r2, #84]
 374              	.L18:
 285:Drivers/STM32G0xx_HAL_Driver/Src/stm32g0xx_hal_rcc_ex.c ****   }
 286:Drivers/STM32G0xx_HAL_Driver/Src/stm32g0xx_hal_rcc_ex.c **** #endif /* RCC_CCIPR_LPTIM2SEL */
 287:Drivers/STM32G0xx_HAL_Driver/Src/stm32g0xx_hal_rcc_ex.c **** 
 288:Drivers/STM32G0xx_HAL_Driver/Src/stm32g0xx_hal_rcc_ex.c ****   /*-------------------------- I2C1 clock source configuration ---------------------*/
 289:Drivers/STM32G0xx_HAL_Driver/Src/stm32g0xx_hal_rcc_ex.c ****   if (((PeriphClkInit->PeriphClockSelection) & RCC_PERIPHCLK_I2C1) == RCC_PERIPHCLK_I2C1)
 375              		.loc 1 289 3 view .LVU114
 376              		.loc 1 289 22 is_stmt 0 view .LVU115
 377 0160 2368     		ldr	r3, [r4]
 378              		.loc 1 289 6 view .LVU116
 379 0162 9B06     		lsls	r3, r3, #26
ARM GAS  /tmp/ccVU8yv2.s 			page 13


 380 0164 06D5     		bpl	.L19
 290:Drivers/STM32G0xx_HAL_Driver/Src/stm32g0xx_hal_rcc_ex.c ****   {
 291:Drivers/STM32G0xx_HAL_Driver/Src/stm32g0xx_hal_rcc_ex.c ****     /* Check the parameters */
 292:Drivers/STM32G0xx_HAL_Driver/Src/stm32g0xx_hal_rcc_ex.c ****     assert_param(IS_RCC_I2C1CLKSOURCE(PeriphClkInit->I2c1ClockSelection));
 381              		.loc 1 292 5 is_stmt 1 view .LVU117
 293:Drivers/STM32G0xx_HAL_Driver/Src/stm32g0xx_hal_rcc_ex.c **** 
 294:Drivers/STM32G0xx_HAL_Driver/Src/stm32g0xx_hal_rcc_ex.c ****     /* Configure the I2C1 clock source */
 295:Drivers/STM32G0xx_HAL_Driver/Src/stm32g0xx_hal_rcc_ex.c ****     __HAL_RCC_I2C1_CONFIG(PeriphClkInit->I2c1ClockSelection);
 382              		.loc 1 295 5 view .LVU118
 383 0166 584A     		ldr	r2, .L60
 384 0168 536D     		ldr	r3, [r2, #84]
 385 016a 6049     		ldr	r1, .L60+36
 386 016c 0B40     		ands	r3, r1
 387 016e A169     		ldr	r1, [r4, #24]
 388 0170 0B43     		orrs	r3, r1
 389 0172 5365     		str	r3, [r2, #84]
 390              	.L19:
 296:Drivers/STM32G0xx_HAL_Driver/Src/stm32g0xx_hal_rcc_ex.c ****   }
 297:Drivers/STM32G0xx_HAL_Driver/Src/stm32g0xx_hal_rcc_ex.c **** 
 298:Drivers/STM32G0xx_HAL_Driver/Src/stm32g0xx_hal_rcc_ex.c **** #if defined(RCC_CCIPR_I2C2SEL)
 299:Drivers/STM32G0xx_HAL_Driver/Src/stm32g0xx_hal_rcc_ex.c ****   /*-------------------------- I2C2 clock source configuration ---------------------*/
 300:Drivers/STM32G0xx_HAL_Driver/Src/stm32g0xx_hal_rcc_ex.c ****   if (((PeriphClkInit->PeriphClockSelection) & RCC_PERIPHCLK_I2C2) == RCC_PERIPHCLK_I2C2)
 391              		.loc 1 300 3 view .LVU119
 392              		.loc 1 300 22 is_stmt 0 view .LVU120
 393 0174 2368     		ldr	r3, [r4]
 394              		.loc 1 300 6 view .LVU121
 395 0176 5B06     		lsls	r3, r3, #25
 396 0178 06D5     		bpl	.L20
 301:Drivers/STM32G0xx_HAL_Driver/Src/stm32g0xx_hal_rcc_ex.c ****   {
 302:Drivers/STM32G0xx_HAL_Driver/Src/stm32g0xx_hal_rcc_ex.c ****     /* Check the parameters */
 303:Drivers/STM32G0xx_HAL_Driver/Src/stm32g0xx_hal_rcc_ex.c ****     assert_param(IS_RCC_I2C2CLKSOURCE(PeriphClkInit->I2c2ClockSelection));
 397              		.loc 1 303 5 is_stmt 1 view .LVU122
 304:Drivers/STM32G0xx_HAL_Driver/Src/stm32g0xx_hal_rcc_ex.c **** 
 305:Drivers/STM32G0xx_HAL_Driver/Src/stm32g0xx_hal_rcc_ex.c ****     /* Configure the I2C2 clock source */
 306:Drivers/STM32G0xx_HAL_Driver/Src/stm32g0xx_hal_rcc_ex.c ****     __HAL_RCC_I2C2_CONFIG(PeriphClkInit->I2c2ClockSelection);
 398              		.loc 1 306 5 view .LVU123
 399 017a 534A     		ldr	r2, .L60
 400 017c 536D     		ldr	r3, [r2, #84]
 401 017e 5C49     		ldr	r1, .L60+40
 402 0180 0B40     		ands	r3, r1
 403 0182 E169     		ldr	r1, [r4, #28]
 404 0184 0B43     		orrs	r3, r1
 405 0186 5365     		str	r3, [r2, #84]
 406              	.L20:
 307:Drivers/STM32G0xx_HAL_Driver/Src/stm32g0xx_hal_rcc_ex.c ****   }
 308:Drivers/STM32G0xx_HAL_Driver/Src/stm32g0xx_hal_rcc_ex.c **** #endif /* (RCC_CCIPR_I2C2SEL */
 309:Drivers/STM32G0xx_HAL_Driver/Src/stm32g0xx_hal_rcc_ex.c **** 
 310:Drivers/STM32G0xx_HAL_Driver/Src/stm32g0xx_hal_rcc_ex.c **** #if defined(RNG)
 311:Drivers/STM32G0xx_HAL_Driver/Src/stm32g0xx_hal_rcc_ex.c ****   /*-------------------------- RNG clock source configuration ----------------------*/
 312:Drivers/STM32G0xx_HAL_Driver/Src/stm32g0xx_hal_rcc_ex.c ****   if (((PeriphClkInit->PeriphClockSelection) & RCC_PERIPHCLK_RNG) == (RCC_PERIPHCLK_RNG))
 313:Drivers/STM32G0xx_HAL_Driver/Src/stm32g0xx_hal_rcc_ex.c ****   {
 314:Drivers/STM32G0xx_HAL_Driver/Src/stm32g0xx_hal_rcc_ex.c ****     assert_param(IS_RCC_RNGCLKSOURCE(PeriphClkInit->RngClockSelection));
 315:Drivers/STM32G0xx_HAL_Driver/Src/stm32g0xx_hal_rcc_ex.c ****     __HAL_RCC_RNG_CONFIG(PeriphClkInit->RngClockSelection);
 316:Drivers/STM32G0xx_HAL_Driver/Src/stm32g0xx_hal_rcc_ex.c **** 
 317:Drivers/STM32G0xx_HAL_Driver/Src/stm32g0xx_hal_rcc_ex.c ****     if (PeriphClkInit->RngClockSelection == RCC_RNGCLKSOURCE_PLL)
 318:Drivers/STM32G0xx_HAL_Driver/Src/stm32g0xx_hal_rcc_ex.c ****     {
 319:Drivers/STM32G0xx_HAL_Driver/Src/stm32g0xx_hal_rcc_ex.c ****       /* Enable PLLQCLK output */
ARM GAS  /tmp/ccVU8yv2.s 			page 14


 320:Drivers/STM32G0xx_HAL_Driver/Src/stm32g0xx_hal_rcc_ex.c ****       __HAL_RCC_PLLCLKOUT_ENABLE(RCC_PLLQCLK);
 321:Drivers/STM32G0xx_HAL_Driver/Src/stm32g0xx_hal_rcc_ex.c ****     }
 322:Drivers/STM32G0xx_HAL_Driver/Src/stm32g0xx_hal_rcc_ex.c ****   }
 323:Drivers/STM32G0xx_HAL_Driver/Src/stm32g0xx_hal_rcc_ex.c **** #endif /* RNG */
 324:Drivers/STM32G0xx_HAL_Driver/Src/stm32g0xx_hal_rcc_ex.c ****   /*-------------------------- ADC clock source configuration ----------------------*/
 325:Drivers/STM32G0xx_HAL_Driver/Src/stm32g0xx_hal_rcc_ex.c ****   if (((PeriphClkInit->PeriphClockSelection) & RCC_PERIPHCLK_ADC) == RCC_PERIPHCLK_ADC)
 407              		.loc 1 325 3 view .LVU124
 408              		.loc 1 325 22 is_stmt 0 view .LVU125
 409 0188 2368     		ldr	r3, [r4]
 410              		.loc 1 325 6 view .LVU126
 411 018a 5B04     		lsls	r3, r3, #17
 412 018c 0BD5     		bpl	.L21
 326:Drivers/STM32G0xx_HAL_Driver/Src/stm32g0xx_hal_rcc_ex.c ****   {
 327:Drivers/STM32G0xx_HAL_Driver/Src/stm32g0xx_hal_rcc_ex.c ****     /* Check the parameters */
 328:Drivers/STM32G0xx_HAL_Driver/Src/stm32g0xx_hal_rcc_ex.c ****     assert_param(IS_RCC_ADCCLKSOURCE(PeriphClkInit->AdcClockSelection));
 413              		.loc 1 328 5 is_stmt 1 view .LVU127
 329:Drivers/STM32G0xx_HAL_Driver/Src/stm32g0xx_hal_rcc_ex.c **** 
 330:Drivers/STM32G0xx_HAL_Driver/Src/stm32g0xx_hal_rcc_ex.c ****     /* Configure the ADC interface clock source */
 331:Drivers/STM32G0xx_HAL_Driver/Src/stm32g0xx_hal_rcc_ex.c ****     __HAL_RCC_ADC_CONFIG(PeriphClkInit->AdcClockSelection);
 414              		.loc 1 331 5 view .LVU128
 415 018e 4E4A     		ldr	r2, .L60
 416 0190 536D     		ldr	r3, [r2, #84]
 417 0192 9B00     		lsls	r3, r3, #2
 418 0194 9B08     		lsrs	r3, r3, #2
 419 0196 216B     		ldr	r1, [r4, #48]
 420 0198 0B43     		orrs	r3, r1
 421 019a 5365     		str	r3, [r2, #84]
 332:Drivers/STM32G0xx_HAL_Driver/Src/stm32g0xx_hal_rcc_ex.c **** 
 333:Drivers/STM32G0xx_HAL_Driver/Src/stm32g0xx_hal_rcc_ex.c ****     if (PeriphClkInit->AdcClockSelection == RCC_ADCCLKSOURCE_PLLADC)
 422              		.loc 1 333 5 view .LVU129
 423              		.loc 1 333 22 is_stmt 0 view .LVU130
 424 019c 226B     		ldr	r2, [r4, #48]
 425              		.loc 1 333 8 view .LVU131
 426 019e 8023     		movs	r3, #128
 427 01a0 DB05     		lsls	r3, r3, #23
 428 01a2 9A42     		cmp	r2, r3
 429 01a4 62D0     		beq	.L53
 430              	.L21:
 334:Drivers/STM32G0xx_HAL_Driver/Src/stm32g0xx_hal_rcc_ex.c ****     {
 335:Drivers/STM32G0xx_HAL_Driver/Src/stm32g0xx_hal_rcc_ex.c ****       /* Enable PLLPCLK output */
 336:Drivers/STM32G0xx_HAL_Driver/Src/stm32g0xx_hal_rcc_ex.c ****       __HAL_RCC_PLLCLKOUT_ENABLE(RCC_PLLPCLK);
 337:Drivers/STM32G0xx_HAL_Driver/Src/stm32g0xx_hal_rcc_ex.c ****     }
 338:Drivers/STM32G0xx_HAL_Driver/Src/stm32g0xx_hal_rcc_ex.c ****   }
 339:Drivers/STM32G0xx_HAL_Driver/Src/stm32g0xx_hal_rcc_ex.c **** 
 340:Drivers/STM32G0xx_HAL_Driver/Src/stm32g0xx_hal_rcc_ex.c **** #if defined(CEC)
 341:Drivers/STM32G0xx_HAL_Driver/Src/stm32g0xx_hal_rcc_ex.c ****   /*-------------------------- CEC clock source configuration ---------------------*/
 342:Drivers/STM32G0xx_HAL_Driver/Src/stm32g0xx_hal_rcc_ex.c ****   if (((PeriphClkInit->PeriphClockSelection) & RCC_PERIPHCLK_CEC) == RCC_PERIPHCLK_CEC)
 431              		.loc 1 342 3 is_stmt 1 view .LVU132
 432              		.loc 1 342 22 is_stmt 0 view .LVU133
 433 01a6 2368     		ldr	r3, [r4]
 434              		.loc 1 342 6 view .LVU134
 435 01a8 1B03     		lsls	r3, r3, #12
 436 01aa 06D5     		bpl	.L22
 343:Drivers/STM32G0xx_HAL_Driver/Src/stm32g0xx_hal_rcc_ex.c ****   {
 344:Drivers/STM32G0xx_HAL_Driver/Src/stm32g0xx_hal_rcc_ex.c ****     /* Check the parameters */
 345:Drivers/STM32G0xx_HAL_Driver/Src/stm32g0xx_hal_rcc_ex.c ****     assert_param(IS_RCC_CECCLKSOURCE(PeriphClkInit->CecClockSelection));
 437              		.loc 1 345 5 is_stmt 1 view .LVU135
ARM GAS  /tmp/ccVU8yv2.s 			page 15


 346:Drivers/STM32G0xx_HAL_Driver/Src/stm32g0xx_hal_rcc_ex.c **** 
 347:Drivers/STM32G0xx_HAL_Driver/Src/stm32g0xx_hal_rcc_ex.c ****     /* Configure the CEC clock source */
 348:Drivers/STM32G0xx_HAL_Driver/Src/stm32g0xx_hal_rcc_ex.c ****     __HAL_RCC_CEC_CONFIG(PeriphClkInit->CecClockSelection);
 438              		.loc 1 348 5 view .LVU136
 439 01ac 464A     		ldr	r2, .L60
 440 01ae 536D     		ldr	r3, [r2, #84]
 441 01b0 4021     		movs	r1, #64
 442 01b2 8B43     		bics	r3, r1
 443 01b4 616B     		ldr	r1, [r4, #52]
 444 01b6 0B43     		orrs	r3, r1
 445 01b8 5365     		str	r3, [r2, #84]
 446              	.L22:
 349:Drivers/STM32G0xx_HAL_Driver/Src/stm32g0xx_hal_rcc_ex.c ****   }
 350:Drivers/STM32G0xx_HAL_Driver/Src/stm32g0xx_hal_rcc_ex.c **** #endif /* CEC */
 351:Drivers/STM32G0xx_HAL_Driver/Src/stm32g0xx_hal_rcc_ex.c **** 
 352:Drivers/STM32G0xx_HAL_Driver/Src/stm32g0xx_hal_rcc_ex.c **** #if defined(RCC_CCIPR_TIM1SEL)
 353:Drivers/STM32G0xx_HAL_Driver/Src/stm32g0xx_hal_rcc_ex.c ****   /*-------------------------- TIM1 clock source configuration ---------------------*/
 354:Drivers/STM32G0xx_HAL_Driver/Src/stm32g0xx_hal_rcc_ex.c ****   if (((PeriphClkInit->PeriphClockSelection) & RCC_PERIPHCLK_TIM1) == RCC_PERIPHCLK_TIM1)
 447              		.loc 1 354 3 view .LVU137
 448              		.loc 1 354 22 is_stmt 0 view .LVU138
 449 01ba 2368     		ldr	r3, [r4]
 450              		.loc 1 354 6 view .LVU139
 451 01bc 9B02     		lsls	r3, r3, #10
 452 01be 0BD5     		bpl	.L23
 355:Drivers/STM32G0xx_HAL_Driver/Src/stm32g0xx_hal_rcc_ex.c ****   {
 356:Drivers/STM32G0xx_HAL_Driver/Src/stm32g0xx_hal_rcc_ex.c ****     /* Check the parameters */
 357:Drivers/STM32G0xx_HAL_Driver/Src/stm32g0xx_hal_rcc_ex.c ****     assert_param(IS_RCC_TIM1CLKSOURCE(PeriphClkInit->Tim1ClockSelection));
 453              		.loc 1 357 5 is_stmt 1 view .LVU140
 358:Drivers/STM32G0xx_HAL_Driver/Src/stm32g0xx_hal_rcc_ex.c **** 
 359:Drivers/STM32G0xx_HAL_Driver/Src/stm32g0xx_hal_rcc_ex.c ****     /* Configure the TIM1 clock source */
 360:Drivers/STM32G0xx_HAL_Driver/Src/stm32g0xx_hal_rcc_ex.c ****     __HAL_RCC_TIM1_CONFIG(PeriphClkInit->Tim1ClockSelection);
 454              		.loc 1 360 5 view .LVU141
 455 01c0 414A     		ldr	r2, .L60
 456 01c2 536D     		ldr	r3, [r2, #84]
 457 01c4 4B49     		ldr	r1, .L60+44
 458 01c6 0B40     		ands	r3, r1
 459 01c8 A16B     		ldr	r1, [r4, #56]
 460 01ca 0B43     		orrs	r3, r1
 461 01cc 5365     		str	r3, [r2, #84]
 361:Drivers/STM32G0xx_HAL_Driver/Src/stm32g0xx_hal_rcc_ex.c **** 
 362:Drivers/STM32G0xx_HAL_Driver/Src/stm32g0xx_hal_rcc_ex.c ****     if (PeriphClkInit->Tim1ClockSelection == RCC_TIM1CLKSOURCE_PLL)
 462              		.loc 1 362 5 view .LVU142
 463              		.loc 1 362 22 is_stmt 0 view .LVU143
 464 01ce A26B     		ldr	r2, [r4, #56]
 465              		.loc 1 362 8 view .LVU144
 466 01d0 8023     		movs	r3, #128
 467 01d2 DB03     		lsls	r3, r3, #15
 468 01d4 9A42     		cmp	r2, r3
 469 01d6 50D0     		beq	.L54
 470              	.L23:
 363:Drivers/STM32G0xx_HAL_Driver/Src/stm32g0xx_hal_rcc_ex.c ****     {
 364:Drivers/STM32G0xx_HAL_Driver/Src/stm32g0xx_hal_rcc_ex.c ****       /* Enable PLLQCLK output */
 365:Drivers/STM32G0xx_HAL_Driver/Src/stm32g0xx_hal_rcc_ex.c ****       __HAL_RCC_PLLCLKOUT_ENABLE(RCC_PLLQCLK);
 366:Drivers/STM32G0xx_HAL_Driver/Src/stm32g0xx_hal_rcc_ex.c ****     }
 367:Drivers/STM32G0xx_HAL_Driver/Src/stm32g0xx_hal_rcc_ex.c ****   }
 368:Drivers/STM32G0xx_HAL_Driver/Src/stm32g0xx_hal_rcc_ex.c **** #endif /* RCC_CCIPR_TIM1SEL */
 369:Drivers/STM32G0xx_HAL_Driver/Src/stm32g0xx_hal_rcc_ex.c **** 
ARM GAS  /tmp/ccVU8yv2.s 			page 16


 370:Drivers/STM32G0xx_HAL_Driver/Src/stm32g0xx_hal_rcc_ex.c **** #if defined(RCC_CCIPR_TIM15SEL)
 371:Drivers/STM32G0xx_HAL_Driver/Src/stm32g0xx_hal_rcc_ex.c ****   /*-------------------------- TIM15 clock source configuration ---------------------*/
 372:Drivers/STM32G0xx_HAL_Driver/Src/stm32g0xx_hal_rcc_ex.c ****   if (((PeriphClkInit->PeriphClockSelection) & RCC_PERIPHCLK_TIM15) == RCC_PERIPHCLK_TIM15)
 471              		.loc 1 372 3 is_stmt 1 view .LVU145
 472              		.loc 1 372 22 is_stmt 0 view .LVU146
 473 01d8 2368     		ldr	r3, [r4]
 474              		.loc 1 372 6 view .LVU147
 475 01da 5B02     		lsls	r3, r3, #9
 476 01dc 0BD5     		bpl	.L24
 373:Drivers/STM32G0xx_HAL_Driver/Src/stm32g0xx_hal_rcc_ex.c ****   {
 374:Drivers/STM32G0xx_HAL_Driver/Src/stm32g0xx_hal_rcc_ex.c ****     /* Check the parameters */
 375:Drivers/STM32G0xx_HAL_Driver/Src/stm32g0xx_hal_rcc_ex.c ****     assert_param(IS_RCC_TIM15CLKSOURCE(PeriphClkInit->Tim15ClockSelection));
 477              		.loc 1 375 5 is_stmt 1 view .LVU148
 376:Drivers/STM32G0xx_HAL_Driver/Src/stm32g0xx_hal_rcc_ex.c **** 
 377:Drivers/STM32G0xx_HAL_Driver/Src/stm32g0xx_hal_rcc_ex.c ****     /* Configure the TIM15 clock source */
 378:Drivers/STM32G0xx_HAL_Driver/Src/stm32g0xx_hal_rcc_ex.c ****     __HAL_RCC_TIM15_CONFIG(PeriphClkInit->Tim15ClockSelection);
 478              		.loc 1 378 5 view .LVU149
 479 01de 3A4A     		ldr	r2, .L60
 480 01e0 536D     		ldr	r3, [r2, #84]
 481 01e2 4549     		ldr	r1, .L60+48
 482 01e4 0B40     		ands	r3, r1
 483 01e6 E16B     		ldr	r1, [r4, #60]
 484 01e8 0B43     		orrs	r3, r1
 485 01ea 5365     		str	r3, [r2, #84]
 379:Drivers/STM32G0xx_HAL_Driver/Src/stm32g0xx_hal_rcc_ex.c **** 
 380:Drivers/STM32G0xx_HAL_Driver/Src/stm32g0xx_hal_rcc_ex.c ****     if (PeriphClkInit->Tim15ClockSelection == RCC_TIM15CLKSOURCE_PLL)
 486              		.loc 1 380 5 view .LVU150
 487              		.loc 1 380 22 is_stmt 0 view .LVU151
 488 01ec E26B     		ldr	r2, [r4, #60]
 489              		.loc 1 380 8 view .LVU152
 490 01ee 8023     		movs	r3, #128
 491 01f0 5B04     		lsls	r3, r3, #17
 492 01f2 9A42     		cmp	r2, r3
 493 01f4 48D0     		beq	.L55
 494              	.L24:
 381:Drivers/STM32G0xx_HAL_Driver/Src/stm32g0xx_hal_rcc_ex.c ****     {
 382:Drivers/STM32G0xx_HAL_Driver/Src/stm32g0xx_hal_rcc_ex.c ****       /* Enable PLLQCLK output */
 383:Drivers/STM32G0xx_HAL_Driver/Src/stm32g0xx_hal_rcc_ex.c ****       __HAL_RCC_PLLCLKOUT_ENABLE(RCC_PLLQCLK);
 384:Drivers/STM32G0xx_HAL_Driver/Src/stm32g0xx_hal_rcc_ex.c ****     }
 385:Drivers/STM32G0xx_HAL_Driver/Src/stm32g0xx_hal_rcc_ex.c ****   }
 386:Drivers/STM32G0xx_HAL_Driver/Src/stm32g0xx_hal_rcc_ex.c **** #endif /* RCC_CCIPR_TIM15SEL */
 387:Drivers/STM32G0xx_HAL_Driver/Src/stm32g0xx_hal_rcc_ex.c **** 
 388:Drivers/STM32G0xx_HAL_Driver/Src/stm32g0xx_hal_rcc_ex.c ****   /*-------------------------- I2S1 clock source configuration ---------------------*/
 389:Drivers/STM32G0xx_HAL_Driver/Src/stm32g0xx_hal_rcc_ex.c ****   if (((PeriphClkInit->PeriphClockSelection) & RCC_PERIPHCLK_I2S1) == RCC_PERIPHCLK_I2S1)
 495              		.loc 1 389 3 is_stmt 1 view .LVU153
 496              		.loc 1 389 22 is_stmt 0 view .LVU154
 497 01f6 2368     		ldr	r3, [r4]
 498              		.loc 1 389 6 view .LVU155
 499 01f8 1B05     		lsls	r3, r3, #20
 500 01fa 09D5     		bpl	.L25
 390:Drivers/STM32G0xx_HAL_Driver/Src/stm32g0xx_hal_rcc_ex.c ****   {
 391:Drivers/STM32G0xx_HAL_Driver/Src/stm32g0xx_hal_rcc_ex.c ****     /* Check the parameters */
 392:Drivers/STM32G0xx_HAL_Driver/Src/stm32g0xx_hal_rcc_ex.c ****     assert_param(IS_RCC_I2S1CLKSOURCE(PeriphClkInit->I2s1ClockSelection));
 501              		.loc 1 392 5 is_stmt 1 view .LVU156
 393:Drivers/STM32G0xx_HAL_Driver/Src/stm32g0xx_hal_rcc_ex.c **** 
 394:Drivers/STM32G0xx_HAL_Driver/Src/stm32g0xx_hal_rcc_ex.c ****     /* Configure the I2S1 clock source */
 395:Drivers/STM32G0xx_HAL_Driver/Src/stm32g0xx_hal_rcc_ex.c ****     __HAL_RCC_I2S1_CONFIG(PeriphClkInit->I2s1ClockSelection);
ARM GAS  /tmp/ccVU8yv2.s 			page 17


 502              		.loc 1 395 5 view .LVU157
 503 01fc 324A     		ldr	r2, .L60
 504 01fe 936D     		ldr	r3, [r2, #88]
 505 0200 0321     		movs	r1, #3
 506 0202 8B43     		bics	r3, r1
 507 0204 216A     		ldr	r1, [r4, #32]
 508 0206 0B43     		orrs	r3, r1
 509 0208 9365     		str	r3, [r2, #88]
 396:Drivers/STM32G0xx_HAL_Driver/Src/stm32g0xx_hal_rcc_ex.c **** 
 397:Drivers/STM32G0xx_HAL_Driver/Src/stm32g0xx_hal_rcc_ex.c ****     if (PeriphClkInit->I2s1ClockSelection == RCC_I2S1CLKSOURCE_PLL)
 510              		.loc 1 397 5 view .LVU158
 511              		.loc 1 397 22 is_stmt 0 view .LVU159
 512 020a 236A     		ldr	r3, [r4, #32]
 513              		.loc 1 397 8 view .LVU160
 514 020c 012B     		cmp	r3, #1
 515 020e 40D0     		beq	.L56
 516              	.L25:
 398:Drivers/STM32G0xx_HAL_Driver/Src/stm32g0xx_hal_rcc_ex.c ****     {
 399:Drivers/STM32G0xx_HAL_Driver/Src/stm32g0xx_hal_rcc_ex.c ****       /* Enable PLLPCLK output */
 400:Drivers/STM32G0xx_HAL_Driver/Src/stm32g0xx_hal_rcc_ex.c ****       __HAL_RCC_PLLCLKOUT_ENABLE(RCC_PLLPCLK);
 401:Drivers/STM32G0xx_HAL_Driver/Src/stm32g0xx_hal_rcc_ex.c ****     }
 402:Drivers/STM32G0xx_HAL_Driver/Src/stm32g0xx_hal_rcc_ex.c ****   }
 403:Drivers/STM32G0xx_HAL_Driver/Src/stm32g0xx_hal_rcc_ex.c **** 
 404:Drivers/STM32G0xx_HAL_Driver/Src/stm32g0xx_hal_rcc_ex.c **** #if defined(RCC_CCIPR2_I2S2SEL)
 405:Drivers/STM32G0xx_HAL_Driver/Src/stm32g0xx_hal_rcc_ex.c ****   /*-------------------------- I2S2 clock source configuration ---------------------*/
 406:Drivers/STM32G0xx_HAL_Driver/Src/stm32g0xx_hal_rcc_ex.c ****   if (((PeriphClkInit->PeriphClockSelection) & RCC_PERIPHCLK_I2S2) == RCC_PERIPHCLK_I2S2)
 517              		.loc 1 406 3 is_stmt 1 view .LVU161
 518              		.loc 1 406 22 is_stmt 0 view .LVU162
 519 0210 2368     		ldr	r3, [r4]
 520              		.loc 1 406 6 view .LVU163
 521 0212 9B04     		lsls	r3, r3, #18
 522 0214 09D5     		bpl	.L26
 407:Drivers/STM32G0xx_HAL_Driver/Src/stm32g0xx_hal_rcc_ex.c ****   {
 408:Drivers/STM32G0xx_HAL_Driver/Src/stm32g0xx_hal_rcc_ex.c ****     /* Check the parameters */
 409:Drivers/STM32G0xx_HAL_Driver/Src/stm32g0xx_hal_rcc_ex.c ****     assert_param(IS_RCC_I2S2CLKSOURCE(PeriphClkInit->I2s2ClockSelection));
 523              		.loc 1 409 5 is_stmt 1 view .LVU164
 410:Drivers/STM32G0xx_HAL_Driver/Src/stm32g0xx_hal_rcc_ex.c **** 
 411:Drivers/STM32G0xx_HAL_Driver/Src/stm32g0xx_hal_rcc_ex.c ****     /* Configure the I2S2 clock source */
 412:Drivers/STM32G0xx_HAL_Driver/Src/stm32g0xx_hal_rcc_ex.c ****     __HAL_RCC_I2S2_CONFIG(PeriphClkInit->I2s2ClockSelection);
 524              		.loc 1 412 5 view .LVU165
 525 0216 2C4A     		ldr	r2, .L60
 526 0218 936D     		ldr	r3, [r2, #88]
 527 021a 0C21     		movs	r1, #12
 528 021c 8B43     		bics	r3, r1
 529 021e 616A     		ldr	r1, [r4, #36]
 530 0220 0B43     		orrs	r3, r1
 531 0222 9365     		str	r3, [r2, #88]
 413:Drivers/STM32G0xx_HAL_Driver/Src/stm32g0xx_hal_rcc_ex.c **** 
 414:Drivers/STM32G0xx_HAL_Driver/Src/stm32g0xx_hal_rcc_ex.c ****     if (PeriphClkInit->I2s2ClockSelection == RCC_I2S2CLKSOURCE_PLL)
 532              		.loc 1 414 5 view .LVU166
 533              		.loc 1 414 22 is_stmt 0 view .LVU167
 534 0224 636A     		ldr	r3, [r4, #36]
 535              		.loc 1 414 8 view .LVU168
 536 0226 042B     		cmp	r3, #4
 537 0228 39D0     		beq	.L57
 538              	.L26:
 415:Drivers/STM32G0xx_HAL_Driver/Src/stm32g0xx_hal_rcc_ex.c ****     {
ARM GAS  /tmp/ccVU8yv2.s 			page 18


 416:Drivers/STM32G0xx_HAL_Driver/Src/stm32g0xx_hal_rcc_ex.c ****       /* Enable PLLPCLK output */
 417:Drivers/STM32G0xx_HAL_Driver/Src/stm32g0xx_hal_rcc_ex.c ****       __HAL_RCC_PLLCLKOUT_ENABLE(RCC_PLLPCLK);
 418:Drivers/STM32G0xx_HAL_Driver/Src/stm32g0xx_hal_rcc_ex.c ****     }
 419:Drivers/STM32G0xx_HAL_Driver/Src/stm32g0xx_hal_rcc_ex.c ****   }
 420:Drivers/STM32G0xx_HAL_Driver/Src/stm32g0xx_hal_rcc_ex.c **** #endif /* RCC_CCIPR2_I2S2SEL */
 421:Drivers/STM32G0xx_HAL_Driver/Src/stm32g0xx_hal_rcc_ex.c **** 
 422:Drivers/STM32G0xx_HAL_Driver/Src/stm32g0xx_hal_rcc_ex.c **** #if defined(STM32G0C1xx) || defined(STM32G0B1xx)  || defined(STM32G0B0xx)
 423:Drivers/STM32G0xx_HAL_Driver/Src/stm32g0xx_hal_rcc_ex.c ****   /*-------------------------- USB clock source configuration ---------------------*/
 424:Drivers/STM32G0xx_HAL_Driver/Src/stm32g0xx_hal_rcc_ex.c ****   if (((PeriphClkInit->PeriphClockSelection) & RCC_PERIPHCLK_USB) == RCC_PERIPHCLK_USB)
 539              		.loc 1 424 3 is_stmt 1 view .LVU169
 540              		.loc 1 424 22 is_stmt 0 view .LVU170
 541 022a 2368     		ldr	r3, [r4]
 542              		.loc 1 424 6 view .LVU171
 543 022c DB01     		lsls	r3, r3, #7
 544 022e 0BD5     		bpl	.L27
 425:Drivers/STM32G0xx_HAL_Driver/Src/stm32g0xx_hal_rcc_ex.c ****   {
 426:Drivers/STM32G0xx_HAL_Driver/Src/stm32g0xx_hal_rcc_ex.c ****     /* Check the parameters */
 427:Drivers/STM32G0xx_HAL_Driver/Src/stm32g0xx_hal_rcc_ex.c ****     assert_param(IS_RCC_USBCLKSOURCE(PeriphClkInit->UsbClockSelection));
 545              		.loc 1 427 5 is_stmt 1 view .LVU172
 428:Drivers/STM32G0xx_HAL_Driver/Src/stm32g0xx_hal_rcc_ex.c **** 
 429:Drivers/STM32G0xx_HAL_Driver/Src/stm32g0xx_hal_rcc_ex.c ****     /* Configure the USB clock source */
 430:Drivers/STM32G0xx_HAL_Driver/Src/stm32g0xx_hal_rcc_ex.c ****     __HAL_RCC_USB_CONFIG(PeriphClkInit->UsbClockSelection);
 546              		.loc 1 430 5 view .LVU173
 547 0230 254A     		ldr	r2, .L60
 548 0232 936D     		ldr	r3, [r2, #88]
 549 0234 2D49     		ldr	r1, .L60+36
 550 0236 0B40     		ands	r3, r1
 551 0238 616C     		ldr	r1, [r4, #68]
 552 023a 0B43     		orrs	r3, r1
 553 023c 9365     		str	r3, [r2, #88]
 431:Drivers/STM32G0xx_HAL_Driver/Src/stm32g0xx_hal_rcc_ex.c **** 
 432:Drivers/STM32G0xx_HAL_Driver/Src/stm32g0xx_hal_rcc_ex.c ****     if (PeriphClkInit->UsbClockSelection == RCC_USBCLKSOURCE_PLL)
 554              		.loc 1 432 5 view .LVU174
 555              		.loc 1 432 22 is_stmt 0 view .LVU175
 556 023e 626C     		ldr	r2, [r4, #68]
 557              		.loc 1 432 8 view .LVU176
 558 0240 8023     		movs	r3, #128
 559 0242 9B01     		lsls	r3, r3, #6
 560 0244 9A42     		cmp	r2, r3
 561 0246 30D0     		beq	.L58
 562              	.L27:
 433:Drivers/STM32G0xx_HAL_Driver/Src/stm32g0xx_hal_rcc_ex.c ****     {
 434:Drivers/STM32G0xx_HAL_Driver/Src/stm32g0xx_hal_rcc_ex.c ****       /* Enable PLLQCLK output */
 435:Drivers/STM32G0xx_HAL_Driver/Src/stm32g0xx_hal_rcc_ex.c ****       __HAL_RCC_PLLCLKOUT_ENABLE(RCC_PLLQCLK);
 436:Drivers/STM32G0xx_HAL_Driver/Src/stm32g0xx_hal_rcc_ex.c ****     }
 437:Drivers/STM32G0xx_HAL_Driver/Src/stm32g0xx_hal_rcc_ex.c ****   }
 438:Drivers/STM32G0xx_HAL_Driver/Src/stm32g0xx_hal_rcc_ex.c **** #endif /* STM32G0C1xx || STM32G0B1xx || STM32G0B0xx */
 439:Drivers/STM32G0xx_HAL_Driver/Src/stm32g0xx_hal_rcc_ex.c **** 
 440:Drivers/STM32G0xx_HAL_Driver/Src/stm32g0xx_hal_rcc_ex.c **** #if defined(FDCAN1) || defined(FDCAN2)
 441:Drivers/STM32G0xx_HAL_Driver/Src/stm32g0xx_hal_rcc_ex.c ****   /*-------------------------- FDCAN clock source configuration ---------------------*/
 442:Drivers/STM32G0xx_HAL_Driver/Src/stm32g0xx_hal_rcc_ex.c ****   if (((PeriphClkInit->PeriphClockSelection) & RCC_PERIPHCLK_FDCAN) == RCC_PERIPHCLK_FDCAN)
 563              		.loc 1 442 3 is_stmt 1 view .LVU177
 564              		.loc 1 442 22 is_stmt 0 view .LVU178
 565 0248 2368     		ldr	r3, [r4]
 566              		.loc 1 442 6 view .LVU179
 567 024a 9B01     		lsls	r3, r3, #6
 568 024c 0BD5     		bpl	.L28
ARM GAS  /tmp/ccVU8yv2.s 			page 19


 443:Drivers/STM32G0xx_HAL_Driver/Src/stm32g0xx_hal_rcc_ex.c ****   {
 444:Drivers/STM32G0xx_HAL_Driver/Src/stm32g0xx_hal_rcc_ex.c ****     /* Check the parameters */
 445:Drivers/STM32G0xx_HAL_Driver/Src/stm32g0xx_hal_rcc_ex.c ****     assert_param(IS_RCC_FDCANCLKSOURCE(PeriphClkInit->FdcanClockSelection));
 569              		.loc 1 445 5 is_stmt 1 view .LVU180
 446:Drivers/STM32G0xx_HAL_Driver/Src/stm32g0xx_hal_rcc_ex.c **** 
 447:Drivers/STM32G0xx_HAL_Driver/Src/stm32g0xx_hal_rcc_ex.c ****     /* Configure the FDCAN clock source */
 448:Drivers/STM32G0xx_HAL_Driver/Src/stm32g0xx_hal_rcc_ex.c ****     __HAL_RCC_FDCAN_CONFIG(PeriphClkInit->FdcanClockSelection);
 570              		.loc 1 448 5 view .LVU181
 571 024e 1E4A     		ldr	r2, .L60
 572 0250 936D     		ldr	r3, [r2, #88]
 573 0252 1F49     		ldr	r1, .L60+8
 574 0254 0B40     		ands	r3, r1
 575 0256 A16C     		ldr	r1, [r4, #72]
 576 0258 0B43     		orrs	r3, r1
 577 025a 9365     		str	r3, [r2, #88]
 449:Drivers/STM32G0xx_HAL_Driver/Src/stm32g0xx_hal_rcc_ex.c **** 
 450:Drivers/STM32G0xx_HAL_Driver/Src/stm32g0xx_hal_rcc_ex.c ****     if (PeriphClkInit->FdcanClockSelection == RCC_FDCANCLKSOURCE_PLL)
 578              		.loc 1 450 5 view .LVU182
 579              		.loc 1 450 22 is_stmt 0 view .LVU183
 580 025c A26C     		ldr	r2, [r4, #72]
 581              		.loc 1 450 8 view .LVU184
 582 025e 8023     		movs	r3, #128
 583 0260 5B00     		lsls	r3, r3, #1
 584 0262 9A42     		cmp	r2, r3
 585 0264 28D0     		beq	.L59
 586              	.L28:
 451:Drivers/STM32G0xx_HAL_Driver/Src/stm32g0xx_hal_rcc_ex.c ****     {
 452:Drivers/STM32G0xx_HAL_Driver/Src/stm32g0xx_hal_rcc_ex.c ****       /* Enable PLLQCLK output */
 453:Drivers/STM32G0xx_HAL_Driver/Src/stm32g0xx_hal_rcc_ex.c ****       __HAL_RCC_PLLCLKOUT_ENABLE(RCC_PLLQCLK);
 454:Drivers/STM32G0xx_HAL_Driver/Src/stm32g0xx_hal_rcc_ex.c ****     }
 455:Drivers/STM32G0xx_HAL_Driver/Src/stm32g0xx_hal_rcc_ex.c ****   }
 456:Drivers/STM32G0xx_HAL_Driver/Src/stm32g0xx_hal_rcc_ex.c **** #endif /* FDCAN1 || FDCAN2 */
 457:Drivers/STM32G0xx_HAL_Driver/Src/stm32g0xx_hal_rcc_ex.c **** 
 458:Drivers/STM32G0xx_HAL_Driver/Src/stm32g0xx_hal_rcc_ex.c ****   return status;
 587              		.loc 1 458 3 is_stmt 1 view .LVU185
 459:Drivers/STM32G0xx_HAL_Driver/Src/stm32g0xx_hal_rcc_ex.c **** }
 588              		.loc 1 459 1 is_stmt 0 view .LVU186
 589 0266 2800     		movs	r0, r5
 590 0268 03B0     		add	sp, sp, #12
 591              		@ sp needed
 592              	.LVL25:
 593              	.LVL26:
 594              		.loc 1 459 1 view .LVU187
 595 026a F0BD     		pop	{r4, r5, r6, r7, pc}
 596              	.LVL27:
 597              	.L53:
 336:Drivers/STM32G0xx_HAL_Driver/Src/stm32g0xx_hal_rcc_ex.c ****     }
 598              		.loc 1 336 7 is_stmt 1 view .LVU188
 599 026c 164A     		ldr	r2, .L60
 600 026e D168     		ldr	r1, [r2, #12]
 601 0270 8023     		movs	r3, #128
 602 0272 5B02     		lsls	r3, r3, #9
 603 0274 0B43     		orrs	r3, r1
 604 0276 D360     		str	r3, [r2, #12]
 605 0278 95E7     		b	.L21
 606              	.L54:
 365:Drivers/STM32G0xx_HAL_Driver/Src/stm32g0xx_hal_rcc_ex.c ****     }
ARM GAS  /tmp/ccVU8yv2.s 			page 20


 607              		.loc 1 365 7 view .LVU189
 608 027a 134A     		ldr	r2, .L60
 609 027c D168     		ldr	r1, [r2, #12]
 610 027e 8023     		movs	r3, #128
 611 0280 5B04     		lsls	r3, r3, #17
 612 0282 0B43     		orrs	r3, r1
 613 0284 D360     		str	r3, [r2, #12]
 614 0286 A7E7     		b	.L23
 615              	.L55:
 383:Drivers/STM32G0xx_HAL_Driver/Src/stm32g0xx_hal_rcc_ex.c ****     }
 616              		.loc 1 383 7 view .LVU190
 617 0288 0F4A     		ldr	r2, .L60
 618 028a D168     		ldr	r1, [r2, #12]
 619 028c 0B43     		orrs	r3, r1
 620 028e D360     		str	r3, [r2, #12]
 621 0290 B1E7     		b	.L24
 622              	.L56:
 400:Drivers/STM32G0xx_HAL_Driver/Src/stm32g0xx_hal_rcc_ex.c ****     }
 623              		.loc 1 400 7 view .LVU191
 624 0292 D168     		ldr	r1, [r2, #12]
 625 0294 8023     		movs	r3, #128
 626 0296 5B02     		lsls	r3, r3, #9
 627 0298 0B43     		orrs	r3, r1
 628 029a D360     		str	r3, [r2, #12]
 629 029c B8E7     		b	.L25
 630              	.L57:
 417:Drivers/STM32G0xx_HAL_Driver/Src/stm32g0xx_hal_rcc_ex.c ****     }
 631              		.loc 1 417 7 view .LVU192
 632 029e D168     		ldr	r1, [r2, #12]
 633 02a0 8023     		movs	r3, #128
 634 02a2 5B02     		lsls	r3, r3, #9
 635 02a4 0B43     		orrs	r3, r1
 636 02a6 D360     		str	r3, [r2, #12]
 637 02a8 BFE7     		b	.L26
 638              	.L58:
 435:Drivers/STM32G0xx_HAL_Driver/Src/stm32g0xx_hal_rcc_ex.c ****     }
 639              		.loc 1 435 7 view .LVU193
 640 02aa 074A     		ldr	r2, .L60
 641 02ac D168     		ldr	r1, [r2, #12]
 642 02ae 8023     		movs	r3, #128
 643 02b0 5B04     		lsls	r3, r3, #17
 644 02b2 0B43     		orrs	r3, r1
 645 02b4 D360     		str	r3, [r2, #12]
 646 02b6 C7E7     		b	.L27
 647              	.L59:
 453:Drivers/STM32G0xx_HAL_Driver/Src/stm32g0xx_hal_rcc_ex.c ****     }
 648              		.loc 1 453 7 view .LVU194
 649 02b8 034A     		ldr	r2, .L60
 650 02ba D168     		ldr	r1, [r2, #12]
 651 02bc 8023     		movs	r3, #128
 652 02be 5B04     		lsls	r3, r3, #17
 653 02c0 0B43     		orrs	r3, r1
 654 02c2 D360     		str	r3, [r2, #12]
 655 02c4 CFE7     		b	.L28
 656              	.L61:
 657 02c6 C046     		.align	2
 658              	.L60:
ARM GAS  /tmp/ccVU8yv2.s 			page 21


 659 02c8 00100240 		.word	1073876992
 660 02cc 00700040 		.word	1073770496
 661 02d0 FFFCFFFF 		.word	-769
 662 02d4 FFFFFEFF 		.word	-65537
 663 02d8 FFFFFFEF 		.word	-268435457
 664 02dc 88130000 		.word	5000
 665 02e0 FFF3FFFF 		.word	-3073
 666 02e4 FFFFF3FF 		.word	-786433
 667 02e8 FFFFCFFF 		.word	-3145729
 668 02ec FFCFFFFF 		.word	-12289
 669 02f0 FF3FFFFF 		.word	-49153
 670 02f4 FFFFBFFF 		.word	-4194305
 671 02f8 FFFFFFFE 		.word	-16777217
 672              		.cfi_endproc
 673              	.LFE358:
 675              		.section	.text.HAL_RCCEx_GetPeriphCLKConfig,"ax",%progbits
 676              		.align	1
 677              		.global	HAL_RCCEx_GetPeriphCLKConfig
 678              		.syntax unified
 679              		.code	16
 680              		.thumb_func
 681              		.fpu softvfp
 683              	HAL_RCCEx_GetPeriphCLKConfig:
 684              	.LVL28:
 685              	.LFB359:
 460:Drivers/STM32G0xx_HAL_Driver/Src/stm32g0xx_hal_rcc_ex.c **** 
 461:Drivers/STM32G0xx_HAL_Driver/Src/stm32g0xx_hal_rcc_ex.c **** /**
 462:Drivers/STM32G0xx_HAL_Driver/Src/stm32g0xx_hal_rcc_ex.c ****   * @brief  Get the RCC_ClkInitStruct according to the internal RCC configuration registers.
 463:Drivers/STM32G0xx_HAL_Driver/Src/stm32g0xx_hal_rcc_ex.c ****   * @param  PeriphClkInit pointer to an RCC_PeriphCLKInitTypeDef structure that
 464:Drivers/STM32G0xx_HAL_Driver/Src/stm32g0xx_hal_rcc_ex.c ****   *         returns the configuration information for the Extended Peripherals
 465:Drivers/STM32G0xx_HAL_Driver/Src/stm32g0xx_hal_rcc_ex.c ****   *         clocks: I2C1, I2S1, USART1, RTC, ADC,
 466:Drivers/STM32G0xx_HAL_Driver/Src/stm32g0xx_hal_rcc_ex.c ****   *         LPTIM1 (1), LPTIM2 (1), TIM1 (2), TIM15 (1)(2), USART2 (2), LPUART1 (1), CEC (1) and RN
 467:Drivers/STM32G0xx_HAL_Driver/Src/stm32g0xx_hal_rcc_ex.c ****   * @note (1) Peripheral is not available on all devices
 468:Drivers/STM32G0xx_HAL_Driver/Src/stm32g0xx_hal_rcc_ex.c ****   * @note (2) Peripheral clock selection is not available on all devices
 469:Drivers/STM32G0xx_HAL_Driver/Src/stm32g0xx_hal_rcc_ex.c ****   * @retval None
 470:Drivers/STM32G0xx_HAL_Driver/Src/stm32g0xx_hal_rcc_ex.c ****   */
 471:Drivers/STM32G0xx_HAL_Driver/Src/stm32g0xx_hal_rcc_ex.c **** void HAL_RCCEx_GetPeriphCLKConfig(RCC_PeriphCLKInitTypeDef  *PeriphClkInit)
 472:Drivers/STM32G0xx_HAL_Driver/Src/stm32g0xx_hal_rcc_ex.c **** {
 686              		.loc 1 472 1 view -0
 687              		.cfi_startproc
 688              		@ args = 0, pretend = 0, frame = 0
 689              		@ frame_needed = 0, uses_anonymous_args = 0
 690              		.loc 1 472 1 is_stmt 0 view .LVU196
 691 0000 F0B5     		push	{r4, r5, r6, r7, lr}
 692              	.LCFI2:
 693              		.cfi_def_cfa_offset 20
 694              		.cfi_offset 4, -20
 695              		.cfi_offset 5, -16
 696              		.cfi_offset 6, -12
 697              		.cfi_offset 7, -8
 698              		.cfi_offset 14, -4
 473:Drivers/STM32G0xx_HAL_Driver/Src/stm32g0xx_hal_rcc_ex.c ****   /* Set all possible values for the extended clock type parameter------------*/
 474:Drivers/STM32G0xx_HAL_Driver/Src/stm32g0xx_hal_rcc_ex.c ****   PeriphClkInit->PeriphClockSelection = RCC_PERIPHCLK_USART1 | RCC_PERIPHCLK_I2C1 | RCC_PERIPHCLK_I
 699              		.loc 1 474 3 is_stmt 1 view .LVU197
 700              		.loc 1 474 39 is_stmt 0 view .LVU198
 701 0002 334B     		ldr	r3, .L63
 702 0004 0360     		str	r3, [r0]
ARM GAS  /tmp/ccVU8yv2.s 			page 22


 475:Drivers/STM32G0xx_HAL_Driver/Src/stm32g0xx_hal_rcc_ex.c ****                                         RCC_PERIPHCLK_ADC     | RCC_PERIPHCLK_RTC ;
 476:Drivers/STM32G0xx_HAL_Driver/Src/stm32g0xx_hal_rcc_ex.c **** 
 477:Drivers/STM32G0xx_HAL_Driver/Src/stm32g0xx_hal_rcc_ex.c **** #if defined(RCC_CCIPR_LPTIM1SEL) && defined(RCC_CCIPR_LPTIM2SEL)
 478:Drivers/STM32G0xx_HAL_Driver/Src/stm32g0xx_hal_rcc_ex.c ****   PeriphClkInit->PeriphClockSelection |=  RCC_PERIPHCLK_LPTIM2  | RCC_PERIPHCLK_LPTIM1;
 703              		.loc 1 478 3 is_stmt 1 view .LVU199
 704              		.loc 1 478 39 is_stmt 0 view .LVU200
 705 0006 334B     		ldr	r3, .L63+4
 706 0008 0360     		str	r3, [r0]
 479:Drivers/STM32G0xx_HAL_Driver/Src/stm32g0xx_hal_rcc_ex.c **** #endif /* RCC_CCIPR_LPTIM1SEL && RCC_CCIPR_LPTIM2SEL */
 480:Drivers/STM32G0xx_HAL_Driver/Src/stm32g0xx_hal_rcc_ex.c **** #if defined(RCC_CCIPR_RNGSEL)
 481:Drivers/STM32G0xx_HAL_Driver/Src/stm32g0xx_hal_rcc_ex.c ****   PeriphClkInit->PeriphClockSelection |=  RCC_PERIPHCLK_RNG;
 482:Drivers/STM32G0xx_HAL_Driver/Src/stm32g0xx_hal_rcc_ex.c **** #endif /* RCC_CCIPR_RNGSEL */
 483:Drivers/STM32G0xx_HAL_Driver/Src/stm32g0xx_hal_rcc_ex.c **** #if defined(RCC_CCIPR_LPUART1SEL)
 484:Drivers/STM32G0xx_HAL_Driver/Src/stm32g0xx_hal_rcc_ex.c ****   PeriphClkInit->PeriphClockSelection |=  RCC_PERIPHCLK_LPUART1;
 707              		.loc 1 484 3 is_stmt 1 view .LVU201
 708              		.loc 1 484 39 is_stmt 0 view .LVU202
 709 000a 334B     		ldr	r3, .L63+8
 710 000c 0360     		str	r3, [r0]
 485:Drivers/STM32G0xx_HAL_Driver/Src/stm32g0xx_hal_rcc_ex.c **** #endif /* RCC_CCIPR_LPUART1SEL */
 486:Drivers/STM32G0xx_HAL_Driver/Src/stm32g0xx_hal_rcc_ex.c **** #if defined(RCC_CCIPR_LPUART2SEL)
 487:Drivers/STM32G0xx_HAL_Driver/Src/stm32g0xx_hal_rcc_ex.c ****   PeriphClkInit->PeriphClockSelection |=  RCC_PERIPHCLK_LPUART2;
 711              		.loc 1 487 3 is_stmt 1 view .LVU203
 712              		.loc 1 487 39 is_stmt 0 view .LVU204
 713 000e 334B     		ldr	r3, .L63+12
 714 0010 0360     		str	r3, [r0]
 488:Drivers/STM32G0xx_HAL_Driver/Src/stm32g0xx_hal_rcc_ex.c **** #endif /* RCC_CCIPR_LPUART2SEL */
 489:Drivers/STM32G0xx_HAL_Driver/Src/stm32g0xx_hal_rcc_ex.c **** #if defined(RCC_CCIPR_CECSEL)
 490:Drivers/STM32G0xx_HAL_Driver/Src/stm32g0xx_hal_rcc_ex.c ****   PeriphClkInit->PeriphClockSelection |=  RCC_PERIPHCLK_CEC;
 715              		.loc 1 490 3 is_stmt 1 view .LVU205
 716              		.loc 1 490 39 is_stmt 0 view .LVU206
 717 0012 334B     		ldr	r3, .L63+16
 718 0014 0360     		str	r3, [r0]
 491:Drivers/STM32G0xx_HAL_Driver/Src/stm32g0xx_hal_rcc_ex.c **** #endif /* RCC_CCIPR_CECSEL */
 492:Drivers/STM32G0xx_HAL_Driver/Src/stm32g0xx_hal_rcc_ex.c **** #if defined(RCC_CCIPR_TIM1SEL)
 493:Drivers/STM32G0xx_HAL_Driver/Src/stm32g0xx_hal_rcc_ex.c ****   PeriphClkInit->PeriphClockSelection |=  RCC_PERIPHCLK_TIM1;
 719              		.loc 1 493 3 is_stmt 1 view .LVU207
 720              		.loc 1 493 39 is_stmt 0 view .LVU208
 721 0016 334B     		ldr	r3, .L63+20
 722 0018 0360     		str	r3, [r0]
 494:Drivers/STM32G0xx_HAL_Driver/Src/stm32g0xx_hal_rcc_ex.c **** #endif /* RCC_CCIPR_TIM1SEL */
 495:Drivers/STM32G0xx_HAL_Driver/Src/stm32g0xx_hal_rcc_ex.c **** #if defined(RCC_CCIPR_TIM15SEL)
 496:Drivers/STM32G0xx_HAL_Driver/Src/stm32g0xx_hal_rcc_ex.c ****   PeriphClkInit->PeriphClockSelection |=  RCC_PERIPHCLK_TIM15;
 723              		.loc 1 496 3 is_stmt 1 view .LVU209
 724              		.loc 1 496 39 is_stmt 0 view .LVU210
 725 001a 334B     		ldr	r3, .L63+24
 726 001c 0360     		str	r3, [r0]
 497:Drivers/STM32G0xx_HAL_Driver/Src/stm32g0xx_hal_rcc_ex.c **** #endif /* RCC_CCIPR_TIM15SEL */
 498:Drivers/STM32G0xx_HAL_Driver/Src/stm32g0xx_hal_rcc_ex.c **** #if defined(RCC_CCIPR_USART2SEL)
 499:Drivers/STM32G0xx_HAL_Driver/Src/stm32g0xx_hal_rcc_ex.c ****   PeriphClkInit->PeriphClockSelection |=  RCC_PERIPHCLK_USART2;
 727              		.loc 1 499 3 is_stmt 1 view .LVU211
 728              		.loc 1 499 39 is_stmt 0 view .LVU212
 729 001e 334B     		ldr	r3, .L63+28
 730 0020 0360     		str	r3, [r0]
 500:Drivers/STM32G0xx_HAL_Driver/Src/stm32g0xx_hal_rcc_ex.c **** #endif /* RCC_CCIPR_USART2SEL */
 501:Drivers/STM32G0xx_HAL_Driver/Src/stm32g0xx_hal_rcc_ex.c **** #if defined(RCC_CCIPR_USART3SEL)
 502:Drivers/STM32G0xx_HAL_Driver/Src/stm32g0xx_hal_rcc_ex.c ****   PeriphClkInit->PeriphClockSelection |=  RCC_PERIPHCLK_USART3;
 731              		.loc 1 502 3 is_stmt 1 view .LVU213
ARM GAS  /tmp/ccVU8yv2.s 			page 23


 732              		.loc 1 502 39 is_stmt 0 view .LVU214
 733 0022 334B     		ldr	r3, .L63+32
 734 0024 0360     		str	r3, [r0]
 503:Drivers/STM32G0xx_HAL_Driver/Src/stm32g0xx_hal_rcc_ex.c **** #endif /* RCC_CCIPR_USART3SEL */
 504:Drivers/STM32G0xx_HAL_Driver/Src/stm32g0xx_hal_rcc_ex.c **** #if defined(RCC_CCIPR_I2C2SEL)
 505:Drivers/STM32G0xx_HAL_Driver/Src/stm32g0xx_hal_rcc_ex.c ****   PeriphClkInit->PeriphClockSelection |=  RCC_PERIPHCLK_I2C2;
 735              		.loc 1 505 3 is_stmt 1 view .LVU215
 736              		.loc 1 505 39 is_stmt 0 view .LVU216
 737 0026 334B     		ldr	r3, .L63+36
 738 0028 0360     		str	r3, [r0]
 506:Drivers/STM32G0xx_HAL_Driver/Src/stm32g0xx_hal_rcc_ex.c **** #endif /* RCC_CCIPR_I2C2SEL */
 507:Drivers/STM32G0xx_HAL_Driver/Src/stm32g0xx_hal_rcc_ex.c **** #if defined(RCC_CCIPR2_I2S2SEL)
 508:Drivers/STM32G0xx_HAL_Driver/Src/stm32g0xx_hal_rcc_ex.c ****   PeriphClkInit->PeriphClockSelection |=  RCC_PERIPHCLK_I2S2;
 739              		.loc 1 508 3 is_stmt 1 view .LVU217
 740              		.loc 1 508 39 is_stmt 0 view .LVU218
 741 002a 334B     		ldr	r3, .L63+40
 742 002c 0360     		str	r3, [r0]
 509:Drivers/STM32G0xx_HAL_Driver/Src/stm32g0xx_hal_rcc_ex.c **** #endif /* RCC_CCIPR2_I2S2SEL */
 510:Drivers/STM32G0xx_HAL_Driver/Src/stm32g0xx_hal_rcc_ex.c **** #if defined(RCC_CCIPR2_USBSEL)
 511:Drivers/STM32G0xx_HAL_Driver/Src/stm32g0xx_hal_rcc_ex.c ****   PeriphClkInit->PeriphClockSelection |=  RCC_PERIPHCLK_USB;
 743              		.loc 1 511 3 is_stmt 1 view .LVU219
 744              		.loc 1 511 39 is_stmt 0 view .LVU220
 745 002e 334B     		ldr	r3, .L63+44
 746 0030 0360     		str	r3, [r0]
 512:Drivers/STM32G0xx_HAL_Driver/Src/stm32g0xx_hal_rcc_ex.c **** #endif /* RCC_CCIPR2_USBSEL */
 513:Drivers/STM32G0xx_HAL_Driver/Src/stm32g0xx_hal_rcc_ex.c **** #if defined(RCC_CCIPR2_FDCANSEL)
 514:Drivers/STM32G0xx_HAL_Driver/Src/stm32g0xx_hal_rcc_ex.c ****   PeriphClkInit->PeriphClockSelection |=  RCC_PERIPHCLK_FDCAN;
 747              		.loc 1 514 3 is_stmt 1 view .LVU221
 748              		.loc 1 514 39 is_stmt 0 view .LVU222
 749 0032 334B     		ldr	r3, .L63+48
 750 0034 0360     		str	r3, [r0]
 515:Drivers/STM32G0xx_HAL_Driver/Src/stm32g0xx_hal_rcc_ex.c **** #endif /* RCC_CCIPR_FDCANSEL */
 516:Drivers/STM32G0xx_HAL_Driver/Src/stm32g0xx_hal_rcc_ex.c ****   /* Get the USART1 clock source ---------------------------------------------*/
 517:Drivers/STM32G0xx_HAL_Driver/Src/stm32g0xx_hal_rcc_ex.c ****   PeriphClkInit->Usart1ClockSelection  = __HAL_RCC_GET_USART1_SOURCE();
 751              		.loc 1 517 3 is_stmt 1 view .LVU223
 752              		.loc 1 517 42 is_stmt 0 view .LVU224
 753 0036 334B     		ldr	r3, .L63+52
 754 0038 5A6D     		ldr	r2, [r3, #84]
 755 003a 0324     		movs	r4, #3
 756 003c 2240     		ands	r2, r4
 757              		.loc 1 517 40 view .LVU225
 758 003e 4260     		str	r2, [r0, #4]
 518:Drivers/STM32G0xx_HAL_Driver/Src/stm32g0xx_hal_rcc_ex.c **** #if defined(RCC_CCIPR_USART2SEL)
 519:Drivers/STM32G0xx_HAL_Driver/Src/stm32g0xx_hal_rcc_ex.c ****   /* Get the USART2 clock source ---------------------------------------------*/
 520:Drivers/STM32G0xx_HAL_Driver/Src/stm32g0xx_hal_rcc_ex.c ****   PeriphClkInit->Usart2ClockSelection  = __HAL_RCC_GET_USART2_SOURCE();
 759              		.loc 1 520 3 is_stmt 1 view .LVU226
 760              		.loc 1 520 42 is_stmt 0 view .LVU227
 761 0040 5A6D     		ldr	r2, [r3, #84]
 762 0042 0C21     		movs	r1, #12
 763 0044 0A40     		ands	r2, r1
 764              		.loc 1 520 40 view .LVU228
 765 0046 8260     		str	r2, [r0, #8]
 521:Drivers/STM32G0xx_HAL_Driver/Src/stm32g0xx_hal_rcc_ex.c **** #endif /* RCC_CCIPR_USART2SEL */
 522:Drivers/STM32G0xx_HAL_Driver/Src/stm32g0xx_hal_rcc_ex.c **** #if defined(RCC_CCIPR_USART3SEL)
 523:Drivers/STM32G0xx_HAL_Driver/Src/stm32g0xx_hal_rcc_ex.c ****   /* Get the USART3 clock source ---------------------------------------------*/
 524:Drivers/STM32G0xx_HAL_Driver/Src/stm32g0xx_hal_rcc_ex.c ****   PeriphClkInit->Usart3ClockSelection  = __HAL_RCC_GET_USART3_SOURCE();
 766              		.loc 1 524 3 is_stmt 1 view .LVU229
ARM GAS  /tmp/ccVU8yv2.s 			page 24


 767              		.loc 1 524 42 is_stmt 0 view .LVU230
 768 0048 5D6D     		ldr	r5, [r3, #84]
 769 004a 3022     		movs	r2, #48
 770 004c 2A40     		ands	r2, r5
 771              		.loc 1 524 40 view .LVU231
 772 004e C260     		str	r2, [r0, #12]
 525:Drivers/STM32G0xx_HAL_Driver/Src/stm32g0xx_hal_rcc_ex.c **** #endif /* RCC_CCIPR_USART3SEL */
 526:Drivers/STM32G0xx_HAL_Driver/Src/stm32g0xx_hal_rcc_ex.c **** #if defined(RCC_CCIPR_LPUART1SEL)
 527:Drivers/STM32G0xx_HAL_Driver/Src/stm32g0xx_hal_rcc_ex.c ****   /* Get the LPUART1 clock source --------------------------------------------*/
 528:Drivers/STM32G0xx_HAL_Driver/Src/stm32g0xx_hal_rcc_ex.c ****   PeriphClkInit->Lpuart1ClockSelection = __HAL_RCC_GET_LPUART1_SOURCE();
 773              		.loc 1 528 3 is_stmt 1 view .LVU232
 774              		.loc 1 528 42 is_stmt 0 view .LVU233
 775 0050 5A6D     		ldr	r2, [r3, #84]
 776 0052 C025     		movs	r5, #192
 777 0054 2D01     		lsls	r5, r5, #4
 778 0056 2A40     		ands	r2, r5
 779              		.loc 1 528 40 view .LVU234
 780 0058 0261     		str	r2, [r0, #16]
 529:Drivers/STM32G0xx_HAL_Driver/Src/stm32g0xx_hal_rcc_ex.c **** #endif /* RCC_CCIPR_LPUART1SEL */
 530:Drivers/STM32G0xx_HAL_Driver/Src/stm32g0xx_hal_rcc_ex.c **** #if defined(RCC_CCIPR_LPUART2SEL)
 531:Drivers/STM32G0xx_HAL_Driver/Src/stm32g0xx_hal_rcc_ex.c ****   /* Get the LPUART2 clock source --------------------------------------------*/
 532:Drivers/STM32G0xx_HAL_Driver/Src/stm32g0xx_hal_rcc_ex.c ****   PeriphClkInit->Lpuart2ClockSelection = __HAL_RCC_GET_LPUART2_SOURCE();
 781              		.loc 1 532 3 is_stmt 1 view .LVU235
 782              		.loc 1 532 42 is_stmt 0 view .LVU236
 783 005a 5A6D     		ldr	r2, [r3, #84]
 784 005c C025     		movs	r5, #192
 785 005e AD00     		lsls	r5, r5, #2
 786 0060 2A40     		ands	r2, r5
 787              		.loc 1 532 40 view .LVU237
 788 0062 4261     		str	r2, [r0, #20]
 533:Drivers/STM32G0xx_HAL_Driver/Src/stm32g0xx_hal_rcc_ex.c **** #endif /* RCC_CCIPR_LPUART2SEL */
 534:Drivers/STM32G0xx_HAL_Driver/Src/stm32g0xx_hal_rcc_ex.c ****   /* Get the I2C1 clock source -----------------------------------------------*/
 535:Drivers/STM32G0xx_HAL_Driver/Src/stm32g0xx_hal_rcc_ex.c ****   PeriphClkInit->I2c1ClockSelection    = __HAL_RCC_GET_I2C1_SOURCE();
 789              		.loc 1 535 3 is_stmt 1 view .LVU238
 790              		.loc 1 535 42 is_stmt 0 view .LVU239
 791 0064 5A6D     		ldr	r2, [r3, #84]
 792 0066 C026     		movs	r6, #192
 793 0068 B601     		lsls	r6, r6, #6
 794 006a 3240     		ands	r2, r6
 795              		.loc 1 535 40 view .LVU240
 796 006c 8261     		str	r2, [r0, #24]
 536:Drivers/STM32G0xx_HAL_Driver/Src/stm32g0xx_hal_rcc_ex.c **** #if defined(RCC_CCIPR_I2C2SEL)
 537:Drivers/STM32G0xx_HAL_Driver/Src/stm32g0xx_hal_rcc_ex.c ****   /* Get the I2C2 clock source -----------------------------------------------*/
 538:Drivers/STM32G0xx_HAL_Driver/Src/stm32g0xx_hal_rcc_ex.c ****   PeriphClkInit->I2c2ClockSelection    = __HAL_RCC_GET_I2C2_SOURCE();
 797              		.loc 1 538 3 is_stmt 1 view .LVU241
 798              		.loc 1 538 42 is_stmt 0 view .LVU242
 799 006e 5A6D     		ldr	r2, [r3, #84]
 800 0070 C027     		movs	r7, #192
 801 0072 3F02     		lsls	r7, r7, #8
 802 0074 3A40     		ands	r2, r7
 803              		.loc 1 538 40 view .LVU243
 804 0076 C261     		str	r2, [r0, #28]
 539:Drivers/STM32G0xx_HAL_Driver/Src/stm32g0xx_hal_rcc_ex.c **** #endif /* RCC_CCIPR_I2C2SEL */
 540:Drivers/STM32G0xx_HAL_Driver/Src/stm32g0xx_hal_rcc_ex.c **** #if defined(RCC_CCIPR_LPTIM1SEL)
 541:Drivers/STM32G0xx_HAL_Driver/Src/stm32g0xx_hal_rcc_ex.c ****   /* Get the LPTIM1 clock source ---------------------------------------------*/
 542:Drivers/STM32G0xx_HAL_Driver/Src/stm32g0xx_hal_rcc_ex.c ****   PeriphClkInit->Lptim1ClockSelection  = __HAL_RCC_GET_LPTIM1_SOURCE();
 805              		.loc 1 542 3 is_stmt 1 view .LVU244
ARM GAS  /tmp/ccVU8yv2.s 			page 25


 806              		.loc 1 542 42 is_stmt 0 view .LVU245
 807 0078 5A6D     		ldr	r2, [r3, #84]
 808 007a C027     		movs	r7, #192
 809 007c 3F03     		lsls	r7, r7, #12
 810 007e 3A40     		ands	r2, r7
 811              		.loc 1 542 40 view .LVU246
 812 0080 8262     		str	r2, [r0, #40]
 543:Drivers/STM32G0xx_HAL_Driver/Src/stm32g0xx_hal_rcc_ex.c **** #endif /* RCC_CCIPR_LPTIM1SEL */
 544:Drivers/STM32G0xx_HAL_Driver/Src/stm32g0xx_hal_rcc_ex.c **** #if defined(RCC_CCIPR_LPTIM2SEL)
 545:Drivers/STM32G0xx_HAL_Driver/Src/stm32g0xx_hal_rcc_ex.c ****   /* Get the LPTIM2 clock source ---------------------------------------------*/
 546:Drivers/STM32G0xx_HAL_Driver/Src/stm32g0xx_hal_rcc_ex.c ****   PeriphClkInit->Lptim2ClockSelection  = __HAL_RCC_GET_LPTIM2_SOURCE();
 813              		.loc 1 546 3 is_stmt 1 view .LVU247
 814              		.loc 1 546 42 is_stmt 0 view .LVU248
 815 0082 5A6D     		ldr	r2, [r3, #84]
 816 0084 C027     		movs	r7, #192
 817 0086 BF03     		lsls	r7, r7, #14
 818 0088 3A40     		ands	r2, r7
 819              		.loc 1 546 40 view .LVU249
 820 008a C262     		str	r2, [r0, #44]
 547:Drivers/STM32G0xx_HAL_Driver/Src/stm32g0xx_hal_rcc_ex.c **** #endif /* RCC_CCIPR_LPTIM2SEL */
 548:Drivers/STM32G0xx_HAL_Driver/Src/stm32g0xx_hal_rcc_ex.c **** #if defined(RCC_CCIPR_TIM1SEL)
 549:Drivers/STM32G0xx_HAL_Driver/Src/stm32g0xx_hal_rcc_ex.c ****   /* Get the TIM1 clock source ---------------------------------------------*/
 550:Drivers/STM32G0xx_HAL_Driver/Src/stm32g0xx_hal_rcc_ex.c ****   PeriphClkInit->Tim1ClockSelection  = __HAL_RCC_GET_TIM1_SOURCE();
 821              		.loc 1 550 3 is_stmt 1 view .LVU250
 822              		.loc 1 550 40 is_stmt 0 view .LVU251
 823 008c 5A6D     		ldr	r2, [r3, #84]
 824 008e 8027     		movs	r7, #128
 825 0090 FF03     		lsls	r7, r7, #15
 826 0092 3A40     		ands	r2, r7
 827              		.loc 1 550 38 view .LVU252
 828 0094 8263     		str	r2, [r0, #56]
 551:Drivers/STM32G0xx_HAL_Driver/Src/stm32g0xx_hal_rcc_ex.c **** #endif /* RCC_CCIPR_TIM1SEL */
 552:Drivers/STM32G0xx_HAL_Driver/Src/stm32g0xx_hal_rcc_ex.c **** #if defined(RCC_CCIPR_TIM15SEL)
 553:Drivers/STM32G0xx_HAL_Driver/Src/stm32g0xx_hal_rcc_ex.c ****   /* Get the TIM15 clock source ---------------------------------------------*/
 554:Drivers/STM32G0xx_HAL_Driver/Src/stm32g0xx_hal_rcc_ex.c ****   PeriphClkInit->Tim15ClockSelection  = __HAL_RCC_GET_TIM15_SOURCE();
 829              		.loc 1 554 3 is_stmt 1 view .LVU253
 830              		.loc 1 554 41 is_stmt 0 view .LVU254
 831 0096 5A6D     		ldr	r2, [r3, #84]
 832 0098 8027     		movs	r7, #128
 833 009a 7F04     		lsls	r7, r7, #17
 834 009c 3A40     		ands	r2, r7
 835              		.loc 1 554 39 view .LVU255
 836 009e C263     		str	r2, [r0, #60]
 555:Drivers/STM32G0xx_HAL_Driver/Src/stm32g0xx_hal_rcc_ex.c **** #endif /* RCC_CCIPR_TIM15SEL */
 556:Drivers/STM32G0xx_HAL_Driver/Src/stm32g0xx_hal_rcc_ex.c ****   /* Get the RTC clock source ------------------------------------------------*/
 557:Drivers/STM32G0xx_HAL_Driver/Src/stm32g0xx_hal_rcc_ex.c ****   PeriphClkInit->RTCClockSelection     = __HAL_RCC_GET_RTC_SOURCE();
 837              		.loc 1 557 3 is_stmt 1 view .LVU256
 838              		.loc 1 557 42 is_stmt 0 view .LVU257
 839 00a0 DA6D     		ldr	r2, [r3, #92]
 840 00a2 2A40     		ands	r2, r5
 841              		.loc 1 557 40 view .LVU258
 842 00a4 0264     		str	r2, [r0, #64]
 558:Drivers/STM32G0xx_HAL_Driver/Src/stm32g0xx_hal_rcc_ex.c **** #if defined(RCC_CCIPR_RNGSEL)
 559:Drivers/STM32G0xx_HAL_Driver/Src/stm32g0xx_hal_rcc_ex.c ****   /* Get the RNG clock source ------------------------------------------------*/
 560:Drivers/STM32G0xx_HAL_Driver/Src/stm32g0xx_hal_rcc_ex.c ****   PeriphClkInit->RngClockSelection     = __HAL_RCC_GET_RNG_SOURCE();
 561:Drivers/STM32G0xx_HAL_Driver/Src/stm32g0xx_hal_rcc_ex.c **** #endif  /* RCC_CCIPR_RNGSEL */
 562:Drivers/STM32G0xx_HAL_Driver/Src/stm32g0xx_hal_rcc_ex.c ****   /* Get the ADC clock source -----------------------------------------------*/
ARM GAS  /tmp/ccVU8yv2.s 			page 26


 563:Drivers/STM32G0xx_HAL_Driver/Src/stm32g0xx_hal_rcc_ex.c ****   PeriphClkInit->AdcClockSelection     = __HAL_RCC_GET_ADC_SOURCE();
 843              		.loc 1 563 3 is_stmt 1 view .LVU259
 844              		.loc 1 563 42 is_stmt 0 view .LVU260
 845 00a6 5A6D     		ldr	r2, [r3, #84]
 846 00a8 920F     		lsrs	r2, r2, #30
 847 00aa 9207     		lsls	r2, r2, #30
 848              		.loc 1 563 40 view .LVU261
 849 00ac 0263     		str	r2, [r0, #48]
 564:Drivers/STM32G0xx_HAL_Driver/Src/stm32g0xx_hal_rcc_ex.c **** #if defined(RCC_CCIPR_CECSEL)
 565:Drivers/STM32G0xx_HAL_Driver/Src/stm32g0xx_hal_rcc_ex.c ****   /* Get the CEC clock source -----------------------------------------------*/
 566:Drivers/STM32G0xx_HAL_Driver/Src/stm32g0xx_hal_rcc_ex.c ****   PeriphClkInit->CecClockSelection     = __HAL_RCC_GET_CEC_SOURCE();
 850              		.loc 1 566 3 is_stmt 1 view .LVU262
 851              		.loc 1 566 42 is_stmt 0 view .LVU263
 852 00ae 5F6D     		ldr	r7, [r3, #84]
 853 00b0 4022     		movs	r2, #64
 854 00b2 3A40     		ands	r2, r7
 855              		.loc 1 566 40 view .LVU264
 856 00b4 4263     		str	r2, [r0, #52]
 567:Drivers/STM32G0xx_HAL_Driver/Src/stm32g0xx_hal_rcc_ex.c **** #endif  /* RCC_CCIPR_CECSEL */
 568:Drivers/STM32G0xx_HAL_Driver/Src/stm32g0xx_hal_rcc_ex.c **** #if defined(RCC_CCIPR2_USBSEL)
 569:Drivers/STM32G0xx_HAL_Driver/Src/stm32g0xx_hal_rcc_ex.c ****   /* Get the USB clock source -----------------------------------------------*/
 570:Drivers/STM32G0xx_HAL_Driver/Src/stm32g0xx_hal_rcc_ex.c ****   PeriphClkInit->UsbClockSelection     = __HAL_RCC_GET_USB_SOURCE();
 857              		.loc 1 570 3 is_stmt 1 view .LVU265
 858              		.loc 1 570 42 is_stmt 0 view .LVU266
 859 00b6 9A6D     		ldr	r2, [r3, #88]
 860 00b8 3240     		ands	r2, r6
 861              		.loc 1 570 40 view .LVU267
 862 00ba 4264     		str	r2, [r0, #68]
 571:Drivers/STM32G0xx_HAL_Driver/Src/stm32g0xx_hal_rcc_ex.c **** #endif  /* RCC_CCIPR2_USBSEL */
 572:Drivers/STM32G0xx_HAL_Driver/Src/stm32g0xx_hal_rcc_ex.c **** #if defined(RCC_CCIPR2_FDCANSEL)
 573:Drivers/STM32G0xx_HAL_Driver/Src/stm32g0xx_hal_rcc_ex.c ****   /* Get the FDCAN clock source -----------------------------------------------*/
 574:Drivers/STM32G0xx_HAL_Driver/Src/stm32g0xx_hal_rcc_ex.c ****   PeriphClkInit->FdcanClockSelection     = __HAL_RCC_GET_FDCAN_SOURCE();
 863              		.loc 1 574 3 is_stmt 1 view .LVU268
 864              		.loc 1 574 44 is_stmt 0 view .LVU269
 865 00bc 9A6D     		ldr	r2, [r3, #88]
 866 00be 2A40     		ands	r2, r5
 867              		.loc 1 574 42 view .LVU270
 868 00c0 8264     		str	r2, [r0, #72]
 575:Drivers/STM32G0xx_HAL_Driver/Src/stm32g0xx_hal_rcc_ex.c **** #endif  /* RCC_CCIPR2_FDCANSEL */
 576:Drivers/STM32G0xx_HAL_Driver/Src/stm32g0xx_hal_rcc_ex.c ****   /* Get the I2S1 clock source -----------------------------------------------*/
 577:Drivers/STM32G0xx_HAL_Driver/Src/stm32g0xx_hal_rcc_ex.c ****   PeriphClkInit->I2s1ClockSelection    = __HAL_RCC_GET_I2S1_SOURCE();
 869              		.loc 1 577 3 is_stmt 1 view .LVU271
 870              		.loc 1 577 42 is_stmt 0 view .LVU272
 871 00c2 9A6D     		ldr	r2, [r3, #88]
 872 00c4 1440     		ands	r4, r2
 873              		.loc 1 577 40 view .LVU273
 874 00c6 0462     		str	r4, [r0, #32]
 578:Drivers/STM32G0xx_HAL_Driver/Src/stm32g0xx_hal_rcc_ex.c **** #if defined(RCC_CCIPR2_I2S2SEL)
 579:Drivers/STM32G0xx_HAL_Driver/Src/stm32g0xx_hal_rcc_ex.c ****   /* Get the I2S2 clock source -----------------------------------------------*/
 580:Drivers/STM32G0xx_HAL_Driver/Src/stm32g0xx_hal_rcc_ex.c ****   PeriphClkInit->I2s2ClockSelection    = __HAL_RCC_GET_I2S2_SOURCE();
 875              		.loc 1 580 3 is_stmt 1 view .LVU274
 876              		.loc 1 580 42 is_stmt 0 view .LVU275
 877 00c8 9B6D     		ldr	r3, [r3, #88]
 878 00ca 1940     		ands	r1, r3
 879              		.loc 1 580 40 view .LVU276
 880 00cc 4162     		str	r1, [r0, #36]
 581:Drivers/STM32G0xx_HAL_Driver/Src/stm32g0xx_hal_rcc_ex.c **** #endif /* RCC_CCIPR2_I2S2SEL */
ARM GAS  /tmp/ccVU8yv2.s 			page 27


 582:Drivers/STM32G0xx_HAL_Driver/Src/stm32g0xx_hal_rcc_ex.c **** }
 881              		.loc 1 582 1 view .LVU277
 882              		@ sp needed
 883 00ce F0BD     		pop	{r4, r5, r6, r7, pc}
 884              	.L64:
 885              		.align	2
 886              	.L63:
 887 00d0 21480200 		.word	149537
 888 00d4 214E0200 		.word	151073
 889 00d8 314E0200 		.word	151089
 890 00dc 315E0200 		.word	155185
 891 00e0 315E0A00 		.word	679473
 892 00e4 315E2A00 		.word	2776625
 893 00e8 315E6A00 		.word	6970929
 894 00ec 335E6A00 		.word	6970931
 895 00f0 375E6A00 		.word	6970935
 896 00f4 775E6A00 		.word	6970999
 897 00f8 777E6A00 		.word	6979191
 898 00fc 777E6A01 		.word	23756407
 899 0100 777E6A03 		.word	57310839
 900 0104 00100240 		.word	1073876992
 901              		.cfi_endproc
 902              	.LFE359:
 904              		.global	__aeabi_uidiv
 905              		.section	.text.HAL_RCCEx_GetPeriphCLKFreq,"ax",%progbits
 906              		.align	1
 907              		.global	HAL_RCCEx_GetPeriphCLKFreq
 908              		.syntax unified
 909              		.code	16
 910              		.thumb_func
 911              		.fpu softvfp
 913              	HAL_RCCEx_GetPeriphCLKFreq:
 914              	.LVL29:
 915              	.LFB360:
 583:Drivers/STM32G0xx_HAL_Driver/Src/stm32g0xx_hal_rcc_ex.c **** 
 584:Drivers/STM32G0xx_HAL_Driver/Src/stm32g0xx_hal_rcc_ex.c **** /**
 585:Drivers/STM32G0xx_HAL_Driver/Src/stm32g0xx_hal_rcc_ex.c ****   * @brief  Return the peripheral clock frequency for peripherals with clock source from PLL
 586:Drivers/STM32G0xx_HAL_Driver/Src/stm32g0xx_hal_rcc_ex.c ****   * @note   Return 0 if peripheral clock identifier not managed by this API
 587:Drivers/STM32G0xx_HAL_Driver/Src/stm32g0xx_hal_rcc_ex.c ****   * @param  PeriphClk  Peripheral clock identifier
 588:Drivers/STM32G0xx_HAL_Driver/Src/stm32g0xx_hal_rcc_ex.c ****   *         This parameter can be one of the following values:
 589:Drivers/STM32G0xx_HAL_Driver/Src/stm32g0xx_hal_rcc_ex.c ****   *            @arg @ref RCC_PERIPHCLK_RTC     RTC peripheral clock
 590:Drivers/STM32G0xx_HAL_Driver/Src/stm32g0xx_hal_rcc_ex.c ****   *            @arg @ref RCC_PERIPHCLK_ADC     ADC peripheral clock
 591:Drivers/STM32G0xx_HAL_Driver/Src/stm32g0xx_hal_rcc_ex.c ****   *            @arg @ref RCC_PERIPHCLK_I2C1    I2C1 peripheral clock
 592:Drivers/STM32G0xx_HAL_Driver/Src/stm32g0xx_hal_rcc_ex.c ****   *            @arg @ref RCC_PERIPHCLK_I2C2    I2C2 peripheral clock (1)
 593:Drivers/STM32G0xx_HAL_Driver/Src/stm32g0xx_hal_rcc_ex.c ****   *            @arg @ref RCC_PERIPHCLK_I2S1    I2S1 peripheral clock
 594:Drivers/STM32G0xx_HAL_Driver/Src/stm32g0xx_hal_rcc_ex.c ****   *            @arg @ref RCC_PERIPHCLK_I2S2    I2S2 peripheral clock (1)
 595:Drivers/STM32G0xx_HAL_Driver/Src/stm32g0xx_hal_rcc_ex.c ****   *            @arg @ref RCC_PERIPHCLK_USART1  USART1 peripheral clock
 596:Drivers/STM32G0xx_HAL_Driver/Src/stm32g0xx_hal_rcc_ex.c ****   *            @arg @ref RCC_PERIPHCLK_USART2  USART2 peripheral clock (1)(2)
 597:Drivers/STM32G0xx_HAL_Driver/Src/stm32g0xx_hal_rcc_ex.c ****   *            @arg @ref RCC_PERIPHCLK_USART3  USART3 peripheral clock (1)
 598:Drivers/STM32G0xx_HAL_Driver/Src/stm32g0xx_hal_rcc_ex.c ****   *            @arg @ref RCC_PERIPHCLK_RNG     RNG peripheral clock    (1)
 599:Drivers/STM32G0xx_HAL_Driver/Src/stm32g0xx_hal_rcc_ex.c ****   *            @arg @ref RCC_PERIPHCLK_TIM15   TIM15 peripheral clock  (1)(2)
 600:Drivers/STM32G0xx_HAL_Driver/Src/stm32g0xx_hal_rcc_ex.c ****   *            @arg @ref RCC_PERIPHCLK_TIM1    TIM1 peripheral clock   (1)(2)
 601:Drivers/STM32G0xx_HAL_Driver/Src/stm32g0xx_hal_rcc_ex.c ****   *            @arg @ref RCC_PERIPHCLK_LPTIM1  LPTIM1 peripheral clock (1)
 602:Drivers/STM32G0xx_HAL_Driver/Src/stm32g0xx_hal_rcc_ex.c ****   *            @arg @ref RCC_PERIPHCLK_LPTIM2  LPTIM2 peripheral clock (1)
 603:Drivers/STM32G0xx_HAL_Driver/Src/stm32g0xx_hal_rcc_ex.c ****   *            @arg @ref RCC_PERIPHCLK_LPUART1 LPUART1 peripheral clock(1)
 604:Drivers/STM32G0xx_HAL_Driver/Src/stm32g0xx_hal_rcc_ex.c ****   *            @arg @ref RCC_PERIPHCLK_LPUART2 LPUART2 peripheral clock(1)
 605:Drivers/STM32G0xx_HAL_Driver/Src/stm32g0xx_hal_rcc_ex.c ****   *            @arg @ref RCC_PERIPHCLK_CEC     CEC peripheral clock    (1)
ARM GAS  /tmp/ccVU8yv2.s 			page 28


 606:Drivers/STM32G0xx_HAL_Driver/Src/stm32g0xx_hal_rcc_ex.c ****   *            @arg @ref RCC_PERIPHCLK_FDCAN    FDCAN peripheral clock (1)
 607:Drivers/STM32G0xx_HAL_Driver/Src/stm32g0xx_hal_rcc_ex.c ****   *            @arg @ref RCC_PERIPHCLK_USB      USB peripheral clock   (1)
 608:Drivers/STM32G0xx_HAL_Driver/Src/stm32g0xx_hal_rcc_ex.c ****   * @note   (1) Peripheral not available on all devices
 609:Drivers/STM32G0xx_HAL_Driver/Src/stm32g0xx_hal_rcc_ex.c ****   * @note   (2) Peripheral Clock configuration not available on all devices
 610:Drivers/STM32G0xx_HAL_Driver/Src/stm32g0xx_hal_rcc_ex.c ****   * @retval Frequency in Hz
 611:Drivers/STM32G0xx_HAL_Driver/Src/stm32g0xx_hal_rcc_ex.c ****   */
 612:Drivers/STM32G0xx_HAL_Driver/Src/stm32g0xx_hal_rcc_ex.c **** uint32_t HAL_RCCEx_GetPeriphCLKFreq(uint32_t PeriphClk)
 613:Drivers/STM32G0xx_HAL_Driver/Src/stm32g0xx_hal_rcc_ex.c **** {
 916              		.loc 1 613 1 is_stmt 1 view -0
 917              		.cfi_startproc
 918              		@ args = 0, pretend = 0, frame = 0
 919              		@ frame_needed = 0, uses_anonymous_args = 0
 920              		.loc 1 613 1 is_stmt 0 view .LVU279
 921 0000 10B5     		push	{r4, lr}
 922              	.LCFI3:
 923              		.cfi_def_cfa_offset 8
 924              		.cfi_offset 4, -8
 925              		.cfi_offset 14, -4
 926 0002 0400     		movs	r4, r0
 614:Drivers/STM32G0xx_HAL_Driver/Src/stm32g0xx_hal_rcc_ex.c ****   uint32_t frequency = 0U;
 927              		.loc 1 614 3 is_stmt 1 view .LVU280
 928              	.LVL30:
 615:Drivers/STM32G0xx_HAL_Driver/Src/stm32g0xx_hal_rcc_ex.c ****   uint32_t srcclk;
 929              		.loc 1 615 3 view .LVU281
 616:Drivers/STM32G0xx_HAL_Driver/Src/stm32g0xx_hal_rcc_ex.c ****   uint32_t pllvco;
 930              		.loc 1 616 3 view .LVU282
 617:Drivers/STM32G0xx_HAL_Driver/Src/stm32g0xx_hal_rcc_ex.c ****   uint32_t plln;
 931              		.loc 1 617 3 view .LVU283
 618:Drivers/STM32G0xx_HAL_Driver/Src/stm32g0xx_hal_rcc_ex.c **** #if defined(RCC_CCIPR_RNGSEL)
 619:Drivers/STM32G0xx_HAL_Driver/Src/stm32g0xx_hal_rcc_ex.c ****   uint32_t rngclk;
 620:Drivers/STM32G0xx_HAL_Driver/Src/stm32g0xx_hal_rcc_ex.c ****   uint32_t rngdiv;
 621:Drivers/STM32G0xx_HAL_Driver/Src/stm32g0xx_hal_rcc_ex.c **** #endif /* RCC_CCIPR_RNGSEL */
 622:Drivers/STM32G0xx_HAL_Driver/Src/stm32g0xx_hal_rcc_ex.c ****   /* Check the parameters */
 623:Drivers/STM32G0xx_HAL_Driver/Src/stm32g0xx_hal_rcc_ex.c ****   assert_param(IS_RCC_PERIPHCLOCK(PeriphClk));
 932              		.loc 1 623 3 view .LVU284
 624:Drivers/STM32G0xx_HAL_Driver/Src/stm32g0xx_hal_rcc_ex.c **** 
 625:Drivers/STM32G0xx_HAL_Driver/Src/stm32g0xx_hal_rcc_ex.c ****   if (PeriphClk == RCC_PERIPHCLK_RTC)
 933              		.loc 1 625 3 view .LVU285
 934              		.loc 1 625 6 is_stmt 0 view .LVU286
 935 0004 8023     		movs	r3, #128
 936 0006 9B02     		lsls	r3, r3, #10
 937 0008 9842     		cmp	r0, r3
 938 000a 28D0     		beq	.L183
 626:Drivers/STM32G0xx_HAL_Driver/Src/stm32g0xx_hal_rcc_ex.c ****   {
 627:Drivers/STM32G0xx_HAL_Driver/Src/stm32g0xx_hal_rcc_ex.c ****     /* Get the current RTC source */
 628:Drivers/STM32G0xx_HAL_Driver/Src/stm32g0xx_hal_rcc_ex.c ****     srcclk = __HAL_RCC_GET_RTC_SOURCE();
 629:Drivers/STM32G0xx_HAL_Driver/Src/stm32g0xx_hal_rcc_ex.c **** 
 630:Drivers/STM32G0xx_HAL_Driver/Src/stm32g0xx_hal_rcc_ex.c ****     /* Check if LSE is ready and if RTC clock selection is LSE */
 631:Drivers/STM32G0xx_HAL_Driver/Src/stm32g0xx_hal_rcc_ex.c ****     if ((HAL_IS_BIT_SET(RCC->BDCR, RCC_BDCR_LSERDY)) && (srcclk == RCC_RTCCLKSOURCE_LSE))
 632:Drivers/STM32G0xx_HAL_Driver/Src/stm32g0xx_hal_rcc_ex.c ****     {
 633:Drivers/STM32G0xx_HAL_Driver/Src/stm32g0xx_hal_rcc_ex.c ****       frequency = LSE_VALUE;
 634:Drivers/STM32G0xx_HAL_Driver/Src/stm32g0xx_hal_rcc_ex.c ****     }
 635:Drivers/STM32G0xx_HAL_Driver/Src/stm32g0xx_hal_rcc_ex.c ****     /* Check if LSI is ready and if RTC clock selection is LSI */
 636:Drivers/STM32G0xx_HAL_Driver/Src/stm32g0xx_hal_rcc_ex.c ****     else if ((HAL_IS_BIT_SET(RCC->CSR, RCC_CSR_LSIRDY)) && (srcclk == RCC_RTCCLKSOURCE_LSI))
 637:Drivers/STM32G0xx_HAL_Driver/Src/stm32g0xx_hal_rcc_ex.c ****     {
 638:Drivers/STM32G0xx_HAL_Driver/Src/stm32g0xx_hal_rcc_ex.c ****       frequency = LSI_VALUE;
 639:Drivers/STM32G0xx_HAL_Driver/Src/stm32g0xx_hal_rcc_ex.c ****     }
ARM GAS  /tmp/ccVU8yv2.s 			page 29


 640:Drivers/STM32G0xx_HAL_Driver/Src/stm32g0xx_hal_rcc_ex.c ****     /* Check if HSE is ready  and if RTC clock selection is HSI_DIV32*/
 641:Drivers/STM32G0xx_HAL_Driver/Src/stm32g0xx_hal_rcc_ex.c ****     else if ((HAL_IS_BIT_SET(RCC->CR, RCC_CR_HSERDY)) && (srcclk == RCC_RTCCLKSOURCE_HSE_DIV32))
 642:Drivers/STM32G0xx_HAL_Driver/Src/stm32g0xx_hal_rcc_ex.c ****     {
 643:Drivers/STM32G0xx_HAL_Driver/Src/stm32g0xx_hal_rcc_ex.c ****       frequency = HSE_VALUE / 32U;
 644:Drivers/STM32G0xx_HAL_Driver/Src/stm32g0xx_hal_rcc_ex.c ****     }
 645:Drivers/STM32G0xx_HAL_Driver/Src/stm32g0xx_hal_rcc_ex.c ****     /* Clock not enabled for RTC*/
 646:Drivers/STM32G0xx_HAL_Driver/Src/stm32g0xx_hal_rcc_ex.c ****     else
 647:Drivers/STM32G0xx_HAL_Driver/Src/stm32g0xx_hal_rcc_ex.c ****     {
 648:Drivers/STM32G0xx_HAL_Driver/Src/stm32g0xx_hal_rcc_ex.c ****       /* Nothing to do as frequency already initialized to 0U */
 649:Drivers/STM32G0xx_HAL_Driver/Src/stm32g0xx_hal_rcc_ex.c ****     }
 650:Drivers/STM32G0xx_HAL_Driver/Src/stm32g0xx_hal_rcc_ex.c ****   }
 651:Drivers/STM32G0xx_HAL_Driver/Src/stm32g0xx_hal_rcc_ex.c ****   else
 652:Drivers/STM32G0xx_HAL_Driver/Src/stm32g0xx_hal_rcc_ex.c ****   {
 653:Drivers/STM32G0xx_HAL_Driver/Src/stm32g0xx_hal_rcc_ex.c ****     /* Other external peripheral clock source than RTC */
 654:Drivers/STM32G0xx_HAL_Driver/Src/stm32g0xx_hal_rcc_ex.c **** 
 655:Drivers/STM32G0xx_HAL_Driver/Src/stm32g0xx_hal_rcc_ex.c ****     /* Compute PLL clock input */
 656:Drivers/STM32G0xx_HAL_Driver/Src/stm32g0xx_hal_rcc_ex.c ****     if (__HAL_RCC_GET_PLL_OSCSOURCE() == RCC_PLLSOURCE_HSI)  /* HSI ? */
 939              		.loc 1 656 5 is_stmt 1 view .LVU287
 940              		.loc 1 656 9 is_stmt 0 view .LVU288
 941 000c BF4B     		ldr	r3, .L219
 942 000e DA68     		ldr	r2, [r3, #12]
 943 0010 0323     		movs	r3, #3
 944 0012 1340     		ands	r3, r2
 945              		.loc 1 656 8 view .LVU289
 946 0014 022B     		cmp	r3, #2
 947 0016 4AD0     		beq	.L135
 657:Drivers/STM32G0xx_HAL_Driver/Src/stm32g0xx_hal_rcc_ex.c ****     {
 658:Drivers/STM32G0xx_HAL_Driver/Src/stm32g0xx_hal_rcc_ex.c ****       pllvco = HSI_VALUE;
 659:Drivers/STM32G0xx_HAL_Driver/Src/stm32g0xx_hal_rcc_ex.c ****     }
 660:Drivers/STM32G0xx_HAL_Driver/Src/stm32g0xx_hal_rcc_ex.c ****     else if (__HAL_RCC_GET_PLL_OSCSOURCE() == RCC_PLLSOURCE_HSE)  /* HSE ? */
 948              		.loc 1 660 10 is_stmt 1 view .LVU290
 949              		.loc 1 660 14 is_stmt 0 view .LVU291
 950 0018 BC4B     		ldr	r3, .L219
 951 001a DA68     		ldr	r2, [r3, #12]
 952 001c 0323     		movs	r3, #3
 953 001e 1340     		ands	r3, r2
 954              		.loc 1 660 13 view .LVU292
 955 0020 032B     		cmp	r3, #3
 956 0022 42D0     		beq	.L184
 661:Drivers/STM32G0xx_HAL_Driver/Src/stm32g0xx_hal_rcc_ex.c ****     {
 662:Drivers/STM32G0xx_HAL_Driver/Src/stm32g0xx_hal_rcc_ex.c ****       pllvco = HSE_VALUE;
 663:Drivers/STM32G0xx_HAL_Driver/Src/stm32g0xx_hal_rcc_ex.c ****     }
 664:Drivers/STM32G0xx_HAL_Driver/Src/stm32g0xx_hal_rcc_ex.c ****     else /* No source */
 665:Drivers/STM32G0xx_HAL_Driver/Src/stm32g0xx_hal_rcc_ex.c ****     {
 666:Drivers/STM32G0xx_HAL_Driver/Src/stm32g0xx_hal_rcc_ex.c ****       pllvco = 0U;
 957              		.loc 1 666 14 view .LVU293
 958 0024 0020     		movs	r0, #0
 959              	.LVL31:
 960              	.L70:
 667:Drivers/STM32G0xx_HAL_Driver/Src/stm32g0xx_hal_rcc_ex.c ****     }
 668:Drivers/STM32G0xx_HAL_Driver/Src/stm32g0xx_hal_rcc_ex.c **** 
 669:Drivers/STM32G0xx_HAL_Driver/Src/stm32g0xx_hal_rcc_ex.c ****     /* f(PLL Source) / PLLM */
 670:Drivers/STM32G0xx_HAL_Driver/Src/stm32g0xx_hal_rcc_ex.c ****     pllvco = (pllvco / ((READ_BIT(RCC->PLLCFGR, RCC_PLLCFGR_PLLM) >> RCC_PLLCFGR_PLLM_Pos) + 1U));
 961              		.loc 1 670 5 is_stmt 1 view .LVU294
 962              		.loc 1 670 26 is_stmt 0 view .LVU295
 963 0026 B94B     		ldr	r3, .L219
 964 0028 DB68     		ldr	r3, [r3, #12]
ARM GAS  /tmp/ccVU8yv2.s 			page 30


 965              		.loc 1 670 67 view .LVU296
 966 002a 1B09     		lsrs	r3, r3, #4
 967 002c 0721     		movs	r1, #7
 968 002e 1940     		ands	r1, r3
 969              		.loc 1 670 92 view .LVU297
 970 0030 0131     		adds	r1, r1, #1
 971              		.loc 1 670 12 view .LVU298
 972 0032 FFF7FEFF 		bl	__aeabi_uidiv
 973              	.LVL32:
 974              		.loc 1 670 12 view .LVU299
 975 0036 0300     		movs	r3, r0
 976              	.LVL33:
 671:Drivers/STM32G0xx_HAL_Driver/Src/stm32g0xx_hal_rcc_ex.c **** 
 672:Drivers/STM32G0xx_HAL_Driver/Src/stm32g0xx_hal_rcc_ex.c ****     switch (PeriphClk)
 977              		.loc 1 672 5 is_stmt 1 view .LVU300
 978 0038 8022     		movs	r2, #128
 979 003a 1201     		lsls	r2, r2, #4
 980 003c 9442     		cmp	r4, r2
 981 003e 00D1     		bne	.LCB915
 982 0040 36E2     		b	.L71	@long jump
 983              	.LCB915:
 984 0042 00D9     		bls	.LCB917
 985 0044 8AE0     		b	.L72	@long jump
 986              	.LCB917:
 987 0046 202C     		cmp	r4, #32
 988 0048 33D8     		bhi	.L73
 989 004a 002C     		cmp	r4, #0
 990 004c 00D1     		bne	.LCB921
 991 004e 26E3     		b	.L137	@long jump
 992              	.LCB921:
 993 0050 202C     		cmp	r4, #32
 994 0052 00D9     		bls	.LCB923
 995 0054 25E3     		b	.L138	@long jump
 996              	.LCB923:
 997 0056 A400     		lsls	r4, r4, #2
 998              	.LVL34:
 999              		.loc 1 672 5 is_stmt 0 view .LVU301
 1000 0058 AD4B     		ldr	r3, .L219+4
 1001 005a 1B59     		ldr	r3, [r3, r4]
 1002 005c 9F46     		mov	pc, r3
 1003              		.section	.rodata.HAL_RCCEx_GetPeriphCLKFreq,"a",%progbits
 1004              		.align	2
 1005              	.L75:
 1006 0000 A2060000 		.word	.L138
 1007 0004 80020000 		.word	.L79
 1008 0008 C6020000 		.word	.L78
 1009 000c A2060000 		.word	.L138
 1010 0010 1C030000 		.word	.L77
 1011 0014 A2060000 		.word	.L138
 1012 0018 A2060000 		.word	.L138
 1013 001c A2060000 		.word	.L138
 1014 0020 A2060000 		.word	.L138
 1015 0024 A2060000 		.word	.L138
 1016 0028 A2060000 		.word	.L138
 1017 002c A2060000 		.word	.L138
 1018 0030 A2060000 		.word	.L138
 1019 0034 A2060000 		.word	.L138
ARM GAS  /tmp/ccVU8yv2.s 			page 31


 1020 0038 A2060000 		.word	.L138
 1021 003c A2060000 		.word	.L138
 1022 0040 62030000 		.word	.L76
 1023 0044 A2060000 		.word	.L138
 1024 0048 A2060000 		.word	.L138
 1025 004c A2060000 		.word	.L138
 1026 0050 A2060000 		.word	.L138
 1027 0054 A2060000 		.word	.L138
 1028 0058 A2060000 		.word	.L138
 1029 005c A2060000 		.word	.L138
 1030 0060 A2060000 		.word	.L138
 1031 0064 A2060000 		.word	.L138
 1032 0068 A2060000 		.word	.L138
 1033 006c A2060000 		.word	.L138
 1034 0070 A2060000 		.word	.L138
 1035 0074 A2060000 		.word	.L138
 1036 0078 A2060000 		.word	.L138
 1037 007c A2060000 		.word	.L138
 1038 0080 60040000 		.word	.L74
 1039              		.section	.text.HAL_RCCEx_GetPeriphCLKFreq
 1040              	.LVL35:
 1041              	.L183:
 628:Drivers/STM32G0xx_HAL_Driver/Src/stm32g0xx_hal_rcc_ex.c **** 
 1042              		.loc 1 628 5 is_stmt 1 view .LVU302
 628:Drivers/STM32G0xx_HAL_Driver/Src/stm32g0xx_hal_rcc_ex.c **** 
 1043              		.loc 1 628 14 is_stmt 0 view .LVU303
 1044 005e AB4A     		ldr	r2, .L219
 1045 0060 D36D     		ldr	r3, [r2, #92]
 628:Drivers/STM32G0xx_HAL_Driver/Src/stm32g0xx_hal_rcc_ex.c **** 
 1046              		.loc 1 628 12 view .LVU304
 1047 0062 C021     		movs	r1, #192
 1048 0064 8900     		lsls	r1, r1, #2
 1049 0066 0B40     		ands	r3, r1
 1050              	.LVL36:
 631:Drivers/STM32G0xx_HAL_Driver/Src/stm32g0xx_hal_rcc_ex.c ****     {
 1051              		.loc 1 631 5 is_stmt 1 view .LVU305
 631:Drivers/STM32G0xx_HAL_Driver/Src/stm32g0xx_hal_rcc_ex.c ****     {
 1052              		.loc 1 631 10 is_stmt 0 view .LVU306
 1053 0068 D26D     		ldr	r2, [r2, #92]
 631:Drivers/STM32G0xx_HAL_Driver/Src/stm32g0xx_hal_rcc_ex.c ****     {
 1054              		.loc 1 631 8 view .LVU307
 1055 006a 9207     		lsls	r2, r2, #30
 1056 006c 04D5     		bpl	.L67
 631:Drivers/STM32G0xx_HAL_Driver/Src/stm32g0xx_hal_rcc_ex.c ****     {
 1057              		.loc 1 631 54 discriminator 1 view .LVU308
 1058 006e 8022     		movs	r2, #128
 1059 0070 5200     		lsls	r2, r2, #1
 1060 0072 9342     		cmp	r3, r2
 1061 0074 00D1     		bne	.LCB954
 1062 0076 0AE3     		b	.L132	@long jump
 1063              	.LCB954:
 1064              	.L67:
 636:Drivers/STM32G0xx_HAL_Driver/Src/stm32g0xx_hal_rcc_ex.c ****     {
 1065              		.loc 1 636 10 is_stmt 1 view .LVU309
 636:Drivers/STM32G0xx_HAL_Driver/Src/stm32g0xx_hal_rcc_ex.c ****     {
 1066              		.loc 1 636 15 is_stmt 0 view .LVU310
 1067 0078 A44A     		ldr	r2, .L219
ARM GAS  /tmp/ccVU8yv2.s 			page 32


 1068 007a 126E     		ldr	r2, [r2, #96]
 636:Drivers/STM32G0xx_HAL_Driver/Src/stm32g0xx_hal_rcc_ex.c ****     {
 1069              		.loc 1 636 13 view .LVU311
 1070 007c 9207     		lsls	r2, r2, #30
 1071 007e 04D5     		bpl	.L69
 636:Drivers/STM32G0xx_HAL_Driver/Src/stm32g0xx_hal_rcc_ex.c ****     {
 1072              		.loc 1 636 57 discriminator 1 view .LVU312
 1073 0080 8022     		movs	r2, #128
 1074 0082 9200     		lsls	r2, r2, #2
 1075 0084 9342     		cmp	r3, r2
 1076 0086 00D1     		bne	.LCB966
 1077 0088 04E3     		b	.L133	@long jump
 1078              	.LCB966:
 1079              	.L69:
 641:Drivers/STM32G0xx_HAL_Driver/Src/stm32g0xx_hal_rcc_ex.c ****     {
 1080              		.loc 1 641 10 is_stmt 1 view .LVU313
 641:Drivers/STM32G0xx_HAL_Driver/Src/stm32g0xx_hal_rcc_ex.c ****     {
 1081              		.loc 1 641 15 is_stmt 0 view .LVU314
 1082 008a A04A     		ldr	r2, .L219
 1083 008c 1168     		ldr	r1, [r2]
 1084 008e 8022     		movs	r2, #128
 1085 0090 9202     		lsls	r2, r2, #10
 1086 0092 0800     		movs	r0, r1
 1087              	.LVL37:
 641:Drivers/STM32G0xx_HAL_Driver/Src/stm32g0xx_hal_rcc_ex.c ****     {
 1088              		.loc 1 641 15 view .LVU315
 1089 0094 1040     		ands	r0, r2
 641:Drivers/STM32G0xx_HAL_Driver/Src/stm32g0xx_hal_rcc_ex.c ****     {
 1090              		.loc 1 641 13 view .LVU316
 1091 0096 1142     		tst	r1, r2
 1092 0098 00D1     		bne	.LCB977
 1093 009a 03E3     		b	.L65	@long jump
 1094              	.LCB977:
 641:Drivers/STM32G0xx_HAL_Driver/Src/stm32g0xx_hal_rcc_ex.c ****     {
 1095              		.loc 1 641 55 discriminator 1 view .LVU317
 1096 009c C022     		movs	r2, #192
 1097 009e 9200     		lsls	r2, r2, #2
 1098 00a0 9342     		cmp	r3, r2
 1099 00a2 00D1     		bne	.LCB981
 1100 00a4 F9E2     		b	.L134	@long jump
 1101              	.LCB981:
 614:Drivers/STM32G0xx_HAL_Driver/Src/stm32g0xx_hal_rcc_ex.c ****   uint32_t srcclk;
 1102              		.loc 1 614 12 view .LVU318
 1103 00a6 0020     		movs	r0, #0
 1104 00a8 FCE2     		b	.L65
 1105              	.LVL38:
 1106              	.L184:
 662:Drivers/STM32G0xx_HAL_Driver/Src/stm32g0xx_hal_rcc_ex.c ****     }
 1107              		.loc 1 662 14 view .LVU319
 1108 00aa 9A48     		ldr	r0, .L219+8
 1109              	.LVL39:
 662:Drivers/STM32G0xx_HAL_Driver/Src/stm32g0xx_hal_rcc_ex.c ****     }
 1110              		.loc 1 662 14 view .LVU320
 1111 00ac BBE7     		b	.L70
 1112              	.LVL40:
 1113              	.L135:
 658:Drivers/STM32G0xx_HAL_Driver/Src/stm32g0xx_hal_rcc_ex.c ****     }
ARM GAS  /tmp/ccVU8yv2.s 			page 33


 1114              		.loc 1 658 14 view .LVU321
 1115 00ae 9A48     		ldr	r0, .L219+12
 1116              	.LVL41:
 658:Drivers/STM32G0xx_HAL_Driver/Src/stm32g0xx_hal_rcc_ex.c ****     }
 1117              		.loc 1 658 14 view .LVU322
 1118 00b0 B9E7     		b	.L70
 1119              	.LVL42:
 1120              	.L73:
 1121              		.loc 1 672 5 view .LVU323
 1122 00b2 8023     		movs	r3, #128
 1123 00b4 9B00     		lsls	r3, r3, #2
 1124 00b6 9C42     		cmp	r4, r3
 1125 00b8 00D1     		bne	.LCB1006
 1126 00ba 41E2     		b	.L80	@long jump
 1127              	.LCB1006:
 1128 00bc 8023     		movs	r3, #128
 1129 00be DB00     		lsls	r3, r3, #3
 1130 00c0 9C42     		cmp	r4, r3
 1131 00c2 29D1     		bne	.L185
 673:Drivers/STM32G0xx_HAL_Driver/Src/stm32g0xx_hal_rcc_ex.c ****     {
 674:Drivers/STM32G0xx_HAL_Driver/Src/stm32g0xx_hal_rcc_ex.c **** #if defined(RCC_CCIPR_RNGSEL)
 675:Drivers/STM32G0xx_HAL_Driver/Src/stm32g0xx_hal_rcc_ex.c ****       case RCC_PERIPHCLK_RNG:
 676:Drivers/STM32G0xx_HAL_Driver/Src/stm32g0xx_hal_rcc_ex.c **** 
 677:Drivers/STM32G0xx_HAL_Driver/Src/stm32g0xx_hal_rcc_ex.c ****         srcclk = READ_BIT(RCC->CCIPR, RCC_CCIPR_RNGSEL);
 678:Drivers/STM32G0xx_HAL_Driver/Src/stm32g0xx_hal_rcc_ex.c ****         if (srcclk == RCC_RNGCLKSOURCE_HSI_DIV8)  /* HSI_DIV8 ? */
 679:Drivers/STM32G0xx_HAL_Driver/Src/stm32g0xx_hal_rcc_ex.c ****         {
 680:Drivers/STM32G0xx_HAL_Driver/Src/stm32g0xx_hal_rcc_ex.c ****           rngclk = HSI_VALUE / 8U;
 681:Drivers/STM32G0xx_HAL_Driver/Src/stm32g0xx_hal_rcc_ex.c ****         }
 682:Drivers/STM32G0xx_HAL_Driver/Src/stm32g0xx_hal_rcc_ex.c ****         else if (srcclk == RCC_RNGCLKSOURCE_PLL) /* PLL ? */
 683:Drivers/STM32G0xx_HAL_Driver/Src/stm32g0xx_hal_rcc_ex.c ****         {
 684:Drivers/STM32G0xx_HAL_Driver/Src/stm32g0xx_hal_rcc_ex.c ****           /* f(PLLQ) = f(VCO input) * PLLN / PLLQ */
 685:Drivers/STM32G0xx_HAL_Driver/Src/stm32g0xx_hal_rcc_ex.c ****           plln = READ_BIT(RCC->PLLCFGR, RCC_PLLCFGR_PLLN) >> RCC_PLLCFGR_PLLN_Pos;
 686:Drivers/STM32G0xx_HAL_Driver/Src/stm32g0xx_hal_rcc_ex.c ****           rngclk = (pllvco * plln) / ((READ_BIT(RCC->PLLCFGR, RCC_PLLCFGR_PLLQ) >> RCC_PLLCFGR_PLLQ
 687:Drivers/STM32G0xx_HAL_Driver/Src/stm32g0xx_hal_rcc_ex.c ****         }
 688:Drivers/STM32G0xx_HAL_Driver/Src/stm32g0xx_hal_rcc_ex.c ****         else if (srcclk == RCC_RNGCLKSOURCE_SYSCLK) /* SYSCLK ? */
 689:Drivers/STM32G0xx_HAL_Driver/Src/stm32g0xx_hal_rcc_ex.c ****         {
 690:Drivers/STM32G0xx_HAL_Driver/Src/stm32g0xx_hal_rcc_ex.c ****           rngclk = HAL_RCC_GetSysClockFreq();
 691:Drivers/STM32G0xx_HAL_Driver/Src/stm32g0xx_hal_rcc_ex.c ****         }
 692:Drivers/STM32G0xx_HAL_Driver/Src/stm32g0xx_hal_rcc_ex.c ****         else /* No clock source */
 693:Drivers/STM32G0xx_HAL_Driver/Src/stm32g0xx_hal_rcc_ex.c ****         {
 694:Drivers/STM32G0xx_HAL_Driver/Src/stm32g0xx_hal_rcc_ex.c ****           rngclk = 0U;
 695:Drivers/STM32G0xx_HAL_Driver/Src/stm32g0xx_hal_rcc_ex.c ****         }
 696:Drivers/STM32G0xx_HAL_Driver/Src/stm32g0xx_hal_rcc_ex.c **** 
 697:Drivers/STM32G0xx_HAL_Driver/Src/stm32g0xx_hal_rcc_ex.c ****         rngdiv = (1UL << ((READ_BIT(RCC->CCIPR, RCC_CCIPR_RNGDIV)) >> RCC_CCIPR_RNGDIV_Pos));
 698:Drivers/STM32G0xx_HAL_Driver/Src/stm32g0xx_hal_rcc_ex.c ****         frequency = (rngclk / rngdiv);
 699:Drivers/STM32G0xx_HAL_Driver/Src/stm32g0xx_hal_rcc_ex.c **** 
 700:Drivers/STM32G0xx_HAL_Driver/Src/stm32g0xx_hal_rcc_ex.c ****         break;
 701:Drivers/STM32G0xx_HAL_Driver/Src/stm32g0xx_hal_rcc_ex.c **** #endif  /* RCC_CCIPR_RNGSEL */
 702:Drivers/STM32G0xx_HAL_Driver/Src/stm32g0xx_hal_rcc_ex.c ****       case RCC_PERIPHCLK_USART1:
 703:Drivers/STM32G0xx_HAL_Driver/Src/stm32g0xx_hal_rcc_ex.c ****         /* Get the current USART1 source */
 704:Drivers/STM32G0xx_HAL_Driver/Src/stm32g0xx_hal_rcc_ex.c ****         srcclk = __HAL_RCC_GET_USART1_SOURCE();
 705:Drivers/STM32G0xx_HAL_Driver/Src/stm32g0xx_hal_rcc_ex.c **** 
 706:Drivers/STM32G0xx_HAL_Driver/Src/stm32g0xx_hal_rcc_ex.c ****         if (srcclk == RCC_USART1CLKSOURCE_PCLK1)            /* PCLK1 ? */
 707:Drivers/STM32G0xx_HAL_Driver/Src/stm32g0xx_hal_rcc_ex.c ****         {
 708:Drivers/STM32G0xx_HAL_Driver/Src/stm32g0xx_hal_rcc_ex.c ****           frequency = HAL_RCC_GetPCLK1Freq();
 709:Drivers/STM32G0xx_HAL_Driver/Src/stm32g0xx_hal_rcc_ex.c ****         }
 710:Drivers/STM32G0xx_HAL_Driver/Src/stm32g0xx_hal_rcc_ex.c ****         else if (srcclk == RCC_USART1CLKSOURCE_SYSCLK)     /* SYSCLK ? */
ARM GAS  /tmp/ccVU8yv2.s 			page 34


 711:Drivers/STM32G0xx_HAL_Driver/Src/stm32g0xx_hal_rcc_ex.c ****         {
 712:Drivers/STM32G0xx_HAL_Driver/Src/stm32g0xx_hal_rcc_ex.c ****           frequency = HAL_RCC_GetSysClockFreq();
 713:Drivers/STM32G0xx_HAL_Driver/Src/stm32g0xx_hal_rcc_ex.c ****         }
 714:Drivers/STM32G0xx_HAL_Driver/Src/stm32g0xx_hal_rcc_ex.c ****         else if ((HAL_IS_BIT_SET(RCC->CR, RCC_CR_HSIRDY)) && (srcclk == RCC_USART1CLKSOURCE_HSI))
 715:Drivers/STM32G0xx_HAL_Driver/Src/stm32g0xx_hal_rcc_ex.c ****         {
 716:Drivers/STM32G0xx_HAL_Driver/Src/stm32g0xx_hal_rcc_ex.c ****           frequency = HSI_VALUE;
 717:Drivers/STM32G0xx_HAL_Driver/Src/stm32g0xx_hal_rcc_ex.c ****         }
 718:Drivers/STM32G0xx_HAL_Driver/Src/stm32g0xx_hal_rcc_ex.c ****         else if ((HAL_IS_BIT_SET(RCC->BDCR, RCC_BDCR_LSERDY)) && (srcclk == RCC_USART1CLKSOURCE_LSE
 719:Drivers/STM32G0xx_HAL_Driver/Src/stm32g0xx_hal_rcc_ex.c ****         {
 720:Drivers/STM32G0xx_HAL_Driver/Src/stm32g0xx_hal_rcc_ex.c ****           frequency = LSE_VALUE;
 721:Drivers/STM32G0xx_HAL_Driver/Src/stm32g0xx_hal_rcc_ex.c ****         }
 722:Drivers/STM32G0xx_HAL_Driver/Src/stm32g0xx_hal_rcc_ex.c ****         /* Clock not enabled for USART1 */
 723:Drivers/STM32G0xx_HAL_Driver/Src/stm32g0xx_hal_rcc_ex.c ****         else
 724:Drivers/STM32G0xx_HAL_Driver/Src/stm32g0xx_hal_rcc_ex.c ****         {
 725:Drivers/STM32G0xx_HAL_Driver/Src/stm32g0xx_hal_rcc_ex.c ****           /* Nothing to do as frequency already initialized to 0U */
 726:Drivers/STM32G0xx_HAL_Driver/Src/stm32g0xx_hal_rcc_ex.c ****         }
 727:Drivers/STM32G0xx_HAL_Driver/Src/stm32g0xx_hal_rcc_ex.c ****         break;
 728:Drivers/STM32G0xx_HAL_Driver/Src/stm32g0xx_hal_rcc_ex.c **** #if defined(RCC_CCIPR_USART2SEL)
 729:Drivers/STM32G0xx_HAL_Driver/Src/stm32g0xx_hal_rcc_ex.c ****       case RCC_PERIPHCLK_USART2:
 730:Drivers/STM32G0xx_HAL_Driver/Src/stm32g0xx_hal_rcc_ex.c ****         /* Get the current USART2 source */
 731:Drivers/STM32G0xx_HAL_Driver/Src/stm32g0xx_hal_rcc_ex.c ****         srcclk = __HAL_RCC_GET_USART2_SOURCE();
 732:Drivers/STM32G0xx_HAL_Driver/Src/stm32g0xx_hal_rcc_ex.c **** 
 733:Drivers/STM32G0xx_HAL_Driver/Src/stm32g0xx_hal_rcc_ex.c ****         if (srcclk == RCC_USART2CLKSOURCE_PCLK1)
 734:Drivers/STM32G0xx_HAL_Driver/Src/stm32g0xx_hal_rcc_ex.c ****         {
 735:Drivers/STM32G0xx_HAL_Driver/Src/stm32g0xx_hal_rcc_ex.c ****           frequency = HAL_RCC_GetPCLK1Freq();
 736:Drivers/STM32G0xx_HAL_Driver/Src/stm32g0xx_hal_rcc_ex.c ****         }
 737:Drivers/STM32G0xx_HAL_Driver/Src/stm32g0xx_hal_rcc_ex.c ****         else if (srcclk == RCC_USART2CLKSOURCE_SYSCLK)
 738:Drivers/STM32G0xx_HAL_Driver/Src/stm32g0xx_hal_rcc_ex.c ****         {
 739:Drivers/STM32G0xx_HAL_Driver/Src/stm32g0xx_hal_rcc_ex.c ****           frequency = HAL_RCC_GetSysClockFreq();
 740:Drivers/STM32G0xx_HAL_Driver/Src/stm32g0xx_hal_rcc_ex.c ****         }
 741:Drivers/STM32G0xx_HAL_Driver/Src/stm32g0xx_hal_rcc_ex.c ****         else if ((HAL_IS_BIT_SET(RCC->CR, RCC_CR_HSIRDY)) && (srcclk == RCC_USART2CLKSOURCE_HSI))
 742:Drivers/STM32G0xx_HAL_Driver/Src/stm32g0xx_hal_rcc_ex.c ****         {
 743:Drivers/STM32G0xx_HAL_Driver/Src/stm32g0xx_hal_rcc_ex.c ****           frequency = HSI_VALUE;
 744:Drivers/STM32G0xx_HAL_Driver/Src/stm32g0xx_hal_rcc_ex.c ****         }
 745:Drivers/STM32G0xx_HAL_Driver/Src/stm32g0xx_hal_rcc_ex.c ****         else if ((HAL_IS_BIT_SET(RCC->BDCR, RCC_BDCR_LSERDY)) && (srcclk == RCC_USART2CLKSOURCE_LSE
 746:Drivers/STM32G0xx_HAL_Driver/Src/stm32g0xx_hal_rcc_ex.c ****         {
 747:Drivers/STM32G0xx_HAL_Driver/Src/stm32g0xx_hal_rcc_ex.c ****           frequency = LSE_VALUE;
 748:Drivers/STM32G0xx_HAL_Driver/Src/stm32g0xx_hal_rcc_ex.c ****         }
 749:Drivers/STM32G0xx_HAL_Driver/Src/stm32g0xx_hal_rcc_ex.c ****         /* Clock not enabled for USART2 */
 750:Drivers/STM32G0xx_HAL_Driver/Src/stm32g0xx_hal_rcc_ex.c ****         else
 751:Drivers/STM32G0xx_HAL_Driver/Src/stm32g0xx_hal_rcc_ex.c ****         {
 752:Drivers/STM32G0xx_HAL_Driver/Src/stm32g0xx_hal_rcc_ex.c ****           /* Nothing to do as frequency already initialized to 0U */
 753:Drivers/STM32G0xx_HAL_Driver/Src/stm32g0xx_hal_rcc_ex.c ****         }
 754:Drivers/STM32G0xx_HAL_Driver/Src/stm32g0xx_hal_rcc_ex.c ****         break;
 755:Drivers/STM32G0xx_HAL_Driver/Src/stm32g0xx_hal_rcc_ex.c **** #endif /* RCC_CCIPR_USART2SEL */
 756:Drivers/STM32G0xx_HAL_Driver/Src/stm32g0xx_hal_rcc_ex.c **** 
 757:Drivers/STM32G0xx_HAL_Driver/Src/stm32g0xx_hal_rcc_ex.c **** #if defined(RCC_CCIPR_USART3SEL)
 758:Drivers/STM32G0xx_HAL_Driver/Src/stm32g0xx_hal_rcc_ex.c ****       case RCC_PERIPHCLK_USART3:
 759:Drivers/STM32G0xx_HAL_Driver/Src/stm32g0xx_hal_rcc_ex.c ****         /* Get the current USART3 source */
 760:Drivers/STM32G0xx_HAL_Driver/Src/stm32g0xx_hal_rcc_ex.c ****         srcclk = __HAL_RCC_GET_USART3_SOURCE();
 761:Drivers/STM32G0xx_HAL_Driver/Src/stm32g0xx_hal_rcc_ex.c **** 
 762:Drivers/STM32G0xx_HAL_Driver/Src/stm32g0xx_hal_rcc_ex.c ****         if (srcclk == RCC_USART3CLKSOURCE_PCLK1)
 763:Drivers/STM32G0xx_HAL_Driver/Src/stm32g0xx_hal_rcc_ex.c ****         {
 764:Drivers/STM32G0xx_HAL_Driver/Src/stm32g0xx_hal_rcc_ex.c ****           frequency = HAL_RCC_GetPCLK1Freq();
 765:Drivers/STM32G0xx_HAL_Driver/Src/stm32g0xx_hal_rcc_ex.c ****         }
 766:Drivers/STM32G0xx_HAL_Driver/Src/stm32g0xx_hal_rcc_ex.c ****         else if (srcclk == RCC_USART3CLKSOURCE_SYSCLK)
 767:Drivers/STM32G0xx_HAL_Driver/Src/stm32g0xx_hal_rcc_ex.c ****         {
ARM GAS  /tmp/ccVU8yv2.s 			page 35


 768:Drivers/STM32G0xx_HAL_Driver/Src/stm32g0xx_hal_rcc_ex.c ****           frequency = HAL_RCC_GetSysClockFreq();
 769:Drivers/STM32G0xx_HAL_Driver/Src/stm32g0xx_hal_rcc_ex.c ****         }
 770:Drivers/STM32G0xx_HAL_Driver/Src/stm32g0xx_hal_rcc_ex.c ****         else if ((HAL_IS_BIT_SET(RCC->CR, RCC_CR_HSIRDY)) && (srcclk == RCC_USART3CLKSOURCE_HSI))
 771:Drivers/STM32G0xx_HAL_Driver/Src/stm32g0xx_hal_rcc_ex.c ****         {
 772:Drivers/STM32G0xx_HAL_Driver/Src/stm32g0xx_hal_rcc_ex.c ****           frequency = HSI_VALUE;
 773:Drivers/STM32G0xx_HAL_Driver/Src/stm32g0xx_hal_rcc_ex.c ****         }
 774:Drivers/STM32G0xx_HAL_Driver/Src/stm32g0xx_hal_rcc_ex.c ****         else if ((HAL_IS_BIT_SET(RCC->BDCR, RCC_BDCR_LSERDY)) && (srcclk == RCC_USART3CLKSOURCE_LSE
 775:Drivers/STM32G0xx_HAL_Driver/Src/stm32g0xx_hal_rcc_ex.c ****         {
 776:Drivers/STM32G0xx_HAL_Driver/Src/stm32g0xx_hal_rcc_ex.c ****           frequency = LSE_VALUE;
 777:Drivers/STM32G0xx_HAL_Driver/Src/stm32g0xx_hal_rcc_ex.c ****         }
 778:Drivers/STM32G0xx_HAL_Driver/Src/stm32g0xx_hal_rcc_ex.c ****         /* Clock not enabled for USART3 */
 779:Drivers/STM32G0xx_HAL_Driver/Src/stm32g0xx_hal_rcc_ex.c ****         else
 780:Drivers/STM32G0xx_HAL_Driver/Src/stm32g0xx_hal_rcc_ex.c ****         {
 781:Drivers/STM32G0xx_HAL_Driver/Src/stm32g0xx_hal_rcc_ex.c ****           /* Nothing to do as frequency already initialized to 0U */
 782:Drivers/STM32G0xx_HAL_Driver/Src/stm32g0xx_hal_rcc_ex.c ****         }
 783:Drivers/STM32G0xx_HAL_Driver/Src/stm32g0xx_hal_rcc_ex.c ****         break;
 784:Drivers/STM32G0xx_HAL_Driver/Src/stm32g0xx_hal_rcc_ex.c **** #endif /* RCC_CCIPR_USART3SEL */
 785:Drivers/STM32G0xx_HAL_Driver/Src/stm32g0xx_hal_rcc_ex.c **** 
 786:Drivers/STM32G0xx_HAL_Driver/Src/stm32g0xx_hal_rcc_ex.c **** #if defined(RCC_CCIPR_CECSEL)
 787:Drivers/STM32G0xx_HAL_Driver/Src/stm32g0xx_hal_rcc_ex.c ****       case RCC_PERIPHCLK_CEC:
 788:Drivers/STM32G0xx_HAL_Driver/Src/stm32g0xx_hal_rcc_ex.c ****         /* Get the current CEC source */
 789:Drivers/STM32G0xx_HAL_Driver/Src/stm32g0xx_hal_rcc_ex.c ****         srcclk = __HAL_RCC_GET_CEC_SOURCE();
 790:Drivers/STM32G0xx_HAL_Driver/Src/stm32g0xx_hal_rcc_ex.c **** 
 791:Drivers/STM32G0xx_HAL_Driver/Src/stm32g0xx_hal_rcc_ex.c ****         if ((HAL_IS_BIT_SET(RCC->CR, RCC_CR_HSIRDY)) && (srcclk == RCC_CECCLKSOURCE_HSI_DIV488))
 792:Drivers/STM32G0xx_HAL_Driver/Src/stm32g0xx_hal_rcc_ex.c ****         {
 793:Drivers/STM32G0xx_HAL_Driver/Src/stm32g0xx_hal_rcc_ex.c ****           frequency = (HSI_VALUE / 488U);
 794:Drivers/STM32G0xx_HAL_Driver/Src/stm32g0xx_hal_rcc_ex.c ****         }
 795:Drivers/STM32G0xx_HAL_Driver/Src/stm32g0xx_hal_rcc_ex.c ****         else if ((HAL_IS_BIT_SET(RCC->BDCR, RCC_BDCR_LSERDY)) && (srcclk == RCC_CECCLKSOURCE_LSE))
 796:Drivers/STM32G0xx_HAL_Driver/Src/stm32g0xx_hal_rcc_ex.c ****         {
 797:Drivers/STM32G0xx_HAL_Driver/Src/stm32g0xx_hal_rcc_ex.c ****           frequency = LSE_VALUE;
 798:Drivers/STM32G0xx_HAL_Driver/Src/stm32g0xx_hal_rcc_ex.c ****         }
 799:Drivers/STM32G0xx_HAL_Driver/Src/stm32g0xx_hal_rcc_ex.c ****         /* Clock not enabled for CEC */
 800:Drivers/STM32G0xx_HAL_Driver/Src/stm32g0xx_hal_rcc_ex.c ****         else
 801:Drivers/STM32G0xx_HAL_Driver/Src/stm32g0xx_hal_rcc_ex.c ****         {
 802:Drivers/STM32G0xx_HAL_Driver/Src/stm32g0xx_hal_rcc_ex.c ****           /* Nothing to do as frequency already initialized to 0U */
 803:Drivers/STM32G0xx_HAL_Driver/Src/stm32g0xx_hal_rcc_ex.c ****         }
 804:Drivers/STM32G0xx_HAL_Driver/Src/stm32g0xx_hal_rcc_ex.c ****         break;
 805:Drivers/STM32G0xx_HAL_Driver/Src/stm32g0xx_hal_rcc_ex.c **** #endif /* RCC_CCIPR_CECSEL */
 806:Drivers/STM32G0xx_HAL_Driver/Src/stm32g0xx_hal_rcc_ex.c **** 
 807:Drivers/STM32G0xx_HAL_Driver/Src/stm32g0xx_hal_rcc_ex.c **** #if defined(RCC_CCIPR_LPUART1SEL)
 808:Drivers/STM32G0xx_HAL_Driver/Src/stm32g0xx_hal_rcc_ex.c ****       case RCC_PERIPHCLK_LPUART1:
 809:Drivers/STM32G0xx_HAL_Driver/Src/stm32g0xx_hal_rcc_ex.c ****         /* Get the current LPUART1 source */
 810:Drivers/STM32G0xx_HAL_Driver/Src/stm32g0xx_hal_rcc_ex.c ****         srcclk = __HAL_RCC_GET_LPUART1_SOURCE();
 811:Drivers/STM32G0xx_HAL_Driver/Src/stm32g0xx_hal_rcc_ex.c **** 
 812:Drivers/STM32G0xx_HAL_Driver/Src/stm32g0xx_hal_rcc_ex.c ****         if (srcclk == RCC_LPUART1CLKSOURCE_PCLK1)
 813:Drivers/STM32G0xx_HAL_Driver/Src/stm32g0xx_hal_rcc_ex.c ****         {
 814:Drivers/STM32G0xx_HAL_Driver/Src/stm32g0xx_hal_rcc_ex.c ****           frequency = HAL_RCC_GetPCLK1Freq();
 815:Drivers/STM32G0xx_HAL_Driver/Src/stm32g0xx_hal_rcc_ex.c ****         }
 816:Drivers/STM32G0xx_HAL_Driver/Src/stm32g0xx_hal_rcc_ex.c ****         else if (srcclk == RCC_LPUART1CLKSOURCE_SYSCLK)
 817:Drivers/STM32G0xx_HAL_Driver/Src/stm32g0xx_hal_rcc_ex.c ****         {
 818:Drivers/STM32G0xx_HAL_Driver/Src/stm32g0xx_hal_rcc_ex.c ****           frequency = HAL_RCC_GetSysClockFreq();
 819:Drivers/STM32G0xx_HAL_Driver/Src/stm32g0xx_hal_rcc_ex.c ****         }
 820:Drivers/STM32G0xx_HAL_Driver/Src/stm32g0xx_hal_rcc_ex.c ****         else if ((HAL_IS_BIT_SET(RCC->CR, RCC_CR_HSIRDY)) && (srcclk == RCC_LPUART1CLKSOURCE_HSI))
 821:Drivers/STM32G0xx_HAL_Driver/Src/stm32g0xx_hal_rcc_ex.c ****         {
 822:Drivers/STM32G0xx_HAL_Driver/Src/stm32g0xx_hal_rcc_ex.c ****           frequency = HSI_VALUE;
 823:Drivers/STM32G0xx_HAL_Driver/Src/stm32g0xx_hal_rcc_ex.c ****         }
 824:Drivers/STM32G0xx_HAL_Driver/Src/stm32g0xx_hal_rcc_ex.c ****         else if ((HAL_IS_BIT_SET(RCC->BDCR, RCC_BDCR_LSERDY)) && (srcclk == RCC_LPUART1CLKSOURCE_LS
ARM GAS  /tmp/ccVU8yv2.s 			page 36


 825:Drivers/STM32G0xx_HAL_Driver/Src/stm32g0xx_hal_rcc_ex.c ****         {
 826:Drivers/STM32G0xx_HAL_Driver/Src/stm32g0xx_hal_rcc_ex.c ****           frequency = LSE_VALUE;
 827:Drivers/STM32G0xx_HAL_Driver/Src/stm32g0xx_hal_rcc_ex.c ****         }
 828:Drivers/STM32G0xx_HAL_Driver/Src/stm32g0xx_hal_rcc_ex.c ****         /* Clock not enabled for LPUART1 */
 829:Drivers/STM32G0xx_HAL_Driver/Src/stm32g0xx_hal_rcc_ex.c ****         else
 830:Drivers/STM32G0xx_HAL_Driver/Src/stm32g0xx_hal_rcc_ex.c ****         {
 831:Drivers/STM32G0xx_HAL_Driver/Src/stm32g0xx_hal_rcc_ex.c ****           /* Nothing to do as frequency already initialized to 0U */
 832:Drivers/STM32G0xx_HAL_Driver/Src/stm32g0xx_hal_rcc_ex.c ****         }
 833:Drivers/STM32G0xx_HAL_Driver/Src/stm32g0xx_hal_rcc_ex.c ****         break;
 834:Drivers/STM32G0xx_HAL_Driver/Src/stm32g0xx_hal_rcc_ex.c **** #endif /* RCC_CCIPR_LPUART1SEL */
 835:Drivers/STM32G0xx_HAL_Driver/Src/stm32g0xx_hal_rcc_ex.c **** 
 836:Drivers/STM32G0xx_HAL_Driver/Src/stm32g0xx_hal_rcc_ex.c **** #if defined(RCC_CCIPR_LPUART2SEL)
 837:Drivers/STM32G0xx_HAL_Driver/Src/stm32g0xx_hal_rcc_ex.c ****       case RCC_PERIPHCLK_LPUART2:
 838:Drivers/STM32G0xx_HAL_Driver/Src/stm32g0xx_hal_rcc_ex.c ****         /* Get the current LPUART2 source */
 839:Drivers/STM32G0xx_HAL_Driver/Src/stm32g0xx_hal_rcc_ex.c ****         srcclk = __HAL_RCC_GET_LPUART2_SOURCE();
 840:Drivers/STM32G0xx_HAL_Driver/Src/stm32g0xx_hal_rcc_ex.c **** 
 841:Drivers/STM32G0xx_HAL_Driver/Src/stm32g0xx_hal_rcc_ex.c ****         if (srcclk == RCC_LPUART2CLKSOURCE_PCLK1)
 842:Drivers/STM32G0xx_HAL_Driver/Src/stm32g0xx_hal_rcc_ex.c ****         {
 843:Drivers/STM32G0xx_HAL_Driver/Src/stm32g0xx_hal_rcc_ex.c ****           frequency = HAL_RCC_GetPCLK1Freq();
 844:Drivers/STM32G0xx_HAL_Driver/Src/stm32g0xx_hal_rcc_ex.c ****         }
 845:Drivers/STM32G0xx_HAL_Driver/Src/stm32g0xx_hal_rcc_ex.c ****         else if (srcclk == RCC_LPUART2CLKSOURCE_SYSCLK)
 846:Drivers/STM32G0xx_HAL_Driver/Src/stm32g0xx_hal_rcc_ex.c ****         {
 847:Drivers/STM32G0xx_HAL_Driver/Src/stm32g0xx_hal_rcc_ex.c ****           frequency = HAL_RCC_GetSysClockFreq();
 848:Drivers/STM32G0xx_HAL_Driver/Src/stm32g0xx_hal_rcc_ex.c ****         }
 849:Drivers/STM32G0xx_HAL_Driver/Src/stm32g0xx_hal_rcc_ex.c ****         else if ((HAL_IS_BIT_SET(RCC->CR, RCC_CR_HSIRDY)) && (srcclk == RCC_LPUART2CLKSOURCE_HSI))
 850:Drivers/STM32G0xx_HAL_Driver/Src/stm32g0xx_hal_rcc_ex.c ****         {
 851:Drivers/STM32G0xx_HAL_Driver/Src/stm32g0xx_hal_rcc_ex.c ****           frequency = HSI_VALUE;
 852:Drivers/STM32G0xx_HAL_Driver/Src/stm32g0xx_hal_rcc_ex.c ****         }
 853:Drivers/STM32G0xx_HAL_Driver/Src/stm32g0xx_hal_rcc_ex.c ****         else if ((HAL_IS_BIT_SET(RCC->BDCR, RCC_BDCR_LSERDY)) && (srcclk == RCC_LPUART2CLKSOURCE_LS
 854:Drivers/STM32G0xx_HAL_Driver/Src/stm32g0xx_hal_rcc_ex.c ****         {
 855:Drivers/STM32G0xx_HAL_Driver/Src/stm32g0xx_hal_rcc_ex.c ****           frequency = LSE_VALUE;
 856:Drivers/STM32G0xx_HAL_Driver/Src/stm32g0xx_hal_rcc_ex.c ****         }
 857:Drivers/STM32G0xx_HAL_Driver/Src/stm32g0xx_hal_rcc_ex.c ****         /* Clock not enabled for LPUART2 */
 858:Drivers/STM32G0xx_HAL_Driver/Src/stm32g0xx_hal_rcc_ex.c ****         else
 859:Drivers/STM32G0xx_HAL_Driver/Src/stm32g0xx_hal_rcc_ex.c ****         {
 860:Drivers/STM32G0xx_HAL_Driver/Src/stm32g0xx_hal_rcc_ex.c ****           /* Nothing to do as frequency already initialized to 0U */
 861:Drivers/STM32G0xx_HAL_Driver/Src/stm32g0xx_hal_rcc_ex.c ****         }
 862:Drivers/STM32G0xx_HAL_Driver/Src/stm32g0xx_hal_rcc_ex.c ****         break;
 863:Drivers/STM32G0xx_HAL_Driver/Src/stm32g0xx_hal_rcc_ex.c **** #endif /* RCC_CCIPR_LPUART2SEL */
 864:Drivers/STM32G0xx_HAL_Driver/Src/stm32g0xx_hal_rcc_ex.c **** 
 865:Drivers/STM32G0xx_HAL_Driver/Src/stm32g0xx_hal_rcc_ex.c ****       case RCC_PERIPHCLK_ADC:
 866:Drivers/STM32G0xx_HAL_Driver/Src/stm32g0xx_hal_rcc_ex.c **** 
 867:Drivers/STM32G0xx_HAL_Driver/Src/stm32g0xx_hal_rcc_ex.c ****         srcclk = __HAL_RCC_GET_ADC_SOURCE();
 868:Drivers/STM32G0xx_HAL_Driver/Src/stm32g0xx_hal_rcc_ex.c **** 
 869:Drivers/STM32G0xx_HAL_Driver/Src/stm32g0xx_hal_rcc_ex.c ****         if (srcclk == RCC_ADCCLKSOURCE_SYSCLK)
 870:Drivers/STM32G0xx_HAL_Driver/Src/stm32g0xx_hal_rcc_ex.c ****         {
 871:Drivers/STM32G0xx_HAL_Driver/Src/stm32g0xx_hal_rcc_ex.c ****           frequency = HAL_RCC_GetSysClockFreq();
 872:Drivers/STM32G0xx_HAL_Driver/Src/stm32g0xx_hal_rcc_ex.c ****         }
 873:Drivers/STM32G0xx_HAL_Driver/Src/stm32g0xx_hal_rcc_ex.c ****         else if (srcclk == RCC_ADCCLKSOURCE_HSI)
 874:Drivers/STM32G0xx_HAL_Driver/Src/stm32g0xx_hal_rcc_ex.c ****         {
 875:Drivers/STM32G0xx_HAL_Driver/Src/stm32g0xx_hal_rcc_ex.c ****           frequency = HSI_VALUE;
 876:Drivers/STM32G0xx_HAL_Driver/Src/stm32g0xx_hal_rcc_ex.c ****         }
 877:Drivers/STM32G0xx_HAL_Driver/Src/stm32g0xx_hal_rcc_ex.c ****         else if (srcclk == RCC_ADCCLKSOURCE_PLLADC)
 878:Drivers/STM32G0xx_HAL_Driver/Src/stm32g0xx_hal_rcc_ex.c ****         {
 879:Drivers/STM32G0xx_HAL_Driver/Src/stm32g0xx_hal_rcc_ex.c ****           if (__HAL_RCC_GET_PLLCLKOUT_CONFIG(RCC_PLLPCLK) != 0U)
 880:Drivers/STM32G0xx_HAL_Driver/Src/stm32g0xx_hal_rcc_ex.c ****           {
 881:Drivers/STM32G0xx_HAL_Driver/Src/stm32g0xx_hal_rcc_ex.c ****             /* f(PLLP) = f(VCO input) * PLLN / PLLP */
ARM GAS  /tmp/ccVU8yv2.s 			page 37


 882:Drivers/STM32G0xx_HAL_Driver/Src/stm32g0xx_hal_rcc_ex.c ****             plln = READ_BIT(RCC->PLLCFGR, RCC_PLLCFGR_PLLN) >> RCC_PLLCFGR_PLLN_Pos;
 883:Drivers/STM32G0xx_HAL_Driver/Src/stm32g0xx_hal_rcc_ex.c ****             frequency = (pllvco * plln) / ((READ_BIT(RCC->PLLCFGR, RCC_PLLCFGR_PLLP) >> RCC_PLLCFGR
 884:Drivers/STM32G0xx_HAL_Driver/Src/stm32g0xx_hal_rcc_ex.c ****           }
 885:Drivers/STM32G0xx_HAL_Driver/Src/stm32g0xx_hal_rcc_ex.c ****         }
 886:Drivers/STM32G0xx_HAL_Driver/Src/stm32g0xx_hal_rcc_ex.c ****         /* Clock not enabled for ADC */
 887:Drivers/STM32G0xx_HAL_Driver/Src/stm32g0xx_hal_rcc_ex.c ****         else
 888:Drivers/STM32G0xx_HAL_Driver/Src/stm32g0xx_hal_rcc_ex.c ****         {
 889:Drivers/STM32G0xx_HAL_Driver/Src/stm32g0xx_hal_rcc_ex.c ****           /* Nothing to do as frequency already initialized to 0U */
 890:Drivers/STM32G0xx_HAL_Driver/Src/stm32g0xx_hal_rcc_ex.c ****         }
 891:Drivers/STM32G0xx_HAL_Driver/Src/stm32g0xx_hal_rcc_ex.c ****         break;
 892:Drivers/STM32G0xx_HAL_Driver/Src/stm32g0xx_hal_rcc_ex.c **** 
 893:Drivers/STM32G0xx_HAL_Driver/Src/stm32g0xx_hal_rcc_ex.c ****       case RCC_PERIPHCLK_I2C1:
 894:Drivers/STM32G0xx_HAL_Driver/Src/stm32g0xx_hal_rcc_ex.c ****         /* Get the current I2C1 source */
 895:Drivers/STM32G0xx_HAL_Driver/Src/stm32g0xx_hal_rcc_ex.c ****         srcclk = __HAL_RCC_GET_I2C1_SOURCE();
 896:Drivers/STM32G0xx_HAL_Driver/Src/stm32g0xx_hal_rcc_ex.c **** 
 897:Drivers/STM32G0xx_HAL_Driver/Src/stm32g0xx_hal_rcc_ex.c ****         if (srcclk == RCC_I2C1CLKSOURCE_PCLK1)
 898:Drivers/STM32G0xx_HAL_Driver/Src/stm32g0xx_hal_rcc_ex.c ****         {
 899:Drivers/STM32G0xx_HAL_Driver/Src/stm32g0xx_hal_rcc_ex.c ****           frequency = HAL_RCC_GetPCLK1Freq();
 900:Drivers/STM32G0xx_HAL_Driver/Src/stm32g0xx_hal_rcc_ex.c ****         }
 901:Drivers/STM32G0xx_HAL_Driver/Src/stm32g0xx_hal_rcc_ex.c ****         else if (srcclk == RCC_I2C1CLKSOURCE_SYSCLK)
 902:Drivers/STM32G0xx_HAL_Driver/Src/stm32g0xx_hal_rcc_ex.c ****         {
 903:Drivers/STM32G0xx_HAL_Driver/Src/stm32g0xx_hal_rcc_ex.c ****           frequency = HAL_RCC_GetSysClockFreq();
 904:Drivers/STM32G0xx_HAL_Driver/Src/stm32g0xx_hal_rcc_ex.c ****         }
 905:Drivers/STM32G0xx_HAL_Driver/Src/stm32g0xx_hal_rcc_ex.c ****         else if ((HAL_IS_BIT_SET(RCC->CR, RCC_CR_HSIRDY)) && (srcclk == RCC_I2C1CLKSOURCE_HSI))
 906:Drivers/STM32G0xx_HAL_Driver/Src/stm32g0xx_hal_rcc_ex.c ****         {
 907:Drivers/STM32G0xx_HAL_Driver/Src/stm32g0xx_hal_rcc_ex.c ****           frequency = HSI_VALUE;
 908:Drivers/STM32G0xx_HAL_Driver/Src/stm32g0xx_hal_rcc_ex.c ****         }
 909:Drivers/STM32G0xx_HAL_Driver/Src/stm32g0xx_hal_rcc_ex.c ****         /* Clock not enabled for I2C1 */
 910:Drivers/STM32G0xx_HAL_Driver/Src/stm32g0xx_hal_rcc_ex.c ****         else
 911:Drivers/STM32G0xx_HAL_Driver/Src/stm32g0xx_hal_rcc_ex.c ****         {
 912:Drivers/STM32G0xx_HAL_Driver/Src/stm32g0xx_hal_rcc_ex.c ****           /* Nothing to do as frequency already initialized to 0U */
 913:Drivers/STM32G0xx_HAL_Driver/Src/stm32g0xx_hal_rcc_ex.c ****         }
 914:Drivers/STM32G0xx_HAL_Driver/Src/stm32g0xx_hal_rcc_ex.c ****         break;
 915:Drivers/STM32G0xx_HAL_Driver/Src/stm32g0xx_hal_rcc_ex.c **** 
 916:Drivers/STM32G0xx_HAL_Driver/Src/stm32g0xx_hal_rcc_ex.c **** #if defined(RCC_CCIPR_I2C2SEL)
 917:Drivers/STM32G0xx_HAL_Driver/Src/stm32g0xx_hal_rcc_ex.c ****       case RCC_PERIPHCLK_I2C2:
 918:Drivers/STM32G0xx_HAL_Driver/Src/stm32g0xx_hal_rcc_ex.c ****         /* Get the current I2C2 source */
 919:Drivers/STM32G0xx_HAL_Driver/Src/stm32g0xx_hal_rcc_ex.c ****         srcclk = __HAL_RCC_GET_I2C2_SOURCE();
 920:Drivers/STM32G0xx_HAL_Driver/Src/stm32g0xx_hal_rcc_ex.c **** 
 921:Drivers/STM32G0xx_HAL_Driver/Src/stm32g0xx_hal_rcc_ex.c ****         if (srcclk == RCC_I2C2CLKSOURCE_PCLK1)
 922:Drivers/STM32G0xx_HAL_Driver/Src/stm32g0xx_hal_rcc_ex.c ****         {
 923:Drivers/STM32G0xx_HAL_Driver/Src/stm32g0xx_hal_rcc_ex.c ****           frequency = HAL_RCC_GetPCLK1Freq();
 924:Drivers/STM32G0xx_HAL_Driver/Src/stm32g0xx_hal_rcc_ex.c ****         }
 925:Drivers/STM32G0xx_HAL_Driver/Src/stm32g0xx_hal_rcc_ex.c ****         else if (srcclk == RCC_I2C2CLKSOURCE_SYSCLK)
 926:Drivers/STM32G0xx_HAL_Driver/Src/stm32g0xx_hal_rcc_ex.c ****         {
 927:Drivers/STM32G0xx_HAL_Driver/Src/stm32g0xx_hal_rcc_ex.c ****           frequency = HAL_RCC_GetSysClockFreq();
 928:Drivers/STM32G0xx_HAL_Driver/Src/stm32g0xx_hal_rcc_ex.c ****         }
 929:Drivers/STM32G0xx_HAL_Driver/Src/stm32g0xx_hal_rcc_ex.c ****         else if ((HAL_IS_BIT_SET(RCC->CR, RCC_CR_HSIRDY)) && (srcclk == RCC_I2C2CLKSOURCE_HSI))
 930:Drivers/STM32G0xx_HAL_Driver/Src/stm32g0xx_hal_rcc_ex.c ****         {
 931:Drivers/STM32G0xx_HAL_Driver/Src/stm32g0xx_hal_rcc_ex.c ****           frequency = HSI_VALUE;
 932:Drivers/STM32G0xx_HAL_Driver/Src/stm32g0xx_hal_rcc_ex.c ****         }
 933:Drivers/STM32G0xx_HAL_Driver/Src/stm32g0xx_hal_rcc_ex.c ****         /* Clock not enabled for I2C2 */
 934:Drivers/STM32G0xx_HAL_Driver/Src/stm32g0xx_hal_rcc_ex.c ****         else
 935:Drivers/STM32G0xx_HAL_Driver/Src/stm32g0xx_hal_rcc_ex.c ****         {
 936:Drivers/STM32G0xx_HAL_Driver/Src/stm32g0xx_hal_rcc_ex.c ****           /* Nothing to do as frequency already initialized to 0U */
 937:Drivers/STM32G0xx_HAL_Driver/Src/stm32g0xx_hal_rcc_ex.c ****         }
 938:Drivers/STM32G0xx_HAL_Driver/Src/stm32g0xx_hal_rcc_ex.c ****         break;
ARM GAS  /tmp/ccVU8yv2.s 			page 38


 939:Drivers/STM32G0xx_HAL_Driver/Src/stm32g0xx_hal_rcc_ex.c **** #endif /* RCC_CCIPR_I2C2SEL */
 940:Drivers/STM32G0xx_HAL_Driver/Src/stm32g0xx_hal_rcc_ex.c **** 
 941:Drivers/STM32G0xx_HAL_Driver/Src/stm32g0xx_hal_rcc_ex.c ****       case RCC_PERIPHCLK_I2S1:
 942:Drivers/STM32G0xx_HAL_Driver/Src/stm32g0xx_hal_rcc_ex.c ****         /* Get the current I2S1 source */
 943:Drivers/STM32G0xx_HAL_Driver/Src/stm32g0xx_hal_rcc_ex.c ****         srcclk = __HAL_RCC_GET_I2S1_SOURCE();
 944:Drivers/STM32G0xx_HAL_Driver/Src/stm32g0xx_hal_rcc_ex.c **** 
 945:Drivers/STM32G0xx_HAL_Driver/Src/stm32g0xx_hal_rcc_ex.c ****         if (srcclk == RCC_I2S1CLKSOURCE_PLL)
 946:Drivers/STM32G0xx_HAL_Driver/Src/stm32g0xx_hal_rcc_ex.c ****         {
 947:Drivers/STM32G0xx_HAL_Driver/Src/stm32g0xx_hal_rcc_ex.c ****           if (__HAL_RCC_GET_PLLCLKOUT_CONFIG(RCC_PLLPCLK) != 0U)
 948:Drivers/STM32G0xx_HAL_Driver/Src/stm32g0xx_hal_rcc_ex.c ****           {
 949:Drivers/STM32G0xx_HAL_Driver/Src/stm32g0xx_hal_rcc_ex.c ****             /* f(PLLP) = f(VCO input) * PLLN / PLLP */
 950:Drivers/STM32G0xx_HAL_Driver/Src/stm32g0xx_hal_rcc_ex.c ****             plln = READ_BIT(RCC->PLLCFGR, RCC_PLLCFGR_PLLN) >> RCC_PLLCFGR_PLLN_Pos;
 951:Drivers/STM32G0xx_HAL_Driver/Src/stm32g0xx_hal_rcc_ex.c ****             frequency = (pllvco * plln) / ((READ_BIT(RCC->PLLCFGR, RCC_PLLCFGR_PLLP) >> RCC_PLLCFGR
 952:Drivers/STM32G0xx_HAL_Driver/Src/stm32g0xx_hal_rcc_ex.c ****           }
 953:Drivers/STM32G0xx_HAL_Driver/Src/stm32g0xx_hal_rcc_ex.c ****         }
 954:Drivers/STM32G0xx_HAL_Driver/Src/stm32g0xx_hal_rcc_ex.c ****         else if (srcclk == RCC_I2S1CLKSOURCE_SYSCLK)
 955:Drivers/STM32G0xx_HAL_Driver/Src/stm32g0xx_hal_rcc_ex.c ****         {
 956:Drivers/STM32G0xx_HAL_Driver/Src/stm32g0xx_hal_rcc_ex.c ****           frequency = HAL_RCC_GetSysClockFreq();
 957:Drivers/STM32G0xx_HAL_Driver/Src/stm32g0xx_hal_rcc_ex.c ****         }
 958:Drivers/STM32G0xx_HAL_Driver/Src/stm32g0xx_hal_rcc_ex.c ****         else if ((HAL_IS_BIT_SET(RCC->CR, RCC_CR_HSIRDY)) && (srcclk == RCC_I2S1CLKSOURCE_HSI))
 959:Drivers/STM32G0xx_HAL_Driver/Src/stm32g0xx_hal_rcc_ex.c ****         {
 960:Drivers/STM32G0xx_HAL_Driver/Src/stm32g0xx_hal_rcc_ex.c ****           frequency = HSI_VALUE;
 961:Drivers/STM32G0xx_HAL_Driver/Src/stm32g0xx_hal_rcc_ex.c ****         }
 962:Drivers/STM32G0xx_HAL_Driver/Src/stm32g0xx_hal_rcc_ex.c ****         else if (srcclk == RCC_I2S1CLKSOURCE_EXT)
 963:Drivers/STM32G0xx_HAL_Driver/Src/stm32g0xx_hal_rcc_ex.c ****         {
 964:Drivers/STM32G0xx_HAL_Driver/Src/stm32g0xx_hal_rcc_ex.c ****           /* External clock used.*/
 965:Drivers/STM32G0xx_HAL_Driver/Src/stm32g0xx_hal_rcc_ex.c ****           frequency = EXTERNAL_I2S1_CLOCK_VALUE;
 966:Drivers/STM32G0xx_HAL_Driver/Src/stm32g0xx_hal_rcc_ex.c ****         }
 967:Drivers/STM32G0xx_HAL_Driver/Src/stm32g0xx_hal_rcc_ex.c ****         /* Clock not enabled for I2S1 */
 968:Drivers/STM32G0xx_HAL_Driver/Src/stm32g0xx_hal_rcc_ex.c ****         else
 969:Drivers/STM32G0xx_HAL_Driver/Src/stm32g0xx_hal_rcc_ex.c ****         {
 970:Drivers/STM32G0xx_HAL_Driver/Src/stm32g0xx_hal_rcc_ex.c ****           /* Nothing to do as frequency already initialized to 0U */
 971:Drivers/STM32G0xx_HAL_Driver/Src/stm32g0xx_hal_rcc_ex.c ****         }
 972:Drivers/STM32G0xx_HAL_Driver/Src/stm32g0xx_hal_rcc_ex.c ****         break;
 973:Drivers/STM32G0xx_HAL_Driver/Src/stm32g0xx_hal_rcc_ex.c **** 
 974:Drivers/STM32G0xx_HAL_Driver/Src/stm32g0xx_hal_rcc_ex.c **** #if defined(RCC_CCIPR2_I2S2SEL)
 975:Drivers/STM32G0xx_HAL_Driver/Src/stm32g0xx_hal_rcc_ex.c ****       case RCC_PERIPHCLK_I2S2:
 976:Drivers/STM32G0xx_HAL_Driver/Src/stm32g0xx_hal_rcc_ex.c ****         /* Get the current I2S2 source */
 977:Drivers/STM32G0xx_HAL_Driver/Src/stm32g0xx_hal_rcc_ex.c ****         srcclk = __HAL_RCC_GET_I2S2_SOURCE();
 978:Drivers/STM32G0xx_HAL_Driver/Src/stm32g0xx_hal_rcc_ex.c **** 
 979:Drivers/STM32G0xx_HAL_Driver/Src/stm32g0xx_hal_rcc_ex.c ****         if (srcclk == RCC_I2S2CLKSOURCE_PLL)
 980:Drivers/STM32G0xx_HAL_Driver/Src/stm32g0xx_hal_rcc_ex.c ****         {
 981:Drivers/STM32G0xx_HAL_Driver/Src/stm32g0xx_hal_rcc_ex.c ****           if (__HAL_RCC_GET_PLLCLKOUT_CONFIG(RCC_PLLPCLK) != 0U)
 982:Drivers/STM32G0xx_HAL_Driver/Src/stm32g0xx_hal_rcc_ex.c ****           {
 983:Drivers/STM32G0xx_HAL_Driver/Src/stm32g0xx_hal_rcc_ex.c ****             /* f(PLLP) = f(VCO input) * PLLN / PLLP */
 984:Drivers/STM32G0xx_HAL_Driver/Src/stm32g0xx_hal_rcc_ex.c ****             plln = READ_BIT(RCC->PLLCFGR, RCC_PLLCFGR_PLLN) >> RCC_PLLCFGR_PLLN_Pos;
 985:Drivers/STM32G0xx_HAL_Driver/Src/stm32g0xx_hal_rcc_ex.c ****             frequency = (pllvco * plln) / ((READ_BIT(RCC->PLLCFGR, RCC_PLLCFGR_PLLP) >> RCC_PLLCFGR
 986:Drivers/STM32G0xx_HAL_Driver/Src/stm32g0xx_hal_rcc_ex.c ****           }
 987:Drivers/STM32G0xx_HAL_Driver/Src/stm32g0xx_hal_rcc_ex.c ****         }
 988:Drivers/STM32G0xx_HAL_Driver/Src/stm32g0xx_hal_rcc_ex.c ****         else if (srcclk == RCC_I2S2CLKSOURCE_SYSCLK)
 989:Drivers/STM32G0xx_HAL_Driver/Src/stm32g0xx_hal_rcc_ex.c ****         {
 990:Drivers/STM32G0xx_HAL_Driver/Src/stm32g0xx_hal_rcc_ex.c ****           frequency = HAL_RCC_GetSysClockFreq();
 991:Drivers/STM32G0xx_HAL_Driver/Src/stm32g0xx_hal_rcc_ex.c ****         }
 992:Drivers/STM32G0xx_HAL_Driver/Src/stm32g0xx_hal_rcc_ex.c ****         else if ((HAL_IS_BIT_SET(RCC->CR, RCC_CR_HSIRDY)) && (srcclk == RCC_I2S2CLKSOURCE_HSI))
 993:Drivers/STM32G0xx_HAL_Driver/Src/stm32g0xx_hal_rcc_ex.c ****         {
 994:Drivers/STM32G0xx_HAL_Driver/Src/stm32g0xx_hal_rcc_ex.c ****           frequency = HSI_VALUE;
 995:Drivers/STM32G0xx_HAL_Driver/Src/stm32g0xx_hal_rcc_ex.c ****         }
ARM GAS  /tmp/ccVU8yv2.s 			page 39


 996:Drivers/STM32G0xx_HAL_Driver/Src/stm32g0xx_hal_rcc_ex.c ****         else if (srcclk == RCC_I2S2CLKSOURCE_EXT)
 997:Drivers/STM32G0xx_HAL_Driver/Src/stm32g0xx_hal_rcc_ex.c ****         {
 998:Drivers/STM32G0xx_HAL_Driver/Src/stm32g0xx_hal_rcc_ex.c ****           /* External clock used.*/
 999:Drivers/STM32G0xx_HAL_Driver/Src/stm32g0xx_hal_rcc_ex.c ****           frequency = EXTERNAL_I2S2_CLOCK_VALUE;
1000:Drivers/STM32G0xx_HAL_Driver/Src/stm32g0xx_hal_rcc_ex.c ****         }
1001:Drivers/STM32G0xx_HAL_Driver/Src/stm32g0xx_hal_rcc_ex.c ****         /* Clock not enabled for I2S2 */
1002:Drivers/STM32G0xx_HAL_Driver/Src/stm32g0xx_hal_rcc_ex.c ****         else
1003:Drivers/STM32G0xx_HAL_Driver/Src/stm32g0xx_hal_rcc_ex.c ****         {
1004:Drivers/STM32G0xx_HAL_Driver/Src/stm32g0xx_hal_rcc_ex.c ****           /* Nothing to do as frequency already initialized to 0U */
1005:Drivers/STM32G0xx_HAL_Driver/Src/stm32g0xx_hal_rcc_ex.c ****         }
1006:Drivers/STM32G0xx_HAL_Driver/Src/stm32g0xx_hal_rcc_ex.c ****         break;
1007:Drivers/STM32G0xx_HAL_Driver/Src/stm32g0xx_hal_rcc_ex.c **** #endif /* RCC_CCIPR2_I2S2SEL */
1008:Drivers/STM32G0xx_HAL_Driver/Src/stm32g0xx_hal_rcc_ex.c **** 
1009:Drivers/STM32G0xx_HAL_Driver/Src/stm32g0xx_hal_rcc_ex.c **** #if defined(RCC_CCIPR_LPTIM1SEL)
1010:Drivers/STM32G0xx_HAL_Driver/Src/stm32g0xx_hal_rcc_ex.c ****       case RCC_PERIPHCLK_LPTIM1:
1011:Drivers/STM32G0xx_HAL_Driver/Src/stm32g0xx_hal_rcc_ex.c ****         /* Get the current LPTIM1 source */
1012:Drivers/STM32G0xx_HAL_Driver/Src/stm32g0xx_hal_rcc_ex.c ****         srcclk = __HAL_RCC_GET_LPTIM1_SOURCE();
1013:Drivers/STM32G0xx_HAL_Driver/Src/stm32g0xx_hal_rcc_ex.c **** 
1014:Drivers/STM32G0xx_HAL_Driver/Src/stm32g0xx_hal_rcc_ex.c ****         if (srcclk == RCC_LPTIM1CLKSOURCE_PCLK1)
1015:Drivers/STM32G0xx_HAL_Driver/Src/stm32g0xx_hal_rcc_ex.c ****         {
1016:Drivers/STM32G0xx_HAL_Driver/Src/stm32g0xx_hal_rcc_ex.c ****           frequency = HAL_RCC_GetPCLK1Freq();
1017:Drivers/STM32G0xx_HAL_Driver/Src/stm32g0xx_hal_rcc_ex.c ****         }
1018:Drivers/STM32G0xx_HAL_Driver/Src/stm32g0xx_hal_rcc_ex.c ****         else if ((HAL_IS_BIT_SET(RCC->CSR, RCC_CSR_LSIRDY)) && (srcclk == RCC_LPTIM1CLKSOURCE_LSI))
1019:Drivers/STM32G0xx_HAL_Driver/Src/stm32g0xx_hal_rcc_ex.c ****         {
1020:Drivers/STM32G0xx_HAL_Driver/Src/stm32g0xx_hal_rcc_ex.c ****           frequency = LSI_VALUE;
1021:Drivers/STM32G0xx_HAL_Driver/Src/stm32g0xx_hal_rcc_ex.c ****         }
1022:Drivers/STM32G0xx_HAL_Driver/Src/stm32g0xx_hal_rcc_ex.c ****         else if ((HAL_IS_BIT_SET(RCC->CR, RCC_CR_HSIRDY)) && (srcclk == RCC_LPTIM1CLKSOURCE_HSI))
1023:Drivers/STM32G0xx_HAL_Driver/Src/stm32g0xx_hal_rcc_ex.c ****         {
1024:Drivers/STM32G0xx_HAL_Driver/Src/stm32g0xx_hal_rcc_ex.c ****           frequency = HSI_VALUE;
1025:Drivers/STM32G0xx_HAL_Driver/Src/stm32g0xx_hal_rcc_ex.c ****         }
1026:Drivers/STM32G0xx_HAL_Driver/Src/stm32g0xx_hal_rcc_ex.c ****         else if ((HAL_IS_BIT_SET(RCC->BDCR, RCC_BDCR_LSERDY)) && (srcclk == RCC_LPTIM1CLKSOURCE_LSE
1027:Drivers/STM32G0xx_HAL_Driver/Src/stm32g0xx_hal_rcc_ex.c ****         {
1028:Drivers/STM32G0xx_HAL_Driver/Src/stm32g0xx_hal_rcc_ex.c ****           frequency = LSE_VALUE;
1029:Drivers/STM32G0xx_HAL_Driver/Src/stm32g0xx_hal_rcc_ex.c ****         }
1030:Drivers/STM32G0xx_HAL_Driver/Src/stm32g0xx_hal_rcc_ex.c ****         /* Clock not enabled for LPTIM1 */
1031:Drivers/STM32G0xx_HAL_Driver/Src/stm32g0xx_hal_rcc_ex.c ****         else
1032:Drivers/STM32G0xx_HAL_Driver/Src/stm32g0xx_hal_rcc_ex.c ****         {
1033:Drivers/STM32G0xx_HAL_Driver/Src/stm32g0xx_hal_rcc_ex.c ****           /* Nothing to do as frequency already initialized to 0U */
1034:Drivers/STM32G0xx_HAL_Driver/Src/stm32g0xx_hal_rcc_ex.c ****         }
1035:Drivers/STM32G0xx_HAL_Driver/Src/stm32g0xx_hal_rcc_ex.c ****         break;
1036:Drivers/STM32G0xx_HAL_Driver/Src/stm32g0xx_hal_rcc_ex.c **** #endif /* RCC_CCIPR_LPTIM1SEL */
1037:Drivers/STM32G0xx_HAL_Driver/Src/stm32g0xx_hal_rcc_ex.c **** 
1038:Drivers/STM32G0xx_HAL_Driver/Src/stm32g0xx_hal_rcc_ex.c **** #if defined(RCC_CCIPR_LPTIM2SEL)
1039:Drivers/STM32G0xx_HAL_Driver/Src/stm32g0xx_hal_rcc_ex.c ****       case RCC_PERIPHCLK_LPTIM2:
1040:Drivers/STM32G0xx_HAL_Driver/Src/stm32g0xx_hal_rcc_ex.c ****         /* Get the current LPTIM2 source */
1041:Drivers/STM32G0xx_HAL_Driver/Src/stm32g0xx_hal_rcc_ex.c ****         srcclk = __HAL_RCC_GET_LPTIM2_SOURCE();
 1132              		.loc 1 1041 9 is_stmt 1 view .LVU324
 1133              		.loc 1 1041 18 is_stmt 0 view .LVU325
 1134 00c4 914B     		ldr	r3, .L219
 1135 00c6 5A6D     		ldr	r2, [r3, #84]
 1136              		.loc 1 1041 16 view .LVU326
 1137 00c8 C023     		movs	r3, #192
 1138 00ca 9B03     		lsls	r3, r3, #14
 1139 00cc 1100     		movs	r1, r2
 1140 00ce 1940     		ands	r1, r3
 1141              	.LVL43:
1042:Drivers/STM32G0xx_HAL_Driver/Src/stm32g0xx_hal_rcc_ex.c **** 
ARM GAS  /tmp/ccVU8yv2.s 			page 40


1043:Drivers/STM32G0xx_HAL_Driver/Src/stm32g0xx_hal_rcc_ex.c ****         if (srcclk == RCC_LPTIM2CLKSOURCE_PCLK1)
 1142              		.loc 1 1043 9 is_stmt 1 view .LVU327
 1143              		.loc 1 1043 12 is_stmt 0 view .LVU328
 1144 00d0 1A42     		tst	r2, r3
 1145 00d2 00D1     		bne	.LCB1021
 1146 00d4 60E2     		b	.L186	@long jump
 1147              	.LCB1021:
1044:Drivers/STM32G0xx_HAL_Driver/Src/stm32g0xx_hal_rcc_ex.c ****         {
1045:Drivers/STM32G0xx_HAL_Driver/Src/stm32g0xx_hal_rcc_ex.c ****           frequency = HAL_RCC_GetPCLK1Freq();
1046:Drivers/STM32G0xx_HAL_Driver/Src/stm32g0xx_hal_rcc_ex.c ****         }
1047:Drivers/STM32G0xx_HAL_Driver/Src/stm32g0xx_hal_rcc_ex.c ****         else if ((HAL_IS_BIT_SET(RCC->CSR, RCC_CSR_LSIRDY)) && (srcclk == RCC_LPTIM2CLKSOURCE_LSI))
 1148              		.loc 1 1047 14 is_stmt 1 view .LVU329
 1149              		.loc 1 1047 19 is_stmt 0 view .LVU330
 1150 00d6 8D4B     		ldr	r3, .L219
 1151 00d8 1B6E     		ldr	r3, [r3, #96]
 1152              		.loc 1 1047 17 view .LVU331
 1153 00da 9B07     		lsls	r3, r3, #30
 1154 00dc 04D5     		bpl	.L124
 1155              		.loc 1 1047 61 discriminator 1 view .LVU332
 1156 00de 8023     		movs	r3, #128
 1157 00e0 5B03     		lsls	r3, r3, #13
 1158 00e2 9942     		cmp	r1, r3
 1159 00e4 00D1     		bne	.LCB1032
 1160 00e6 12E3     		b	.L162	@long jump
 1161              	.LCB1032:
 1162              	.L124:
1048:Drivers/STM32G0xx_HAL_Driver/Src/stm32g0xx_hal_rcc_ex.c ****         {
1049:Drivers/STM32G0xx_HAL_Driver/Src/stm32g0xx_hal_rcc_ex.c ****           frequency = LSI_VALUE;
1050:Drivers/STM32G0xx_HAL_Driver/Src/stm32g0xx_hal_rcc_ex.c ****         }
1051:Drivers/STM32G0xx_HAL_Driver/Src/stm32g0xx_hal_rcc_ex.c ****         else if ((HAL_IS_BIT_SET(RCC->CR, RCC_CR_HSIRDY)) && (srcclk == RCC_LPTIM2CLKSOURCE_HSI))
 1163              		.loc 1 1051 14 is_stmt 1 view .LVU333
 1164              		.loc 1 1051 19 is_stmt 0 view .LVU334
 1165 00e8 884B     		ldr	r3, .L219
 1166 00ea 1B68     		ldr	r3, [r3]
 1167              		.loc 1 1051 17 view .LVU335
 1168 00ec 5B05     		lsls	r3, r3, #21
 1169 00ee 04D5     		bpl	.L125
 1170              		.loc 1 1051 59 discriminator 1 view .LVU336
 1171 00f0 8023     		movs	r3, #128
 1172 00f2 9B03     		lsls	r3, r3, #14
 1173 00f4 9942     		cmp	r1, r3
 1174 00f6 00D1     		bne	.LCB1044
 1175 00f8 0CE3     		b	.L163	@long jump
 1176              	.LCB1044:
 1177              	.L125:
1052:Drivers/STM32G0xx_HAL_Driver/Src/stm32g0xx_hal_rcc_ex.c ****         {
1053:Drivers/STM32G0xx_HAL_Driver/Src/stm32g0xx_hal_rcc_ex.c ****           frequency = HSI_VALUE;
1054:Drivers/STM32G0xx_HAL_Driver/Src/stm32g0xx_hal_rcc_ex.c ****         }
1055:Drivers/STM32G0xx_HAL_Driver/Src/stm32g0xx_hal_rcc_ex.c ****         else if ((HAL_IS_BIT_SET(RCC->BDCR, RCC_BDCR_LSERDY)) && (srcclk == RCC_LPTIM2CLKSOURCE_LSE
 1178              		.loc 1 1055 14 is_stmt 1 view .LVU337
 1179              		.loc 1 1055 19 is_stmt 0 view .LVU338
 1180 00fa 844B     		ldr	r3, .L219
 1181 00fc DB6D     		ldr	r3, [r3, #92]
 1182 00fe 0222     		movs	r2, #2
 1183 0100 1000     		movs	r0, r2
 1184              	.LVL44:
 1185              		.loc 1 1055 19 view .LVU339
ARM GAS  /tmp/ccVU8yv2.s 			page 41


 1186 0102 1840     		ands	r0, r3
 1187              		.loc 1 1055 17 view .LVU340
 1188 0104 1A42     		tst	r2, r3
 1189 0106 00D1     		bne	.LCB1054
 1190 0108 CCE2     		b	.L65	@long jump
 1191              	.LCB1054:
 1192              		.loc 1 1055 63 discriminator 1 view .LVU341
 1193 010a C023     		movs	r3, #192
 1194 010c 9B03     		lsls	r3, r3, #14
 1195 010e 9942     		cmp	r1, r3
 1196 0110 00D1     		bne	.LCB1058
 1197 0112 01E3     		b	.L164	@long jump
 1198              	.LCB1058:
 614:Drivers/STM32G0xx_HAL_Driver/Src/stm32g0xx_hal_rcc_ex.c ****   uint32_t srcclk;
 1199              		.loc 1 614 12 view .LVU342
 1200 0114 0020     		movs	r0, #0
 1201 0116 C5E2     		b	.L65
 1202              	.LVL45:
 1203              	.L185:
 672:Drivers/STM32G0xx_HAL_Driver/Src/stm32g0xx_hal_rcc_ex.c ****     {
 1204              		.loc 1 672 5 view .LVU343
 1205 0118 402C     		cmp	r4, #64
 1206 011a 1DD1     		bne	.L187
 919:Drivers/STM32G0xx_HAL_Driver/Src/stm32g0xx_hal_rcc_ex.c **** 
 1207              		.loc 1 919 9 is_stmt 1 view .LVU344
 919:Drivers/STM32G0xx_HAL_Driver/Src/stm32g0xx_hal_rcc_ex.c **** 
 1208              		.loc 1 919 18 is_stmt 0 view .LVU345
 1209 011c 7B4B     		ldr	r3, .L219
 1210 011e 5A6D     		ldr	r2, [r3, #84]
 919:Drivers/STM32G0xx_HAL_Driver/Src/stm32g0xx_hal_rcc_ex.c **** 
 1211              		.loc 1 919 16 view .LVU346
 1212 0120 C023     		movs	r3, #192
 1213 0122 1B02     		lsls	r3, r3, #8
 1214 0124 1100     		movs	r1, r2
 1215 0126 1940     		ands	r1, r3
 1216              	.LVL46:
 921:Drivers/STM32G0xx_HAL_Driver/Src/stm32g0xx_hal_rcc_ex.c ****         {
 1217              		.loc 1 921 9 is_stmt 1 view .LVU347
 921:Drivers/STM32G0xx_HAL_Driver/Src/stm32g0xx_hal_rcc_ex.c ****         {
 1218              		.loc 1 921 12 is_stmt 0 view .LVU348
 1219 0128 1A42     		tst	r2, r3
 1220 012a 00D1     		bne	.LCB1078
 1221 012c BAE1     		b	.L188	@long jump
 1222              	.LCB1078:
 925:Drivers/STM32G0xx_HAL_Driver/Src/stm32g0xx_hal_rcc_ex.c ****         {
 1223              		.loc 1 925 14 is_stmt 1 view .LVU349
 925:Drivers/STM32G0xx_HAL_Driver/Src/stm32g0xx_hal_rcc_ex.c ****         {
 1224              		.loc 1 925 17 is_stmt 0 view .LVU350
 1225 012e 8023     		movs	r3, #128
 1226 0130 DB01     		lsls	r3, r3, #7
 1227 0132 9942     		cmp	r1, r3
 1228 0134 00D1     		bne	.LCB1083
 1229 0136 B8E1     		b	.L189	@long jump
 1230              	.LCB1083:
 929:Drivers/STM32G0xx_HAL_Driver/Src/stm32g0xx_hal_rcc_ex.c ****         {
 1231              		.loc 1 929 14 is_stmt 1 view .LVU351
 929:Drivers/STM32G0xx_HAL_Driver/Src/stm32g0xx_hal_rcc_ex.c ****         {
ARM GAS  /tmp/ccVU8yv2.s 			page 42


 1232              		.loc 1 929 19 is_stmt 0 view .LVU352
 1233 0138 744B     		ldr	r3, .L219
 1234 013a 1A68     		ldr	r2, [r3]
 1235 013c 8023     		movs	r3, #128
 1236 013e DB00     		lsls	r3, r3, #3
 1237 0140 1000     		movs	r0, r2
 1238              	.LVL47:
 929:Drivers/STM32G0xx_HAL_Driver/Src/stm32g0xx_hal_rcc_ex.c ****         {
 1239              		.loc 1 929 19 view .LVU353
 1240 0142 1840     		ands	r0, r3
 929:Drivers/STM32G0xx_HAL_Driver/Src/stm32g0xx_hal_rcc_ex.c ****         {
 1241              		.loc 1 929 17 view .LVU354
 1242 0144 1A42     		tst	r2, r3
 1243 0146 00D1     		bne	.LCB1093
 1244 0148 ACE2     		b	.L65	@long jump
 1245              	.LCB1093:
 929:Drivers/STM32G0xx_HAL_Driver/Src/stm32g0xx_hal_rcc_ex.c ****         {
 1246              		.loc 1 929 59 discriminator 1 view .LVU355
 1247 014a 8023     		movs	r3, #128
 1248 014c 1B02     		lsls	r3, r3, #8
 1249 014e 9942     		cmp	r1, r3
 1250 0150 00D1     		bne	.LCB1097
 1251 0152 CAE2     		b	.L154	@long jump
 1252              	.LCB1097:
 614:Drivers/STM32G0xx_HAL_Driver/Src/stm32g0xx_hal_rcc_ex.c ****   uint32_t srcclk;
 1253              		.loc 1 614 12 view .LVU356
 1254 0154 0020     		movs	r0, #0
 1255 0156 A5E2     		b	.L65
 1256              	.LVL48:
 1257              	.L187:
 672:Drivers/STM32G0xx_HAL_Driver/Src/stm32g0xx_hal_rcc_ex.c ****     {
 1258              		.loc 1 672 5 view .LVU357
 1259 0158 0020     		movs	r0, #0
 1260              	.LVL49:
 672:Drivers/STM32G0xx_HAL_Driver/Src/stm32g0xx_hal_rcc_ex.c ****     {
 1261              		.loc 1 672 5 view .LVU358
 1262 015a A3E2     		b	.L65
 1263              	.LVL50:
 1264              	.L72:
 672:Drivers/STM32G0xx_HAL_Driver/Src/stm32g0xx_hal_rcc_ex.c ****     {
 1265              		.loc 1 672 5 view .LVU359
 1266 015c 8022     		movs	r2, #128
 1267 015e 9203     		lsls	r2, r2, #14
 1268 0160 9442     		cmp	r4, r2
 1269 0162 00D1     		bne	.LCB1115
 1270 0164 1BE2     		b	.L83	@long jump
 1271              	.LCB1115:
 1272 0166 25D9     		bls	.L190
 1273 0168 8022     		movs	r2, #128
 1274 016a 5204     		lsls	r2, r2, #17
 1275 016c 9442     		cmp	r4, r2
 1276 016e 00D1     		bne	.LCB1121
 1277 0170 35E2     		b	.L90	@long jump
 1278              	.LCB1121:
 1279 0172 8022     		movs	r2, #128
 1280 0174 9204     		lsls	r2, r2, #18
 1281 0176 9442     		cmp	r4, r2
ARM GAS  /tmp/ccVU8yv2.s 			page 43


 1282 0178 60D1     		bne	.L191
1056:Drivers/STM32G0xx_HAL_Driver/Src/stm32g0xx_hal_rcc_ex.c ****         {
1057:Drivers/STM32G0xx_HAL_Driver/Src/stm32g0xx_hal_rcc_ex.c ****           frequency = LSE_VALUE;
1058:Drivers/STM32G0xx_HAL_Driver/Src/stm32g0xx_hal_rcc_ex.c ****         }
1059:Drivers/STM32G0xx_HAL_Driver/Src/stm32g0xx_hal_rcc_ex.c ****         /* Clock not enabled for LPTIM2 */
1060:Drivers/STM32G0xx_HAL_Driver/Src/stm32g0xx_hal_rcc_ex.c ****         else
1061:Drivers/STM32G0xx_HAL_Driver/Src/stm32g0xx_hal_rcc_ex.c ****         {
1062:Drivers/STM32G0xx_HAL_Driver/Src/stm32g0xx_hal_rcc_ex.c ****           /* Nothing to do as frequency already initialized to 0U */
1063:Drivers/STM32G0xx_HAL_Driver/Src/stm32g0xx_hal_rcc_ex.c ****         }
1064:Drivers/STM32G0xx_HAL_Driver/Src/stm32g0xx_hal_rcc_ex.c ****         break;
1065:Drivers/STM32G0xx_HAL_Driver/Src/stm32g0xx_hal_rcc_ex.c **** #endif /* RCC_CCIPR_LPTIM2SEL */
1066:Drivers/STM32G0xx_HAL_Driver/Src/stm32g0xx_hal_rcc_ex.c **** 
1067:Drivers/STM32G0xx_HAL_Driver/Src/stm32g0xx_hal_rcc_ex.c **** #if defined(RCC_CCIPR_TIM1SEL)
1068:Drivers/STM32G0xx_HAL_Driver/Src/stm32g0xx_hal_rcc_ex.c ****       case RCC_PERIPHCLK_TIM1:
1069:Drivers/STM32G0xx_HAL_Driver/Src/stm32g0xx_hal_rcc_ex.c **** 
1070:Drivers/STM32G0xx_HAL_Driver/Src/stm32g0xx_hal_rcc_ex.c ****         srcclk = READ_BIT(RCC->CCIPR, RCC_CCIPR_TIM1SEL);
1071:Drivers/STM32G0xx_HAL_Driver/Src/stm32g0xx_hal_rcc_ex.c **** 
1072:Drivers/STM32G0xx_HAL_Driver/Src/stm32g0xx_hal_rcc_ex.c ****         if (srcclk == RCC_TIM1CLKSOURCE_PLL) /* PLL ? */
1073:Drivers/STM32G0xx_HAL_Driver/Src/stm32g0xx_hal_rcc_ex.c ****         {
1074:Drivers/STM32G0xx_HAL_Driver/Src/stm32g0xx_hal_rcc_ex.c ****           if (__HAL_RCC_GET_PLLCLKOUT_CONFIG(RCC_PLLQCLK) != 0U)
1075:Drivers/STM32G0xx_HAL_Driver/Src/stm32g0xx_hal_rcc_ex.c ****           {
1076:Drivers/STM32G0xx_HAL_Driver/Src/stm32g0xx_hal_rcc_ex.c ****             /* f(PLLQ) = f(VCO input) * PLLN / PLLQ */
1077:Drivers/STM32G0xx_HAL_Driver/Src/stm32g0xx_hal_rcc_ex.c ****             plln = READ_BIT(RCC->PLLCFGR, RCC_PLLCFGR_PLLN) >> RCC_PLLCFGR_PLLN_Pos;
1078:Drivers/STM32G0xx_HAL_Driver/Src/stm32g0xx_hal_rcc_ex.c ****             frequency = (pllvco * plln) / ((READ_BIT(RCC->PLLCFGR, RCC_PLLCFGR_PLLQ) >> RCC_PLLCFGR
1079:Drivers/STM32G0xx_HAL_Driver/Src/stm32g0xx_hal_rcc_ex.c ****           }
1080:Drivers/STM32G0xx_HAL_Driver/Src/stm32g0xx_hal_rcc_ex.c ****         }
1081:Drivers/STM32G0xx_HAL_Driver/Src/stm32g0xx_hal_rcc_ex.c ****         else if (srcclk == RCC_TIM1CLKSOURCE_PCLK1) /* PCLK1 ? */
1082:Drivers/STM32G0xx_HAL_Driver/Src/stm32g0xx_hal_rcc_ex.c ****         {
1083:Drivers/STM32G0xx_HAL_Driver/Src/stm32g0xx_hal_rcc_ex.c ****           frequency = HAL_RCC_GetPCLK1Freq();
1084:Drivers/STM32G0xx_HAL_Driver/Src/stm32g0xx_hal_rcc_ex.c ****         }
1085:Drivers/STM32G0xx_HAL_Driver/Src/stm32g0xx_hal_rcc_ex.c ****         else /* No clock source */
1086:Drivers/STM32G0xx_HAL_Driver/Src/stm32g0xx_hal_rcc_ex.c ****         {
1087:Drivers/STM32G0xx_HAL_Driver/Src/stm32g0xx_hal_rcc_ex.c ****           /* Nothing to do as frequency already initialized to 0U */
1088:Drivers/STM32G0xx_HAL_Driver/Src/stm32g0xx_hal_rcc_ex.c ****         }
1089:Drivers/STM32G0xx_HAL_Driver/Src/stm32g0xx_hal_rcc_ex.c ****         break;
1090:Drivers/STM32G0xx_HAL_Driver/Src/stm32g0xx_hal_rcc_ex.c **** #endif /* RCC_CCIPR_TIM1SEL */
1091:Drivers/STM32G0xx_HAL_Driver/Src/stm32g0xx_hal_rcc_ex.c **** 
1092:Drivers/STM32G0xx_HAL_Driver/Src/stm32g0xx_hal_rcc_ex.c **** #if defined(RCC_CCIPR_TIM15SEL)
1093:Drivers/STM32G0xx_HAL_Driver/Src/stm32g0xx_hal_rcc_ex.c ****       case RCC_PERIPHCLK_TIM15:
1094:Drivers/STM32G0xx_HAL_Driver/Src/stm32g0xx_hal_rcc_ex.c **** 
1095:Drivers/STM32G0xx_HAL_Driver/Src/stm32g0xx_hal_rcc_ex.c ****         srcclk = READ_BIT(RCC->CCIPR, RCC_CCIPR_TIM15SEL);
1096:Drivers/STM32G0xx_HAL_Driver/Src/stm32g0xx_hal_rcc_ex.c **** 
1097:Drivers/STM32G0xx_HAL_Driver/Src/stm32g0xx_hal_rcc_ex.c ****         if (srcclk == RCC_TIM15CLKSOURCE_PLL) /* PLL ? */
1098:Drivers/STM32G0xx_HAL_Driver/Src/stm32g0xx_hal_rcc_ex.c ****         {
1099:Drivers/STM32G0xx_HAL_Driver/Src/stm32g0xx_hal_rcc_ex.c ****           if (__HAL_RCC_GET_PLLCLKOUT_CONFIG(RCC_PLLQCLK) != 0U)
1100:Drivers/STM32G0xx_HAL_Driver/Src/stm32g0xx_hal_rcc_ex.c ****           {
1101:Drivers/STM32G0xx_HAL_Driver/Src/stm32g0xx_hal_rcc_ex.c ****             /* f(PLLQ) = f(VCO input) * PLLN / PLLQ */
1102:Drivers/STM32G0xx_HAL_Driver/Src/stm32g0xx_hal_rcc_ex.c ****             plln = READ_BIT(RCC->PLLCFGR, RCC_PLLCFGR_PLLN) >> RCC_PLLCFGR_PLLN_Pos;
1103:Drivers/STM32G0xx_HAL_Driver/Src/stm32g0xx_hal_rcc_ex.c ****             frequency = (pllvco * plln) / ((READ_BIT(RCC->PLLCFGR, RCC_PLLCFGR_PLLQ) >> RCC_PLLCFGR
1104:Drivers/STM32G0xx_HAL_Driver/Src/stm32g0xx_hal_rcc_ex.c ****           }
1105:Drivers/STM32G0xx_HAL_Driver/Src/stm32g0xx_hal_rcc_ex.c ****         }
1106:Drivers/STM32G0xx_HAL_Driver/Src/stm32g0xx_hal_rcc_ex.c ****         else if (srcclk == RCC_TIM15CLKSOURCE_PCLK1) /* PCLK1 ? */
1107:Drivers/STM32G0xx_HAL_Driver/Src/stm32g0xx_hal_rcc_ex.c ****         {
1108:Drivers/STM32G0xx_HAL_Driver/Src/stm32g0xx_hal_rcc_ex.c ****           frequency = HAL_RCC_GetPCLK1Freq();
1109:Drivers/STM32G0xx_HAL_Driver/Src/stm32g0xx_hal_rcc_ex.c ****         }
1110:Drivers/STM32G0xx_HAL_Driver/Src/stm32g0xx_hal_rcc_ex.c ****         else /* No clock source */
1111:Drivers/STM32G0xx_HAL_Driver/Src/stm32g0xx_hal_rcc_ex.c ****         {
ARM GAS  /tmp/ccVU8yv2.s 			page 44


1112:Drivers/STM32G0xx_HAL_Driver/Src/stm32g0xx_hal_rcc_ex.c ****           /* Nothing to do as frequency already initialized to 0U */
1113:Drivers/STM32G0xx_HAL_Driver/Src/stm32g0xx_hal_rcc_ex.c ****         }
1114:Drivers/STM32G0xx_HAL_Driver/Src/stm32g0xx_hal_rcc_ex.c ****         break;
1115:Drivers/STM32G0xx_HAL_Driver/Src/stm32g0xx_hal_rcc_ex.c **** #endif /* RCC_CCIPR_TIM15SEL */
1116:Drivers/STM32G0xx_HAL_Driver/Src/stm32g0xx_hal_rcc_ex.c **** 
1117:Drivers/STM32G0xx_HAL_Driver/Src/stm32g0xx_hal_rcc_ex.c **** #if defined(RCC_CCIPR2_USBSEL)
1118:Drivers/STM32G0xx_HAL_Driver/Src/stm32g0xx_hal_rcc_ex.c ****       case RCC_PERIPHCLK_USB:
1119:Drivers/STM32G0xx_HAL_Driver/Src/stm32g0xx_hal_rcc_ex.c **** 
1120:Drivers/STM32G0xx_HAL_Driver/Src/stm32g0xx_hal_rcc_ex.c ****         srcclk = READ_BIT(RCC->CCIPR2, RCC_CCIPR2_USBSEL);
1121:Drivers/STM32G0xx_HAL_Driver/Src/stm32g0xx_hal_rcc_ex.c **** 
1122:Drivers/STM32G0xx_HAL_Driver/Src/stm32g0xx_hal_rcc_ex.c ****         if (srcclk == RCC_USBCLKSOURCE_PLL) /* PLL ? */
1123:Drivers/STM32G0xx_HAL_Driver/Src/stm32g0xx_hal_rcc_ex.c ****         {
1124:Drivers/STM32G0xx_HAL_Driver/Src/stm32g0xx_hal_rcc_ex.c ****           if (__HAL_RCC_GET_PLLCLKOUT_CONFIG(RCC_PLLQCLK) != 0U)
1125:Drivers/STM32G0xx_HAL_Driver/Src/stm32g0xx_hal_rcc_ex.c ****           {
1126:Drivers/STM32G0xx_HAL_Driver/Src/stm32g0xx_hal_rcc_ex.c ****             /* f(PLLQ) = f(VCO input) * PLLN / PLLQ */
1127:Drivers/STM32G0xx_HAL_Driver/Src/stm32g0xx_hal_rcc_ex.c ****             plln = READ_BIT(RCC->PLLCFGR, RCC_PLLCFGR_PLLN) >> RCC_PLLCFGR_PLLN_Pos;
1128:Drivers/STM32G0xx_HAL_Driver/Src/stm32g0xx_hal_rcc_ex.c ****             frequency = (pllvco * plln) / ((READ_BIT(RCC->PLLCFGR, RCC_PLLCFGR_PLLQ) >> RCC_PLLCFGR
1129:Drivers/STM32G0xx_HAL_Driver/Src/stm32g0xx_hal_rcc_ex.c ****           }
1130:Drivers/STM32G0xx_HAL_Driver/Src/stm32g0xx_hal_rcc_ex.c ****         }
1131:Drivers/STM32G0xx_HAL_Driver/Src/stm32g0xx_hal_rcc_ex.c **** #if defined(RCC_HSI48_SUPPORT)
1132:Drivers/STM32G0xx_HAL_Driver/Src/stm32g0xx_hal_rcc_ex.c ****         else if (srcclk == RCC_USBCLKSOURCE_HSI48) /* HSI48 ? */
1133:Drivers/STM32G0xx_HAL_Driver/Src/stm32g0xx_hal_rcc_ex.c ****         {
1134:Drivers/STM32G0xx_HAL_Driver/Src/stm32g0xx_hal_rcc_ex.c ****           if ((HAL_IS_BIT_SET(RCC->CR, RCC_CR_HSI48RDY)) && (srcclk == RCC_USBCLKSOURCE_HSI48))
1135:Drivers/STM32G0xx_HAL_Driver/Src/stm32g0xx_hal_rcc_ex.c ****           {
1136:Drivers/STM32G0xx_HAL_Driver/Src/stm32g0xx_hal_rcc_ex.c ****             frequency = HSI48_VALUE;
1137:Drivers/STM32G0xx_HAL_Driver/Src/stm32g0xx_hal_rcc_ex.c ****           }
1138:Drivers/STM32G0xx_HAL_Driver/Src/stm32g0xx_hal_rcc_ex.c ****         }
1139:Drivers/STM32G0xx_HAL_Driver/Src/stm32g0xx_hal_rcc_ex.c **** #endif /* RCC_HSI48_SUPPORT */
1140:Drivers/STM32G0xx_HAL_Driver/Src/stm32g0xx_hal_rcc_ex.c ****         else if (srcclk == RCC_USBCLKSOURCE_HSE)
1141:Drivers/STM32G0xx_HAL_Driver/Src/stm32g0xx_hal_rcc_ex.c ****         {
1142:Drivers/STM32G0xx_HAL_Driver/Src/stm32g0xx_hal_rcc_ex.c ****           if ((HAL_IS_BIT_SET(RCC->CR, RCC_CR_HSERDY)) && (srcclk == RCC_USBCLKSOURCE_HSE))
1143:Drivers/STM32G0xx_HAL_Driver/Src/stm32g0xx_hal_rcc_ex.c ****           {
1144:Drivers/STM32G0xx_HAL_Driver/Src/stm32g0xx_hal_rcc_ex.c ****             frequency = HSE_VALUE;
1145:Drivers/STM32G0xx_HAL_Driver/Src/stm32g0xx_hal_rcc_ex.c ****           }
1146:Drivers/STM32G0xx_HAL_Driver/Src/stm32g0xx_hal_rcc_ex.c ****         }
1147:Drivers/STM32G0xx_HAL_Driver/Src/stm32g0xx_hal_rcc_ex.c ****         else /* No clock source */
1148:Drivers/STM32G0xx_HAL_Driver/Src/stm32g0xx_hal_rcc_ex.c ****         {
1149:Drivers/STM32G0xx_HAL_Driver/Src/stm32g0xx_hal_rcc_ex.c ****           /* Nothing to do as frequency already initialized to 0U */
1150:Drivers/STM32G0xx_HAL_Driver/Src/stm32g0xx_hal_rcc_ex.c ****         }
1151:Drivers/STM32G0xx_HAL_Driver/Src/stm32g0xx_hal_rcc_ex.c ****         break;
1152:Drivers/STM32G0xx_HAL_Driver/Src/stm32g0xx_hal_rcc_ex.c **** #endif /* RCC_CCIPR2_USBSEL */
1153:Drivers/STM32G0xx_HAL_Driver/Src/stm32g0xx_hal_rcc_ex.c **** 
1154:Drivers/STM32G0xx_HAL_Driver/Src/stm32g0xx_hal_rcc_ex.c **** #if defined(RCC_CCIPR2_FDCANSEL)
1155:Drivers/STM32G0xx_HAL_Driver/Src/stm32g0xx_hal_rcc_ex.c ****       case RCC_PERIPHCLK_FDCAN:
1156:Drivers/STM32G0xx_HAL_Driver/Src/stm32g0xx_hal_rcc_ex.c **** 
1157:Drivers/STM32G0xx_HAL_Driver/Src/stm32g0xx_hal_rcc_ex.c ****         srcclk = READ_BIT(RCC->CCIPR2, RCC_CCIPR2_FDCANSEL);
 1283              		.loc 1 1157 9 is_stmt 1 view .LVU360
 1284              		.loc 1 1157 18 is_stmt 0 view .LVU361
 1285 017a 644A     		ldr	r2, .L219
 1286 017c 926D     		ldr	r2, [r2, #88]
 1287              		.loc 1 1157 16 view .LVU362
 1288 017e C021     		movs	r1, #192
 1289 0180 8900     		lsls	r1, r1, #2
 1290 0182 0A40     		ands	r2, r1
 1291              	.LVL51:
1158:Drivers/STM32G0xx_HAL_Driver/Src/stm32g0xx_hal_rcc_ex.c **** 
1159:Drivers/STM32G0xx_HAL_Driver/Src/stm32g0xx_hal_rcc_ex.c ****         if (srcclk == RCC_FDCANCLKSOURCE_PLL) /* PLL ? */
ARM GAS  /tmp/ccVU8yv2.s 			page 45


 1292              		.loc 1 1159 9 is_stmt 1 view .LVU363
 1293              		.loc 1 1159 12 is_stmt 0 view .LVU364
 1294 0184 8021     		movs	r1, #128
 1295 0186 4900     		lsls	r1, r1, #1
 1296 0188 8A42     		cmp	r2, r1
 1297 018a 00D1     		bne	.LCB1137
 1298 018c 66E2     		b	.L192	@long jump
 1299              	.LCB1137:
1160:Drivers/STM32G0xx_HAL_Driver/Src/stm32g0xx_hal_rcc_ex.c ****         {
1161:Drivers/STM32G0xx_HAL_Driver/Src/stm32g0xx_hal_rcc_ex.c ****           if (__HAL_RCC_GET_PLLCLKOUT_CONFIG(RCC_PLLQCLK) != 0U)
1162:Drivers/STM32G0xx_HAL_Driver/Src/stm32g0xx_hal_rcc_ex.c ****           {
1163:Drivers/STM32G0xx_HAL_Driver/Src/stm32g0xx_hal_rcc_ex.c ****             /* f(PLLQ) = f(VCO input) * PLLN / PLLQ */
1164:Drivers/STM32G0xx_HAL_Driver/Src/stm32g0xx_hal_rcc_ex.c ****             plln = READ_BIT(RCC->PLLCFGR, RCC_PLLCFGR_PLLN) >> RCC_PLLCFGR_PLLN_Pos;
1165:Drivers/STM32G0xx_HAL_Driver/Src/stm32g0xx_hal_rcc_ex.c ****             frequency = (pllvco * plln) / ((READ_BIT(RCC->PLLCFGR, RCC_PLLCFGR_PLLQ) >> RCC_PLLCFGR
1166:Drivers/STM32G0xx_HAL_Driver/Src/stm32g0xx_hal_rcc_ex.c ****           }
1167:Drivers/STM32G0xx_HAL_Driver/Src/stm32g0xx_hal_rcc_ex.c ****         }
1168:Drivers/STM32G0xx_HAL_Driver/Src/stm32g0xx_hal_rcc_ex.c ****         else if (srcclk == RCC_FDCANCLKSOURCE_PCLK1) /* PCLK1 ? */
 1300              		.loc 1 1168 14 is_stmt 1 view .LVU365
 1301              		.loc 1 1168 17 is_stmt 0 view .LVU366
 1302 018e 002A     		cmp	r2, #0
 1303 0190 00D1     		bne	.LCB1140
 1304 0192 79E2     		b	.L193	@long jump
 1305              	.LCB1140:
1169:Drivers/STM32G0xx_HAL_Driver/Src/stm32g0xx_hal_rcc_ex.c ****         {
1170:Drivers/STM32G0xx_HAL_Driver/Src/stm32g0xx_hal_rcc_ex.c ****           frequency = HAL_RCC_GetPCLK1Freq();
1171:Drivers/STM32G0xx_HAL_Driver/Src/stm32g0xx_hal_rcc_ex.c ****         }
1172:Drivers/STM32G0xx_HAL_Driver/Src/stm32g0xx_hal_rcc_ex.c ****         else if ((HAL_IS_BIT_SET(RCC->CR, RCC_CR_HSERDY)) && (srcclk == RCC_FDCANCLKSOURCE_HSE))
 1306              		.loc 1 1172 14 is_stmt 1 view .LVU367
 1307              		.loc 1 1172 19 is_stmt 0 view .LVU368
 1308 0194 5D4B     		ldr	r3, .L219
 1309 0196 1968     		ldr	r1, [r3]
 1310 0198 8023     		movs	r3, #128
 1311 019a 9B02     		lsls	r3, r3, #10
 1312 019c 0800     		movs	r0, r1
 1313              	.LVL52:
 1314              		.loc 1 1172 19 view .LVU369
 1315 019e 1840     		ands	r0, r3
 1316              		.loc 1 1172 17 view .LVU370
 1317 01a0 1942     		tst	r1, r3
 1318 01a2 00D1     		bne	.LCB1150
 1319 01a4 7EE2     		b	.L65	@long jump
 1320              	.LCB1150:
 1321              		.loc 1 1172 59 discriminator 1 view .LVU371
 1322 01a6 8023     		movs	r3, #128
 1323 01a8 9B00     		lsls	r3, r3, #2
 1324 01aa 9A42     		cmp	r2, r3
 1325 01ac 00D1     		bne	.LCB1154
 1326 01ae B6E2     		b	.L168	@long jump
 1327              	.LCB1154:
 614:Drivers/STM32G0xx_HAL_Driver/Src/stm32g0xx_hal_rcc_ex.c ****   uint32_t srcclk;
 1328              		.loc 1 614 12 view .LVU372
 1329 01b0 0020     		movs	r0, #0
 1330 01b2 77E2     		b	.L65
 1331              	.LVL53:
 1332              	.L190:
 672:Drivers/STM32G0xx_HAL_Driver/Src/stm32g0xx_hal_rcc_ex.c ****     {
 1333              		.loc 1 672 5 view .LVU373
ARM GAS  /tmp/ccVU8yv2.s 			page 46


 1334 01b4 8022     		movs	r2, #128
 1335 01b6 D201     		lsls	r2, r2, #7
 1336 01b8 9442     		cmp	r4, r2
 1337 01ba 00D1     		bne	.LCB1165
 1338 01bc 25E1     		b	.L85	@long jump
 1339              	.LCB1165:
 1340 01be 1AD9     		bls	.L194
 1341 01c0 8023     		movs	r3, #128
 1342 01c2 1B03     		lsls	r3, r3, #12
 1343 01c4 9C42     		cmp	r4, r3
 1344 01c6 37D1     		bne	.L195
 789:Drivers/STM32G0xx_HAL_Driver/Src/stm32g0xx_hal_rcc_ex.c **** 
 1345              		.loc 1 789 9 is_stmt 1 view .LVU374
 789:Drivers/STM32G0xx_HAL_Driver/Src/stm32g0xx_hal_rcc_ex.c **** 
 1346              		.loc 1 789 18 is_stmt 0 view .LVU375
 1347 01c8 504A     		ldr	r2, .L219
 1348 01ca 516D     		ldr	r1, [r2, #84]
 789:Drivers/STM32G0xx_HAL_Driver/Src/stm32g0xx_hal_rcc_ex.c **** 
 1349              		.loc 1 789 16 view .LVU376
 1350 01cc 4023     		movs	r3, #64
 1351 01ce 0B40     		ands	r3, r1
 1352              	.LVL54:
 791:Drivers/STM32G0xx_HAL_Driver/Src/stm32g0xx_hal_rcc_ex.c ****         {
 1353              		.loc 1 791 9 is_stmt 1 view .LVU377
 791:Drivers/STM32G0xx_HAL_Driver/Src/stm32g0xx_hal_rcc_ex.c ****         {
 1354              		.loc 1 791 14 is_stmt 0 view .LVU378
 1355 01d0 1268     		ldr	r2, [r2]
 791:Drivers/STM32G0xx_HAL_Driver/Src/stm32g0xx_hal_rcc_ex.c ****         {
 1356              		.loc 1 791 12 view .LVU379
 1357 01d2 5205     		lsls	r2, r2, #21
 1358 01d4 02D5     		bpl	.L102
 791:Drivers/STM32G0xx_HAL_Driver/Src/stm32g0xx_hal_rcc_ex.c ****         {
 1359              		.loc 1 791 54 discriminator 1 view .LVU380
 1360 01d6 002B     		cmp	r3, #0
 1361 01d8 00D1     		bne	.LCB1185
 1362 01da 73E2     		b	.L145	@long jump
 1363              	.LCB1185:
 1364              	.L102:
 795:Drivers/STM32G0xx_HAL_Driver/Src/stm32g0xx_hal_rcc_ex.c ****         {
 1365              		.loc 1 795 14 is_stmt 1 view .LVU381
 795:Drivers/STM32G0xx_HAL_Driver/Src/stm32g0xx_hal_rcc_ex.c ****         {
 1366              		.loc 1 795 19 is_stmt 0 view .LVU382
 1367 01dc 4B4A     		ldr	r2, .L219
 1368 01de D26D     		ldr	r2, [r2, #92]
 1369 01e0 0221     		movs	r1, #2
 1370 01e2 0800     		movs	r0, r1
 1371              	.LVL55:
 795:Drivers/STM32G0xx_HAL_Driver/Src/stm32g0xx_hal_rcc_ex.c ****         {
 1372              		.loc 1 795 19 view .LVU383
 1373 01e4 1040     		ands	r0, r2
 795:Drivers/STM32G0xx_HAL_Driver/Src/stm32g0xx_hal_rcc_ex.c ****         {
 1374              		.loc 1 795 17 view .LVU384
 1375 01e6 1142     		tst	r1, r2
 1376 01e8 00D1     		bne	.LCB1195
 1377 01ea 5BE2     		b	.L65	@long jump
 1378              	.LCB1195:
 795:Drivers/STM32G0xx_HAL_Driver/Src/stm32g0xx_hal_rcc_ex.c ****         {
ARM GAS  /tmp/ccVU8yv2.s 			page 47


 1379              		.loc 1 795 63 discriminator 1 view .LVU385
 1380 01ec 002B     		cmp	r3, #0
 1381 01ee 00D0     		beq	.LCB1197
 1382 01f0 6AE2     		b	.L146	@long jump
 1383              	.LCB1197:
 614:Drivers/STM32G0xx_HAL_Driver/Src/stm32g0xx_hal_rcc_ex.c ****   uint32_t srcclk;
 1384              		.loc 1 614 12 view .LVU386
 1385 01f2 1800     		movs	r0, r3
 1386 01f4 56E2     		b	.L65
 1387              	.LVL56:
 1388              	.L194:
 672:Drivers/STM32G0xx_HAL_Driver/Src/stm32g0xx_hal_rcc_ex.c ****     {
 1389              		.loc 1 672 5 view .LVU387
 1390 01f6 8022     		movs	r2, #128
 1391 01f8 5201     		lsls	r2, r2, #5
 1392 01fa 9442     		cmp	r4, r2
 1393 01fc 00D1     		bne	.LCB1208
 1394 01fe DAE0     		b	.L87	@long jump
 1395              	.LCB1208:
 1396 0200 8022     		movs	r2, #128
 1397 0202 9201     		lsls	r2, r2, #6
 1398 0204 9442     		cmp	r4, r2
 1399 0206 15D1     		bne	.L196
 977:Drivers/STM32G0xx_HAL_Driver/Src/stm32g0xx_hal_rcc_ex.c **** 
 1400              		.loc 1 977 9 is_stmt 1 view .LVU388
 977:Drivers/STM32G0xx_HAL_Driver/Src/stm32g0xx_hal_rcc_ex.c **** 
 1401              		.loc 1 977 18 is_stmt 0 view .LVU389
 1402 0208 404A     		ldr	r2, .L219
 1403 020a 916D     		ldr	r1, [r2, #88]
 977:Drivers/STM32G0xx_HAL_Driver/Src/stm32g0xx_hal_rcc_ex.c **** 
 1404              		.loc 1 977 16 view .LVU390
 1405 020c 0C22     		movs	r2, #12
 1406 020e 0A40     		ands	r2, r1
 1407              	.LVL57:
 979:Drivers/STM32G0xx_HAL_Driver/Src/stm32g0xx_hal_rcc_ex.c ****         {
 1408              		.loc 1 979 9 is_stmt 1 view .LVU391
 979:Drivers/STM32G0xx_HAL_Driver/Src/stm32g0xx_hal_rcc_ex.c ****         {
 1409              		.loc 1 979 12 is_stmt 0 view .LVU392
 1410 0210 042A     		cmp	r2, #4
 1411 0212 00D1     		bne	.LCB1221
 1412 0214 7AE1     		b	.L197	@long jump
 1413              	.LCB1221:
 988:Drivers/STM32G0xx_HAL_Driver/Src/stm32g0xx_hal_rcc_ex.c ****         {
 1414              		.loc 1 988 14 is_stmt 1 view .LVU393
 988:Drivers/STM32G0xx_HAL_Driver/Src/stm32g0xx_hal_rcc_ex.c ****         {
 1415              		.loc 1 988 17 is_stmt 0 view .LVU394
 1416 0216 002A     		cmp	r2, #0
 1417 0218 00D1     		bne	.LCB1224
 1418 021a 8EE1     		b	.L198	@long jump
 1419              	.LCB1224:
 992:Drivers/STM32G0xx_HAL_Driver/Src/stm32g0xx_hal_rcc_ex.c ****         {
 1420              		.loc 1 992 14 is_stmt 1 view .LVU395
 992:Drivers/STM32G0xx_HAL_Driver/Src/stm32g0xx_hal_rcc_ex.c ****         {
 1421              		.loc 1 992 19 is_stmt 0 view .LVU396
 1422 021c 3B4B     		ldr	r3, .L219
 1423 021e 1B68     		ldr	r3, [r3]
 992:Drivers/STM32G0xx_HAL_Driver/Src/stm32g0xx_hal_rcc_ex.c ****         {
ARM GAS  /tmp/ccVU8yv2.s 			page 48


 1424              		.loc 1 992 17 view .LVU397
 1425 0220 5B05     		lsls	r3, r3, #21
 1426 0222 02D5     		bpl	.L119
 992:Drivers/STM32G0xx_HAL_Driver/Src/stm32g0xx_hal_rcc_ex.c ****         {
 1427              		.loc 1 992 59 discriminator 1 view .LVU398
 1428 0224 082A     		cmp	r2, #8
 1429 0226 00D1     		bne	.LCB1233
 1430 0228 65E2     		b	.L157	@long jump
 1431              	.LCB1233:
 1432              	.L119:
 996:Drivers/STM32G0xx_HAL_Driver/Src/stm32g0xx_hal_rcc_ex.c ****         {
 1433              		.loc 1 996 14 is_stmt 1 view .LVU399
 996:Drivers/STM32G0xx_HAL_Driver/Src/stm32g0xx_hal_rcc_ex.c ****         {
 1434              		.loc 1 996 17 is_stmt 0 view .LVU400
 1435 022a 0C2A     		cmp	r2, #12
 1436 022c 00D1     		bne	.LCB1237
 1437 022e 64E2     		b	.L158	@long jump
 1438              	.LCB1237:
 614:Drivers/STM32G0xx_HAL_Driver/Src/stm32g0xx_hal_rcc_ex.c ****   uint32_t srcclk;
 1439              		.loc 1 614 12 view .LVU401
 1440 0230 0020     		movs	r0, #0
 1441              	.LVL58:
 614:Drivers/STM32G0xx_HAL_Driver/Src/stm32g0xx_hal_rcc_ex.c ****   uint32_t srcclk;
 1442              		.loc 1 614 12 view .LVU402
 1443 0232 37E2     		b	.L65
 1444              	.LVL59:
 1445              	.L196:
 672:Drivers/STM32G0xx_HAL_Driver/Src/stm32g0xx_hal_rcc_ex.c ****     {
 1446              		.loc 1 672 5 view .LVU403
 1447 0234 0020     		movs	r0, #0
 1448              	.LVL60:
 672:Drivers/STM32G0xx_HAL_Driver/Src/stm32g0xx_hal_rcc_ex.c ****     {
 1449              		.loc 1 672 5 view .LVU404
 1450 0236 35E2     		b	.L65
 1451              	.LVL61:
 1452              	.L195:
 672:Drivers/STM32G0xx_HAL_Driver/Src/stm32g0xx_hal_rcc_ex.c ****     {
 1453              		.loc 1 672 5 view .LVU405
 1454 0238 0020     		movs	r0, #0
 1455              	.LVL62:
 672:Drivers/STM32G0xx_HAL_Driver/Src/stm32g0xx_hal_rcc_ex.c ****     {
 1456              		.loc 1 672 5 view .LVU406
 1457 023a 33E2     		b	.L65
 1458              	.LVL63:
 1459              	.L191:
 672:Drivers/STM32G0xx_HAL_Driver/Src/stm32g0xx_hal_rcc_ex.c ****     {
 1460              		.loc 1 672 5 view .LVU407
 1461 023c 8022     		movs	r2, #128
 1462 023e D203     		lsls	r2, r2, #15
 1463 0240 9442     		cmp	r4, r2
 1464 0242 1BD1     		bne	.L199
1095:Drivers/STM32G0xx_HAL_Driver/Src/stm32g0xx_hal_rcc_ex.c **** 
 1465              		.loc 1 1095 9 is_stmt 1 view .LVU408
1095:Drivers/STM32G0xx_HAL_Driver/Src/stm32g0xx_hal_rcc_ex.c **** 
 1466              		.loc 1 1095 18 is_stmt 0 view .LVU409
 1467 0244 314A     		ldr	r2, .L219
 1468 0246 526D     		ldr	r2, [r2, #84]
ARM GAS  /tmp/ccVU8yv2.s 			page 49


 1469              	.LVL64:
1097:Drivers/STM32G0xx_HAL_Driver/Src/stm32g0xx_hal_rcc_ex.c ****         {
 1470              		.loc 1 1097 9 is_stmt 1 view .LVU410
1097:Drivers/STM32G0xx_HAL_Driver/Src/stm32g0xx_hal_rcc_ex.c ****         {
 1471              		.loc 1 1097 12 is_stmt 0 view .LVU411
 1472 0248 D201     		lsls	r2, r2, #7
 1473 024a 00D4     		bmi	.LCB1272
 1474 024c C4E1     		b	.L127	@long jump
 1475              	.LCB1272:
 1476              	.LVL65:
1099:Drivers/STM32G0xx_HAL_Driver/Src/stm32g0xx_hal_rcc_ex.c ****           {
 1477              		.loc 1 1099 11 is_stmt 1 view .LVU412
1099:Drivers/STM32G0xx_HAL_Driver/Src/stm32g0xx_hal_rcc_ex.c ****           {
 1478              		.loc 1 1099 15 is_stmt 0 view .LVU413
 1479 024e 2F4A     		ldr	r2, .L219
 1480 0250 D168     		ldr	r1, [r2, #12]
 1481 0252 8022     		movs	r2, #128
 1482 0254 5204     		lsls	r2, r2, #17
 1483 0256 0800     		movs	r0, r1
 1484              	.LVL66:
1099:Drivers/STM32G0xx_HAL_Driver/Src/stm32g0xx_hal_rcc_ex.c ****           {
 1485              		.loc 1 1099 15 view .LVU414
 1486 0258 1040     		ands	r0, r2
1099:Drivers/STM32G0xx_HAL_Driver/Src/stm32g0xx_hal_rcc_ex.c ****           {
 1487              		.loc 1 1099 14 view .LVU415
 1488 025a 1142     		tst	r1, r2
 1489 025c 00D1     		bne	.LCB1283
 1490 025e 21E2     		b	.L65	@long jump
 1491              	.LCB1283:
1102:Drivers/STM32G0xx_HAL_Driver/Src/stm32g0xx_hal_rcc_ex.c ****             frequency = (pllvco * plln) / ((READ_BIT(RCC->PLLCFGR, RCC_PLLCFGR_PLLQ) >> RCC_PLLCFGR
 1492              		.loc 1 1102 13 is_stmt 1 view .LVU416
1102:Drivers/STM32G0xx_HAL_Driver/Src/stm32g0xx_hal_rcc_ex.c ****             frequency = (pllvco * plln) / ((READ_BIT(RCC->PLLCFGR, RCC_PLLCFGR_PLLQ) >> RCC_PLLCFGR
 1493              		.loc 1 1102 20 is_stmt 0 view .LVU417
 1494 0260 2A49     		ldr	r1, .L219
 1495 0262 CA68     		ldr	r2, [r1, #12]
1102:Drivers/STM32G0xx_HAL_Driver/Src/stm32g0xx_hal_rcc_ex.c ****             frequency = (pllvco * plln) / ((READ_BIT(RCC->PLLCFGR, RCC_PLLCFGR_PLLQ) >> RCC_PLLCFGR
 1496              		.loc 1 1102 61 view .LVU418
 1497 0264 120A     		lsrs	r2, r2, #8
1102:Drivers/STM32G0xx_HAL_Driver/Src/stm32g0xx_hal_rcc_ex.c ****             frequency = (pllvco * plln) / ((READ_BIT(RCC->PLLCFGR, RCC_PLLCFGR_PLLQ) >> RCC_PLLCFGR
 1498              		.loc 1 1102 18 view .LVU419
 1499 0266 7F20     		movs	r0, #127
 1500 0268 1040     		ands	r0, r2
 1501              	.LVL67:
1103:Drivers/STM32G0xx_HAL_Driver/Src/stm32g0xx_hal_rcc_ex.c ****           }
 1502              		.loc 1 1103 13 is_stmt 1 view .LVU420
1103:Drivers/STM32G0xx_HAL_Driver/Src/stm32g0xx_hal_rcc_ex.c ****           }
 1503              		.loc 1 1103 33 is_stmt 0 view .LVU421
 1504 026a 5843     		muls	r0, r3
 1505              	.LVL68:
1103:Drivers/STM32G0xx_HAL_Driver/Src/stm32g0xx_hal_rcc_ex.c ****           }
 1506              		.loc 1 1103 45 view .LVU422
 1507 026c CB68     		ldr	r3, [r1, #12]
 1508              	.LVL69:
1103:Drivers/STM32G0xx_HAL_Driver/Src/stm32g0xx_hal_rcc_ex.c ****           }
 1509              		.loc 1 1103 86 view .LVU423
 1510 026e 5B0E     		lsrs	r3, r3, #25
 1511 0270 0721     		movs	r1, #7
ARM GAS  /tmp/ccVU8yv2.s 			page 50


 1512 0272 1940     		ands	r1, r3
1103:Drivers/STM32G0xx_HAL_Driver/Src/stm32g0xx_hal_rcc_ex.c ****           }
 1513              		.loc 1 1103 111 view .LVU424
 1514 0274 0131     		adds	r1, r1, #1
1103:Drivers/STM32G0xx_HAL_Driver/Src/stm32g0xx_hal_rcc_ex.c ****           }
 1515              		.loc 1 1103 23 view .LVU425
 1516 0276 FFF7FEFF 		bl	__aeabi_uidiv
 1517              	.LVL70:
1103:Drivers/STM32G0xx_HAL_Driver/Src/stm32g0xx_hal_rcc_ex.c ****           }
 1518              		.loc 1 1103 23 view .LVU426
 1519 027a 13E2     		b	.L65
 1520              	.LVL71:
 1521              	.L199:
 672:Drivers/STM32G0xx_HAL_Driver/Src/stm32g0xx_hal_rcc_ex.c ****     {
 1522              		.loc 1 672 5 view .LVU427
 1523 027c 0020     		movs	r0, #0
 1524              	.LVL72:
 672:Drivers/STM32G0xx_HAL_Driver/Src/stm32g0xx_hal_rcc_ex.c ****     {
 1525              		.loc 1 672 5 view .LVU428
 1526 027e 11E2     		b	.L65
 1527              	.LVL73:
 1528              	.L79:
 704:Drivers/STM32G0xx_HAL_Driver/Src/stm32g0xx_hal_rcc_ex.c **** 
 1529              		.loc 1 704 9 is_stmt 1 view .LVU429
 704:Drivers/STM32G0xx_HAL_Driver/Src/stm32g0xx_hal_rcc_ex.c **** 
 1530              		.loc 1 704 18 is_stmt 0 view .LVU430
 1531 0280 224B     		ldr	r3, .L219
 1532 0282 5B6D     		ldr	r3, [r3, #84]
 704:Drivers/STM32G0xx_HAL_Driver/Src/stm32g0xx_hal_rcc_ex.c **** 
 1533              		.loc 1 704 16 view .LVU431
 1534 0284 0322     		movs	r2, #3
 1535 0286 1100     		movs	r1, r2
 1536 0288 1940     		ands	r1, r3
 1537              	.LVL74:
 706:Drivers/STM32G0xx_HAL_Driver/Src/stm32g0xx_hal_rcc_ex.c ****         {
 1538              		.loc 1 706 9 is_stmt 1 view .LVU432
 706:Drivers/STM32G0xx_HAL_Driver/Src/stm32g0xx_hal_rcc_ex.c ****         {
 1539              		.loc 1 706 12 is_stmt 0 view .LVU433
 1540 028a 1A42     		tst	r2, r3
 1541 028c 15D0     		beq	.L200
 710:Drivers/STM32G0xx_HAL_Driver/Src/stm32g0xx_hal_rcc_ex.c ****         {
 1542              		.loc 1 710 14 is_stmt 1 view .LVU434
 710:Drivers/STM32G0xx_HAL_Driver/Src/stm32g0xx_hal_rcc_ex.c ****         {
 1543              		.loc 1 710 17 is_stmt 0 view .LVU435
 1544 028e 0129     		cmp	r1, #1
 1545 0290 16D0     		beq	.L201
 714:Drivers/STM32G0xx_HAL_Driver/Src/stm32g0xx_hal_rcc_ex.c ****         {
 1546              		.loc 1 714 14 is_stmt 1 view .LVU436
 714:Drivers/STM32G0xx_HAL_Driver/Src/stm32g0xx_hal_rcc_ex.c ****         {
 1547              		.loc 1 714 19 is_stmt 0 view .LVU437
 1548 0292 1E4B     		ldr	r3, .L219
 1549 0294 1B68     		ldr	r3, [r3]
 714:Drivers/STM32G0xx_HAL_Driver/Src/stm32g0xx_hal_rcc_ex.c ****         {
 1550              		.loc 1 714 17 view .LVU438
 1551 0296 5B05     		lsls	r3, r3, #21
 1552 0298 02D5     		bpl	.L95
 714:Drivers/STM32G0xx_HAL_Driver/Src/stm32g0xx_hal_rcc_ex.c ****         {
ARM GAS  /tmp/ccVU8yv2.s 			page 51


 1553              		.loc 1 714 59 discriminator 1 view .LVU439
 1554 029a 0229     		cmp	r1, #2
 1555 029c 00D1     		bne	.LCB1340
 1556 029e 02E2     		b	.L139	@long jump
 1557              	.LCB1340:
 1558              	.L95:
 718:Drivers/STM32G0xx_HAL_Driver/Src/stm32g0xx_hal_rcc_ex.c ****         {
 1559              		.loc 1 718 14 is_stmt 1 view .LVU440
 718:Drivers/STM32G0xx_HAL_Driver/Src/stm32g0xx_hal_rcc_ex.c ****         {
 1560              		.loc 1 718 19 is_stmt 0 view .LVU441
 1561 02a0 1A4B     		ldr	r3, .L219
 1562 02a2 DB6D     		ldr	r3, [r3, #92]
 1563 02a4 0222     		movs	r2, #2
 1564 02a6 1000     		movs	r0, r2
 1565              	.LVL75:
 718:Drivers/STM32G0xx_HAL_Driver/Src/stm32g0xx_hal_rcc_ex.c ****         {
 1566              		.loc 1 718 19 view .LVU442
 1567 02a8 1840     		ands	r0, r3
 718:Drivers/STM32G0xx_HAL_Driver/Src/stm32g0xx_hal_rcc_ex.c ****         {
 1568              		.loc 1 718 17 view .LVU443
 1569 02aa 1A42     		tst	r2, r3
 1570 02ac 00D1     		bne	.LCB1350
 1571 02ae F9E1     		b	.L65	@long jump
 1572              	.LCB1350:
 718:Drivers/STM32G0xx_HAL_Driver/Src/stm32g0xx_hal_rcc_ex.c ****         {
 1573              		.loc 1 718 63 discriminator 1 view .LVU444
 1574 02b0 0329     		cmp	r1, #3
 1575 02b2 00D1     		bne	.LCB1352
 1576 02b4 F9E1     		b	.L140	@long jump
 1577              	.LCB1352:
 614:Drivers/STM32G0xx_HAL_Driver/Src/stm32g0xx_hal_rcc_ex.c ****   uint32_t srcclk;
 1578              		.loc 1 614 12 view .LVU445
 1579 02b6 0020     		movs	r0, #0
 1580 02b8 F4E1     		b	.L65
 1581              	.LVL76:
 1582              	.L200:
 708:Drivers/STM32G0xx_HAL_Driver/Src/stm32g0xx_hal_rcc_ex.c ****         }
 1583              		.loc 1 708 11 is_stmt 1 view .LVU446
 708:Drivers/STM32G0xx_HAL_Driver/Src/stm32g0xx_hal_rcc_ex.c ****         }
 1584              		.loc 1 708 23 is_stmt 0 view .LVU447
 1585 02ba FFF7FEFF 		bl	HAL_RCC_GetPCLK1Freq
 1586              	.LVL77:
 708:Drivers/STM32G0xx_HAL_Driver/Src/stm32g0xx_hal_rcc_ex.c ****         }
 1587              		.loc 1 708 23 view .LVU448
 1588 02be F1E1     		b	.L65
 1589              	.LVL78:
 1590              	.L201:
 712:Drivers/STM32G0xx_HAL_Driver/Src/stm32g0xx_hal_rcc_ex.c ****         }
 1591              		.loc 1 712 11 is_stmt 1 view .LVU449
 712:Drivers/STM32G0xx_HAL_Driver/Src/stm32g0xx_hal_rcc_ex.c ****         }
 1592              		.loc 1 712 23 is_stmt 0 view .LVU450
 1593 02c0 FFF7FEFF 		bl	HAL_RCC_GetSysClockFreq
 1594              	.LVL79:
 712:Drivers/STM32G0xx_HAL_Driver/Src/stm32g0xx_hal_rcc_ex.c ****         }
 1595              		.loc 1 712 23 view .LVU451
 1596 02c4 EEE1     		b	.L65
 1597              	.LVL80:
ARM GAS  /tmp/ccVU8yv2.s 			page 52


 1598              	.L78:
 731:Drivers/STM32G0xx_HAL_Driver/Src/stm32g0xx_hal_rcc_ex.c **** 
 1599              		.loc 1 731 9 is_stmt 1 view .LVU452
 731:Drivers/STM32G0xx_HAL_Driver/Src/stm32g0xx_hal_rcc_ex.c **** 
 1600              		.loc 1 731 18 is_stmt 0 view .LVU453
 1601 02c6 114B     		ldr	r3, .L219
 1602 02c8 5B6D     		ldr	r3, [r3, #84]
 731:Drivers/STM32G0xx_HAL_Driver/Src/stm32g0xx_hal_rcc_ex.c **** 
 1603              		.loc 1 731 16 view .LVU454
 1604 02ca 0C22     		movs	r2, #12
 1605 02cc 1100     		movs	r1, r2
 1606 02ce 1940     		ands	r1, r3
 1607              	.LVL81:
 733:Drivers/STM32G0xx_HAL_Driver/Src/stm32g0xx_hal_rcc_ex.c ****         {
 1608              		.loc 1 733 9 is_stmt 1 view .LVU455
 733:Drivers/STM32G0xx_HAL_Driver/Src/stm32g0xx_hal_rcc_ex.c ****         {
 1609              		.loc 1 733 12 is_stmt 0 view .LVU456
 1610 02d0 1A42     		tst	r2, r3
 1611 02d2 15D0     		beq	.L202
 737:Drivers/STM32G0xx_HAL_Driver/Src/stm32g0xx_hal_rcc_ex.c ****         {
 1612              		.loc 1 737 14 is_stmt 1 view .LVU457
 737:Drivers/STM32G0xx_HAL_Driver/Src/stm32g0xx_hal_rcc_ex.c ****         {
 1613              		.loc 1 737 17 is_stmt 0 view .LVU458
 1614 02d4 0429     		cmp	r1, #4
 1615 02d6 16D0     		beq	.L203
 741:Drivers/STM32G0xx_HAL_Driver/Src/stm32g0xx_hal_rcc_ex.c ****         {
 1616              		.loc 1 741 14 is_stmt 1 view .LVU459
 741:Drivers/STM32G0xx_HAL_Driver/Src/stm32g0xx_hal_rcc_ex.c ****         {
 1617              		.loc 1 741 19 is_stmt 0 view .LVU460
 1618 02d8 0C4B     		ldr	r3, .L219
 1619 02da 1B68     		ldr	r3, [r3]
 741:Drivers/STM32G0xx_HAL_Driver/Src/stm32g0xx_hal_rcc_ex.c ****         {
 1620              		.loc 1 741 17 view .LVU461
 1621 02dc 5B05     		lsls	r3, r3, #21
 1622 02de 02D5     		bpl	.L98
 741:Drivers/STM32G0xx_HAL_Driver/Src/stm32g0xx_hal_rcc_ex.c ****         {
 1623              		.loc 1 741 59 discriminator 1 view .LVU462
 1624 02e0 0829     		cmp	r1, #8
 1625 02e2 00D1     		bne	.LCB1404
 1626 02e4 E4E1     		b	.L141	@long jump
 1627              	.LCB1404:
 1628              	.L98:
 745:Drivers/STM32G0xx_HAL_Driver/Src/stm32g0xx_hal_rcc_ex.c ****         {
 1629              		.loc 1 745 14 is_stmt 1 view .LVU463
 745:Drivers/STM32G0xx_HAL_Driver/Src/stm32g0xx_hal_rcc_ex.c ****         {
 1630              		.loc 1 745 19 is_stmt 0 view .LVU464
 1631 02e6 094B     		ldr	r3, .L219
 1632 02e8 DB6D     		ldr	r3, [r3, #92]
 1633 02ea 0222     		movs	r2, #2
 1634 02ec 1000     		movs	r0, r2
 1635              	.LVL82:
 745:Drivers/STM32G0xx_HAL_Driver/Src/stm32g0xx_hal_rcc_ex.c ****         {
 1636              		.loc 1 745 19 view .LVU465
 1637 02ee 1840     		ands	r0, r3
 745:Drivers/STM32G0xx_HAL_Driver/Src/stm32g0xx_hal_rcc_ex.c ****         {
 1638              		.loc 1 745 17 view .LVU466
 1639 02f0 1A42     		tst	r2, r3
ARM GAS  /tmp/ccVU8yv2.s 			page 53


 1640 02f2 00D1     		bne	.LCB1414
 1641 02f4 D6E1     		b	.L65	@long jump
 1642              	.LCB1414:
 745:Drivers/STM32G0xx_HAL_Driver/Src/stm32g0xx_hal_rcc_ex.c ****         {
 1643              		.loc 1 745 63 discriminator 1 view .LVU467
 1644 02f6 0C29     		cmp	r1, #12
 1645 02f8 00D1     		bne	.LCB1416
 1646 02fa DBE1     		b	.L142	@long jump
 1647              	.LCB1416:
 614:Drivers/STM32G0xx_HAL_Driver/Src/stm32g0xx_hal_rcc_ex.c ****   uint32_t srcclk;
 1648              		.loc 1 614 12 view .LVU468
 1649 02fc 0020     		movs	r0, #0
 1650 02fe D1E1     		b	.L65
 1651              	.LVL83:
 1652              	.L202:
 735:Drivers/STM32G0xx_HAL_Driver/Src/stm32g0xx_hal_rcc_ex.c ****         }
 1653              		.loc 1 735 11 is_stmt 1 view .LVU469
 735:Drivers/STM32G0xx_HAL_Driver/Src/stm32g0xx_hal_rcc_ex.c ****         }
 1654              		.loc 1 735 23 is_stmt 0 view .LVU470
 1655 0300 FFF7FEFF 		bl	HAL_RCC_GetPCLK1Freq
 1656              	.LVL84:
 735:Drivers/STM32G0xx_HAL_Driver/Src/stm32g0xx_hal_rcc_ex.c ****         }
 1657              		.loc 1 735 23 view .LVU471
 1658 0304 CEE1     		b	.L65
 1659              	.LVL85:
 1660              	.L203:
 739:Drivers/STM32G0xx_HAL_Driver/Src/stm32g0xx_hal_rcc_ex.c ****         }
 1661              		.loc 1 739 11 is_stmt 1 view .LVU472
 739:Drivers/STM32G0xx_HAL_Driver/Src/stm32g0xx_hal_rcc_ex.c ****         }
 1662              		.loc 1 739 23 is_stmt 0 view .LVU473
 1663 0306 FFF7FEFF 		bl	HAL_RCC_GetSysClockFreq
 1664              	.LVL86:
 739:Drivers/STM32G0xx_HAL_Driver/Src/stm32g0xx_hal_rcc_ex.c ****         }
 1665              		.loc 1 739 23 view .LVU474
 1666 030a CBE1     		b	.L65
 1667              	.L220:
 1668              		.align	2
 1669              	.L219:
 1670 030c 00100240 		.word	1073876992
 1671 0310 00000000 		.word	.L75
 1672 0314 00127A00 		.word	8000000
 1673 0318 0024F400 		.word	16000000
 1674              	.LVL87:
 1675              	.L77:
 760:Drivers/STM32G0xx_HAL_Driver/Src/stm32g0xx_hal_rcc_ex.c **** 
 1676              		.loc 1 760 9 is_stmt 1 view .LVU475
 760:Drivers/STM32G0xx_HAL_Driver/Src/stm32g0xx_hal_rcc_ex.c **** 
 1677              		.loc 1 760 18 is_stmt 0 view .LVU476
 1678 031c C84B     		ldr	r3, .L221
 1679 031e 5B6D     		ldr	r3, [r3, #84]
 760:Drivers/STM32G0xx_HAL_Driver/Src/stm32g0xx_hal_rcc_ex.c **** 
 1680              		.loc 1 760 16 view .LVU477
 1681 0320 3022     		movs	r2, #48
 1682 0322 1100     		movs	r1, r2
 1683 0324 1940     		ands	r1, r3
 1684              	.LVL88:
 762:Drivers/STM32G0xx_HAL_Driver/Src/stm32g0xx_hal_rcc_ex.c ****         {
ARM GAS  /tmp/ccVU8yv2.s 			page 54


 1685              		.loc 1 762 9 is_stmt 1 view .LVU478
 762:Drivers/STM32G0xx_HAL_Driver/Src/stm32g0xx_hal_rcc_ex.c ****         {
 1686              		.loc 1 762 12 is_stmt 0 view .LVU479
 1687 0326 1A42     		tst	r2, r3
 1688 0328 15D0     		beq	.L204
 766:Drivers/STM32G0xx_HAL_Driver/Src/stm32g0xx_hal_rcc_ex.c ****         {
 1689              		.loc 1 766 14 is_stmt 1 view .LVU480
 766:Drivers/STM32G0xx_HAL_Driver/Src/stm32g0xx_hal_rcc_ex.c ****         {
 1690              		.loc 1 766 17 is_stmt 0 view .LVU481
 1691 032a 1029     		cmp	r1, #16
 1692 032c 16D0     		beq	.L205
 770:Drivers/STM32G0xx_HAL_Driver/Src/stm32g0xx_hal_rcc_ex.c ****         {
 1693              		.loc 1 770 14 is_stmt 1 view .LVU482
 770:Drivers/STM32G0xx_HAL_Driver/Src/stm32g0xx_hal_rcc_ex.c ****         {
 1694              		.loc 1 770 19 is_stmt 0 view .LVU483
 1695 032e C44B     		ldr	r3, .L221
 1696 0330 1B68     		ldr	r3, [r3]
 770:Drivers/STM32G0xx_HAL_Driver/Src/stm32g0xx_hal_rcc_ex.c ****         {
 1697              		.loc 1 770 17 view .LVU484
 1698 0332 5B05     		lsls	r3, r3, #21
 1699 0334 02D5     		bpl	.L101
 770:Drivers/STM32G0xx_HAL_Driver/Src/stm32g0xx_hal_rcc_ex.c ****         {
 1700              		.loc 1 770 59 discriminator 1 view .LVU485
 1701 0336 2029     		cmp	r1, #32
 1702 0338 00D1     		bne	.LCB1477
 1703 033a BEE1     		b	.L143	@long jump
 1704              	.LCB1477:
 1705              	.L101:
 774:Drivers/STM32G0xx_HAL_Driver/Src/stm32g0xx_hal_rcc_ex.c ****         {
 1706              		.loc 1 774 14 is_stmt 1 view .LVU486
 774:Drivers/STM32G0xx_HAL_Driver/Src/stm32g0xx_hal_rcc_ex.c ****         {
 1707              		.loc 1 774 19 is_stmt 0 view .LVU487
 1708 033c C04B     		ldr	r3, .L221
 1709 033e DB6D     		ldr	r3, [r3, #92]
 1710 0340 0222     		movs	r2, #2
 1711 0342 1000     		movs	r0, r2
 1712              	.LVL89:
 774:Drivers/STM32G0xx_HAL_Driver/Src/stm32g0xx_hal_rcc_ex.c ****         {
 1713              		.loc 1 774 19 view .LVU488
 1714 0344 1840     		ands	r0, r3
 774:Drivers/STM32G0xx_HAL_Driver/Src/stm32g0xx_hal_rcc_ex.c ****         {
 1715              		.loc 1 774 17 view .LVU489
 1716 0346 1A42     		tst	r2, r3
 1717 0348 00D1     		bne	.LCB1487
 1718 034a ABE1     		b	.L65	@long jump
 1719              	.LCB1487:
 774:Drivers/STM32G0xx_HAL_Driver/Src/stm32g0xx_hal_rcc_ex.c ****         {
 1720              		.loc 1 774 63 discriminator 1 view .LVU490
 1721 034c 3029     		cmp	r1, #48
 1722 034e 00D1     		bne	.LCB1489
 1723 0350 B5E1     		b	.L144	@long jump
 1724              	.LCB1489:
 614:Drivers/STM32G0xx_HAL_Driver/Src/stm32g0xx_hal_rcc_ex.c ****   uint32_t srcclk;
 1725              		.loc 1 614 12 view .LVU491
 1726 0352 0020     		movs	r0, #0
 1727 0354 A6E1     		b	.L65
 1728              	.LVL90:
ARM GAS  /tmp/ccVU8yv2.s 			page 55


 1729              	.L204:
 764:Drivers/STM32G0xx_HAL_Driver/Src/stm32g0xx_hal_rcc_ex.c ****         }
 1730              		.loc 1 764 11 is_stmt 1 view .LVU492
 764:Drivers/STM32G0xx_HAL_Driver/Src/stm32g0xx_hal_rcc_ex.c ****         }
 1731              		.loc 1 764 23 is_stmt 0 view .LVU493
 1732 0356 FFF7FEFF 		bl	HAL_RCC_GetPCLK1Freq
 1733              	.LVL91:
 764:Drivers/STM32G0xx_HAL_Driver/Src/stm32g0xx_hal_rcc_ex.c ****         }
 1734              		.loc 1 764 23 view .LVU494
 1735 035a A3E1     		b	.L65
 1736              	.LVL92:
 1737              	.L205:
 768:Drivers/STM32G0xx_HAL_Driver/Src/stm32g0xx_hal_rcc_ex.c ****         }
 1738              		.loc 1 768 11 is_stmt 1 view .LVU495
 768:Drivers/STM32G0xx_HAL_Driver/Src/stm32g0xx_hal_rcc_ex.c ****         }
 1739              		.loc 1 768 23 is_stmt 0 view .LVU496
 1740 035c FFF7FEFF 		bl	HAL_RCC_GetSysClockFreq
 1741              	.LVL93:
 768:Drivers/STM32G0xx_HAL_Driver/Src/stm32g0xx_hal_rcc_ex.c ****         }
 1742              		.loc 1 768 23 view .LVU497
 1743 0360 A0E1     		b	.L65
 1744              	.LVL94:
 1745              	.L76:
 810:Drivers/STM32G0xx_HAL_Driver/Src/stm32g0xx_hal_rcc_ex.c **** 
 1746              		.loc 1 810 9 is_stmt 1 view .LVU498
 810:Drivers/STM32G0xx_HAL_Driver/Src/stm32g0xx_hal_rcc_ex.c **** 
 1747              		.loc 1 810 18 is_stmt 0 view .LVU499
 1748 0362 B74B     		ldr	r3, .L221
 1749 0364 5A6D     		ldr	r2, [r3, #84]
 810:Drivers/STM32G0xx_HAL_Driver/Src/stm32g0xx_hal_rcc_ex.c **** 
 1750              		.loc 1 810 16 view .LVU500
 1751 0366 C023     		movs	r3, #192
 1752 0368 1B01     		lsls	r3, r3, #4
 1753 036a 1100     		movs	r1, r2
 1754 036c 1940     		ands	r1, r3
 1755              	.LVL95:
 812:Drivers/STM32G0xx_HAL_Driver/Src/stm32g0xx_hal_rcc_ex.c ****         {
 1756              		.loc 1 812 9 is_stmt 1 view .LVU501
 812:Drivers/STM32G0xx_HAL_Driver/Src/stm32g0xx_hal_rcc_ex.c ****         {
 1757              		.loc 1 812 12 is_stmt 0 view .LVU502
 1758 036e 1A42     		tst	r2, r3
 1759 0370 1BD0     		beq	.L206
 816:Drivers/STM32G0xx_HAL_Driver/Src/stm32g0xx_hal_rcc_ex.c ****         {
 1760              		.loc 1 816 14 is_stmt 1 view .LVU503
 816:Drivers/STM32G0xx_HAL_Driver/Src/stm32g0xx_hal_rcc_ex.c ****         {
 1761              		.loc 1 816 17 is_stmt 0 view .LVU504
 1762 0372 8023     		movs	r3, #128
 1763 0374 DB00     		lsls	r3, r3, #3
 1764 0376 9942     		cmp	r1, r3
 1765 0378 1AD0     		beq	.L207
 820:Drivers/STM32G0xx_HAL_Driver/Src/stm32g0xx_hal_rcc_ex.c ****         {
 1766              		.loc 1 820 14 is_stmt 1 view .LVU505
 820:Drivers/STM32G0xx_HAL_Driver/Src/stm32g0xx_hal_rcc_ex.c ****         {
 1767              		.loc 1 820 19 is_stmt 0 view .LVU506
 1768 037a B14B     		ldr	r3, .L221
 1769 037c 1B68     		ldr	r3, [r3]
 820:Drivers/STM32G0xx_HAL_Driver/Src/stm32g0xx_hal_rcc_ex.c ****         {
ARM GAS  /tmp/ccVU8yv2.s 			page 56


 1770              		.loc 1 820 17 view .LVU507
 1771 037e 5B05     		lsls	r3, r3, #21
 1772 0380 04D5     		bpl	.L105
 820:Drivers/STM32G0xx_HAL_Driver/Src/stm32g0xx_hal_rcc_ex.c ****         {
 1773              		.loc 1 820 59 discriminator 1 view .LVU508
 1774 0382 8023     		movs	r3, #128
 1775 0384 1B01     		lsls	r3, r3, #4
 1776 0386 9942     		cmp	r1, r3
 1777 0388 00D1     		bne	.LCB1546
 1778 038a A0E1     		b	.L147	@long jump
 1779              	.LCB1546:
 1780              	.L105:
 824:Drivers/STM32G0xx_HAL_Driver/Src/stm32g0xx_hal_rcc_ex.c ****         {
 1781              		.loc 1 824 14 is_stmt 1 view .LVU509
 824:Drivers/STM32G0xx_HAL_Driver/Src/stm32g0xx_hal_rcc_ex.c ****         {
 1782              		.loc 1 824 19 is_stmt 0 view .LVU510
 1783 038c AC4B     		ldr	r3, .L221
 1784 038e DB6D     		ldr	r3, [r3, #92]
 1785 0390 0222     		movs	r2, #2
 1786 0392 1000     		movs	r0, r2
 1787              	.LVL96:
 824:Drivers/STM32G0xx_HAL_Driver/Src/stm32g0xx_hal_rcc_ex.c ****         {
 1788              		.loc 1 824 19 view .LVU511
 1789 0394 1840     		ands	r0, r3
 824:Drivers/STM32G0xx_HAL_Driver/Src/stm32g0xx_hal_rcc_ex.c ****         {
 1790              		.loc 1 824 17 view .LVU512
 1791 0396 1A42     		tst	r2, r3
 1792 0398 00D1     		bne	.LCB1556
 1793 039a 83E1     		b	.L65	@long jump
 1794              	.LCB1556:
 824:Drivers/STM32G0xx_HAL_Driver/Src/stm32g0xx_hal_rcc_ex.c ****         {
 1795              		.loc 1 824 63 discriminator 1 view .LVU513
 1796 039c C023     		movs	r3, #192
 1797 039e 1B01     		lsls	r3, r3, #4
 1798 03a0 9942     		cmp	r1, r3
 1799 03a2 00D1     		bne	.LCB1560
 1800 03a4 95E1     		b	.L148	@long jump
 1801              	.LCB1560:
 614:Drivers/STM32G0xx_HAL_Driver/Src/stm32g0xx_hal_rcc_ex.c ****   uint32_t srcclk;
 1802              		.loc 1 614 12 view .LVU514
 1803 03a6 0020     		movs	r0, #0
 1804 03a8 7CE1     		b	.L65
 1805              	.LVL97:
 1806              	.L206:
 814:Drivers/STM32G0xx_HAL_Driver/Src/stm32g0xx_hal_rcc_ex.c ****         }
 1807              		.loc 1 814 11 is_stmt 1 view .LVU515
 814:Drivers/STM32G0xx_HAL_Driver/Src/stm32g0xx_hal_rcc_ex.c ****         }
 1808              		.loc 1 814 23 is_stmt 0 view .LVU516
 1809 03aa FFF7FEFF 		bl	HAL_RCC_GetPCLK1Freq
 1810              	.LVL98:
 814:Drivers/STM32G0xx_HAL_Driver/Src/stm32g0xx_hal_rcc_ex.c ****         }
 1811              		.loc 1 814 23 view .LVU517
 1812 03ae 79E1     		b	.L65
 1813              	.LVL99:
 1814              	.L207:
 818:Drivers/STM32G0xx_HAL_Driver/Src/stm32g0xx_hal_rcc_ex.c ****         }
 1815              		.loc 1 818 11 is_stmt 1 view .LVU518
ARM GAS  /tmp/ccVU8yv2.s 			page 57


 818:Drivers/STM32G0xx_HAL_Driver/Src/stm32g0xx_hal_rcc_ex.c ****         }
 1816              		.loc 1 818 23 is_stmt 0 view .LVU519
 1817 03b0 FFF7FEFF 		bl	HAL_RCC_GetSysClockFreq
 1818              	.LVL100:
 818:Drivers/STM32G0xx_HAL_Driver/Src/stm32g0xx_hal_rcc_ex.c ****         }
 1819              		.loc 1 818 23 view .LVU520
 1820 03b4 76E1     		b	.L65
 1821              	.LVL101:
 1822              	.L87:
 839:Drivers/STM32G0xx_HAL_Driver/Src/stm32g0xx_hal_rcc_ex.c **** 
 1823              		.loc 1 839 9 is_stmt 1 view .LVU521
 839:Drivers/STM32G0xx_HAL_Driver/Src/stm32g0xx_hal_rcc_ex.c **** 
 1824              		.loc 1 839 18 is_stmt 0 view .LVU522
 1825 03b6 A24B     		ldr	r3, .L221
 1826 03b8 5A6D     		ldr	r2, [r3, #84]
 839:Drivers/STM32G0xx_HAL_Driver/Src/stm32g0xx_hal_rcc_ex.c **** 
 1827              		.loc 1 839 16 view .LVU523
 1828 03ba C023     		movs	r3, #192
 1829 03bc 9B00     		lsls	r3, r3, #2
 1830 03be 1100     		movs	r1, r2
 1831 03c0 1940     		ands	r1, r3
 1832              	.LVL102:
 841:Drivers/STM32G0xx_HAL_Driver/Src/stm32g0xx_hal_rcc_ex.c ****         {
 1833              		.loc 1 841 9 is_stmt 1 view .LVU524
 841:Drivers/STM32G0xx_HAL_Driver/Src/stm32g0xx_hal_rcc_ex.c ****         {
 1834              		.loc 1 841 12 is_stmt 0 view .LVU525
 1835 03c2 1A42     		tst	r2, r3
 1836 03c4 1BD0     		beq	.L208
 845:Drivers/STM32G0xx_HAL_Driver/Src/stm32g0xx_hal_rcc_ex.c ****         {
 1837              		.loc 1 845 14 is_stmt 1 view .LVU526
 845:Drivers/STM32G0xx_HAL_Driver/Src/stm32g0xx_hal_rcc_ex.c ****         {
 1838              		.loc 1 845 17 is_stmt 0 view .LVU527
 1839 03c6 8023     		movs	r3, #128
 1840 03c8 5B00     		lsls	r3, r3, #1
 1841 03ca 9942     		cmp	r1, r3
 1842 03cc 1AD0     		beq	.L209
 849:Drivers/STM32G0xx_HAL_Driver/Src/stm32g0xx_hal_rcc_ex.c ****         {
 1843              		.loc 1 849 14 is_stmt 1 view .LVU528
 849:Drivers/STM32G0xx_HAL_Driver/Src/stm32g0xx_hal_rcc_ex.c ****         {
 1844              		.loc 1 849 19 is_stmt 0 view .LVU529
 1845 03ce 9C4B     		ldr	r3, .L221
 1846 03d0 1B68     		ldr	r3, [r3]
 849:Drivers/STM32G0xx_HAL_Driver/Src/stm32g0xx_hal_rcc_ex.c ****         {
 1847              		.loc 1 849 17 view .LVU530
 1848 03d2 5B05     		lsls	r3, r3, #21
 1849 03d4 04D5     		bpl	.L108
 849:Drivers/STM32G0xx_HAL_Driver/Src/stm32g0xx_hal_rcc_ex.c ****         {
 1850              		.loc 1 849 59 discriminator 1 view .LVU531
 1851 03d6 8023     		movs	r3, #128
 1852 03d8 9B00     		lsls	r3, r3, #2
 1853 03da 9942     		cmp	r1, r3
 1854 03dc 00D1     		bne	.LCB1618
 1855 03de 7BE1     		b	.L149	@long jump
 1856              	.LCB1618:
 1857              	.L108:
 853:Drivers/STM32G0xx_HAL_Driver/Src/stm32g0xx_hal_rcc_ex.c ****         {
 1858              		.loc 1 853 14 is_stmt 1 view .LVU532
ARM GAS  /tmp/ccVU8yv2.s 			page 58


 853:Drivers/STM32G0xx_HAL_Driver/Src/stm32g0xx_hal_rcc_ex.c ****         {
 1859              		.loc 1 853 19 is_stmt 0 view .LVU533
 1860 03e0 974B     		ldr	r3, .L221
 1861 03e2 DB6D     		ldr	r3, [r3, #92]
 1862 03e4 0222     		movs	r2, #2
 1863 03e6 1000     		movs	r0, r2
 1864              	.LVL103:
 853:Drivers/STM32G0xx_HAL_Driver/Src/stm32g0xx_hal_rcc_ex.c ****         {
 1865              		.loc 1 853 19 view .LVU534
 1866 03e8 1840     		ands	r0, r3
 853:Drivers/STM32G0xx_HAL_Driver/Src/stm32g0xx_hal_rcc_ex.c ****         {
 1867              		.loc 1 853 17 view .LVU535
 1868 03ea 1A42     		tst	r2, r3
 1869 03ec 00D1     		bne	.LCB1628
 1870 03ee 59E1     		b	.L65	@long jump
 1871              	.LCB1628:
 853:Drivers/STM32G0xx_HAL_Driver/Src/stm32g0xx_hal_rcc_ex.c ****         {
 1872              		.loc 1 853 63 discriminator 1 view .LVU536
 1873 03f0 C023     		movs	r3, #192
 1874 03f2 9B00     		lsls	r3, r3, #2
 1875 03f4 9942     		cmp	r1, r3
 1876 03f6 00D1     		bne	.LCB1632
 1877 03f8 70E1     		b	.L150	@long jump
 1878              	.LCB1632:
 614:Drivers/STM32G0xx_HAL_Driver/Src/stm32g0xx_hal_rcc_ex.c ****   uint32_t srcclk;
 1879              		.loc 1 614 12 view .LVU537
 1880 03fa 0020     		movs	r0, #0
 1881 03fc 52E1     		b	.L65
 1882              	.LVL104:
 1883              	.L208:
 843:Drivers/STM32G0xx_HAL_Driver/Src/stm32g0xx_hal_rcc_ex.c ****         }
 1884              		.loc 1 843 11 is_stmt 1 view .LVU538
 843:Drivers/STM32G0xx_HAL_Driver/Src/stm32g0xx_hal_rcc_ex.c ****         }
 1885              		.loc 1 843 23 is_stmt 0 view .LVU539
 1886 03fe FFF7FEFF 		bl	HAL_RCC_GetPCLK1Freq
 1887              	.LVL105:
 843:Drivers/STM32G0xx_HAL_Driver/Src/stm32g0xx_hal_rcc_ex.c ****         }
 1888              		.loc 1 843 23 view .LVU540
 1889 0402 4FE1     		b	.L65
 1890              	.LVL106:
 1891              	.L209:
 847:Drivers/STM32G0xx_HAL_Driver/Src/stm32g0xx_hal_rcc_ex.c ****         }
 1892              		.loc 1 847 11 is_stmt 1 view .LVU541
 847:Drivers/STM32G0xx_HAL_Driver/Src/stm32g0xx_hal_rcc_ex.c ****         }
 1893              		.loc 1 847 23 is_stmt 0 view .LVU542
 1894 0404 FFF7FEFF 		bl	HAL_RCC_GetSysClockFreq
 1895              	.LVL107:
 847:Drivers/STM32G0xx_HAL_Driver/Src/stm32g0xx_hal_rcc_ex.c ****         }
 1896              		.loc 1 847 23 view .LVU543
 1897 0408 4CE1     		b	.L65
 1898              	.LVL108:
 1899              	.L85:
 867:Drivers/STM32G0xx_HAL_Driver/Src/stm32g0xx_hal_rcc_ex.c **** 
 1900              		.loc 1 867 9 is_stmt 1 view .LVU544
 867:Drivers/STM32G0xx_HAL_Driver/Src/stm32g0xx_hal_rcc_ex.c **** 
 1901              		.loc 1 867 18 is_stmt 0 view .LVU545
 1902 040a 8D4A     		ldr	r2, .L221
ARM GAS  /tmp/ccVU8yv2.s 			page 59


 1903 040c 526D     		ldr	r2, [r2, #84]
 867:Drivers/STM32G0xx_HAL_Driver/Src/stm32g0xx_hal_rcc_ex.c **** 
 1904              		.loc 1 867 16 view .LVU546
 1905 040e 920F     		lsrs	r2, r2, #30
 1906 0410 9107     		lsls	r1, r2, #30
 1907              	.LVL109:
 869:Drivers/STM32G0xx_HAL_Driver/Src/stm32g0xx_hal_rcc_ex.c ****         {
 1908              		.loc 1 869 9 is_stmt 1 view .LVU547
 869:Drivers/STM32G0xx_HAL_Driver/Src/stm32g0xx_hal_rcc_ex.c ****         {
 1909              		.loc 1 869 12 is_stmt 0 view .LVU548
 1910 0412 002A     		cmp	r2, #0
 1911 0414 0AD0     		beq	.L210
 873:Drivers/STM32G0xx_HAL_Driver/Src/stm32g0xx_hal_rcc_ex.c ****         {
 1912              		.loc 1 873 14 is_stmt 1 view .LVU549
 873:Drivers/STM32G0xx_HAL_Driver/Src/stm32g0xx_hal_rcc_ex.c ****         {
 1913              		.loc 1 873 17 is_stmt 0 view .LVU550
 1914 0416 8022     		movs	r2, #128
 1915 0418 1206     		lsls	r2, r2, #24
 1916 041a 9142     		cmp	r1, r2
 1917 041c 00D1     		bne	.LCB1676
 1918 041e 60E1     		b	.L151	@long jump
 1919              	.LCB1676:
 877:Drivers/STM32G0xx_HAL_Driver/Src/stm32g0xx_hal_rcc_ex.c ****         {
 1920              		.loc 1 877 14 is_stmt 1 view .LVU551
 877:Drivers/STM32G0xx_HAL_Driver/Src/stm32g0xx_hal_rcc_ex.c ****         {
 1921              		.loc 1 877 17 is_stmt 0 view .LVU552
 1922 0420 8022     		movs	r2, #128
 1923 0422 D205     		lsls	r2, r2, #23
 1924 0424 9142     		cmp	r1, r2
 1925 0426 04D0     		beq	.L211
 614:Drivers/STM32G0xx_HAL_Driver/Src/stm32g0xx_hal_rcc_ex.c ****   uint32_t srcclk;
 1926              		.loc 1 614 12 view .LVU553
 1927 0428 0020     		movs	r0, #0
 1928              	.LVL110:
 614:Drivers/STM32G0xx_HAL_Driver/Src/stm32g0xx_hal_rcc_ex.c ****   uint32_t srcclk;
 1929              		.loc 1 614 12 view .LVU554
 1930 042a 3BE1     		b	.L65
 1931              	.LVL111:
 1932              	.L210:
 871:Drivers/STM32G0xx_HAL_Driver/Src/stm32g0xx_hal_rcc_ex.c ****         }
 1933              		.loc 1 871 11 is_stmt 1 view .LVU555
 871:Drivers/STM32G0xx_HAL_Driver/Src/stm32g0xx_hal_rcc_ex.c ****         }
 1934              		.loc 1 871 23 is_stmt 0 view .LVU556
 1935 042c FFF7FEFF 		bl	HAL_RCC_GetSysClockFreq
 1936              	.LVL112:
 871:Drivers/STM32G0xx_HAL_Driver/Src/stm32g0xx_hal_rcc_ex.c ****         }
 1937              		.loc 1 871 23 view .LVU557
 1938 0430 38E1     		b	.L65
 1939              	.LVL113:
 1940              	.L211:
 879:Drivers/STM32G0xx_HAL_Driver/Src/stm32g0xx_hal_rcc_ex.c ****           {
 1941              		.loc 1 879 11 is_stmt 1 view .LVU558
 879:Drivers/STM32G0xx_HAL_Driver/Src/stm32g0xx_hal_rcc_ex.c ****           {
 1942              		.loc 1 879 15 is_stmt 0 view .LVU559
 1943 0432 834A     		ldr	r2, .L221
 1944 0434 D168     		ldr	r1, [r2, #12]
 1945              	.LVL114:
ARM GAS  /tmp/ccVU8yv2.s 			page 60


 879:Drivers/STM32G0xx_HAL_Driver/Src/stm32g0xx_hal_rcc_ex.c ****           {
 1946              		.loc 1 879 15 view .LVU560
 1947 0436 8022     		movs	r2, #128
 1948 0438 5202     		lsls	r2, r2, #9
 1949 043a 0800     		movs	r0, r1
 1950              	.LVL115:
 879:Drivers/STM32G0xx_HAL_Driver/Src/stm32g0xx_hal_rcc_ex.c ****           {
 1951              		.loc 1 879 15 view .LVU561
 1952 043c 1040     		ands	r0, r2
 879:Drivers/STM32G0xx_HAL_Driver/Src/stm32g0xx_hal_rcc_ex.c ****           {
 1953              		.loc 1 879 14 view .LVU562
 1954 043e 1142     		tst	r1, r2
 1955 0440 00D1     		bne	.LCB1711
 1956 0442 2FE1     		b	.L65	@long jump
 1957              	.LCB1711:
 882:Drivers/STM32G0xx_HAL_Driver/Src/stm32g0xx_hal_rcc_ex.c ****             frequency = (pllvco * plln) / ((READ_BIT(RCC->PLLCFGR, RCC_PLLCFGR_PLLP) >> RCC_PLLCFGR
 1958              		.loc 1 882 13 is_stmt 1 view .LVU563
 882:Drivers/STM32G0xx_HAL_Driver/Src/stm32g0xx_hal_rcc_ex.c ****             frequency = (pllvco * plln) / ((READ_BIT(RCC->PLLCFGR, RCC_PLLCFGR_PLLP) >> RCC_PLLCFGR
 1959              		.loc 1 882 20 is_stmt 0 view .LVU564
 1960 0444 7E49     		ldr	r1, .L221
 1961 0446 CA68     		ldr	r2, [r1, #12]
 882:Drivers/STM32G0xx_HAL_Driver/Src/stm32g0xx_hal_rcc_ex.c ****             frequency = (pllvco * plln) / ((READ_BIT(RCC->PLLCFGR, RCC_PLLCFGR_PLLP) >> RCC_PLLCFGR
 1962              		.loc 1 882 61 view .LVU565
 1963 0448 120A     		lsrs	r2, r2, #8
 882:Drivers/STM32G0xx_HAL_Driver/Src/stm32g0xx_hal_rcc_ex.c ****             frequency = (pllvco * plln) / ((READ_BIT(RCC->PLLCFGR, RCC_PLLCFGR_PLLP) >> RCC_PLLCFGR
 1964              		.loc 1 882 18 view .LVU566
 1965 044a 7F20     		movs	r0, #127
 1966 044c 1040     		ands	r0, r2
 1967              	.LVL116:
 883:Drivers/STM32G0xx_HAL_Driver/Src/stm32g0xx_hal_rcc_ex.c ****           }
 1968              		.loc 1 883 13 is_stmt 1 view .LVU567
 883:Drivers/STM32G0xx_HAL_Driver/Src/stm32g0xx_hal_rcc_ex.c ****           }
 1969              		.loc 1 883 33 is_stmt 0 view .LVU568
 1970 044e 5843     		muls	r0, r3
 1971              	.LVL117:
 883:Drivers/STM32G0xx_HAL_Driver/Src/stm32g0xx_hal_rcc_ex.c ****           }
 1972              		.loc 1 883 45 view .LVU569
 1973 0450 CB68     		ldr	r3, [r1, #12]
 1974              	.LVL118:
 883:Drivers/STM32G0xx_HAL_Driver/Src/stm32g0xx_hal_rcc_ex.c ****           }
 1975              		.loc 1 883 86 view .LVU570
 1976 0452 5B0C     		lsrs	r3, r3, #17
 1977 0454 1F21     		movs	r1, #31
 1978 0456 1940     		ands	r1, r3
 883:Drivers/STM32G0xx_HAL_Driver/Src/stm32g0xx_hal_rcc_ex.c ****           }
 1979              		.loc 1 883 111 view .LVU571
 1980 0458 0131     		adds	r1, r1, #1
 883:Drivers/STM32G0xx_HAL_Driver/Src/stm32g0xx_hal_rcc_ex.c ****           }
 1981              		.loc 1 883 23 view .LVU572
 1982 045a FFF7FEFF 		bl	__aeabi_uidiv
 1983              	.LVL119:
 883:Drivers/STM32G0xx_HAL_Driver/Src/stm32g0xx_hal_rcc_ex.c ****           }
 1984              		.loc 1 883 23 view .LVU573
 1985 045e 21E1     		b	.L65
 1986              	.LVL120:
 1987              	.L74:
 895:Drivers/STM32G0xx_HAL_Driver/Src/stm32g0xx_hal_rcc_ex.c **** 
ARM GAS  /tmp/ccVU8yv2.s 			page 61


 1988              		.loc 1 895 9 is_stmt 1 view .LVU574
 895:Drivers/STM32G0xx_HAL_Driver/Src/stm32g0xx_hal_rcc_ex.c **** 
 1989              		.loc 1 895 18 is_stmt 0 view .LVU575
 1990 0460 774B     		ldr	r3, .L221
 1991 0462 5A6D     		ldr	r2, [r3, #84]
 895:Drivers/STM32G0xx_HAL_Driver/Src/stm32g0xx_hal_rcc_ex.c **** 
 1992              		.loc 1 895 16 view .LVU576
 1993 0464 C023     		movs	r3, #192
 1994 0466 9B01     		lsls	r3, r3, #6
 1995 0468 1100     		movs	r1, r2
 1996 046a 1940     		ands	r1, r3
 1997              	.LVL121:
 897:Drivers/STM32G0xx_HAL_Driver/Src/stm32g0xx_hal_rcc_ex.c ****         {
 1998              		.loc 1 897 9 is_stmt 1 view .LVU577
 897:Drivers/STM32G0xx_HAL_Driver/Src/stm32g0xx_hal_rcc_ex.c ****         {
 1999              		.loc 1 897 12 is_stmt 0 view .LVU578
 2000 046c 1A42     		tst	r2, r3
 2001 046e 13D0     		beq	.L212
 901:Drivers/STM32G0xx_HAL_Driver/Src/stm32g0xx_hal_rcc_ex.c ****         {
 2002              		.loc 1 901 14 is_stmt 1 view .LVU579
 901:Drivers/STM32G0xx_HAL_Driver/Src/stm32g0xx_hal_rcc_ex.c ****         {
 2003              		.loc 1 901 17 is_stmt 0 view .LVU580
 2004 0470 8023     		movs	r3, #128
 2005 0472 5B01     		lsls	r3, r3, #5
 2006 0474 9942     		cmp	r1, r3
 2007 0476 12D0     		beq	.L213
 905:Drivers/STM32G0xx_HAL_Driver/Src/stm32g0xx_hal_rcc_ex.c ****         {
 2008              		.loc 1 905 14 is_stmt 1 view .LVU581
 905:Drivers/STM32G0xx_HAL_Driver/Src/stm32g0xx_hal_rcc_ex.c ****         {
 2009              		.loc 1 905 19 is_stmt 0 view .LVU582
 2010 0478 714B     		ldr	r3, .L221
 2011 047a 1A68     		ldr	r2, [r3]
 2012 047c 8023     		movs	r3, #128
 2013 047e DB00     		lsls	r3, r3, #3
 2014 0480 1000     		movs	r0, r2
 2015              	.LVL122:
 905:Drivers/STM32G0xx_HAL_Driver/Src/stm32g0xx_hal_rcc_ex.c ****         {
 2016              		.loc 1 905 19 view .LVU583
 2017 0482 1840     		ands	r0, r3
 905:Drivers/STM32G0xx_HAL_Driver/Src/stm32g0xx_hal_rcc_ex.c ****         {
 2018              		.loc 1 905 17 view .LVU584
 2019 0484 1A42     		tst	r2, r3
 2020 0486 00D1     		bne	.LCB1765
 2021 0488 0CE1     		b	.L65	@long jump
 2022              	.LCB1765:
 905:Drivers/STM32G0xx_HAL_Driver/Src/stm32g0xx_hal_rcc_ex.c ****         {
 2023              		.loc 1 905 59 discriminator 1 view .LVU585
 2024 048a 8023     		movs	r3, #128
 2025 048c 9B01     		lsls	r3, r3, #6
 2026 048e 9942     		cmp	r1, r3
 2027 0490 00D1     		bne	.LCB1769
 2028 0492 28E1     		b	.L153	@long jump
 2029              	.LCB1769:
 614:Drivers/STM32G0xx_HAL_Driver/Src/stm32g0xx_hal_rcc_ex.c ****   uint32_t srcclk;
 2030              		.loc 1 614 12 view .LVU586
 2031 0494 0020     		movs	r0, #0
 2032 0496 05E1     		b	.L65
ARM GAS  /tmp/ccVU8yv2.s 			page 62


 2033              	.LVL123:
 2034              	.L212:
 899:Drivers/STM32G0xx_HAL_Driver/Src/stm32g0xx_hal_rcc_ex.c ****         }
 2035              		.loc 1 899 11 is_stmt 1 view .LVU587
 899:Drivers/STM32G0xx_HAL_Driver/Src/stm32g0xx_hal_rcc_ex.c ****         }
 2036              		.loc 1 899 23 is_stmt 0 view .LVU588
 2037 0498 FFF7FEFF 		bl	HAL_RCC_GetPCLK1Freq
 2038              	.LVL124:
 899:Drivers/STM32G0xx_HAL_Driver/Src/stm32g0xx_hal_rcc_ex.c ****         }
 2039              		.loc 1 899 23 view .LVU589
 2040 049c 02E1     		b	.L65
 2041              	.LVL125:
 2042              	.L213:
 903:Drivers/STM32G0xx_HAL_Driver/Src/stm32g0xx_hal_rcc_ex.c ****         }
 2043              		.loc 1 903 11 is_stmt 1 view .LVU590
 903:Drivers/STM32G0xx_HAL_Driver/Src/stm32g0xx_hal_rcc_ex.c ****         }
 2044              		.loc 1 903 23 is_stmt 0 view .LVU591
 2045 049e FFF7FEFF 		bl	HAL_RCC_GetSysClockFreq
 2046              	.LVL126:
 903:Drivers/STM32G0xx_HAL_Driver/Src/stm32g0xx_hal_rcc_ex.c ****         }
 2047              		.loc 1 903 23 view .LVU592
 2048 04a2 FFE0     		b	.L65
 2049              	.LVL127:
 2050              	.L188:
 923:Drivers/STM32G0xx_HAL_Driver/Src/stm32g0xx_hal_rcc_ex.c ****         }
 2051              		.loc 1 923 11 is_stmt 1 view .LVU593
 923:Drivers/STM32G0xx_HAL_Driver/Src/stm32g0xx_hal_rcc_ex.c ****         }
 2052              		.loc 1 923 23 is_stmt 0 view .LVU594
 2053 04a4 FFF7FEFF 		bl	HAL_RCC_GetPCLK1Freq
 2054              	.LVL128:
 923:Drivers/STM32G0xx_HAL_Driver/Src/stm32g0xx_hal_rcc_ex.c ****         }
 2055              		.loc 1 923 23 view .LVU595
 2056 04a8 FCE0     		b	.L65
 2057              	.LVL129:
 2058              	.L189:
 927:Drivers/STM32G0xx_HAL_Driver/Src/stm32g0xx_hal_rcc_ex.c ****         }
 2059              		.loc 1 927 11 is_stmt 1 view .LVU596
 927:Drivers/STM32G0xx_HAL_Driver/Src/stm32g0xx_hal_rcc_ex.c ****         }
 2060              		.loc 1 927 23 is_stmt 0 view .LVU597
 2061 04aa FFF7FEFF 		bl	HAL_RCC_GetSysClockFreq
 2062              	.LVL130:
 927:Drivers/STM32G0xx_HAL_Driver/Src/stm32g0xx_hal_rcc_ex.c ****         }
 2063              		.loc 1 927 23 view .LVU598
 2064 04ae F9E0     		b	.L65
 2065              	.LVL131:
 2066              	.L71:
 943:Drivers/STM32G0xx_HAL_Driver/Src/stm32g0xx_hal_rcc_ex.c **** 
 2067              		.loc 1 943 9 is_stmt 1 view .LVU599
 943:Drivers/STM32G0xx_HAL_Driver/Src/stm32g0xx_hal_rcc_ex.c **** 
 2068              		.loc 1 943 18 is_stmt 0 view .LVU600
 2069 04b0 634A     		ldr	r2, .L221
 2070 04b2 916D     		ldr	r1, [r2, #88]
 943:Drivers/STM32G0xx_HAL_Driver/Src/stm32g0xx_hal_rcc_ex.c **** 
 2071              		.loc 1 943 16 view .LVU601
 2072 04b4 0322     		movs	r2, #3
 2073 04b6 0A40     		ands	r2, r1
 2074              	.LVL132:
ARM GAS  /tmp/ccVU8yv2.s 			page 63


 945:Drivers/STM32G0xx_HAL_Driver/Src/stm32g0xx_hal_rcc_ex.c ****         {
 2075              		.loc 1 945 9 is_stmt 1 view .LVU602
 945:Drivers/STM32G0xx_HAL_Driver/Src/stm32g0xx_hal_rcc_ex.c ****         {
 2076              		.loc 1 945 12 is_stmt 0 view .LVU603
 2077 04b8 012A     		cmp	r2, #1
 2078 04ba 0DD0     		beq	.L214
 954:Drivers/STM32G0xx_HAL_Driver/Src/stm32g0xx_hal_rcc_ex.c ****         {
 2079              		.loc 1 954 14 is_stmt 1 view .LVU604
 954:Drivers/STM32G0xx_HAL_Driver/Src/stm32g0xx_hal_rcc_ex.c ****         {
 2080              		.loc 1 954 17 is_stmt 0 view .LVU605
 2081 04bc 002A     		cmp	r2, #0
 2082 04be 22D0     		beq	.L215
 958:Drivers/STM32G0xx_HAL_Driver/Src/stm32g0xx_hal_rcc_ex.c ****         {
 2083              		.loc 1 958 14 is_stmt 1 view .LVU606
 958:Drivers/STM32G0xx_HAL_Driver/Src/stm32g0xx_hal_rcc_ex.c ****         {
 2084              		.loc 1 958 19 is_stmt 0 view .LVU607
 2085 04c0 5F4B     		ldr	r3, .L221
 2086 04c2 1B68     		ldr	r3, [r3]
 958:Drivers/STM32G0xx_HAL_Driver/Src/stm32g0xx_hal_rcc_ex.c ****         {
 2087              		.loc 1 958 17 view .LVU608
 2088 04c4 5B05     		lsls	r3, r3, #21
 2089 04c6 02D5     		bpl	.L116
 958:Drivers/STM32G0xx_HAL_Driver/Src/stm32g0xx_hal_rcc_ex.c ****         {
 2090              		.loc 1 958 59 discriminator 1 view .LVU609
 2091 04c8 022A     		cmp	r2, #2
 2092 04ca 00D1     		bne	.LCB1845
 2093 04cc 0FE1     		b	.L155	@long jump
 2094              	.LCB1845:
 2095              	.L116:
 962:Drivers/STM32G0xx_HAL_Driver/Src/stm32g0xx_hal_rcc_ex.c ****         {
 2096              		.loc 1 962 14 is_stmt 1 view .LVU610
 962:Drivers/STM32G0xx_HAL_Driver/Src/stm32g0xx_hal_rcc_ex.c ****         {
 2097              		.loc 1 962 17 is_stmt 0 view .LVU611
 2098 04ce 032A     		cmp	r2, #3
 2099 04d0 00D1     		bne	.LCB1849
 2100 04d2 0EE1     		b	.L156	@long jump
 2101              	.LCB1849:
 614:Drivers/STM32G0xx_HAL_Driver/Src/stm32g0xx_hal_rcc_ex.c ****   uint32_t srcclk;
 2102              		.loc 1 614 12 view .LVU612
 2103 04d4 0020     		movs	r0, #0
 2104              	.LVL133:
 614:Drivers/STM32G0xx_HAL_Driver/Src/stm32g0xx_hal_rcc_ex.c ****   uint32_t srcclk;
 2105              		.loc 1 614 12 view .LVU613
 2106 04d6 E5E0     		b	.L65
 2107              	.LVL134:
 2108              	.L214:
 947:Drivers/STM32G0xx_HAL_Driver/Src/stm32g0xx_hal_rcc_ex.c ****           {
 2109              		.loc 1 947 11 is_stmt 1 view .LVU614
 947:Drivers/STM32G0xx_HAL_Driver/Src/stm32g0xx_hal_rcc_ex.c ****           {
 2110              		.loc 1 947 15 is_stmt 0 view .LVU615
 2111 04d8 594A     		ldr	r2, .L221
 2112              	.LVL135:
 947:Drivers/STM32G0xx_HAL_Driver/Src/stm32g0xx_hal_rcc_ex.c ****           {
 2113              		.loc 1 947 15 view .LVU616
 2114 04da D168     		ldr	r1, [r2, #12]
 2115              	.LVL136:
 947:Drivers/STM32G0xx_HAL_Driver/Src/stm32g0xx_hal_rcc_ex.c ****           {
ARM GAS  /tmp/ccVU8yv2.s 			page 64


 2116              		.loc 1 947 15 view .LVU617
 2117 04dc 8022     		movs	r2, #128
 2118 04de 5202     		lsls	r2, r2, #9
 2119 04e0 0800     		movs	r0, r1
 2120              	.LVL137:
 947:Drivers/STM32G0xx_HAL_Driver/Src/stm32g0xx_hal_rcc_ex.c ****           {
 2121              		.loc 1 947 15 view .LVU618
 2122 04e2 1040     		ands	r0, r2
 947:Drivers/STM32G0xx_HAL_Driver/Src/stm32g0xx_hal_rcc_ex.c ****           {
 2123              		.loc 1 947 14 view .LVU619
 2124 04e4 1142     		tst	r1, r2
 2125 04e6 00D1     		bne	.LCB1868
 2126 04e8 DCE0     		b	.L65	@long jump
 2127              	.LCB1868:
 950:Drivers/STM32G0xx_HAL_Driver/Src/stm32g0xx_hal_rcc_ex.c ****             frequency = (pllvco * plln) / ((READ_BIT(RCC->PLLCFGR, RCC_PLLCFGR_PLLP) >> RCC_PLLCFGR
 2128              		.loc 1 950 13 is_stmt 1 view .LVU620
 950:Drivers/STM32G0xx_HAL_Driver/Src/stm32g0xx_hal_rcc_ex.c ****             frequency = (pllvco * plln) / ((READ_BIT(RCC->PLLCFGR, RCC_PLLCFGR_PLLP) >> RCC_PLLCFGR
 2129              		.loc 1 950 20 is_stmt 0 view .LVU621
 2130 04ea 5549     		ldr	r1, .L221
 2131 04ec CA68     		ldr	r2, [r1, #12]
 950:Drivers/STM32G0xx_HAL_Driver/Src/stm32g0xx_hal_rcc_ex.c ****             frequency = (pllvco * plln) / ((READ_BIT(RCC->PLLCFGR, RCC_PLLCFGR_PLLP) >> RCC_PLLCFGR
 2132              		.loc 1 950 61 view .LVU622
 2133 04ee 120A     		lsrs	r2, r2, #8
 950:Drivers/STM32G0xx_HAL_Driver/Src/stm32g0xx_hal_rcc_ex.c ****             frequency = (pllvco * plln) / ((READ_BIT(RCC->PLLCFGR, RCC_PLLCFGR_PLLP) >> RCC_PLLCFGR
 2134              		.loc 1 950 18 view .LVU623
 2135 04f0 7F20     		movs	r0, #127
 2136 04f2 1040     		ands	r0, r2
 2137              	.LVL138:
 951:Drivers/STM32G0xx_HAL_Driver/Src/stm32g0xx_hal_rcc_ex.c ****           }
 2138              		.loc 1 951 13 is_stmt 1 view .LVU624
 951:Drivers/STM32G0xx_HAL_Driver/Src/stm32g0xx_hal_rcc_ex.c ****           }
 2139              		.loc 1 951 33 is_stmt 0 view .LVU625
 2140 04f4 5843     		muls	r0, r3
 2141              	.LVL139:
 951:Drivers/STM32G0xx_HAL_Driver/Src/stm32g0xx_hal_rcc_ex.c ****           }
 2142              		.loc 1 951 45 view .LVU626
 2143 04f6 CB68     		ldr	r3, [r1, #12]
 2144              	.LVL140:
 951:Drivers/STM32G0xx_HAL_Driver/Src/stm32g0xx_hal_rcc_ex.c ****           }
 2145              		.loc 1 951 86 view .LVU627
 2146 04f8 5B0C     		lsrs	r3, r3, #17
 2147 04fa 1F21     		movs	r1, #31
 2148 04fc 1940     		ands	r1, r3
 951:Drivers/STM32G0xx_HAL_Driver/Src/stm32g0xx_hal_rcc_ex.c ****           }
 2149              		.loc 1 951 111 view .LVU628
 2150 04fe 0131     		adds	r1, r1, #1
 951:Drivers/STM32G0xx_HAL_Driver/Src/stm32g0xx_hal_rcc_ex.c ****           }
 2151              		.loc 1 951 23 view .LVU629
 2152 0500 FFF7FEFF 		bl	__aeabi_uidiv
 2153              	.LVL141:
 951:Drivers/STM32G0xx_HAL_Driver/Src/stm32g0xx_hal_rcc_ex.c ****           }
 2154              		.loc 1 951 23 view .LVU630
 2155 0504 CEE0     		b	.L65
 2156              	.LVL142:
 2157              	.L215:
 956:Drivers/STM32G0xx_HAL_Driver/Src/stm32g0xx_hal_rcc_ex.c ****         }
 2158              		.loc 1 956 11 is_stmt 1 view .LVU631
ARM GAS  /tmp/ccVU8yv2.s 			page 65


 956:Drivers/STM32G0xx_HAL_Driver/Src/stm32g0xx_hal_rcc_ex.c ****         }
 2159              		.loc 1 956 23 is_stmt 0 view .LVU632
 2160 0506 FFF7FEFF 		bl	HAL_RCC_GetSysClockFreq
 2161              	.LVL143:
 956:Drivers/STM32G0xx_HAL_Driver/Src/stm32g0xx_hal_rcc_ex.c ****         }
 2162              		.loc 1 956 23 view .LVU633
 2163 050a CBE0     		b	.L65
 2164              	.LVL144:
 2165              	.L197:
 981:Drivers/STM32G0xx_HAL_Driver/Src/stm32g0xx_hal_rcc_ex.c ****           {
 2166              		.loc 1 981 11 is_stmt 1 view .LVU634
 981:Drivers/STM32G0xx_HAL_Driver/Src/stm32g0xx_hal_rcc_ex.c ****           {
 2167              		.loc 1 981 15 is_stmt 0 view .LVU635
 2168 050c 4C4A     		ldr	r2, .L221
 2169              	.LVL145:
 981:Drivers/STM32G0xx_HAL_Driver/Src/stm32g0xx_hal_rcc_ex.c ****           {
 2170              		.loc 1 981 15 view .LVU636
 2171 050e D168     		ldr	r1, [r2, #12]
 2172              	.LVL146:
 981:Drivers/STM32G0xx_HAL_Driver/Src/stm32g0xx_hal_rcc_ex.c ****           {
 2173              		.loc 1 981 15 view .LVU637
 2174 0510 8022     		movs	r2, #128
 2175 0512 5202     		lsls	r2, r2, #9
 2176 0514 0800     		movs	r0, r1
 2177              	.LVL147:
 981:Drivers/STM32G0xx_HAL_Driver/Src/stm32g0xx_hal_rcc_ex.c ****           {
 2178              		.loc 1 981 15 view .LVU638
 2179 0516 1040     		ands	r0, r2
 981:Drivers/STM32G0xx_HAL_Driver/Src/stm32g0xx_hal_rcc_ex.c ****           {
 2180              		.loc 1 981 14 view .LVU639
 2181 0518 1142     		tst	r1, r2
 2182 051a 00D1     		bne	.LCB1919
 2183 051c C2E0     		b	.L65	@long jump
 2184              	.LCB1919:
 984:Drivers/STM32G0xx_HAL_Driver/Src/stm32g0xx_hal_rcc_ex.c ****             frequency = (pllvco * plln) / ((READ_BIT(RCC->PLLCFGR, RCC_PLLCFGR_PLLP) >> RCC_PLLCFGR
 2185              		.loc 1 984 13 is_stmt 1 view .LVU640
 984:Drivers/STM32G0xx_HAL_Driver/Src/stm32g0xx_hal_rcc_ex.c ****             frequency = (pllvco * plln) / ((READ_BIT(RCC->PLLCFGR, RCC_PLLCFGR_PLLP) >> RCC_PLLCFGR
 2186              		.loc 1 984 20 is_stmt 0 view .LVU641
 2187 051e 4849     		ldr	r1, .L221
 2188 0520 CA68     		ldr	r2, [r1, #12]
 984:Drivers/STM32G0xx_HAL_Driver/Src/stm32g0xx_hal_rcc_ex.c ****             frequency = (pllvco * plln) / ((READ_BIT(RCC->PLLCFGR, RCC_PLLCFGR_PLLP) >> RCC_PLLCFGR
 2189              		.loc 1 984 61 view .LVU642
 2190 0522 120A     		lsrs	r2, r2, #8
 984:Drivers/STM32G0xx_HAL_Driver/Src/stm32g0xx_hal_rcc_ex.c ****             frequency = (pllvco * plln) / ((READ_BIT(RCC->PLLCFGR, RCC_PLLCFGR_PLLP) >> RCC_PLLCFGR
 2191              		.loc 1 984 18 view .LVU643
 2192 0524 7F20     		movs	r0, #127
 2193 0526 1040     		ands	r0, r2
 2194              	.LVL148:
 985:Drivers/STM32G0xx_HAL_Driver/Src/stm32g0xx_hal_rcc_ex.c ****           }
 2195              		.loc 1 985 13 is_stmt 1 view .LVU644
 985:Drivers/STM32G0xx_HAL_Driver/Src/stm32g0xx_hal_rcc_ex.c ****           }
 2196              		.loc 1 985 33 is_stmt 0 view .LVU645
 2197 0528 5843     		muls	r0, r3
 2198              	.LVL149:
 985:Drivers/STM32G0xx_HAL_Driver/Src/stm32g0xx_hal_rcc_ex.c ****           }
 2199              		.loc 1 985 45 view .LVU646
 2200 052a CB68     		ldr	r3, [r1, #12]
ARM GAS  /tmp/ccVU8yv2.s 			page 66


 2201              	.LVL150:
 985:Drivers/STM32G0xx_HAL_Driver/Src/stm32g0xx_hal_rcc_ex.c ****           }
 2202              		.loc 1 985 86 view .LVU647
 2203 052c 5B0C     		lsrs	r3, r3, #17
 2204 052e 1F21     		movs	r1, #31
 2205 0530 1940     		ands	r1, r3
 985:Drivers/STM32G0xx_HAL_Driver/Src/stm32g0xx_hal_rcc_ex.c ****           }
 2206              		.loc 1 985 111 view .LVU648
 2207 0532 0131     		adds	r1, r1, #1
 985:Drivers/STM32G0xx_HAL_Driver/Src/stm32g0xx_hal_rcc_ex.c ****           }
 2208              		.loc 1 985 23 view .LVU649
 2209 0534 FFF7FEFF 		bl	__aeabi_uidiv
 2210              	.LVL151:
 985:Drivers/STM32G0xx_HAL_Driver/Src/stm32g0xx_hal_rcc_ex.c ****           }
 2211              		.loc 1 985 23 view .LVU650
 2212 0538 B4E0     		b	.L65
 2213              	.LVL152:
 2214              	.L198:
 990:Drivers/STM32G0xx_HAL_Driver/Src/stm32g0xx_hal_rcc_ex.c ****         }
 2215              		.loc 1 990 11 is_stmt 1 view .LVU651
 990:Drivers/STM32G0xx_HAL_Driver/Src/stm32g0xx_hal_rcc_ex.c ****         }
 2216              		.loc 1 990 23 is_stmt 0 view .LVU652
 2217 053a FFF7FEFF 		bl	HAL_RCC_GetSysClockFreq
 2218              	.LVL153:
 990:Drivers/STM32G0xx_HAL_Driver/Src/stm32g0xx_hal_rcc_ex.c ****         }
 2219              		.loc 1 990 23 view .LVU653
 2220 053e B1E0     		b	.L65
 2221              	.LVL154:
 2222              	.L80:
1012:Drivers/STM32G0xx_HAL_Driver/Src/stm32g0xx_hal_rcc_ex.c **** 
 2223              		.loc 1 1012 9 is_stmt 1 view .LVU654
1012:Drivers/STM32G0xx_HAL_Driver/Src/stm32g0xx_hal_rcc_ex.c **** 
 2224              		.loc 1 1012 18 is_stmt 0 view .LVU655
 2225 0540 3F4B     		ldr	r3, .L221
 2226 0542 5A6D     		ldr	r2, [r3, #84]
1012:Drivers/STM32G0xx_HAL_Driver/Src/stm32g0xx_hal_rcc_ex.c **** 
 2227              		.loc 1 1012 16 view .LVU656
 2228 0544 C023     		movs	r3, #192
 2229 0546 1B03     		lsls	r3, r3, #12
 2230 0548 1100     		movs	r1, r2
 2231 054a 1940     		ands	r1, r3
 2232              	.LVL155:
1014:Drivers/STM32G0xx_HAL_Driver/Src/stm32g0xx_hal_rcc_ex.c ****         {
 2233              		.loc 1 1014 9 is_stmt 1 view .LVU657
1014:Drivers/STM32G0xx_HAL_Driver/Src/stm32g0xx_hal_rcc_ex.c ****         {
 2234              		.loc 1 1014 12 is_stmt 0 view .LVU658
 2235 054c 1A42     		tst	r2, r3
 2236 054e 20D0     		beq	.L216
1018:Drivers/STM32G0xx_HAL_Driver/Src/stm32g0xx_hal_rcc_ex.c ****         {
 2237              		.loc 1 1018 14 is_stmt 1 view .LVU659
1018:Drivers/STM32G0xx_HAL_Driver/Src/stm32g0xx_hal_rcc_ex.c ****         {
 2238              		.loc 1 1018 19 is_stmt 0 view .LVU660
 2239 0550 3B4B     		ldr	r3, .L221
 2240 0552 1B6E     		ldr	r3, [r3, #96]
1018:Drivers/STM32G0xx_HAL_Driver/Src/stm32g0xx_hal_rcc_ex.c ****         {
 2241              		.loc 1 1018 17 view .LVU661
 2242 0554 9B07     		lsls	r3, r3, #30
ARM GAS  /tmp/ccVU8yv2.s 			page 67


 2243 0556 04D5     		bpl	.L121
1018:Drivers/STM32G0xx_HAL_Driver/Src/stm32g0xx_hal_rcc_ex.c ****         {
 2244              		.loc 1 1018 61 discriminator 1 view .LVU662
 2245 0558 8023     		movs	r3, #128
 2246 055a DB02     		lsls	r3, r3, #11
 2247 055c 9942     		cmp	r1, r3
 2248 055e 00D1     		bne	.LCB1980
 2249 0560 CDE0     		b	.L159	@long jump
 2250              	.LCB1980:
 2251              	.L121:
1022:Drivers/STM32G0xx_HAL_Driver/Src/stm32g0xx_hal_rcc_ex.c ****         {
 2252              		.loc 1 1022 14 is_stmt 1 view .LVU663
1022:Drivers/STM32G0xx_HAL_Driver/Src/stm32g0xx_hal_rcc_ex.c ****         {
 2253              		.loc 1 1022 19 is_stmt 0 view .LVU664
 2254 0562 374B     		ldr	r3, .L221
 2255 0564 1B68     		ldr	r3, [r3]
1022:Drivers/STM32G0xx_HAL_Driver/Src/stm32g0xx_hal_rcc_ex.c ****         {
 2256              		.loc 1 1022 17 view .LVU665
 2257 0566 5B05     		lsls	r3, r3, #21
 2258 0568 04D5     		bpl	.L122
1022:Drivers/STM32G0xx_HAL_Driver/Src/stm32g0xx_hal_rcc_ex.c ****         {
 2259              		.loc 1 1022 59 discriminator 1 view .LVU666
 2260 056a 8023     		movs	r3, #128
 2261 056c 1B03     		lsls	r3, r3, #12
 2262 056e 9942     		cmp	r1, r3
 2263 0570 00D1     		bne	.LCB1992
 2264 0572 C7E0     		b	.L160	@long jump
 2265              	.LCB1992:
 2266              	.L122:
1026:Drivers/STM32G0xx_HAL_Driver/Src/stm32g0xx_hal_rcc_ex.c ****         {
 2267              		.loc 1 1026 14 is_stmt 1 view .LVU667
1026:Drivers/STM32G0xx_HAL_Driver/Src/stm32g0xx_hal_rcc_ex.c ****         {
 2268              		.loc 1 1026 19 is_stmt 0 view .LVU668
 2269 0574 324B     		ldr	r3, .L221
 2270 0576 DB6D     		ldr	r3, [r3, #92]
 2271 0578 0222     		movs	r2, #2
 2272 057a 1000     		movs	r0, r2
 2273              	.LVL156:
1026:Drivers/STM32G0xx_HAL_Driver/Src/stm32g0xx_hal_rcc_ex.c ****         {
 2274              		.loc 1 1026 19 view .LVU669
 2275 057c 1840     		ands	r0, r3
1026:Drivers/STM32G0xx_HAL_Driver/Src/stm32g0xx_hal_rcc_ex.c ****         {
 2276              		.loc 1 1026 17 view .LVU670
 2277 057e 1A42     		tst	r2, r3
 2278 0580 00D1     		bne	.LCB2002
 2279 0582 8FE0     		b	.L65	@long jump
 2280              	.LCB2002:
1026:Drivers/STM32G0xx_HAL_Driver/Src/stm32g0xx_hal_rcc_ex.c ****         {
 2281              		.loc 1 1026 63 discriminator 1 view .LVU671
 2282 0584 C023     		movs	r3, #192
 2283 0586 1B03     		lsls	r3, r3, #12
 2284 0588 9942     		cmp	r1, r3
 2285 058a 00D1     		bne	.LCB2006
 2286 058c BCE0     		b	.L161	@long jump
 2287              	.LCB2006:
 614:Drivers/STM32G0xx_HAL_Driver/Src/stm32g0xx_hal_rcc_ex.c ****   uint32_t srcclk;
 2288              		.loc 1 614 12 view .LVU672
ARM GAS  /tmp/ccVU8yv2.s 			page 68


 2289 058e 0020     		movs	r0, #0
 2290 0590 88E0     		b	.L65
 2291              	.LVL157:
 2292              	.L216:
1016:Drivers/STM32G0xx_HAL_Driver/Src/stm32g0xx_hal_rcc_ex.c ****         }
 2293              		.loc 1 1016 11 is_stmt 1 view .LVU673
1016:Drivers/STM32G0xx_HAL_Driver/Src/stm32g0xx_hal_rcc_ex.c ****         }
 2294              		.loc 1 1016 23 is_stmt 0 view .LVU674
 2295 0592 FFF7FEFF 		bl	HAL_RCC_GetPCLK1Freq
 2296              	.LVL158:
1016:Drivers/STM32G0xx_HAL_Driver/Src/stm32g0xx_hal_rcc_ex.c ****         }
 2297              		.loc 1 1016 23 view .LVU675
 2298 0596 85E0     		b	.L65
 2299              	.LVL159:
 2300              	.L186:
1045:Drivers/STM32G0xx_HAL_Driver/Src/stm32g0xx_hal_rcc_ex.c ****         }
 2301              		.loc 1 1045 11 is_stmt 1 view .LVU676
1045:Drivers/STM32G0xx_HAL_Driver/Src/stm32g0xx_hal_rcc_ex.c ****         }
 2302              		.loc 1 1045 23 is_stmt 0 view .LVU677
 2303 0598 FFF7FEFF 		bl	HAL_RCC_GetPCLK1Freq
 2304              	.LVL160:
1045:Drivers/STM32G0xx_HAL_Driver/Src/stm32g0xx_hal_rcc_ex.c ****         }
 2305              		.loc 1 1045 23 view .LVU678
 2306 059c 82E0     		b	.L65
 2307              	.LVL161:
 2308              	.L83:
1070:Drivers/STM32G0xx_HAL_Driver/Src/stm32g0xx_hal_rcc_ex.c **** 
 2309              		.loc 1 1070 9 is_stmt 1 view .LVU679
1070:Drivers/STM32G0xx_HAL_Driver/Src/stm32g0xx_hal_rcc_ex.c **** 
 2310              		.loc 1 1070 18 is_stmt 0 view .LVU680
 2311 059e 284A     		ldr	r2, .L221
 2312 05a0 526D     		ldr	r2, [r2, #84]
 2313              	.LVL162:
1072:Drivers/STM32G0xx_HAL_Driver/Src/stm32g0xx_hal_rcc_ex.c ****         {
 2314              		.loc 1 1072 9 is_stmt 1 view .LVU681
1072:Drivers/STM32G0xx_HAL_Driver/Src/stm32g0xx_hal_rcc_ex.c ****         {
 2315              		.loc 1 1072 12 is_stmt 0 view .LVU682
 2316 05a2 5202     		lsls	r2, r2, #9
 2317 05a4 15D5     		bpl	.L126
 2318              	.LVL163:
1074:Drivers/STM32G0xx_HAL_Driver/Src/stm32g0xx_hal_rcc_ex.c ****           {
 2319              		.loc 1 1074 11 is_stmt 1 view .LVU683
1074:Drivers/STM32G0xx_HAL_Driver/Src/stm32g0xx_hal_rcc_ex.c ****           {
 2320              		.loc 1 1074 15 is_stmt 0 view .LVU684
 2321 05a6 264A     		ldr	r2, .L221
 2322 05a8 D168     		ldr	r1, [r2, #12]
 2323 05aa 8022     		movs	r2, #128
 2324 05ac 5204     		lsls	r2, r2, #17
 2325 05ae 0800     		movs	r0, r1
 2326              	.LVL164:
1074:Drivers/STM32G0xx_HAL_Driver/Src/stm32g0xx_hal_rcc_ex.c ****           {
 2327              		.loc 1 1074 15 view .LVU685
 2328 05b0 1040     		ands	r0, r2
1074:Drivers/STM32G0xx_HAL_Driver/Src/stm32g0xx_hal_rcc_ex.c ****           {
 2329              		.loc 1 1074 14 view .LVU686
 2330 05b2 1142     		tst	r1, r2
 2331 05b4 76D0     		beq	.L65
ARM GAS  /tmp/ccVU8yv2.s 			page 69


1077:Drivers/STM32G0xx_HAL_Driver/Src/stm32g0xx_hal_rcc_ex.c ****             frequency = (pllvco * plln) / ((READ_BIT(RCC->PLLCFGR, RCC_PLLCFGR_PLLQ) >> RCC_PLLCFGR
 2332              		.loc 1 1077 13 is_stmt 1 view .LVU687
1077:Drivers/STM32G0xx_HAL_Driver/Src/stm32g0xx_hal_rcc_ex.c ****             frequency = (pllvco * plln) / ((READ_BIT(RCC->PLLCFGR, RCC_PLLCFGR_PLLQ) >> RCC_PLLCFGR
 2333              		.loc 1 1077 20 is_stmt 0 view .LVU688
 2334 05b6 2249     		ldr	r1, .L221
 2335 05b8 CA68     		ldr	r2, [r1, #12]
1077:Drivers/STM32G0xx_HAL_Driver/Src/stm32g0xx_hal_rcc_ex.c ****             frequency = (pllvco * plln) / ((READ_BIT(RCC->PLLCFGR, RCC_PLLCFGR_PLLQ) >> RCC_PLLCFGR
 2336              		.loc 1 1077 61 view .LVU689
 2337 05ba 120A     		lsrs	r2, r2, #8
1077:Drivers/STM32G0xx_HAL_Driver/Src/stm32g0xx_hal_rcc_ex.c ****             frequency = (pllvco * plln) / ((READ_BIT(RCC->PLLCFGR, RCC_PLLCFGR_PLLQ) >> RCC_PLLCFGR
 2338              		.loc 1 1077 18 view .LVU690
 2339 05bc 7F20     		movs	r0, #127
 2340 05be 1040     		ands	r0, r2
 2341              	.LVL165:
1078:Drivers/STM32G0xx_HAL_Driver/Src/stm32g0xx_hal_rcc_ex.c ****           }
 2342              		.loc 1 1078 13 is_stmt 1 view .LVU691
1078:Drivers/STM32G0xx_HAL_Driver/Src/stm32g0xx_hal_rcc_ex.c ****           }
 2343              		.loc 1 1078 33 is_stmt 0 view .LVU692
 2344 05c0 5843     		muls	r0, r3
 2345              	.LVL166:
1078:Drivers/STM32G0xx_HAL_Driver/Src/stm32g0xx_hal_rcc_ex.c ****           }
 2346              		.loc 1 1078 45 view .LVU693
 2347 05c2 CB68     		ldr	r3, [r1, #12]
 2348              	.LVL167:
1078:Drivers/STM32G0xx_HAL_Driver/Src/stm32g0xx_hal_rcc_ex.c ****           }
 2349              		.loc 1 1078 86 view .LVU694
 2350 05c4 5B0E     		lsrs	r3, r3, #25
 2351 05c6 0721     		movs	r1, #7
 2352 05c8 1940     		ands	r1, r3
1078:Drivers/STM32G0xx_HAL_Driver/Src/stm32g0xx_hal_rcc_ex.c ****           }
 2353              		.loc 1 1078 111 view .LVU695
 2354 05ca 0131     		adds	r1, r1, #1
1078:Drivers/STM32G0xx_HAL_Driver/Src/stm32g0xx_hal_rcc_ex.c ****           }
 2355              		.loc 1 1078 23 view .LVU696
 2356 05cc FFF7FEFF 		bl	__aeabi_uidiv
 2357              	.LVL168:
1078:Drivers/STM32G0xx_HAL_Driver/Src/stm32g0xx_hal_rcc_ex.c ****           }
 2358              		.loc 1 1078 23 view .LVU697
 2359 05d0 68E0     		b	.L65
 2360              	.LVL169:
 2361              	.L126:
1081:Drivers/STM32G0xx_HAL_Driver/Src/stm32g0xx_hal_rcc_ex.c ****         {
 2362              		.loc 1 1081 14 is_stmt 1 view .LVU698
1083:Drivers/STM32G0xx_HAL_Driver/Src/stm32g0xx_hal_rcc_ex.c ****         }
 2363              		.loc 1 1083 11 view .LVU699
1083:Drivers/STM32G0xx_HAL_Driver/Src/stm32g0xx_hal_rcc_ex.c ****         }
 2364              		.loc 1 1083 23 is_stmt 0 view .LVU700
 2365 05d2 FFF7FEFF 		bl	HAL_RCC_GetPCLK1Freq
 2366              	.LVL170:
1083:Drivers/STM32G0xx_HAL_Driver/Src/stm32g0xx_hal_rcc_ex.c ****         }
 2367              		.loc 1 1083 23 view .LVU701
 2368 05d6 65E0     		b	.L65
 2369              	.LVL171:
 2370              	.L127:
1106:Drivers/STM32G0xx_HAL_Driver/Src/stm32g0xx_hal_rcc_ex.c ****         {
 2371              		.loc 1 1106 14 is_stmt 1 view .LVU702
1108:Drivers/STM32G0xx_HAL_Driver/Src/stm32g0xx_hal_rcc_ex.c ****         }
ARM GAS  /tmp/ccVU8yv2.s 			page 70


 2372              		.loc 1 1108 11 view .LVU703
1108:Drivers/STM32G0xx_HAL_Driver/Src/stm32g0xx_hal_rcc_ex.c ****         }
 2373              		.loc 1 1108 23 is_stmt 0 view .LVU704
 2374 05d8 FFF7FEFF 		bl	HAL_RCC_GetPCLK1Freq
 2375              	.LVL172:
1108:Drivers/STM32G0xx_HAL_Driver/Src/stm32g0xx_hal_rcc_ex.c ****         }
 2376              		.loc 1 1108 23 view .LVU705
 2377 05dc 62E0     		b	.L65
 2378              	.LVL173:
 2379              	.L90:
1120:Drivers/STM32G0xx_HAL_Driver/Src/stm32g0xx_hal_rcc_ex.c **** 
 2380              		.loc 1 1120 9 is_stmt 1 view .LVU706
1120:Drivers/STM32G0xx_HAL_Driver/Src/stm32g0xx_hal_rcc_ex.c **** 
 2381              		.loc 1 1120 18 is_stmt 0 view .LVU707
 2382 05de 184A     		ldr	r2, .L221
 2383 05e0 926D     		ldr	r2, [r2, #88]
1120:Drivers/STM32G0xx_HAL_Driver/Src/stm32g0xx_hal_rcc_ex.c **** 
 2384              		.loc 1 1120 16 view .LVU708
 2385 05e2 C021     		movs	r1, #192
 2386 05e4 8901     		lsls	r1, r1, #6
 2387 05e6 0A40     		ands	r2, r1
 2388              	.LVL174:
1122:Drivers/STM32G0xx_HAL_Driver/Src/stm32g0xx_hal_rcc_ex.c ****         {
 2389              		.loc 1 1122 9 is_stmt 1 view .LVU709
1122:Drivers/STM32G0xx_HAL_Driver/Src/stm32g0xx_hal_rcc_ex.c ****         {
 2390              		.loc 1 1122 12 is_stmt 0 view .LVU710
 2391 05e8 8021     		movs	r1, #128
 2392 05ea 8901     		lsls	r1, r1, #6
 2393 05ec 8A42     		cmp	r2, r1
 2394 05ee 0BD0     		beq	.L217
1132:Drivers/STM32G0xx_HAL_Driver/Src/stm32g0xx_hal_rcc_ex.c ****         {
 2395              		.loc 1 1132 14 is_stmt 1 view .LVU711
1132:Drivers/STM32G0xx_HAL_Driver/Src/stm32g0xx_hal_rcc_ex.c ****         {
 2396              		.loc 1 1132 17 is_stmt 0 view .LVU712
 2397 05f0 002A     		cmp	r2, #0
 2398 05f2 1FD1     		bne	.L129
1134:Drivers/STM32G0xx_HAL_Driver/Src/stm32g0xx_hal_rcc_ex.c ****           {
 2399              		.loc 1 1134 11 is_stmt 1 view .LVU713
1134:Drivers/STM32G0xx_HAL_Driver/Src/stm32g0xx_hal_rcc_ex.c ****           {
 2400              		.loc 1 1134 16 is_stmt 0 view .LVU714
 2401 05f4 124B     		ldr	r3, .L221
 2402 05f6 1A68     		ldr	r2, [r3]
 2403              	.LVL175:
1134:Drivers/STM32G0xx_HAL_Driver/Src/stm32g0xx_hal_rcc_ex.c ****           {
 2404              		.loc 1 1134 16 view .LVU715
 2405 05f8 8023     		movs	r3, #128
 2406 05fa 1B04     		lsls	r3, r3, #16
 2407 05fc 1000     		movs	r0, r2
 2408              	.LVL176:
1134:Drivers/STM32G0xx_HAL_Driver/Src/stm32g0xx_hal_rcc_ex.c ****           {
 2409              		.loc 1 1134 16 view .LVU716
 2410 05fe 1840     		ands	r0, r3
1134:Drivers/STM32G0xx_HAL_Driver/Src/stm32g0xx_hal_rcc_ex.c ****           {
 2411              		.loc 1 1134 14 view .LVU717
 2412 0600 1A42     		tst	r2, r3
 2413 0602 4FD0     		beq	.L65
1136:Drivers/STM32G0xx_HAL_Driver/Src/stm32g0xx_hal_rcc_ex.c ****           }
ARM GAS  /tmp/ccVU8yv2.s 			page 71


 2414              		.loc 1 1136 23 view .LVU718
 2415 0604 0F48     		ldr	r0, .L221+4
 2416 0606 4DE0     		b	.L65
 2417              	.LVL177:
 2418              	.L217:
1124:Drivers/STM32G0xx_HAL_Driver/Src/stm32g0xx_hal_rcc_ex.c ****           {
 2419              		.loc 1 1124 11 is_stmt 1 view .LVU719
1124:Drivers/STM32G0xx_HAL_Driver/Src/stm32g0xx_hal_rcc_ex.c ****           {
 2420              		.loc 1 1124 15 is_stmt 0 view .LVU720
 2421 0608 0D4A     		ldr	r2, .L221
 2422              	.LVL178:
1124:Drivers/STM32G0xx_HAL_Driver/Src/stm32g0xx_hal_rcc_ex.c ****           {
 2423              		.loc 1 1124 15 view .LVU721
 2424 060a D168     		ldr	r1, [r2, #12]
 2425 060c 8022     		movs	r2, #128
 2426 060e 5204     		lsls	r2, r2, #17
 2427 0610 0800     		movs	r0, r1
 2428              	.LVL179:
1124:Drivers/STM32G0xx_HAL_Driver/Src/stm32g0xx_hal_rcc_ex.c ****           {
 2429              		.loc 1 1124 15 view .LVU722
 2430 0612 1040     		ands	r0, r2
1124:Drivers/STM32G0xx_HAL_Driver/Src/stm32g0xx_hal_rcc_ex.c ****           {
 2431              		.loc 1 1124 14 view .LVU723
 2432 0614 1142     		tst	r1, r2
 2433 0616 45D0     		beq	.L65
1127:Drivers/STM32G0xx_HAL_Driver/Src/stm32g0xx_hal_rcc_ex.c ****             frequency = (pllvco * plln) / ((READ_BIT(RCC->PLLCFGR, RCC_PLLCFGR_PLLQ) >> RCC_PLLCFGR
 2434              		.loc 1 1127 13 is_stmt 1 view .LVU724
1127:Drivers/STM32G0xx_HAL_Driver/Src/stm32g0xx_hal_rcc_ex.c ****             frequency = (pllvco * plln) / ((READ_BIT(RCC->PLLCFGR, RCC_PLLCFGR_PLLQ) >> RCC_PLLCFGR
 2435              		.loc 1 1127 20 is_stmt 0 view .LVU725
 2436 0618 0949     		ldr	r1, .L221
 2437 061a CA68     		ldr	r2, [r1, #12]
1127:Drivers/STM32G0xx_HAL_Driver/Src/stm32g0xx_hal_rcc_ex.c ****             frequency = (pllvco * plln) / ((READ_BIT(RCC->PLLCFGR, RCC_PLLCFGR_PLLQ) >> RCC_PLLCFGR
 2438              		.loc 1 1127 61 view .LVU726
 2439 061c 120A     		lsrs	r2, r2, #8
1127:Drivers/STM32G0xx_HAL_Driver/Src/stm32g0xx_hal_rcc_ex.c ****             frequency = (pllvco * plln) / ((READ_BIT(RCC->PLLCFGR, RCC_PLLCFGR_PLLQ) >> RCC_PLLCFGR
 2440              		.loc 1 1127 18 view .LVU727
 2441 061e 7F20     		movs	r0, #127
 2442 0620 1040     		ands	r0, r2
 2443              	.LVL180:
1128:Drivers/STM32G0xx_HAL_Driver/Src/stm32g0xx_hal_rcc_ex.c ****           }
 2444              		.loc 1 1128 13 is_stmt 1 view .LVU728
1128:Drivers/STM32G0xx_HAL_Driver/Src/stm32g0xx_hal_rcc_ex.c ****           }
 2445              		.loc 1 1128 33 is_stmt 0 view .LVU729
 2446 0622 5843     		muls	r0, r3
 2447              	.LVL181:
1128:Drivers/STM32G0xx_HAL_Driver/Src/stm32g0xx_hal_rcc_ex.c ****           }
 2448              		.loc 1 1128 45 view .LVU730
 2449 0624 CB68     		ldr	r3, [r1, #12]
 2450              	.LVL182:
1128:Drivers/STM32G0xx_HAL_Driver/Src/stm32g0xx_hal_rcc_ex.c ****           }
 2451              		.loc 1 1128 86 view .LVU731
 2452 0626 5B0E     		lsrs	r3, r3, #25
 2453 0628 0721     		movs	r1, #7
 2454 062a 1940     		ands	r1, r3
1128:Drivers/STM32G0xx_HAL_Driver/Src/stm32g0xx_hal_rcc_ex.c ****           }
 2455              		.loc 1 1128 111 view .LVU732
 2456 062c 0131     		adds	r1, r1, #1
ARM GAS  /tmp/ccVU8yv2.s 			page 72


1128:Drivers/STM32G0xx_HAL_Driver/Src/stm32g0xx_hal_rcc_ex.c ****           }
 2457              		.loc 1 1128 23 view .LVU733
 2458 062e FFF7FEFF 		bl	__aeabi_uidiv
 2459              	.LVL183:
1128:Drivers/STM32G0xx_HAL_Driver/Src/stm32g0xx_hal_rcc_ex.c ****           }
 2460              		.loc 1 1128 23 view .LVU734
 2461 0632 37E0     		b	.L65
 2462              	.LVL184:
 2463              	.L129:
1140:Drivers/STM32G0xx_HAL_Driver/Src/stm32g0xx_hal_rcc_ex.c ****         {
 2464              		.loc 1 1140 14 is_stmt 1 view .LVU735
1140:Drivers/STM32G0xx_HAL_Driver/Src/stm32g0xx_hal_rcc_ex.c ****         {
 2465              		.loc 1 1140 17 is_stmt 0 view .LVU736
 2466 0634 8023     		movs	r3, #128
 2467 0636 5B01     		lsls	r3, r3, #5
 2468 0638 9A42     		cmp	r2, r3
 2469 063a 05D0     		beq	.L218
 614:Drivers/STM32G0xx_HAL_Driver/Src/stm32g0xx_hal_rcc_ex.c ****   uint32_t srcclk;
 2470              		.loc 1 614 12 view .LVU737
 2471 063c 0020     		movs	r0, #0
 2472              	.LVL185:
 614:Drivers/STM32G0xx_HAL_Driver/Src/stm32g0xx_hal_rcc_ex.c ****   uint32_t srcclk;
 2473              		.loc 1 614 12 view .LVU738
 2474 063e 31E0     		b	.L65
 2475              	.L222:
 2476              		.align	2
 2477              	.L221:
 2478 0640 00100240 		.word	1073876992
 2479 0644 006CDC02 		.word	48000000
 2480              	.LVL186:
 2481              	.L218:
1142:Drivers/STM32G0xx_HAL_Driver/Src/stm32g0xx_hal_rcc_ex.c ****           {
 2482              		.loc 1 1142 11 is_stmt 1 view .LVU739
1142:Drivers/STM32G0xx_HAL_Driver/Src/stm32g0xx_hal_rcc_ex.c ****           {
 2483              		.loc 1 1142 16 is_stmt 0 view .LVU740
 2484 0648 364B     		ldr	r3, .L223
 2485 064a 1A68     		ldr	r2, [r3]
 2486              	.LVL187:
1142:Drivers/STM32G0xx_HAL_Driver/Src/stm32g0xx_hal_rcc_ex.c ****           {
 2487              		.loc 1 1142 16 view .LVU741
 2488 064c 8023     		movs	r3, #128
 2489 064e 9B02     		lsls	r3, r3, #10
 2490 0650 1000     		movs	r0, r2
 2491              	.LVL188:
1142:Drivers/STM32G0xx_HAL_Driver/Src/stm32g0xx_hal_rcc_ex.c ****           {
 2492              		.loc 1 1142 16 view .LVU742
 2493 0652 1840     		ands	r0, r3
1142:Drivers/STM32G0xx_HAL_Driver/Src/stm32g0xx_hal_rcc_ex.c ****           {
 2494              		.loc 1 1142 14 view .LVU743
 2495 0654 1A42     		tst	r2, r3
 2496 0656 25D0     		beq	.L65
1144:Drivers/STM32G0xx_HAL_Driver/Src/stm32g0xx_hal_rcc_ex.c ****           }
 2497              		.loc 1 1144 23 view .LVU744
 2498 0658 3348     		ldr	r0, .L223+4
 2499 065a 23E0     		b	.L65
 2500              	.LVL189:
 2501              	.L192:
ARM GAS  /tmp/ccVU8yv2.s 			page 73


1161:Drivers/STM32G0xx_HAL_Driver/Src/stm32g0xx_hal_rcc_ex.c ****           {
 2502              		.loc 1 1161 11 is_stmt 1 view .LVU745
1161:Drivers/STM32G0xx_HAL_Driver/Src/stm32g0xx_hal_rcc_ex.c ****           {
 2503              		.loc 1 1161 15 is_stmt 0 view .LVU746
 2504 065c 314A     		ldr	r2, .L223
 2505              	.LVL190:
1161:Drivers/STM32G0xx_HAL_Driver/Src/stm32g0xx_hal_rcc_ex.c ****           {
 2506              		.loc 1 1161 15 view .LVU747
 2507 065e D168     		ldr	r1, [r2, #12]
 2508 0660 8022     		movs	r2, #128
 2509 0662 5204     		lsls	r2, r2, #17
 2510 0664 0800     		movs	r0, r1
 2511              	.LVL191:
1161:Drivers/STM32G0xx_HAL_Driver/Src/stm32g0xx_hal_rcc_ex.c ****           {
 2512              		.loc 1 1161 15 view .LVU748
 2513 0666 1040     		ands	r0, r2
1161:Drivers/STM32G0xx_HAL_Driver/Src/stm32g0xx_hal_rcc_ex.c ****           {
 2514              		.loc 1 1161 14 view .LVU749
 2515 0668 1142     		tst	r1, r2
 2516 066a 1BD0     		beq	.L65
1164:Drivers/STM32G0xx_HAL_Driver/Src/stm32g0xx_hal_rcc_ex.c ****             frequency = (pllvco * plln) / ((READ_BIT(RCC->PLLCFGR, RCC_PLLCFGR_PLLQ) >> RCC_PLLCFGR
 2517              		.loc 1 1164 13 is_stmt 1 view .LVU750
1164:Drivers/STM32G0xx_HAL_Driver/Src/stm32g0xx_hal_rcc_ex.c ****             frequency = (pllvco * plln) / ((READ_BIT(RCC->PLLCFGR, RCC_PLLCFGR_PLLQ) >> RCC_PLLCFGR
 2518              		.loc 1 1164 20 is_stmt 0 view .LVU751
 2519 066c 2D49     		ldr	r1, .L223
 2520 066e CA68     		ldr	r2, [r1, #12]
1164:Drivers/STM32G0xx_HAL_Driver/Src/stm32g0xx_hal_rcc_ex.c ****             frequency = (pllvco * plln) / ((READ_BIT(RCC->PLLCFGR, RCC_PLLCFGR_PLLQ) >> RCC_PLLCFGR
 2521              		.loc 1 1164 61 view .LVU752
 2522 0670 120A     		lsrs	r2, r2, #8
1164:Drivers/STM32G0xx_HAL_Driver/Src/stm32g0xx_hal_rcc_ex.c ****             frequency = (pllvco * plln) / ((READ_BIT(RCC->PLLCFGR, RCC_PLLCFGR_PLLQ) >> RCC_PLLCFGR
 2523              		.loc 1 1164 18 view .LVU753
 2524 0672 7F20     		movs	r0, #127
 2525 0674 1040     		ands	r0, r2
 2526              	.LVL192:
1165:Drivers/STM32G0xx_HAL_Driver/Src/stm32g0xx_hal_rcc_ex.c ****           }
 2527              		.loc 1 1165 13 is_stmt 1 view .LVU754
1165:Drivers/STM32G0xx_HAL_Driver/Src/stm32g0xx_hal_rcc_ex.c ****           }
 2528              		.loc 1 1165 33 is_stmt 0 view .LVU755
 2529 0676 5843     		muls	r0, r3
 2530              	.LVL193:
1165:Drivers/STM32G0xx_HAL_Driver/Src/stm32g0xx_hal_rcc_ex.c ****           }
 2531              		.loc 1 1165 45 view .LVU756
 2532 0678 CB68     		ldr	r3, [r1, #12]
 2533              	.LVL194:
1165:Drivers/STM32G0xx_HAL_Driver/Src/stm32g0xx_hal_rcc_ex.c ****           }
 2534              		.loc 1 1165 86 view .LVU757
 2535 067a 5B0E     		lsrs	r3, r3, #25
 2536 067c 0721     		movs	r1, #7
 2537 067e 1940     		ands	r1, r3
1165:Drivers/STM32G0xx_HAL_Driver/Src/stm32g0xx_hal_rcc_ex.c ****           }
 2538              		.loc 1 1165 111 view .LVU758
 2539 0680 0131     		adds	r1, r1, #1
1165:Drivers/STM32G0xx_HAL_Driver/Src/stm32g0xx_hal_rcc_ex.c ****           }
 2540              		.loc 1 1165 23 view .LVU759
 2541 0682 FFF7FEFF 		bl	__aeabi_uidiv
 2542              	.LVL195:
1165:Drivers/STM32G0xx_HAL_Driver/Src/stm32g0xx_hal_rcc_ex.c ****           }
ARM GAS  /tmp/ccVU8yv2.s 			page 74


 2543              		.loc 1 1165 23 view .LVU760
 2544 0686 0DE0     		b	.L65
 2545              	.LVL196:
 2546              	.L193:
1170:Drivers/STM32G0xx_HAL_Driver/Src/stm32g0xx_hal_rcc_ex.c ****         }
 2547              		.loc 1 1170 11 is_stmt 1 view .LVU761
1170:Drivers/STM32G0xx_HAL_Driver/Src/stm32g0xx_hal_rcc_ex.c ****         }
 2548              		.loc 1 1170 23 is_stmt 0 view .LVU762
 2549 0688 FFF7FEFF 		bl	HAL_RCC_GetPCLK1Freq
 2550              	.LVL197:
1170:Drivers/STM32G0xx_HAL_Driver/Src/stm32g0xx_hal_rcc_ex.c ****         }
 2551              		.loc 1 1170 23 view .LVU763
 2552 068c 0AE0     		b	.L65
 2553              	.LVL198:
 2554              	.L132:
 633:Drivers/STM32G0xx_HAL_Driver/Src/stm32g0xx_hal_rcc_ex.c ****     }
 2555              		.loc 1 633 17 view .LVU764
 2556 068e 8020     		movs	r0, #128
 2557              	.LVL199:
 633:Drivers/STM32G0xx_HAL_Driver/Src/stm32g0xx_hal_rcc_ex.c ****     }
 2558              		.loc 1 633 17 view .LVU765
 2559 0690 0002     		lsls	r0, r0, #8
 2560 0692 07E0     		b	.L65
 2561              	.LVL200:
 2562              	.L133:
 638:Drivers/STM32G0xx_HAL_Driver/Src/stm32g0xx_hal_rcc_ex.c ****     }
 2563              		.loc 1 638 17 view .LVU766
 2564 0694 FA20     		movs	r0, #250
 2565              	.LVL201:
 638:Drivers/STM32G0xx_HAL_Driver/Src/stm32g0xx_hal_rcc_ex.c ****     }
 2566              		.loc 1 638 17 view .LVU767
 2567 0696 C001     		lsls	r0, r0, #7
 2568 0698 04E0     		b	.L65
 2569              	.L134:
 643:Drivers/STM32G0xx_HAL_Driver/Src/stm32g0xx_hal_rcc_ex.c ****     }
 2570              		.loc 1 643 17 view .LVU768
 2571 069a 2448     		ldr	r0, .L223+8
 2572 069c 02E0     		b	.L65
 2573              	.LVL202:
 2574              	.L137:
 672:Drivers/STM32G0xx_HAL_Driver/Src/stm32g0xx_hal_rcc_ex.c ****     {
 2575              		.loc 1 672 5 view .LVU769
 2576 069e 0020     		movs	r0, #0
 2577              	.LVL203:
 672:Drivers/STM32G0xx_HAL_Driver/Src/stm32g0xx_hal_rcc_ex.c ****     {
 2578              		.loc 1 672 5 view .LVU770
 2579 06a0 00E0     		b	.L65
 2580              	.LVL204:
 2581              	.L138:
 672:Drivers/STM32G0xx_HAL_Driver/Src/stm32g0xx_hal_rcc_ex.c ****     {
 2582              		.loc 1 672 5 view .LVU771
 2583 06a2 0020     		movs	r0, #0
 2584              	.LVL205:
 2585              	.L65:
1173:Drivers/STM32G0xx_HAL_Driver/Src/stm32g0xx_hal_rcc_ex.c ****         {
1174:Drivers/STM32G0xx_HAL_Driver/Src/stm32g0xx_hal_rcc_ex.c ****           frequency = HSE_VALUE;
1175:Drivers/STM32G0xx_HAL_Driver/Src/stm32g0xx_hal_rcc_ex.c ****         }
ARM GAS  /tmp/ccVU8yv2.s 			page 75


1176:Drivers/STM32G0xx_HAL_Driver/Src/stm32g0xx_hal_rcc_ex.c ****         else /* No clock source */
1177:Drivers/STM32G0xx_HAL_Driver/Src/stm32g0xx_hal_rcc_ex.c ****         {
1178:Drivers/STM32G0xx_HAL_Driver/Src/stm32g0xx_hal_rcc_ex.c ****           /* Nothing to do as frequency already initialized to 0U */
1179:Drivers/STM32G0xx_HAL_Driver/Src/stm32g0xx_hal_rcc_ex.c ****         }
1180:Drivers/STM32G0xx_HAL_Driver/Src/stm32g0xx_hal_rcc_ex.c ****         break;
1181:Drivers/STM32G0xx_HAL_Driver/Src/stm32g0xx_hal_rcc_ex.c **** #endif /* RCC_CCIPR2_FDCANSEL */
1182:Drivers/STM32G0xx_HAL_Driver/Src/stm32g0xx_hal_rcc_ex.c **** 
1183:Drivers/STM32G0xx_HAL_Driver/Src/stm32g0xx_hal_rcc_ex.c ****       default:
1184:Drivers/STM32G0xx_HAL_Driver/Src/stm32g0xx_hal_rcc_ex.c ****         break;
1185:Drivers/STM32G0xx_HAL_Driver/Src/stm32g0xx_hal_rcc_ex.c ****     }
1186:Drivers/STM32G0xx_HAL_Driver/Src/stm32g0xx_hal_rcc_ex.c ****   }
1187:Drivers/STM32G0xx_HAL_Driver/Src/stm32g0xx_hal_rcc_ex.c **** 
1188:Drivers/STM32G0xx_HAL_Driver/Src/stm32g0xx_hal_rcc_ex.c ****   return (frequency);
1189:Drivers/STM32G0xx_HAL_Driver/Src/stm32g0xx_hal_rcc_ex.c **** }
 2586              		.loc 1 1189 1 view .LVU772
 2587              		@ sp needed
 2588 06a4 10BD     		pop	{r4, pc}
 2589              	.LVL206:
 2590              	.L139:
 716:Drivers/STM32G0xx_HAL_Driver/Src/stm32g0xx_hal_rcc_ex.c ****         }
 2591              		.loc 1 716 21 view .LVU773
 2592 06a6 2248     		ldr	r0, .L223+12
 2593              	.LVL207:
 716:Drivers/STM32G0xx_HAL_Driver/Src/stm32g0xx_hal_rcc_ex.c ****         }
 2594              		.loc 1 716 21 view .LVU774
 2595 06a8 FCE7     		b	.L65
 2596              	.L140:
 720:Drivers/STM32G0xx_HAL_Driver/Src/stm32g0xx_hal_rcc_ex.c ****         }
 2597              		.loc 1 720 21 view .LVU775
 2598 06aa 8020     		movs	r0, #128
 2599 06ac 0002     		lsls	r0, r0, #8
 2600 06ae F9E7     		b	.L65
 2601              	.LVL208:
 2602              	.L141:
 743:Drivers/STM32G0xx_HAL_Driver/Src/stm32g0xx_hal_rcc_ex.c ****         }
 2603              		.loc 1 743 21 view .LVU776
 2604 06b0 1F48     		ldr	r0, .L223+12
 2605              	.LVL209:
 743:Drivers/STM32G0xx_HAL_Driver/Src/stm32g0xx_hal_rcc_ex.c ****         }
 2606              		.loc 1 743 21 view .LVU777
 2607 06b2 F7E7     		b	.L65
 2608              	.L142:
 747:Drivers/STM32G0xx_HAL_Driver/Src/stm32g0xx_hal_rcc_ex.c ****         }
 2609              		.loc 1 747 21 view .LVU778
 2610 06b4 8020     		movs	r0, #128
 2611 06b6 0002     		lsls	r0, r0, #8
 2612 06b8 F4E7     		b	.L65
 2613              	.LVL210:
 2614              	.L143:
 772:Drivers/STM32G0xx_HAL_Driver/Src/stm32g0xx_hal_rcc_ex.c ****         }
 2615              		.loc 1 772 21 view .LVU779
 2616 06ba 1D48     		ldr	r0, .L223+12
 2617              	.LVL211:
 772:Drivers/STM32G0xx_HAL_Driver/Src/stm32g0xx_hal_rcc_ex.c ****         }
 2618              		.loc 1 772 21 view .LVU780
 2619 06bc F2E7     		b	.L65
 2620              	.L144:
ARM GAS  /tmp/ccVU8yv2.s 			page 76


 776:Drivers/STM32G0xx_HAL_Driver/Src/stm32g0xx_hal_rcc_ex.c ****         }
 2621              		.loc 1 776 21 view .LVU781
 2622 06be 8020     		movs	r0, #128
 2623 06c0 0002     		lsls	r0, r0, #8
 2624 06c2 EFE7     		b	.L65
 2625              	.LVL212:
 2626              	.L145:
 793:Drivers/STM32G0xx_HAL_Driver/Src/stm32g0xx_hal_rcc_ex.c ****         }
 2627              		.loc 1 793 21 view .LVU782
 2628 06c4 1B48     		ldr	r0, .L223+16
 2629              	.LVL213:
 793:Drivers/STM32G0xx_HAL_Driver/Src/stm32g0xx_hal_rcc_ex.c ****         }
 2630              		.loc 1 793 21 view .LVU783
 2631 06c6 EDE7     		b	.L65
 2632              	.L146:
 797:Drivers/STM32G0xx_HAL_Driver/Src/stm32g0xx_hal_rcc_ex.c ****         }
 2633              		.loc 1 797 21 view .LVU784
 2634 06c8 8020     		movs	r0, #128
 2635 06ca 0002     		lsls	r0, r0, #8
 2636 06cc EAE7     		b	.L65
 2637              	.LVL214:
 2638              	.L147:
 822:Drivers/STM32G0xx_HAL_Driver/Src/stm32g0xx_hal_rcc_ex.c ****         }
 2639              		.loc 1 822 21 view .LVU785
 2640 06ce 1848     		ldr	r0, .L223+12
 2641              	.LVL215:
 822:Drivers/STM32G0xx_HAL_Driver/Src/stm32g0xx_hal_rcc_ex.c ****         }
 2642              		.loc 1 822 21 view .LVU786
 2643 06d0 E8E7     		b	.L65
 2644              	.L148:
 826:Drivers/STM32G0xx_HAL_Driver/Src/stm32g0xx_hal_rcc_ex.c ****         }
 2645              		.loc 1 826 21 view .LVU787
 2646 06d2 8020     		movs	r0, #128
 2647 06d4 0002     		lsls	r0, r0, #8
 2648 06d6 E5E7     		b	.L65
 2649              	.LVL216:
 2650              	.L149:
 851:Drivers/STM32G0xx_HAL_Driver/Src/stm32g0xx_hal_rcc_ex.c ****         }
 2651              		.loc 1 851 21 view .LVU788
 2652 06d8 1548     		ldr	r0, .L223+12
 2653              	.LVL217:
 851:Drivers/STM32G0xx_HAL_Driver/Src/stm32g0xx_hal_rcc_ex.c ****         }
 2654              		.loc 1 851 21 view .LVU789
 2655 06da E3E7     		b	.L65
 2656              	.L150:
 855:Drivers/STM32G0xx_HAL_Driver/Src/stm32g0xx_hal_rcc_ex.c ****         }
 2657              		.loc 1 855 21 view .LVU790
 2658 06dc 8020     		movs	r0, #128
 2659 06de 0002     		lsls	r0, r0, #8
 2660 06e0 E0E7     		b	.L65
 2661              	.LVL218:
 2662              	.L151:
 875:Drivers/STM32G0xx_HAL_Driver/Src/stm32g0xx_hal_rcc_ex.c ****         }
 2663              		.loc 1 875 21 view .LVU791
 2664 06e2 1348     		ldr	r0, .L223+12
 2665              	.LVL219:
 875:Drivers/STM32G0xx_HAL_Driver/Src/stm32g0xx_hal_rcc_ex.c ****         }
ARM GAS  /tmp/ccVU8yv2.s 			page 77


 2666              		.loc 1 875 21 view .LVU792
 2667 06e4 DEE7     		b	.L65
 2668              	.LVL220:
 2669              	.L153:
 907:Drivers/STM32G0xx_HAL_Driver/Src/stm32g0xx_hal_rcc_ex.c ****         }
 2670              		.loc 1 907 21 view .LVU793
 2671 06e6 1248     		ldr	r0, .L223+12
 2672 06e8 DCE7     		b	.L65
 2673              	.LVL221:
 2674              	.L154:
 931:Drivers/STM32G0xx_HAL_Driver/Src/stm32g0xx_hal_rcc_ex.c ****         }
 2675              		.loc 1 931 21 view .LVU794
 2676 06ea 1148     		ldr	r0, .L223+12
 2677 06ec DAE7     		b	.L65
 2678              	.LVL222:
 2679              	.L155:
 960:Drivers/STM32G0xx_HAL_Driver/Src/stm32g0xx_hal_rcc_ex.c ****         }
 2680              		.loc 1 960 21 view .LVU795
 2681 06ee 1048     		ldr	r0, .L223+12
 2682              	.LVL223:
 960:Drivers/STM32G0xx_HAL_Driver/Src/stm32g0xx_hal_rcc_ex.c ****         }
 2683              		.loc 1 960 21 view .LVU796
 2684 06f0 D8E7     		b	.L65
 2685              	.LVL224:
 2686              	.L156:
 965:Drivers/STM32G0xx_HAL_Driver/Src/stm32g0xx_hal_rcc_ex.c ****         }
 2687              		.loc 1 965 21 view .LVU797
 2688 06f2 1148     		ldr	r0, .L223+20
 2689              	.LVL225:
 965:Drivers/STM32G0xx_HAL_Driver/Src/stm32g0xx_hal_rcc_ex.c ****         }
 2690              		.loc 1 965 21 view .LVU798
 2691 06f4 D6E7     		b	.L65
 2692              	.LVL226:
 2693              	.L157:
 994:Drivers/STM32G0xx_HAL_Driver/Src/stm32g0xx_hal_rcc_ex.c ****         }
 2694              		.loc 1 994 21 view .LVU799
 2695 06f6 0E48     		ldr	r0, .L223+12
 2696              	.LVL227:
 994:Drivers/STM32G0xx_HAL_Driver/Src/stm32g0xx_hal_rcc_ex.c ****         }
 2697              		.loc 1 994 21 view .LVU800
 2698 06f8 D4E7     		b	.L65
 2699              	.LVL228:
 2700              	.L158:
 999:Drivers/STM32G0xx_HAL_Driver/Src/stm32g0xx_hal_rcc_ex.c ****         }
 2701              		.loc 1 999 21 view .LVU801
 2702 06fa 0F48     		ldr	r0, .L223+20
 2703              	.LVL229:
 999:Drivers/STM32G0xx_HAL_Driver/Src/stm32g0xx_hal_rcc_ex.c ****         }
 2704              		.loc 1 999 21 view .LVU802
 2705 06fc D2E7     		b	.L65
 2706              	.LVL230:
 2707              	.L159:
1020:Drivers/STM32G0xx_HAL_Driver/Src/stm32g0xx_hal_rcc_ex.c ****         }
 2708              		.loc 1 1020 21 view .LVU803
 2709 06fe FA20     		movs	r0, #250
 2710              	.LVL231:
1020:Drivers/STM32G0xx_HAL_Driver/Src/stm32g0xx_hal_rcc_ex.c ****         }
ARM GAS  /tmp/ccVU8yv2.s 			page 78


 2711              		.loc 1 1020 21 view .LVU804
 2712 0700 C001     		lsls	r0, r0, #7
 2713 0702 CFE7     		b	.L65
 2714              	.LVL232:
 2715              	.L160:
1024:Drivers/STM32G0xx_HAL_Driver/Src/stm32g0xx_hal_rcc_ex.c ****         }
 2716              		.loc 1 1024 21 view .LVU805
 2717 0704 0A48     		ldr	r0, .L223+12
 2718              	.LVL233:
1024:Drivers/STM32G0xx_HAL_Driver/Src/stm32g0xx_hal_rcc_ex.c ****         }
 2719              		.loc 1 1024 21 view .LVU806
 2720 0706 CDE7     		b	.L65
 2721              	.L161:
1028:Drivers/STM32G0xx_HAL_Driver/Src/stm32g0xx_hal_rcc_ex.c ****         }
 2722              		.loc 1 1028 21 view .LVU807
 2723 0708 8020     		movs	r0, #128
 2724 070a 0002     		lsls	r0, r0, #8
 2725 070c CAE7     		b	.L65
 2726              	.LVL234:
 2727              	.L162:
1049:Drivers/STM32G0xx_HAL_Driver/Src/stm32g0xx_hal_rcc_ex.c ****         }
 2728              		.loc 1 1049 21 view .LVU808
 2729 070e FA20     		movs	r0, #250
 2730              	.LVL235:
1049:Drivers/STM32G0xx_HAL_Driver/Src/stm32g0xx_hal_rcc_ex.c ****         }
 2731              		.loc 1 1049 21 view .LVU809
 2732 0710 C001     		lsls	r0, r0, #7
 2733 0712 C7E7     		b	.L65
 2734              	.LVL236:
 2735              	.L163:
1053:Drivers/STM32G0xx_HAL_Driver/Src/stm32g0xx_hal_rcc_ex.c ****         }
 2736              		.loc 1 1053 21 view .LVU810
 2737 0714 0648     		ldr	r0, .L223+12
 2738              	.LVL237:
1053:Drivers/STM32G0xx_HAL_Driver/Src/stm32g0xx_hal_rcc_ex.c ****         }
 2739              		.loc 1 1053 21 view .LVU811
 2740 0716 C5E7     		b	.L65
 2741              	.L164:
1057:Drivers/STM32G0xx_HAL_Driver/Src/stm32g0xx_hal_rcc_ex.c ****         }
 2742              		.loc 1 1057 21 view .LVU812
 2743 0718 8020     		movs	r0, #128
 2744 071a 0002     		lsls	r0, r0, #8
 2745 071c C2E7     		b	.L65
 2746              	.LVL238:
 2747              	.L168:
1174:Drivers/STM32G0xx_HAL_Driver/Src/stm32g0xx_hal_rcc_ex.c ****         }
 2748              		.loc 1 1174 21 view .LVU813
 2749 071e 0248     		ldr	r0, .L223+4
 2750              	.LVL239:
1188:Drivers/STM32G0xx_HAL_Driver/Src/stm32g0xx_hal_rcc_ex.c **** }
 2751              		.loc 1 1188 3 is_stmt 1 view .LVU814
1188:Drivers/STM32G0xx_HAL_Driver/Src/stm32g0xx_hal_rcc_ex.c **** }
 2752              		.loc 1 1188 10 is_stmt 0 view .LVU815
 2753 0720 C0E7     		b	.L65
 2754              	.L224:
 2755 0722 C046     		.align	2
 2756              	.L223:
ARM GAS  /tmp/ccVU8yv2.s 			page 79


 2757 0724 00100240 		.word	1073876992
 2758 0728 00127A00 		.word	8000000
 2759 072c 90D00300 		.word	250000
 2760 0730 0024F400 		.word	16000000
 2761 0734 12800000 		.word	32786
 2762 0738 80BB0000 		.word	48000
 2763              		.cfi_endproc
 2764              	.LFE360:
 2766              		.section	.text.HAL_RCCEx_EnableLSCO,"ax",%progbits
 2767              		.align	1
 2768              		.global	HAL_RCCEx_EnableLSCO
 2769              		.syntax unified
 2770              		.code	16
 2771              		.thumb_func
 2772              		.fpu softvfp
 2774              	HAL_RCCEx_EnableLSCO:
 2775              	.LVL240:
 2776              	.LFB361:
1190:Drivers/STM32G0xx_HAL_Driver/Src/stm32g0xx_hal_rcc_ex.c **** 
1191:Drivers/STM32G0xx_HAL_Driver/Src/stm32g0xx_hal_rcc_ex.c **** /**
1192:Drivers/STM32G0xx_HAL_Driver/Src/stm32g0xx_hal_rcc_ex.c ****   * @}
1193:Drivers/STM32G0xx_HAL_Driver/Src/stm32g0xx_hal_rcc_ex.c ****   */
1194:Drivers/STM32G0xx_HAL_Driver/Src/stm32g0xx_hal_rcc_ex.c **** 
1195:Drivers/STM32G0xx_HAL_Driver/Src/stm32g0xx_hal_rcc_ex.c **** /** @defgroup RCCEx_Exported_Functions_Group2 Extended Clock management functions
1196:Drivers/STM32G0xx_HAL_Driver/Src/stm32g0xx_hal_rcc_ex.c ****   *  @brief  Extended Clock management functions
1197:Drivers/STM32G0xx_HAL_Driver/Src/stm32g0xx_hal_rcc_ex.c ****   *
1198:Drivers/STM32G0xx_HAL_Driver/Src/stm32g0xx_hal_rcc_ex.c **** @verbatim
1199:Drivers/STM32G0xx_HAL_Driver/Src/stm32g0xx_hal_rcc_ex.c ****  ===============================================================================
1200:Drivers/STM32G0xx_HAL_Driver/Src/stm32g0xx_hal_rcc_ex.c ****                 ##### Extended clock management functions  #####
1201:Drivers/STM32G0xx_HAL_Driver/Src/stm32g0xx_hal_rcc_ex.c ****  ===============================================================================
1202:Drivers/STM32G0xx_HAL_Driver/Src/stm32g0xx_hal_rcc_ex.c ****     [..]
1203:Drivers/STM32G0xx_HAL_Driver/Src/stm32g0xx_hal_rcc_ex.c ****     This subsection provides a set of functions allowing to control the
1204:Drivers/STM32G0xx_HAL_Driver/Src/stm32g0xx_hal_rcc_ex.c ****     activation or deactivation of LSE CSS, Low speed clock output and
1205:Drivers/STM32G0xx_HAL_Driver/Src/stm32g0xx_hal_rcc_ex.c ****     clock after wake-up from STOP mode.
1206:Drivers/STM32G0xx_HAL_Driver/Src/stm32g0xx_hal_rcc_ex.c **** @endverbatim
1207:Drivers/STM32G0xx_HAL_Driver/Src/stm32g0xx_hal_rcc_ex.c ****   * @{
1208:Drivers/STM32G0xx_HAL_Driver/Src/stm32g0xx_hal_rcc_ex.c ****   */
1209:Drivers/STM32G0xx_HAL_Driver/Src/stm32g0xx_hal_rcc_ex.c **** 
1210:Drivers/STM32G0xx_HAL_Driver/Src/stm32g0xx_hal_rcc_ex.c **** /**
1211:Drivers/STM32G0xx_HAL_Driver/Src/stm32g0xx_hal_rcc_ex.c ****   * @brief  Select the Low Speed clock source to output on LSCO pin (PA2).
1212:Drivers/STM32G0xx_HAL_Driver/Src/stm32g0xx_hal_rcc_ex.c ****   * @param  LSCOSource  specifies the Low Speed clock source to output.
1213:Drivers/STM32G0xx_HAL_Driver/Src/stm32g0xx_hal_rcc_ex.c ****   *          This parameter can be one of the following values:
1214:Drivers/STM32G0xx_HAL_Driver/Src/stm32g0xx_hal_rcc_ex.c ****   *            @arg @ref RCC_LSCOSOURCE_LSI  LSI clock selected as LSCO source
1215:Drivers/STM32G0xx_HAL_Driver/Src/stm32g0xx_hal_rcc_ex.c ****   *            @arg @ref RCC_LSCOSOURCE_LSE  LSE clock selected as LSCO source
1216:Drivers/STM32G0xx_HAL_Driver/Src/stm32g0xx_hal_rcc_ex.c ****   * @retval None
1217:Drivers/STM32G0xx_HAL_Driver/Src/stm32g0xx_hal_rcc_ex.c ****   */
1218:Drivers/STM32G0xx_HAL_Driver/Src/stm32g0xx_hal_rcc_ex.c **** void HAL_RCCEx_EnableLSCO(uint32_t LSCOSource)
1219:Drivers/STM32G0xx_HAL_Driver/Src/stm32g0xx_hal_rcc_ex.c **** {
 2777              		.loc 1 1219 1 is_stmt 1 view -0
 2778              		.cfi_startproc
 2779              		@ args = 0, pretend = 0, frame = 32
 2780              		@ frame_needed = 0, uses_anonymous_args = 0
 2781              		.loc 1 1219 1 is_stmt 0 view .LVU817
 2782 0000 30B5     		push	{r4, r5, lr}
 2783              	.LCFI4:
 2784              		.cfi_def_cfa_offset 12
 2785              		.cfi_offset 4, -12
ARM GAS  /tmp/ccVU8yv2.s 			page 80


 2786              		.cfi_offset 5, -8
 2787              		.cfi_offset 14, -4
 2788 0002 89B0     		sub	sp, sp, #36
 2789              	.LCFI5:
 2790              		.cfi_def_cfa_offset 48
 2791 0004 0500     		movs	r5, r0
1220:Drivers/STM32G0xx_HAL_Driver/Src/stm32g0xx_hal_rcc_ex.c ****   GPIO_InitTypeDef GPIO_InitStruct;
 2792              		.loc 1 1220 3 is_stmt 1 view .LVU818
1221:Drivers/STM32G0xx_HAL_Driver/Src/stm32g0xx_hal_rcc_ex.c ****   FlagStatus       pwrclkchanged = RESET;
 2793              		.loc 1 1221 3 view .LVU819
 2794              	.LVL241:
1222:Drivers/STM32G0xx_HAL_Driver/Src/stm32g0xx_hal_rcc_ex.c ****   FlagStatus       backupchanged = RESET;
 2795              		.loc 1 1222 3 view .LVU820
1223:Drivers/STM32G0xx_HAL_Driver/Src/stm32g0xx_hal_rcc_ex.c **** 
1224:Drivers/STM32G0xx_HAL_Driver/Src/stm32g0xx_hal_rcc_ex.c ****   /* Check the parameters */
1225:Drivers/STM32G0xx_HAL_Driver/Src/stm32g0xx_hal_rcc_ex.c ****   assert_param(IS_RCC_LSCOSOURCE(LSCOSource));
 2796              		.loc 1 1225 3 view .LVU821
1226:Drivers/STM32G0xx_HAL_Driver/Src/stm32g0xx_hal_rcc_ex.c **** 
1227:Drivers/STM32G0xx_HAL_Driver/Src/stm32g0xx_hal_rcc_ex.c ****   /* LSCO Pin Clock Enable */
1228:Drivers/STM32G0xx_HAL_Driver/Src/stm32g0xx_hal_rcc_ex.c ****   LSCO_CLK_ENABLE();
 2797              		.loc 1 1228 3 view .LVU822
 2798              	.LBB5:
 2799              		.loc 1 1228 3 view .LVU823
 2800              		.loc 1 1228 3 view .LVU824
 2801 0006 224C     		ldr	r4, .L235
 2802 0008 626B     		ldr	r2, [r4, #52]
 2803 000a 0123     		movs	r3, #1
 2804 000c 1A43     		orrs	r2, r3
 2805 000e 6263     		str	r2, [r4, #52]
 2806              		.loc 1 1228 3 view .LVU825
 2807 0010 626B     		ldr	r2, [r4, #52]
 2808 0012 1340     		ands	r3, r2
 2809 0014 0193     		str	r3, [sp, #4]
 2810              		.loc 1 1228 3 view .LVU826
 2811 0016 019B     		ldr	r3, [sp, #4]
 2812              	.LBE5:
 2813              		.loc 1 1228 3 view .LVU827
1229:Drivers/STM32G0xx_HAL_Driver/Src/stm32g0xx_hal_rcc_ex.c **** 
1230:Drivers/STM32G0xx_HAL_Driver/Src/stm32g0xx_hal_rcc_ex.c ****   /* Configure the LSCO pin in analog mode */
1231:Drivers/STM32G0xx_HAL_Driver/Src/stm32g0xx_hal_rcc_ex.c ****   GPIO_InitStruct.Pin = LSCO_PIN;
 2814              		.loc 1 1231 3 view .LVU828
 2815              		.loc 1 1231 23 is_stmt 0 view .LVU829
 2816 0018 0423     		movs	r3, #4
 2817 001a 0393     		str	r3, [sp, #12]
1232:Drivers/STM32G0xx_HAL_Driver/Src/stm32g0xx_hal_rcc_ex.c ****   GPIO_InitStruct.Mode = GPIO_MODE_ANALOG;
 2818              		.loc 1 1232 3 is_stmt 1 view .LVU830
 2819              		.loc 1 1232 24 is_stmt 0 view .LVU831
 2820 001c 013B     		subs	r3, r3, #1
 2821 001e 0493     		str	r3, [sp, #16]
1233:Drivers/STM32G0xx_HAL_Driver/Src/stm32g0xx_hal_rcc_ex.c ****   GPIO_InitStruct.Speed = GPIO_SPEED_FREQ_VERY_HIGH;
 2822              		.loc 1 1233 3 is_stmt 1 view .LVU832
 2823              		.loc 1 1233 25 is_stmt 0 view .LVU833
 2824 0020 0693     		str	r3, [sp, #24]
1234:Drivers/STM32G0xx_HAL_Driver/Src/stm32g0xx_hal_rcc_ex.c ****   GPIO_InitStruct.Pull = GPIO_NOPULL;
 2825              		.loc 1 1234 3 is_stmt 1 view .LVU834
 2826              		.loc 1 1234 24 is_stmt 0 view .LVU835
 2827 0022 0023     		movs	r3, #0
ARM GAS  /tmp/ccVU8yv2.s 			page 81


 2828 0024 0593     		str	r3, [sp, #20]
1235:Drivers/STM32G0xx_HAL_Driver/Src/stm32g0xx_hal_rcc_ex.c ****   HAL_GPIO_Init(LSCO_GPIO_PORT, &GPIO_InitStruct);
 2829              		.loc 1 1235 3 is_stmt 1 view .LVU836
 2830 0026 A020     		movs	r0, #160
 2831              	.LVL242:
 2832              		.loc 1 1235 3 is_stmt 0 view .LVU837
 2833 0028 03A9     		add	r1, sp, #12
 2834 002a C005     		lsls	r0, r0, #23
 2835 002c FFF7FEFF 		bl	HAL_GPIO_Init
 2836              	.LVL243:
1236:Drivers/STM32G0xx_HAL_Driver/Src/stm32g0xx_hal_rcc_ex.c **** 
1237:Drivers/STM32G0xx_HAL_Driver/Src/stm32g0xx_hal_rcc_ex.c ****   /* Update LSCOSEL clock source in Backup Domain control register */
1238:Drivers/STM32G0xx_HAL_Driver/Src/stm32g0xx_hal_rcc_ex.c ****   if (__HAL_RCC_PWR_IS_CLK_DISABLED())
 2837              		.loc 1 1238 3 is_stmt 1 view .LVU838
 2838              		.loc 1 1238 7 is_stmt 0 view .LVU839
 2839 0030 E36B     		ldr	r3, [r4, #60]
 2840              		.loc 1 1238 6 view .LVU840
 2841 0032 DB00     		lsls	r3, r3, #3
 2842 0034 1DD4     		bmi	.L230
1239:Drivers/STM32G0xx_HAL_Driver/Src/stm32g0xx_hal_rcc_ex.c ****   {
1240:Drivers/STM32G0xx_HAL_Driver/Src/stm32g0xx_hal_rcc_ex.c ****     __HAL_RCC_PWR_CLK_ENABLE();
 2843              		.loc 1 1240 5 is_stmt 1 view .LVU841
 2844              	.LBB6:
 2845              		.loc 1 1240 5 view .LVU842
 2846              		.loc 1 1240 5 view .LVU843
 2847 0036 E26B     		ldr	r2, [r4, #60]
 2848 0038 8021     		movs	r1, #128
 2849 003a 4905     		lsls	r1, r1, #21
 2850 003c 0A43     		orrs	r2, r1
 2851 003e E263     		str	r2, [r4, #60]
 2852              		.loc 1 1240 5 view .LVU844
 2853 0040 E36B     		ldr	r3, [r4, #60]
 2854 0042 0B40     		ands	r3, r1
 2855 0044 0293     		str	r3, [sp, #8]
 2856              		.loc 1 1240 5 view .LVU845
 2857 0046 029B     		ldr	r3, [sp, #8]
 2858              	.LBE6:
 2859              		.loc 1 1240 5 view .LVU846
1241:Drivers/STM32G0xx_HAL_Driver/Src/stm32g0xx_hal_rcc_ex.c ****     pwrclkchanged = SET;
 2860              		.loc 1 1241 5 view .LVU847
 2861              	.LVL244:
 2862              		.loc 1 1241 19 is_stmt 0 view .LVU848
 2863 0048 0124     		movs	r4, #1
 2864              	.LVL245:
 2865              	.L226:
1242:Drivers/STM32G0xx_HAL_Driver/Src/stm32g0xx_hal_rcc_ex.c ****   }
1243:Drivers/STM32G0xx_HAL_Driver/Src/stm32g0xx_hal_rcc_ex.c ****   if (HAL_IS_BIT_CLR(PWR->CR1, PWR_CR1_DBP))
 2866              		.loc 1 1243 3 is_stmt 1 view .LVU849
 2867              		.loc 1 1243 7 is_stmt 0 view .LVU850
 2868 004a 124B     		ldr	r3, .L235+4
 2869 004c 1B68     		ldr	r3, [r3]
 2870              		.loc 1 1243 6 view .LVU851
 2871 004e DB05     		lsls	r3, r3, #23
 2872 0050 11D5     		bpl	.L232
1222:Drivers/STM32G0xx_HAL_Driver/Src/stm32g0xx_hal_rcc_ex.c **** 
 2873              		.loc 1 1222 20 view .LVU852
 2874 0052 0021     		movs	r1, #0
ARM GAS  /tmp/ccVU8yv2.s 			page 82


 2875              	.LVL246:
 2876              	.L227:
1244:Drivers/STM32G0xx_HAL_Driver/Src/stm32g0xx_hal_rcc_ex.c ****   {
1245:Drivers/STM32G0xx_HAL_Driver/Src/stm32g0xx_hal_rcc_ex.c ****     HAL_PWR_EnableBkUpAccess();
1246:Drivers/STM32G0xx_HAL_Driver/Src/stm32g0xx_hal_rcc_ex.c ****     backupchanged = SET;
1247:Drivers/STM32G0xx_HAL_Driver/Src/stm32g0xx_hal_rcc_ex.c ****   }
1248:Drivers/STM32G0xx_HAL_Driver/Src/stm32g0xx_hal_rcc_ex.c **** 
1249:Drivers/STM32G0xx_HAL_Driver/Src/stm32g0xx_hal_rcc_ex.c ****   MODIFY_REG(RCC->BDCR, RCC_BDCR_LSCOSEL | RCC_BDCR_LSCOEN, LSCOSource | RCC_BDCR_LSCOEN);
 2877              		.loc 1 1249 3 is_stmt 1 view .LVU853
 2878 0054 0E4A     		ldr	r2, .L235
 2879 0056 D06D     		ldr	r0, [r2, #92]
 2880 0058 0F4B     		ldr	r3, .L235+8
 2881 005a 1840     		ands	r0, r3
 2882 005c 2843     		orrs	r0, r5
 2883 005e 8023     		movs	r3, #128
 2884 0060 5B04     		lsls	r3, r3, #17
 2885 0062 0343     		orrs	r3, r0
 2886 0064 D365     		str	r3, [r2, #92]
1250:Drivers/STM32G0xx_HAL_Driver/Src/stm32g0xx_hal_rcc_ex.c **** 
1251:Drivers/STM32G0xx_HAL_Driver/Src/stm32g0xx_hal_rcc_ex.c ****   if (backupchanged == SET)
 2887              		.loc 1 1251 3 view .LVU854
 2888              		.loc 1 1251 6 is_stmt 0 view .LVU855
 2889 0066 0129     		cmp	r1, #1
 2890 0068 09D0     		beq	.L233
 2891              	.LVL247:
 2892              	.L228:
1252:Drivers/STM32G0xx_HAL_Driver/Src/stm32g0xx_hal_rcc_ex.c ****   {
1253:Drivers/STM32G0xx_HAL_Driver/Src/stm32g0xx_hal_rcc_ex.c ****     HAL_PWR_DisableBkUpAccess();
1254:Drivers/STM32G0xx_HAL_Driver/Src/stm32g0xx_hal_rcc_ex.c ****   }
1255:Drivers/STM32G0xx_HAL_Driver/Src/stm32g0xx_hal_rcc_ex.c ****   if (pwrclkchanged == SET)
 2893              		.loc 1 1255 3 is_stmt 1 view .LVU856
 2894              		.loc 1 1255 6 is_stmt 0 view .LVU857
 2895 006a 012C     		cmp	r4, #1
 2896 006c 0AD0     		beq	.L234
 2897              	.L225:
1256:Drivers/STM32G0xx_HAL_Driver/Src/stm32g0xx_hal_rcc_ex.c ****   {
1257:Drivers/STM32G0xx_HAL_Driver/Src/stm32g0xx_hal_rcc_ex.c ****     __HAL_RCC_PWR_CLK_DISABLE();
1258:Drivers/STM32G0xx_HAL_Driver/Src/stm32g0xx_hal_rcc_ex.c ****   }
1259:Drivers/STM32G0xx_HAL_Driver/Src/stm32g0xx_hal_rcc_ex.c **** }
 2898              		.loc 1 1259 1 view .LVU858
 2899 006e 09B0     		add	sp, sp, #36
 2900              		@ sp needed
 2901              	.LVL248:
 2902              	.LVL249:
 2903              		.loc 1 1259 1 view .LVU859
 2904 0070 30BD     		pop	{r4, r5, pc}
 2905              	.LVL250:
 2906              	.L230:
1221:Drivers/STM32G0xx_HAL_Driver/Src/stm32g0xx_hal_rcc_ex.c ****   FlagStatus       backupchanged = RESET;
 2907              		.loc 1 1221 20 view .LVU860
 2908 0072 0024     		movs	r4, #0
 2909 0074 E9E7     		b	.L226
 2910              	.LVL251:
 2911              	.L232:
1245:Drivers/STM32G0xx_HAL_Driver/Src/stm32g0xx_hal_rcc_ex.c ****     backupchanged = SET;
 2912              		.loc 1 1245 5 is_stmt 1 view .LVU861
 2913 0076 FFF7FEFF 		bl	HAL_PWR_EnableBkUpAccess
ARM GAS  /tmp/ccVU8yv2.s 			page 83


 2914              	.LVL252:
1246:Drivers/STM32G0xx_HAL_Driver/Src/stm32g0xx_hal_rcc_ex.c ****   }
 2915              		.loc 1 1246 5 view .LVU862
1246:Drivers/STM32G0xx_HAL_Driver/Src/stm32g0xx_hal_rcc_ex.c ****   }
 2916              		.loc 1 1246 19 is_stmt 0 view .LVU863
 2917 007a 0121     		movs	r1, #1
 2918 007c EAE7     		b	.L227
 2919              	.LVL253:
 2920              	.L233:
1253:Drivers/STM32G0xx_HAL_Driver/Src/stm32g0xx_hal_rcc_ex.c ****   }
 2921              		.loc 1 1253 5 is_stmt 1 view .LVU864
 2922 007e FFF7FEFF 		bl	HAL_PWR_DisableBkUpAccess
 2923              	.LVL254:
1253:Drivers/STM32G0xx_HAL_Driver/Src/stm32g0xx_hal_rcc_ex.c ****   }
 2924              		.loc 1 1253 5 is_stmt 0 view .LVU865
 2925 0082 F2E7     		b	.L228
 2926              	.L234:
1257:Drivers/STM32G0xx_HAL_Driver/Src/stm32g0xx_hal_rcc_ex.c ****   }
 2927              		.loc 1 1257 5 is_stmt 1 view .LVU866
 2928 0084 024A     		ldr	r2, .L235
 2929 0086 D36B     		ldr	r3, [r2, #60]
 2930 0088 0449     		ldr	r1, .L235+12
 2931 008a 0B40     		ands	r3, r1
 2932 008c D363     		str	r3, [r2, #60]
 2933              		.loc 1 1259 1 is_stmt 0 view .LVU867
 2934 008e EEE7     		b	.L225
 2935              	.L236:
 2936              		.align	2
 2937              	.L235:
 2938 0090 00100240 		.word	1073876992
 2939 0094 00700040 		.word	1073770496
 2940 0098 FFFFFFFC 		.word	-50331649
 2941 009c FFFFFFEF 		.word	-268435457
 2942              		.cfi_endproc
 2943              	.LFE361:
 2945              		.section	.text.HAL_RCCEx_DisableLSCO,"ax",%progbits
 2946              		.align	1
 2947              		.global	HAL_RCCEx_DisableLSCO
 2948              		.syntax unified
 2949              		.code	16
 2950              		.thumb_func
 2951              		.fpu softvfp
 2953              	HAL_RCCEx_DisableLSCO:
 2954              	.LFB362:
1260:Drivers/STM32G0xx_HAL_Driver/Src/stm32g0xx_hal_rcc_ex.c **** 
1261:Drivers/STM32G0xx_HAL_Driver/Src/stm32g0xx_hal_rcc_ex.c **** /**
1262:Drivers/STM32G0xx_HAL_Driver/Src/stm32g0xx_hal_rcc_ex.c ****   * @brief  Disable the Low Speed clock output.
1263:Drivers/STM32G0xx_HAL_Driver/Src/stm32g0xx_hal_rcc_ex.c ****   * @retval None
1264:Drivers/STM32G0xx_HAL_Driver/Src/stm32g0xx_hal_rcc_ex.c ****   */
1265:Drivers/STM32G0xx_HAL_Driver/Src/stm32g0xx_hal_rcc_ex.c **** void HAL_RCCEx_DisableLSCO(void)
1266:Drivers/STM32G0xx_HAL_Driver/Src/stm32g0xx_hal_rcc_ex.c **** {
 2955              		.loc 1 1266 1 is_stmt 1 view -0
 2956              		.cfi_startproc
 2957              		@ args = 0, pretend = 0, frame = 8
 2958              		@ frame_needed = 0, uses_anonymous_args = 0
 2959 0000 10B5     		push	{r4, lr}
 2960              	.LCFI6:
ARM GAS  /tmp/ccVU8yv2.s 			page 84


 2961              		.cfi_def_cfa_offset 8
 2962              		.cfi_offset 4, -8
 2963              		.cfi_offset 14, -4
 2964 0002 82B0     		sub	sp, sp, #8
 2965              	.LCFI7:
 2966              		.cfi_def_cfa_offset 16
1267:Drivers/STM32G0xx_HAL_Driver/Src/stm32g0xx_hal_rcc_ex.c ****   FlagStatus       pwrclkchanged = RESET;
 2967              		.loc 1 1267 3 view .LVU869
 2968              	.LVL255:
1268:Drivers/STM32G0xx_HAL_Driver/Src/stm32g0xx_hal_rcc_ex.c ****   FlagStatus       backupchanged = RESET;
 2969              		.loc 1 1268 3 view .LVU870
1269:Drivers/STM32G0xx_HAL_Driver/Src/stm32g0xx_hal_rcc_ex.c **** 
1270:Drivers/STM32G0xx_HAL_Driver/Src/stm32g0xx_hal_rcc_ex.c ****   /* Update LSCOEN bit in Backup Domain control register */
1271:Drivers/STM32G0xx_HAL_Driver/Src/stm32g0xx_hal_rcc_ex.c ****   if (__HAL_RCC_PWR_IS_CLK_DISABLED())
 2970              		.loc 1 1271 3 view .LVU871
 2971              		.loc 1 1271 7 is_stmt 0 view .LVU872
 2972 0004 164B     		ldr	r3, .L247
 2973 0006 DB6B     		ldr	r3, [r3, #60]
 2974              		.loc 1 1271 6 view .LVU873
 2975 0008 DB00     		lsls	r3, r3, #3
 2976 000a 1AD4     		bmi	.L242
1272:Drivers/STM32G0xx_HAL_Driver/Src/stm32g0xx_hal_rcc_ex.c ****   {
1273:Drivers/STM32G0xx_HAL_Driver/Src/stm32g0xx_hal_rcc_ex.c ****     __HAL_RCC_PWR_CLK_ENABLE();
 2977              		.loc 1 1273 5 is_stmt 1 view .LVU874
 2978              	.LBB7:
 2979              		.loc 1 1273 5 view .LVU875
 2980              		.loc 1 1273 5 view .LVU876
 2981 000c 144B     		ldr	r3, .L247
 2982 000e DA6B     		ldr	r2, [r3, #60]
 2983 0010 8021     		movs	r1, #128
 2984 0012 4905     		lsls	r1, r1, #21
 2985 0014 0A43     		orrs	r2, r1
 2986 0016 DA63     		str	r2, [r3, #60]
 2987              		.loc 1 1273 5 view .LVU877
 2988 0018 DB6B     		ldr	r3, [r3, #60]
 2989 001a 0B40     		ands	r3, r1
 2990 001c 0193     		str	r3, [sp, #4]
 2991              		.loc 1 1273 5 view .LVU878
 2992 001e 019B     		ldr	r3, [sp, #4]
 2993              	.LBE7:
 2994              		.loc 1 1273 5 view .LVU879
1274:Drivers/STM32G0xx_HAL_Driver/Src/stm32g0xx_hal_rcc_ex.c ****     pwrclkchanged = SET;
 2995              		.loc 1 1274 5 view .LVU880
 2996              	.LVL256:
 2997              		.loc 1 1274 19 is_stmt 0 view .LVU881
 2998 0020 0124     		movs	r4, #1
 2999              	.LVL257:
 3000              	.L238:
1275:Drivers/STM32G0xx_HAL_Driver/Src/stm32g0xx_hal_rcc_ex.c ****   }
1276:Drivers/STM32G0xx_HAL_Driver/Src/stm32g0xx_hal_rcc_ex.c ****   if (HAL_IS_BIT_CLR(PWR->CR1, PWR_CR1_DBP))
 3001              		.loc 1 1276 3 is_stmt 1 view .LVU882
 3002              		.loc 1 1276 7 is_stmt 0 view .LVU883
 3003 0022 104B     		ldr	r3, .L247+4
 3004 0024 1B68     		ldr	r3, [r3]
 3005              		.loc 1 1276 6 view .LVU884
 3006 0026 DB05     		lsls	r3, r3, #23
 3007 0028 0DD5     		bpl	.L244
ARM GAS  /tmp/ccVU8yv2.s 			page 85


1268:Drivers/STM32G0xx_HAL_Driver/Src/stm32g0xx_hal_rcc_ex.c **** 
 3008              		.loc 1 1268 20 view .LVU885
 3009 002a 0021     		movs	r1, #0
 3010              	.LVL258:
 3011              	.L239:
1277:Drivers/STM32G0xx_HAL_Driver/Src/stm32g0xx_hal_rcc_ex.c ****   {
1278:Drivers/STM32G0xx_HAL_Driver/Src/stm32g0xx_hal_rcc_ex.c ****     /* Enable access to the backup domain */
1279:Drivers/STM32G0xx_HAL_Driver/Src/stm32g0xx_hal_rcc_ex.c ****     HAL_PWR_EnableBkUpAccess();
1280:Drivers/STM32G0xx_HAL_Driver/Src/stm32g0xx_hal_rcc_ex.c ****     backupchanged = SET;
1281:Drivers/STM32G0xx_HAL_Driver/Src/stm32g0xx_hal_rcc_ex.c ****   }
1282:Drivers/STM32G0xx_HAL_Driver/Src/stm32g0xx_hal_rcc_ex.c **** 
1283:Drivers/STM32G0xx_HAL_Driver/Src/stm32g0xx_hal_rcc_ex.c ****   CLEAR_BIT(RCC->BDCR, RCC_BDCR_LSCOEN);
 3012              		.loc 1 1283 3 is_stmt 1 view .LVU886
 3013 002c 0C4A     		ldr	r2, .L247
 3014 002e D36D     		ldr	r3, [r2, #92]
 3015 0030 0D48     		ldr	r0, .L247+8
 3016 0032 0340     		ands	r3, r0
 3017 0034 D365     		str	r3, [r2, #92]
1284:Drivers/STM32G0xx_HAL_Driver/Src/stm32g0xx_hal_rcc_ex.c **** 
1285:Drivers/STM32G0xx_HAL_Driver/Src/stm32g0xx_hal_rcc_ex.c ****   /* Restore previous configuration */
1286:Drivers/STM32G0xx_HAL_Driver/Src/stm32g0xx_hal_rcc_ex.c ****   if (backupchanged == SET)
 3018              		.loc 1 1286 3 view .LVU887
 3019              		.loc 1 1286 6 is_stmt 0 view .LVU888
 3020 0036 0129     		cmp	r1, #1
 3021 0038 09D0     		beq	.L245
 3022              	.LVL259:
 3023              	.L240:
1287:Drivers/STM32G0xx_HAL_Driver/Src/stm32g0xx_hal_rcc_ex.c ****   {
1288:Drivers/STM32G0xx_HAL_Driver/Src/stm32g0xx_hal_rcc_ex.c ****     /* Disable access to the backup domain */
1289:Drivers/STM32G0xx_HAL_Driver/Src/stm32g0xx_hal_rcc_ex.c ****     HAL_PWR_DisableBkUpAccess();
1290:Drivers/STM32G0xx_HAL_Driver/Src/stm32g0xx_hal_rcc_ex.c ****   }
1291:Drivers/STM32G0xx_HAL_Driver/Src/stm32g0xx_hal_rcc_ex.c ****   if (pwrclkchanged == SET)
 3024              		.loc 1 1291 3 is_stmt 1 view .LVU889
 3025              		.loc 1 1291 6 is_stmt 0 view .LVU890
 3026 003a 012C     		cmp	r4, #1
 3027 003c 0AD0     		beq	.L246
 3028              	.L237:
1292:Drivers/STM32G0xx_HAL_Driver/Src/stm32g0xx_hal_rcc_ex.c ****   {
1293:Drivers/STM32G0xx_HAL_Driver/Src/stm32g0xx_hal_rcc_ex.c ****     __HAL_RCC_PWR_CLK_DISABLE();
1294:Drivers/STM32G0xx_HAL_Driver/Src/stm32g0xx_hal_rcc_ex.c ****   }
1295:Drivers/STM32G0xx_HAL_Driver/Src/stm32g0xx_hal_rcc_ex.c **** }
 3029              		.loc 1 1295 1 view .LVU891
 3030 003e 02B0     		add	sp, sp, #8
 3031              		@ sp needed
 3032              	.LVL260:
 3033              		.loc 1 1295 1 view .LVU892
 3034 0040 10BD     		pop	{r4, pc}
 3035              	.LVL261:
 3036              	.L242:
1267:Drivers/STM32G0xx_HAL_Driver/Src/stm32g0xx_hal_rcc_ex.c ****   FlagStatus       backupchanged = RESET;
 3037              		.loc 1 1267 20 view .LVU893
 3038 0042 0024     		movs	r4, #0
 3039 0044 EDE7     		b	.L238
 3040              	.LVL262:
 3041              	.L244:
1279:Drivers/STM32G0xx_HAL_Driver/Src/stm32g0xx_hal_rcc_ex.c ****     backupchanged = SET;
 3042              		.loc 1 1279 5 is_stmt 1 view .LVU894
ARM GAS  /tmp/ccVU8yv2.s 			page 86


 3043 0046 FFF7FEFF 		bl	HAL_PWR_EnableBkUpAccess
 3044              	.LVL263:
1280:Drivers/STM32G0xx_HAL_Driver/Src/stm32g0xx_hal_rcc_ex.c ****   }
 3045              		.loc 1 1280 5 view .LVU895
1280:Drivers/STM32G0xx_HAL_Driver/Src/stm32g0xx_hal_rcc_ex.c ****   }
 3046              		.loc 1 1280 19 is_stmt 0 view .LVU896
 3047 004a 0121     		movs	r1, #1
 3048 004c EEE7     		b	.L239
 3049              	.LVL264:
 3050              	.L245:
1289:Drivers/STM32G0xx_HAL_Driver/Src/stm32g0xx_hal_rcc_ex.c ****   }
 3051              		.loc 1 1289 5 is_stmt 1 view .LVU897
 3052 004e FFF7FEFF 		bl	HAL_PWR_DisableBkUpAccess
 3053              	.LVL265:
1289:Drivers/STM32G0xx_HAL_Driver/Src/stm32g0xx_hal_rcc_ex.c ****   }
 3054              		.loc 1 1289 5 is_stmt 0 view .LVU898
 3055 0052 F2E7     		b	.L240
 3056              	.L246:
1293:Drivers/STM32G0xx_HAL_Driver/Src/stm32g0xx_hal_rcc_ex.c ****   }
 3057              		.loc 1 1293 5 is_stmt 1 view .LVU899
 3058 0054 024A     		ldr	r2, .L247
 3059 0056 D36B     		ldr	r3, [r2, #60]
 3060 0058 0449     		ldr	r1, .L247+12
 3061 005a 0B40     		ands	r3, r1
 3062 005c D363     		str	r3, [r2, #60]
 3063              		.loc 1 1295 1 is_stmt 0 view .LVU900
 3064 005e EEE7     		b	.L237
 3065              	.L248:
 3066              		.align	2
 3067              	.L247:
 3068 0060 00100240 		.word	1073876992
 3069 0064 00700040 		.word	1073770496
 3070 0068 FFFFFFFE 		.word	-16777217
 3071 006c FFFFFFEF 		.word	-268435457
 3072              		.cfi_endproc
 3073              	.LFE362:
 3075              		.section	.text.HAL_RCCEx_CRSConfig,"ax",%progbits
 3076              		.align	1
 3077              		.global	HAL_RCCEx_CRSConfig
 3078              		.syntax unified
 3079              		.code	16
 3080              		.thumb_func
 3081              		.fpu softvfp
 3083              	HAL_RCCEx_CRSConfig:
 3084              	.LVL266:
 3085              	.LFB363:
1296:Drivers/STM32G0xx_HAL_Driver/Src/stm32g0xx_hal_rcc_ex.c **** 
1297:Drivers/STM32G0xx_HAL_Driver/Src/stm32g0xx_hal_rcc_ex.c **** /**
1298:Drivers/STM32G0xx_HAL_Driver/Src/stm32g0xx_hal_rcc_ex.c ****   * @}
1299:Drivers/STM32G0xx_HAL_Driver/Src/stm32g0xx_hal_rcc_ex.c ****   */
1300:Drivers/STM32G0xx_HAL_Driver/Src/stm32g0xx_hal_rcc_ex.c **** 
1301:Drivers/STM32G0xx_HAL_Driver/Src/stm32g0xx_hal_rcc_ex.c **** #if defined(CRS)
1302:Drivers/STM32G0xx_HAL_Driver/Src/stm32g0xx_hal_rcc_ex.c **** 
1303:Drivers/STM32G0xx_HAL_Driver/Src/stm32g0xx_hal_rcc_ex.c **** /** @defgroup RCCEx_Exported_Functions_Group3 Extended Clock Recovery System Control functions
1304:Drivers/STM32G0xx_HAL_Driver/Src/stm32g0xx_hal_rcc_ex.c ****   * @brief  Extended Clock Recovery System Control functions
1305:Drivers/STM32G0xx_HAL_Driver/Src/stm32g0xx_hal_rcc_ex.c ****   *
1306:Drivers/STM32G0xx_HAL_Driver/Src/stm32g0xx_hal_rcc_ex.c **** @verbatim
ARM GAS  /tmp/ccVU8yv2.s 			page 87


1307:Drivers/STM32G0xx_HAL_Driver/Src/stm32g0xx_hal_rcc_ex.c ****  ===============================================================================
1308:Drivers/STM32G0xx_HAL_Driver/Src/stm32g0xx_hal_rcc_ex.c ****                 ##### Extended Clock Recovery System Control functions  #####
1309:Drivers/STM32G0xx_HAL_Driver/Src/stm32g0xx_hal_rcc_ex.c ****  ===============================================================================
1310:Drivers/STM32G0xx_HAL_Driver/Src/stm32g0xx_hal_rcc_ex.c ****     [..]
1311:Drivers/STM32G0xx_HAL_Driver/Src/stm32g0xx_hal_rcc_ex.c ****       For devices with Clock Recovery System feature (CRS), RCC Extension HAL driver can be used as
1312:Drivers/STM32G0xx_HAL_Driver/Src/stm32g0xx_hal_rcc_ex.c **** 
1313:Drivers/STM32G0xx_HAL_Driver/Src/stm32g0xx_hal_rcc_ex.c ****       (#) In System clock config, HSI48 needs to be enabled
1314:Drivers/STM32G0xx_HAL_Driver/Src/stm32g0xx_hal_rcc_ex.c **** 
1315:Drivers/STM32G0xx_HAL_Driver/Src/stm32g0xx_hal_rcc_ex.c ****       (#) Enable CRS clock in IP MSP init which will use CRS functions
1316:Drivers/STM32G0xx_HAL_Driver/Src/stm32g0xx_hal_rcc_ex.c **** 
1317:Drivers/STM32G0xx_HAL_Driver/Src/stm32g0xx_hal_rcc_ex.c ****       (#) Call CRS functions as follows:
1318:Drivers/STM32G0xx_HAL_Driver/Src/stm32g0xx_hal_rcc_ex.c ****           (##) Prepare synchronization configuration necessary for HSI48 calibration
1319:Drivers/STM32G0xx_HAL_Driver/Src/stm32g0xx_hal_rcc_ex.c ****               (+++) Default values can be set for frequency Error Measurement (reload and error lim
1320:Drivers/STM32G0xx_HAL_Driver/Src/stm32g0xx_hal_rcc_ex.c ****                         and also HSI48 oscillator smooth trimming.
1321:Drivers/STM32G0xx_HAL_Driver/Src/stm32g0xx_hal_rcc_ex.c ****               (+++) Macro __HAL_RCC_CRS_RELOADVALUE_CALCULATE can be also used to calculate
1322:Drivers/STM32G0xx_HAL_Driver/Src/stm32g0xx_hal_rcc_ex.c ****                         directly reload value with target and sychronization frequencies values
1323:Drivers/STM32G0xx_HAL_Driver/Src/stm32g0xx_hal_rcc_ex.c ****           (##) Call function HAL_RCCEx_CRSConfig which
1324:Drivers/STM32G0xx_HAL_Driver/Src/stm32g0xx_hal_rcc_ex.c ****               (+++) Resets CRS registers to their default values.
1325:Drivers/STM32G0xx_HAL_Driver/Src/stm32g0xx_hal_rcc_ex.c ****               (+++) Configures CRS registers with synchronization configuration
1326:Drivers/STM32G0xx_HAL_Driver/Src/stm32g0xx_hal_rcc_ex.c ****               (+++) Enables automatic calibration and frequency error counter feature
1327:Drivers/STM32G0xx_HAL_Driver/Src/stm32g0xx_hal_rcc_ex.c ****            Note: When using USB LPM (Link Power Management) and the device is in Sleep mode, the
1328:Drivers/STM32G0xx_HAL_Driver/Src/stm32g0xx_hal_rcc_ex.c ****            periodic USB SOF will not be generated by the host. No SYNC signal will therefore be
1329:Drivers/STM32G0xx_HAL_Driver/Src/stm32g0xx_hal_rcc_ex.c ****            provided to the CRS to calibrate the HSI48 on the run. To guarantee the required clock
1330:Drivers/STM32G0xx_HAL_Driver/Src/stm32g0xx_hal_rcc_ex.c ****            precision after waking up from Sleep mode, the LSE or reference clock on the GPIOs
1331:Drivers/STM32G0xx_HAL_Driver/Src/stm32g0xx_hal_rcc_ex.c ****            should be used as SYNC signal.
1332:Drivers/STM32G0xx_HAL_Driver/Src/stm32g0xx_hal_rcc_ex.c **** 
1333:Drivers/STM32G0xx_HAL_Driver/Src/stm32g0xx_hal_rcc_ex.c ****           (##) A polling function is provided to wait for complete synchronization
1334:Drivers/STM32G0xx_HAL_Driver/Src/stm32g0xx_hal_rcc_ex.c ****               (+++) Call function HAL_RCCEx_CRSWaitSynchronization()
1335:Drivers/STM32G0xx_HAL_Driver/Src/stm32g0xx_hal_rcc_ex.c ****               (+++) According to CRS status, user can decide to adjust again the calibration or con
1336:Drivers/STM32G0xx_HAL_Driver/Src/stm32g0xx_hal_rcc_ex.c ****                         application if synchronization is OK
1337:Drivers/STM32G0xx_HAL_Driver/Src/stm32g0xx_hal_rcc_ex.c **** 
1338:Drivers/STM32G0xx_HAL_Driver/Src/stm32g0xx_hal_rcc_ex.c ****       (#) User can retrieve information related to synchronization in calling function
1339:Drivers/STM32G0xx_HAL_Driver/Src/stm32g0xx_hal_rcc_ex.c ****             HAL_RCCEx_CRSGetSynchronizationInfo()
1340:Drivers/STM32G0xx_HAL_Driver/Src/stm32g0xx_hal_rcc_ex.c **** 
1341:Drivers/STM32G0xx_HAL_Driver/Src/stm32g0xx_hal_rcc_ex.c ****       (#) Regarding synchronization status and synchronization information, user can try a new cali
1342:Drivers/STM32G0xx_HAL_Driver/Src/stm32g0xx_hal_rcc_ex.c ****            in changing synchronization configuration and call again HAL_RCCEx_CRSConfig.
1343:Drivers/STM32G0xx_HAL_Driver/Src/stm32g0xx_hal_rcc_ex.c ****            Note: When the SYNC event is detected during the downcounting phase (before reaching the
1344:Drivers/STM32G0xx_HAL_Driver/Src/stm32g0xx_hal_rcc_ex.c ****            it means that the actual frequency is lower than the target (and so, that the TRIM value
1345:Drivers/STM32G0xx_HAL_Driver/Src/stm32g0xx_hal_rcc_ex.c ****            incremented), while when it is detected during the upcounting phase it means that the ac
1346:Drivers/STM32G0xx_HAL_Driver/Src/stm32g0xx_hal_rcc_ex.c ****            is higher (and that the TRIM value should be decremented).
1347:Drivers/STM32G0xx_HAL_Driver/Src/stm32g0xx_hal_rcc_ex.c **** 
1348:Drivers/STM32G0xx_HAL_Driver/Src/stm32g0xx_hal_rcc_ex.c ****       (#) In interrupt mode, user can resort to the available macros (__HAL_RCC_CRS_XXX_IT). Interr
1349:Drivers/STM32G0xx_HAL_Driver/Src/stm32g0xx_hal_rcc_ex.c ****           through CRS Handler (CRS_IRQn/CRS_IRQHandler)
1350:Drivers/STM32G0xx_HAL_Driver/Src/stm32g0xx_hal_rcc_ex.c ****               (++) Call function HAL_RCCEx_CRSConfig()
1351:Drivers/STM32G0xx_HAL_Driver/Src/stm32g0xx_hal_rcc_ex.c ****               (++) Enable CRS_IRQn (thanks to NVIC functions)
1352:Drivers/STM32G0xx_HAL_Driver/Src/stm32g0xx_hal_rcc_ex.c ****               (++) Enable CRS interrupt (__HAL_RCC_CRS_ENABLE_IT)
1353:Drivers/STM32G0xx_HAL_Driver/Src/stm32g0xx_hal_rcc_ex.c ****               (++) Implement CRS status management in the following user callbacks called from
1354:Drivers/STM32G0xx_HAL_Driver/Src/stm32g0xx_hal_rcc_ex.c ****                    HAL_RCCEx_CRS_IRQHandler():
1355:Drivers/STM32G0xx_HAL_Driver/Src/stm32g0xx_hal_rcc_ex.c ****                    (+++) HAL_RCCEx_CRS_SyncOkCallback()
1356:Drivers/STM32G0xx_HAL_Driver/Src/stm32g0xx_hal_rcc_ex.c ****                    (+++) HAL_RCCEx_CRS_SyncWarnCallback()
1357:Drivers/STM32G0xx_HAL_Driver/Src/stm32g0xx_hal_rcc_ex.c ****                    (+++) HAL_RCCEx_CRS_ExpectedSyncCallback()
1358:Drivers/STM32G0xx_HAL_Driver/Src/stm32g0xx_hal_rcc_ex.c ****                    (+++) HAL_RCCEx_CRS_ErrorCallback()
1359:Drivers/STM32G0xx_HAL_Driver/Src/stm32g0xx_hal_rcc_ex.c **** 
1360:Drivers/STM32G0xx_HAL_Driver/Src/stm32g0xx_hal_rcc_ex.c ****       (#) To force a SYNC EVENT, user can use the function HAL_RCCEx_CRSSoftwareSynchronizationGene
1361:Drivers/STM32G0xx_HAL_Driver/Src/stm32g0xx_hal_rcc_ex.c ****           This function can be called before calling HAL_RCCEx_CRSConfig (for instance in Systick h
1362:Drivers/STM32G0xx_HAL_Driver/Src/stm32g0xx_hal_rcc_ex.c **** 
1363:Drivers/STM32G0xx_HAL_Driver/Src/stm32g0xx_hal_rcc_ex.c **** @endverbatim
ARM GAS  /tmp/ccVU8yv2.s 			page 88


1364:Drivers/STM32G0xx_HAL_Driver/Src/stm32g0xx_hal_rcc_ex.c ****   * @{
1365:Drivers/STM32G0xx_HAL_Driver/Src/stm32g0xx_hal_rcc_ex.c ****   */
1366:Drivers/STM32G0xx_HAL_Driver/Src/stm32g0xx_hal_rcc_ex.c **** 
1367:Drivers/STM32G0xx_HAL_Driver/Src/stm32g0xx_hal_rcc_ex.c **** /**
1368:Drivers/STM32G0xx_HAL_Driver/Src/stm32g0xx_hal_rcc_ex.c ****   * @brief  Start automatic synchronization for polling mode
1369:Drivers/STM32G0xx_HAL_Driver/Src/stm32g0xx_hal_rcc_ex.c ****   * @param  pInit Pointer on RCC_CRSInitTypeDef structure
1370:Drivers/STM32G0xx_HAL_Driver/Src/stm32g0xx_hal_rcc_ex.c ****   * @retval None
1371:Drivers/STM32G0xx_HAL_Driver/Src/stm32g0xx_hal_rcc_ex.c ****   */
1372:Drivers/STM32G0xx_HAL_Driver/Src/stm32g0xx_hal_rcc_ex.c **** void HAL_RCCEx_CRSConfig(RCC_CRSInitTypeDef *pInit)
1373:Drivers/STM32G0xx_HAL_Driver/Src/stm32g0xx_hal_rcc_ex.c **** {
 3086              		.loc 1 1373 1 is_stmt 1 view -0
 3087              		.cfi_startproc
 3088              		@ args = 0, pretend = 0, frame = 0
 3089              		@ frame_needed = 0, uses_anonymous_args = 0
 3090              		@ link register save eliminated.
1374:Drivers/STM32G0xx_HAL_Driver/Src/stm32g0xx_hal_rcc_ex.c ****   uint32_t value;  /* no init needed */
 3091              		.loc 1 1374 3 view .LVU902
1375:Drivers/STM32G0xx_HAL_Driver/Src/stm32g0xx_hal_rcc_ex.c **** 
1376:Drivers/STM32G0xx_HAL_Driver/Src/stm32g0xx_hal_rcc_ex.c ****   /* Check the parameters */
1377:Drivers/STM32G0xx_HAL_Driver/Src/stm32g0xx_hal_rcc_ex.c ****   assert_param(IS_RCC_CRS_SYNC_DIV(pInit->Prescaler));
 3092              		.loc 1 1377 3 view .LVU903
1378:Drivers/STM32G0xx_HAL_Driver/Src/stm32g0xx_hal_rcc_ex.c ****   assert_param(IS_RCC_CRS_SYNC_SOURCE(pInit->Source));
 3093              		.loc 1 1378 3 view .LVU904
1379:Drivers/STM32G0xx_HAL_Driver/Src/stm32g0xx_hal_rcc_ex.c ****   assert_param(IS_RCC_CRS_SYNC_POLARITY(pInit->Polarity));
 3094              		.loc 1 1379 3 view .LVU905
1380:Drivers/STM32G0xx_HAL_Driver/Src/stm32g0xx_hal_rcc_ex.c ****   assert_param(IS_RCC_CRS_RELOADVALUE(pInit->ReloadValue));
 3095              		.loc 1 1380 3 view .LVU906
1381:Drivers/STM32G0xx_HAL_Driver/Src/stm32g0xx_hal_rcc_ex.c ****   assert_param(IS_RCC_CRS_ERRORLIMIT(pInit->ErrorLimitValue));
 3096              		.loc 1 1381 3 view .LVU907
1382:Drivers/STM32G0xx_HAL_Driver/Src/stm32g0xx_hal_rcc_ex.c ****   assert_param(IS_RCC_CRS_HSI48CALIBRATION(pInit->HSI48CalibrationValue));
 3097              		.loc 1 1382 3 view .LVU908
1383:Drivers/STM32G0xx_HAL_Driver/Src/stm32g0xx_hal_rcc_ex.c **** 
1384:Drivers/STM32G0xx_HAL_Driver/Src/stm32g0xx_hal_rcc_ex.c ****   /* CONFIGURATION */
1385:Drivers/STM32G0xx_HAL_Driver/Src/stm32g0xx_hal_rcc_ex.c **** 
1386:Drivers/STM32G0xx_HAL_Driver/Src/stm32g0xx_hal_rcc_ex.c ****   /* Before configuration, reset CRS registers to their default values*/
1387:Drivers/STM32G0xx_HAL_Driver/Src/stm32g0xx_hal_rcc_ex.c ****   __HAL_RCC_CRS_FORCE_RESET();
 3098              		.loc 1 1387 3 view .LVU909
 3099 0000 104B     		ldr	r3, .L250
 3100 0002 D96A     		ldr	r1, [r3, #44]
 3101 0004 8022     		movs	r2, #128
 3102 0006 5202     		lsls	r2, r2, #9
 3103 0008 0A43     		orrs	r2, r1
 3104 000a DA62     		str	r2, [r3, #44]
1388:Drivers/STM32G0xx_HAL_Driver/Src/stm32g0xx_hal_rcc_ex.c ****   __HAL_RCC_CRS_RELEASE_RESET();
 3105              		.loc 1 1388 3 view .LVU910
 3106 000c DA6A     		ldr	r2, [r3, #44]
 3107 000e 0E49     		ldr	r1, .L250+4
 3108 0010 0A40     		ands	r2, r1
 3109 0012 DA62     		str	r2, [r3, #44]
1389:Drivers/STM32G0xx_HAL_Driver/Src/stm32g0xx_hal_rcc_ex.c **** 
1390:Drivers/STM32G0xx_HAL_Driver/Src/stm32g0xx_hal_rcc_ex.c ****   /* Set the SYNCDIV[2:0] bits according to Prescaler value */
1391:Drivers/STM32G0xx_HAL_Driver/Src/stm32g0xx_hal_rcc_ex.c ****   /* Set the SYNCSRC[1:0] bits according to Source value */
1392:Drivers/STM32G0xx_HAL_Driver/Src/stm32g0xx_hal_rcc_ex.c ****   /* Set the SYNCSPOL bit according to Polarity value */
1393:Drivers/STM32G0xx_HAL_Driver/Src/stm32g0xx_hal_rcc_ex.c ****   value = (pInit->Prescaler | pInit->Source | pInit->Polarity);
 3110              		.loc 1 1393 3 view .LVU911
 3111              		.loc 1 1393 17 is_stmt 0 view .LVU912
 3112 0014 0368     		ldr	r3, [r0]
ARM GAS  /tmp/ccVU8yv2.s 			page 89


 3113              		.loc 1 1393 36 view .LVU913
 3114 0016 4268     		ldr	r2, [r0, #4]
 3115              		.loc 1 1393 29 view .LVU914
 3116 0018 1343     		orrs	r3, r2
 3117              		.loc 1 1393 52 view .LVU915
 3118 001a 8268     		ldr	r2, [r0, #8]
 3119              		.loc 1 1393 9 view .LVU916
 3120 001c 1343     		orrs	r3, r2
 3121              	.LVL267:
1394:Drivers/STM32G0xx_HAL_Driver/Src/stm32g0xx_hal_rcc_ex.c ****   /* Set the RELOAD[15:0] bits according to ReloadValue value */
1395:Drivers/STM32G0xx_HAL_Driver/Src/stm32g0xx_hal_rcc_ex.c ****   value |= pInit->ReloadValue;
 3122              		.loc 1 1395 3 is_stmt 1 view .LVU917
 3123              		.loc 1 1395 17 is_stmt 0 view .LVU918
 3124 001e C268     		ldr	r2, [r0, #12]
 3125              		.loc 1 1395 9 view .LVU919
 3126 0020 1343     		orrs	r3, r2
 3127              	.LVL268:
1396:Drivers/STM32G0xx_HAL_Driver/Src/stm32g0xx_hal_rcc_ex.c ****   /* Set the FELIM[7:0] bits according to ErrorLimitValue value */
1397:Drivers/STM32G0xx_HAL_Driver/Src/stm32g0xx_hal_rcc_ex.c ****   value |= (pInit->ErrorLimitValue << CRS_CFGR_FELIM_Pos);
 3128              		.loc 1 1397 3 is_stmt 1 view .LVU920
 3129              		.loc 1 1397 18 is_stmt 0 view .LVU921
 3130 0022 0269     		ldr	r2, [r0, #16]
 3131              		.loc 1 1397 36 view .LVU922
 3132 0024 1204     		lsls	r2, r2, #16
 3133              		.loc 1 1397 9 view .LVU923
 3134 0026 1A43     		orrs	r2, r3
 3135              	.LVL269:
1398:Drivers/STM32G0xx_HAL_Driver/Src/stm32g0xx_hal_rcc_ex.c ****   WRITE_REG(CRS->CFGR, value);
 3136              		.loc 1 1398 3 is_stmt 1 view .LVU924
 3137 0028 084B     		ldr	r3, .L250+8
 3138 002a 5A60     		str	r2, [r3, #4]
1399:Drivers/STM32G0xx_HAL_Driver/Src/stm32g0xx_hal_rcc_ex.c **** 
1400:Drivers/STM32G0xx_HAL_Driver/Src/stm32g0xx_hal_rcc_ex.c ****   /* Adjust HSI48 oscillator smooth trimming */
1401:Drivers/STM32G0xx_HAL_Driver/Src/stm32g0xx_hal_rcc_ex.c ****   /* Set the TRIM[6:0] bits according to RCC_CRS_HSI48CalibrationValue value */
1402:Drivers/STM32G0xx_HAL_Driver/Src/stm32g0xx_hal_rcc_ex.c ****   MODIFY_REG(CRS->CR, CRS_CR_TRIM, (pInit->HSI48CalibrationValue << CRS_CR_TRIM_Pos));
 3139              		.loc 1 1402 3 view .LVU925
 3140 002c 1A68     		ldr	r2, [r3]
 3141              	.LVL270:
 3142              		.loc 1 1402 3 is_stmt 0 view .LVU926
 3143 002e 0849     		ldr	r1, .L250+12
 3144 0030 0A40     		ands	r2, r1
 3145 0032 4169     		ldr	r1, [r0, #20]
 3146 0034 0902     		lsls	r1, r1, #8
 3147 0036 0A43     		orrs	r2, r1
 3148 0038 1A60     		str	r2, [r3]
 3149              	.LVL271:
1403:Drivers/STM32G0xx_HAL_Driver/Src/stm32g0xx_hal_rcc_ex.c **** 
1404:Drivers/STM32G0xx_HAL_Driver/Src/stm32g0xx_hal_rcc_ex.c ****   /* START AUTOMATIC SYNCHRONIZATION*/
1405:Drivers/STM32G0xx_HAL_Driver/Src/stm32g0xx_hal_rcc_ex.c **** 
1406:Drivers/STM32G0xx_HAL_Driver/Src/stm32g0xx_hal_rcc_ex.c ****   /* Enable Automatic trimming & Frequency error counter */
1407:Drivers/STM32G0xx_HAL_Driver/Src/stm32g0xx_hal_rcc_ex.c ****   SET_BIT(CRS->CR, CRS_CR_AUTOTRIMEN | CRS_CR_CEN);
 3150              		.loc 1 1407 3 is_stmt 1 view .LVU927
 3151 003a 1A68     		ldr	r2, [r3]
 3152 003c 6021     		movs	r1, #96
 3153 003e 0A43     		orrs	r2, r1
 3154 0040 1A60     		str	r2, [r3]
1408:Drivers/STM32G0xx_HAL_Driver/Src/stm32g0xx_hal_rcc_ex.c **** }
ARM GAS  /tmp/ccVU8yv2.s 			page 90


 3155              		.loc 1 1408 1 is_stmt 0 view .LVU928
 3156              		@ sp needed
 3157 0042 7047     		bx	lr
 3158              	.L251:
 3159              		.align	2
 3160              	.L250:
 3161 0044 00100240 		.word	1073876992
 3162 0048 FFFFFEFF 		.word	-65537
 3163 004c 006C0040 		.word	1073769472
 3164 0050 FF80FFFF 		.word	-32513
 3165              		.cfi_endproc
 3166              	.LFE363:
 3168              		.section	.text.HAL_RCCEx_CRSSoftwareSynchronizationGenerate,"ax",%progbits
 3169              		.align	1
 3170              		.global	HAL_RCCEx_CRSSoftwareSynchronizationGenerate
 3171              		.syntax unified
 3172              		.code	16
 3173              		.thumb_func
 3174              		.fpu softvfp
 3176              	HAL_RCCEx_CRSSoftwareSynchronizationGenerate:
 3177              	.LFB364:
1409:Drivers/STM32G0xx_HAL_Driver/Src/stm32g0xx_hal_rcc_ex.c **** 
1410:Drivers/STM32G0xx_HAL_Driver/Src/stm32g0xx_hal_rcc_ex.c **** /**
1411:Drivers/STM32G0xx_HAL_Driver/Src/stm32g0xx_hal_rcc_ex.c ****   * @brief  Generate the software synchronization event
1412:Drivers/STM32G0xx_HAL_Driver/Src/stm32g0xx_hal_rcc_ex.c ****   * @retval None
1413:Drivers/STM32G0xx_HAL_Driver/Src/stm32g0xx_hal_rcc_ex.c ****   */
1414:Drivers/STM32G0xx_HAL_Driver/Src/stm32g0xx_hal_rcc_ex.c **** void HAL_RCCEx_CRSSoftwareSynchronizationGenerate(void)
1415:Drivers/STM32G0xx_HAL_Driver/Src/stm32g0xx_hal_rcc_ex.c **** {
 3178              		.loc 1 1415 1 is_stmt 1 view -0
 3179              		.cfi_startproc
 3180              		@ args = 0, pretend = 0, frame = 0
 3181              		@ frame_needed = 0, uses_anonymous_args = 0
 3182              		@ link register save eliminated.
1416:Drivers/STM32G0xx_HAL_Driver/Src/stm32g0xx_hal_rcc_ex.c ****   SET_BIT(CRS->CR, CRS_CR_SWSYNC);
 3183              		.loc 1 1416 3 view .LVU930
 3184 0000 024A     		ldr	r2, .L253
 3185 0002 1368     		ldr	r3, [r2]
 3186 0004 8021     		movs	r1, #128
 3187 0006 0B43     		orrs	r3, r1
 3188 0008 1360     		str	r3, [r2]
1417:Drivers/STM32G0xx_HAL_Driver/Src/stm32g0xx_hal_rcc_ex.c **** }
 3189              		.loc 1 1417 1 is_stmt 0 view .LVU931
 3190              		@ sp needed
 3191 000a 7047     		bx	lr
 3192              	.L254:
 3193              		.align	2
 3194              	.L253:
 3195 000c 006C0040 		.word	1073769472
 3196              		.cfi_endproc
 3197              	.LFE364:
 3199              		.section	.text.HAL_RCCEx_CRSGetSynchronizationInfo,"ax",%progbits
 3200              		.align	1
 3201              		.global	HAL_RCCEx_CRSGetSynchronizationInfo
 3202              		.syntax unified
 3203              		.code	16
 3204              		.thumb_func
 3205              		.fpu softvfp
ARM GAS  /tmp/ccVU8yv2.s 			page 91


 3207              	HAL_RCCEx_CRSGetSynchronizationInfo:
 3208              	.LVL272:
 3209              	.LFB365:
1418:Drivers/STM32G0xx_HAL_Driver/Src/stm32g0xx_hal_rcc_ex.c **** 
1419:Drivers/STM32G0xx_HAL_Driver/Src/stm32g0xx_hal_rcc_ex.c **** /**
1420:Drivers/STM32G0xx_HAL_Driver/Src/stm32g0xx_hal_rcc_ex.c ****   * @brief  Return synchronization info
1421:Drivers/STM32G0xx_HAL_Driver/Src/stm32g0xx_hal_rcc_ex.c ****   * @param  pSynchroInfo Pointer on RCC_CRSSynchroInfoTypeDef structure
1422:Drivers/STM32G0xx_HAL_Driver/Src/stm32g0xx_hal_rcc_ex.c ****   * @retval None
1423:Drivers/STM32G0xx_HAL_Driver/Src/stm32g0xx_hal_rcc_ex.c ****   */
1424:Drivers/STM32G0xx_HAL_Driver/Src/stm32g0xx_hal_rcc_ex.c **** void HAL_RCCEx_CRSGetSynchronizationInfo(RCC_CRSSynchroInfoTypeDef *pSynchroInfo)
1425:Drivers/STM32G0xx_HAL_Driver/Src/stm32g0xx_hal_rcc_ex.c **** {
 3210              		.loc 1 1425 1 is_stmt 1 view -0
 3211              		.cfi_startproc
 3212              		@ args = 0, pretend = 0, frame = 0
 3213              		@ frame_needed = 0, uses_anonymous_args = 0
 3214              		@ link register save eliminated.
1426:Drivers/STM32G0xx_HAL_Driver/Src/stm32g0xx_hal_rcc_ex.c ****   /* Check the parameter */
1427:Drivers/STM32G0xx_HAL_Driver/Src/stm32g0xx_hal_rcc_ex.c ****   assert_param(pSynchroInfo != (void *)NULL);
 3215              		.loc 1 1427 3 view .LVU933
1428:Drivers/STM32G0xx_HAL_Driver/Src/stm32g0xx_hal_rcc_ex.c **** 
1429:Drivers/STM32G0xx_HAL_Driver/Src/stm32g0xx_hal_rcc_ex.c ****   /* Get the reload value */
1430:Drivers/STM32G0xx_HAL_Driver/Src/stm32g0xx_hal_rcc_ex.c ****   pSynchroInfo->ReloadValue = (READ_BIT(CRS->CFGR, CRS_CFGR_RELOAD));
 3216              		.loc 1 1430 3 view .LVU934
 3217              		.loc 1 1430 32 is_stmt 0 view .LVU935
 3218 0000 094A     		ldr	r2, .L256
 3219 0002 5368     		ldr	r3, [r2, #4]
 3220 0004 1B04     		lsls	r3, r3, #16
 3221 0006 1B0C     		lsrs	r3, r3, #16
 3222              		.loc 1 1430 29 view .LVU936
 3223 0008 0360     		str	r3, [r0]
1431:Drivers/STM32G0xx_HAL_Driver/Src/stm32g0xx_hal_rcc_ex.c **** 
1432:Drivers/STM32G0xx_HAL_Driver/Src/stm32g0xx_hal_rcc_ex.c ****   /* Get HSI48 oscillator smooth trimming */
1433:Drivers/STM32G0xx_HAL_Driver/Src/stm32g0xx_hal_rcc_ex.c ****   pSynchroInfo->HSI48CalibrationValue = (READ_BIT(CRS->CR, CRS_CR_TRIM) >> CRS_CR_TRIM_Pos);
 3224              		.loc 1 1433 3 is_stmt 1 view .LVU937
 3225              		.loc 1 1433 42 is_stmt 0 view .LVU938
 3226 000a 1168     		ldr	r1, [r2]
 3227              		.loc 1 1433 73 view .LVU939
 3228 000c 090A     		lsrs	r1, r1, #8
 3229 000e 7F23     		movs	r3, #127
 3230 0010 0B40     		ands	r3, r1
 3231              		.loc 1 1433 39 view .LVU940
 3232 0012 4360     		str	r3, [r0, #4]
1434:Drivers/STM32G0xx_HAL_Driver/Src/stm32g0xx_hal_rcc_ex.c **** 
1435:Drivers/STM32G0xx_HAL_Driver/Src/stm32g0xx_hal_rcc_ex.c ****   /* Get Frequency error capture */
1436:Drivers/STM32G0xx_HAL_Driver/Src/stm32g0xx_hal_rcc_ex.c ****   pSynchroInfo->FreqErrorCapture = (READ_BIT(CRS->ISR, CRS_ISR_FECAP) >> CRS_ISR_FECAP_Pos);
 3233              		.loc 1 1436 3 is_stmt 1 view .LVU941
 3234              		.loc 1 1436 37 is_stmt 0 view .LVU942
 3235 0014 9368     		ldr	r3, [r2, #8]
 3236              		.loc 1 1436 71 view .LVU943
 3237 0016 1B0C     		lsrs	r3, r3, #16
 3238              		.loc 1 1436 34 view .LVU944
 3239 0018 8360     		str	r3, [r0, #8]
1437:Drivers/STM32G0xx_HAL_Driver/Src/stm32g0xx_hal_rcc_ex.c **** 
1438:Drivers/STM32G0xx_HAL_Driver/Src/stm32g0xx_hal_rcc_ex.c ****   /* Get Frequency error direction */
1439:Drivers/STM32G0xx_HAL_Driver/Src/stm32g0xx_hal_rcc_ex.c ****   pSynchroInfo->FreqErrorDirection = (READ_BIT(CRS->ISR, CRS_ISR_FEDIR));
 3240              		.loc 1 1439 3 is_stmt 1 view .LVU945
 3241              		.loc 1 1439 39 is_stmt 0 view .LVU946
ARM GAS  /tmp/ccVU8yv2.s 			page 92


 3242 001a 9368     		ldr	r3, [r2, #8]
 3243 001c 8022     		movs	r2, #128
 3244 001e 1202     		lsls	r2, r2, #8
 3245 0020 1340     		ands	r3, r2
 3246              		.loc 1 1439 36 view .LVU947
 3247 0022 C360     		str	r3, [r0, #12]
1440:Drivers/STM32G0xx_HAL_Driver/Src/stm32g0xx_hal_rcc_ex.c **** }
 3248              		.loc 1 1440 1 view .LVU948
 3249              		@ sp needed
 3250 0024 7047     		bx	lr
 3251              	.L257:
 3252 0026 C046     		.align	2
 3253              	.L256:
 3254 0028 006C0040 		.word	1073769472
 3255              		.cfi_endproc
 3256              	.LFE365:
 3258              		.section	.text.HAL_RCCEx_CRSWaitSynchronization,"ax",%progbits
 3259              		.align	1
 3260              		.global	HAL_RCCEx_CRSWaitSynchronization
 3261              		.syntax unified
 3262              		.code	16
 3263              		.thumb_func
 3264              		.fpu softvfp
 3266              	HAL_RCCEx_CRSWaitSynchronization:
 3267              	.LVL273:
 3268              	.LFB366:
1441:Drivers/STM32G0xx_HAL_Driver/Src/stm32g0xx_hal_rcc_ex.c **** 
1442:Drivers/STM32G0xx_HAL_Driver/Src/stm32g0xx_hal_rcc_ex.c **** /**
1443:Drivers/STM32G0xx_HAL_Driver/Src/stm32g0xx_hal_rcc_ex.c ****   * @brief Wait for CRS Synchronization status.
1444:Drivers/STM32G0xx_HAL_Driver/Src/stm32g0xx_hal_rcc_ex.c ****   * @param Timeout  Duration of the timeout
1445:Drivers/STM32G0xx_HAL_Driver/Src/stm32g0xx_hal_rcc_ex.c ****   * @note  Timeout is based on the maximum time to receive a SYNC event based on synchronization
1446:Drivers/STM32G0xx_HAL_Driver/Src/stm32g0xx_hal_rcc_ex.c ****   *        frequency.
1447:Drivers/STM32G0xx_HAL_Driver/Src/stm32g0xx_hal_rcc_ex.c ****   * @note    If Timeout set to HAL_MAX_DELAY, HAL_TIMEOUT will be never returned.
1448:Drivers/STM32G0xx_HAL_Driver/Src/stm32g0xx_hal_rcc_ex.c ****   * @retval Combination of Synchronization status
1449:Drivers/STM32G0xx_HAL_Driver/Src/stm32g0xx_hal_rcc_ex.c ****   *          This parameter can be a combination of the following values:
1450:Drivers/STM32G0xx_HAL_Driver/Src/stm32g0xx_hal_rcc_ex.c ****   *            @arg @ref RCC_CRS_TIMEOUT
1451:Drivers/STM32G0xx_HAL_Driver/Src/stm32g0xx_hal_rcc_ex.c ****   *            @arg @ref RCC_CRS_SYNCOK
1452:Drivers/STM32G0xx_HAL_Driver/Src/stm32g0xx_hal_rcc_ex.c ****   *            @arg @ref RCC_CRS_SYNCWARN
1453:Drivers/STM32G0xx_HAL_Driver/Src/stm32g0xx_hal_rcc_ex.c ****   *            @arg @ref RCC_CRS_SYNCERR
1454:Drivers/STM32G0xx_HAL_Driver/Src/stm32g0xx_hal_rcc_ex.c ****   *            @arg @ref RCC_CRS_SYNCMISS
1455:Drivers/STM32G0xx_HAL_Driver/Src/stm32g0xx_hal_rcc_ex.c ****   *            @arg @ref RCC_CRS_TRIMOVF
1456:Drivers/STM32G0xx_HAL_Driver/Src/stm32g0xx_hal_rcc_ex.c ****   */
1457:Drivers/STM32G0xx_HAL_Driver/Src/stm32g0xx_hal_rcc_ex.c **** uint32_t HAL_RCCEx_CRSWaitSynchronization(uint32_t Timeout)
1458:Drivers/STM32G0xx_HAL_Driver/Src/stm32g0xx_hal_rcc_ex.c **** {
 3269              		.loc 1 1458 1 is_stmt 1 view -0
 3270              		.cfi_startproc
 3271              		@ args = 0, pretend = 0, frame = 0
 3272              		@ frame_needed = 0, uses_anonymous_args = 0
 3273              		.loc 1 1458 1 is_stmt 0 view .LVU950
 3274 0000 70B5     		push	{r4, r5, r6, lr}
 3275              	.LCFI8:
 3276              		.cfi_def_cfa_offset 16
 3277              		.cfi_offset 4, -16
 3278              		.cfi_offset 5, -12
 3279              		.cfi_offset 6, -8
 3280              		.cfi_offset 14, -4
 3281 0002 0500     		movs	r5, r0
ARM GAS  /tmp/ccVU8yv2.s 			page 93


1459:Drivers/STM32G0xx_HAL_Driver/Src/stm32g0xx_hal_rcc_ex.c ****   uint32_t crsstatus = RCC_CRS_NONE;
 3282              		.loc 1 1459 3 is_stmt 1 view .LVU951
 3283              	.LVL274:
1460:Drivers/STM32G0xx_HAL_Driver/Src/stm32g0xx_hal_rcc_ex.c ****   uint32_t tickstart;
 3284              		.loc 1 1460 3 view .LVU952
1461:Drivers/STM32G0xx_HAL_Driver/Src/stm32g0xx_hal_rcc_ex.c **** 
1462:Drivers/STM32G0xx_HAL_Driver/Src/stm32g0xx_hal_rcc_ex.c ****   /* Get timeout */
1463:Drivers/STM32G0xx_HAL_Driver/Src/stm32g0xx_hal_rcc_ex.c ****   tickstart = HAL_GetTick();
 3285              		.loc 1 1463 3 view .LVU953
 3286              		.loc 1 1463 15 is_stmt 0 view .LVU954
 3287 0004 FFF7FEFF 		bl	HAL_GetTick
 3288              	.LVL275:
 3289              		.loc 1 1463 15 view .LVU955
 3290 0008 0600     		movs	r6, r0
 3291              	.LVL276:
1459:Drivers/STM32G0xx_HAL_Driver/Src/stm32g0xx_hal_rcc_ex.c ****   uint32_t tickstart;
 3292              		.loc 1 1459 12 view .LVU956
 3293 000a 0024     		movs	r4, #0
 3294 000c 0FE0     		b	.L266
 3295              	.LVL277:
 3296              	.L277:
1464:Drivers/STM32G0xx_HAL_Driver/Src/stm32g0xx_hal_rcc_ex.c **** 
1465:Drivers/STM32G0xx_HAL_Driver/Src/stm32g0xx_hal_rcc_ex.c ****   /* Wait for CRS flag or timeout detection */
1466:Drivers/STM32G0xx_HAL_Driver/Src/stm32g0xx_hal_rcc_ex.c ****   do
1467:Drivers/STM32G0xx_HAL_Driver/Src/stm32g0xx_hal_rcc_ex.c ****   {
1468:Drivers/STM32G0xx_HAL_Driver/Src/stm32g0xx_hal_rcc_ex.c ****     if (Timeout != HAL_MAX_DELAY)
1469:Drivers/STM32G0xx_HAL_Driver/Src/stm32g0xx_hal_rcc_ex.c ****     {
1470:Drivers/STM32G0xx_HAL_Driver/Src/stm32g0xx_hal_rcc_ex.c ****       if (((HAL_GetTick() - tickstart) > Timeout) || (Timeout == 0U))
 3297              		.loc 1 1470 7 is_stmt 1 view .LVU957
 3298              		.loc 1 1470 13 is_stmt 0 view .LVU958
 3299 000e FFF7FEFF 		bl	HAL_GetTick
 3300              	.LVL278:
 3301              		.loc 1 1470 27 view .LVU959
 3302 0012 801B     		subs	r0, r0, r6
 3303              		.loc 1 1470 10 view .LVU960
 3304 0014 A842     		cmp	r0, r5
 3305 0016 03D8     		bhi	.L267
 3306              		.loc 1 1470 51 discriminator 1 view .LVU961
 3307 0018 002D     		cmp	r5, #0
 3308 001a 0AD1     		bne	.L259
1471:Drivers/STM32G0xx_HAL_Driver/Src/stm32g0xx_hal_rcc_ex.c ****       {
1472:Drivers/STM32G0xx_HAL_Driver/Src/stm32g0xx_hal_rcc_ex.c ****         crsstatus = RCC_CRS_TIMEOUT;
 3309              		.loc 1 1472 19 view .LVU962
 3310 001c 0124     		movs	r4, #1
 3311              	.LVL279:
 3312              		.loc 1 1472 19 view .LVU963
 3313 001e 08E0     		b	.L259
 3314              	.LVL280:
 3315              	.L267:
 3316              		.loc 1 1472 19 view .LVU964
 3317 0020 0124     		movs	r4, #1
 3318              	.LVL281:
 3319              		.loc 1 1472 19 view .LVU965
 3320 0022 06E0     		b	.L259
 3321              	.LVL282:
 3322              	.L278:
1473:Drivers/STM32G0xx_HAL_Driver/Src/stm32g0xx_hal_rcc_ex.c ****       }
ARM GAS  /tmp/ccVU8yv2.s 			page 94


1474:Drivers/STM32G0xx_HAL_Driver/Src/stm32g0xx_hal_rcc_ex.c ****     }
1475:Drivers/STM32G0xx_HAL_Driver/Src/stm32g0xx_hal_rcc_ex.c ****     /* Check CRS SYNCOK flag  */
1476:Drivers/STM32G0xx_HAL_Driver/Src/stm32g0xx_hal_rcc_ex.c ****     if (__HAL_RCC_CRS_GET_FLAG(RCC_CRS_FLAG_SYNCOK))
1477:Drivers/STM32G0xx_HAL_Driver/Src/stm32g0xx_hal_rcc_ex.c ****     {
1478:Drivers/STM32G0xx_HAL_Driver/Src/stm32g0xx_hal_rcc_ex.c ****       /* CRS SYNC event OK */
1479:Drivers/STM32G0xx_HAL_Driver/Src/stm32g0xx_hal_rcc_ex.c ****       crsstatus |= RCC_CRS_SYNCOK;
1480:Drivers/STM32G0xx_HAL_Driver/Src/stm32g0xx_hal_rcc_ex.c **** 
1481:Drivers/STM32G0xx_HAL_Driver/Src/stm32g0xx_hal_rcc_ex.c ****       /* Clear CRS SYNC event OK bit */
1482:Drivers/STM32G0xx_HAL_Driver/Src/stm32g0xx_hal_rcc_ex.c ****       __HAL_RCC_CRS_CLEAR_FLAG(RCC_CRS_FLAG_SYNCOK);
1483:Drivers/STM32G0xx_HAL_Driver/Src/stm32g0xx_hal_rcc_ex.c ****     }
1484:Drivers/STM32G0xx_HAL_Driver/Src/stm32g0xx_hal_rcc_ex.c **** 
1485:Drivers/STM32G0xx_HAL_Driver/Src/stm32g0xx_hal_rcc_ex.c ****     /* Check CRS SYNCWARN flag  */
1486:Drivers/STM32G0xx_HAL_Driver/Src/stm32g0xx_hal_rcc_ex.c ****     if (__HAL_RCC_CRS_GET_FLAG(RCC_CRS_FLAG_SYNCWARN))
1487:Drivers/STM32G0xx_HAL_Driver/Src/stm32g0xx_hal_rcc_ex.c ****     {
1488:Drivers/STM32G0xx_HAL_Driver/Src/stm32g0xx_hal_rcc_ex.c ****       /* CRS SYNC warning */
1489:Drivers/STM32G0xx_HAL_Driver/Src/stm32g0xx_hal_rcc_ex.c ****       crsstatus |= RCC_CRS_SYNCWARN;
1490:Drivers/STM32G0xx_HAL_Driver/Src/stm32g0xx_hal_rcc_ex.c **** 
1491:Drivers/STM32G0xx_HAL_Driver/Src/stm32g0xx_hal_rcc_ex.c ****       /* Clear CRS SYNCWARN bit */
1492:Drivers/STM32G0xx_HAL_Driver/Src/stm32g0xx_hal_rcc_ex.c ****       __HAL_RCC_CRS_CLEAR_FLAG(RCC_CRS_FLAG_SYNCWARN);
1493:Drivers/STM32G0xx_HAL_Driver/Src/stm32g0xx_hal_rcc_ex.c ****     }
1494:Drivers/STM32G0xx_HAL_Driver/Src/stm32g0xx_hal_rcc_ex.c **** 
1495:Drivers/STM32G0xx_HAL_Driver/Src/stm32g0xx_hal_rcc_ex.c ****     /* Check CRS TRIM overflow flag  */
1496:Drivers/STM32G0xx_HAL_Driver/Src/stm32g0xx_hal_rcc_ex.c ****     if (__HAL_RCC_CRS_GET_FLAG(RCC_CRS_FLAG_TRIMOVF))
1497:Drivers/STM32G0xx_HAL_Driver/Src/stm32g0xx_hal_rcc_ex.c ****     {
1498:Drivers/STM32G0xx_HAL_Driver/Src/stm32g0xx_hal_rcc_ex.c ****       /* CRS SYNC Error */
1499:Drivers/STM32G0xx_HAL_Driver/Src/stm32g0xx_hal_rcc_ex.c ****       crsstatus |= RCC_CRS_TRIMOVF;
1500:Drivers/STM32G0xx_HAL_Driver/Src/stm32g0xx_hal_rcc_ex.c **** 
1501:Drivers/STM32G0xx_HAL_Driver/Src/stm32g0xx_hal_rcc_ex.c ****       /* Clear CRS Error bit */
1502:Drivers/STM32G0xx_HAL_Driver/Src/stm32g0xx_hal_rcc_ex.c ****       __HAL_RCC_CRS_CLEAR_FLAG(RCC_CRS_FLAG_TRIMOVF);
1503:Drivers/STM32G0xx_HAL_Driver/Src/stm32g0xx_hal_rcc_ex.c ****     }
1504:Drivers/STM32G0xx_HAL_Driver/Src/stm32g0xx_hal_rcc_ex.c **** 
1505:Drivers/STM32G0xx_HAL_Driver/Src/stm32g0xx_hal_rcc_ex.c ****     /* Check CRS Error flag  */
1506:Drivers/STM32G0xx_HAL_Driver/Src/stm32g0xx_hal_rcc_ex.c ****     if (__HAL_RCC_CRS_GET_FLAG(RCC_CRS_FLAG_SYNCERR))
1507:Drivers/STM32G0xx_HAL_Driver/Src/stm32g0xx_hal_rcc_ex.c ****     {
1508:Drivers/STM32G0xx_HAL_Driver/Src/stm32g0xx_hal_rcc_ex.c ****       /* CRS SYNC Error */
1509:Drivers/STM32G0xx_HAL_Driver/Src/stm32g0xx_hal_rcc_ex.c ****       crsstatus |= RCC_CRS_SYNCERR;
1510:Drivers/STM32G0xx_HAL_Driver/Src/stm32g0xx_hal_rcc_ex.c **** 
1511:Drivers/STM32G0xx_HAL_Driver/Src/stm32g0xx_hal_rcc_ex.c ****       /* Clear CRS Error bit */
1512:Drivers/STM32G0xx_HAL_Driver/Src/stm32g0xx_hal_rcc_ex.c ****       __HAL_RCC_CRS_CLEAR_FLAG(RCC_CRS_FLAG_SYNCERR);
1513:Drivers/STM32G0xx_HAL_Driver/Src/stm32g0xx_hal_rcc_ex.c ****     }
1514:Drivers/STM32G0xx_HAL_Driver/Src/stm32g0xx_hal_rcc_ex.c **** 
1515:Drivers/STM32G0xx_HAL_Driver/Src/stm32g0xx_hal_rcc_ex.c ****     /* Check CRS SYNC Missed flag  */
1516:Drivers/STM32G0xx_HAL_Driver/Src/stm32g0xx_hal_rcc_ex.c ****     if (__HAL_RCC_CRS_GET_FLAG(RCC_CRS_FLAG_SYNCMISS))
1517:Drivers/STM32G0xx_HAL_Driver/Src/stm32g0xx_hal_rcc_ex.c ****     {
1518:Drivers/STM32G0xx_HAL_Driver/Src/stm32g0xx_hal_rcc_ex.c ****       /* CRS SYNC Missed */
1519:Drivers/STM32G0xx_HAL_Driver/Src/stm32g0xx_hal_rcc_ex.c ****       crsstatus |= RCC_CRS_SYNCMISS;
1520:Drivers/STM32G0xx_HAL_Driver/Src/stm32g0xx_hal_rcc_ex.c **** 
1521:Drivers/STM32G0xx_HAL_Driver/Src/stm32g0xx_hal_rcc_ex.c ****       /* Clear CRS SYNC Missed bit */
1522:Drivers/STM32G0xx_HAL_Driver/Src/stm32g0xx_hal_rcc_ex.c ****       __HAL_RCC_CRS_CLEAR_FLAG(RCC_CRS_FLAG_SYNCMISS);
1523:Drivers/STM32G0xx_HAL_Driver/Src/stm32g0xx_hal_rcc_ex.c ****     }
1524:Drivers/STM32G0xx_HAL_Driver/Src/stm32g0xx_hal_rcc_ex.c **** 
1525:Drivers/STM32G0xx_HAL_Driver/Src/stm32g0xx_hal_rcc_ex.c ****     /* Check CRS Expected SYNC flag  */
1526:Drivers/STM32G0xx_HAL_Driver/Src/stm32g0xx_hal_rcc_ex.c ****     if (__HAL_RCC_CRS_GET_FLAG(RCC_CRS_FLAG_ESYNC))
1527:Drivers/STM32G0xx_HAL_Driver/Src/stm32g0xx_hal_rcc_ex.c ****     {
1528:Drivers/STM32G0xx_HAL_Driver/Src/stm32g0xx_hal_rcc_ex.c ****       /* frequency error counter reached a zero value */
1529:Drivers/STM32G0xx_HAL_Driver/Src/stm32g0xx_hal_rcc_ex.c ****       __HAL_RCC_CRS_CLEAR_FLAG(RCC_CRS_FLAG_ESYNC);
 3323              		.loc 1 1529 7 is_stmt 1 discriminator 2 view .LVU966
ARM GAS  /tmp/ccVU8yv2.s 			page 95


 3324              		.loc 1 1529 7 discriminator 2 view .LVU967
 3325              		.loc 1 1529 7 discriminator 2 view .LVU968
 3326 0024 1D4B     		ldr	r3, .L279
 3327 0026 0822     		movs	r2, #8
 3328 0028 DA60     		str	r2, [r3, #12]
 3329              	.L265:
 3330              		.loc 1 1529 7 discriminator 4 view .LVU969
1530:Drivers/STM32G0xx_HAL_Driver/Src/stm32g0xx_hal_rcc_ex.c ****     }
1531:Drivers/STM32G0xx_HAL_Driver/Src/stm32g0xx_hal_rcc_ex.c ****   } while (RCC_CRS_NONE == crsstatus);
 3331              		.loc 1 1531 25 discriminator 4 view .LVU970
 3332 002a 002C     		cmp	r4, #0
 3333 002c 33D1     		bne	.L276
 3334              	.LVL283:
 3335              	.L266:
1466:Drivers/STM32G0xx_HAL_Driver/Src/stm32g0xx_hal_rcc_ex.c ****   {
 3336              		.loc 1 1466 3 view .LVU971
1468:Drivers/STM32G0xx_HAL_Driver/Src/stm32g0xx_hal_rcc_ex.c ****     {
 3337              		.loc 1 1468 5 view .LVU972
1468:Drivers/STM32G0xx_HAL_Driver/Src/stm32g0xx_hal_rcc_ex.c ****     {
 3338              		.loc 1 1468 8 is_stmt 0 view .LVU973
 3339 002e 6B1C     		adds	r3, r5, #1
 3340 0030 EDD1     		bne	.L277
 3341              	.LVL284:
 3342              	.L259:
1476:Drivers/STM32G0xx_HAL_Driver/Src/stm32g0xx_hal_rcc_ex.c ****     {
 3343              		.loc 1 1476 5 is_stmt 1 view .LVU974
1476:Drivers/STM32G0xx_HAL_Driver/Src/stm32g0xx_hal_rcc_ex.c ****     {
 3344              		.loc 1 1476 9 is_stmt 0 view .LVU975
 3345 0032 1A4B     		ldr	r3, .L279
 3346 0034 9B68     		ldr	r3, [r3, #8]
1476:Drivers/STM32G0xx_HAL_Driver/Src/stm32g0xx_hal_rcc_ex.c ****     {
 3347              		.loc 1 1476 8 view .LVU976
 3348 0036 DB07     		lsls	r3, r3, #31
 3349 0038 04D5     		bpl	.L260
1479:Drivers/STM32G0xx_HAL_Driver/Src/stm32g0xx_hal_rcc_ex.c **** 
 3350              		.loc 1 1479 7 is_stmt 1 view .LVU977
1479:Drivers/STM32G0xx_HAL_Driver/Src/stm32g0xx_hal_rcc_ex.c **** 
 3351              		.loc 1 1479 17 is_stmt 0 view .LVU978
 3352 003a 0223     		movs	r3, #2
 3353 003c 1C43     		orrs	r4, r3
 3354              	.LVL285:
1482:Drivers/STM32G0xx_HAL_Driver/Src/stm32g0xx_hal_rcc_ex.c ****     }
 3355              		.loc 1 1482 7 is_stmt 1 view .LVU979
1482:Drivers/STM32G0xx_HAL_Driver/Src/stm32g0xx_hal_rcc_ex.c ****     }
 3356              		.loc 1 1482 7 view .LVU980
1482:Drivers/STM32G0xx_HAL_Driver/Src/stm32g0xx_hal_rcc_ex.c ****     }
 3357              		.loc 1 1482 7 view .LVU981
 3358 003e 174B     		ldr	r3, .L279
 3359 0040 0122     		movs	r2, #1
 3360 0042 DA60     		str	r2, [r3, #12]
 3361              	.L260:
1482:Drivers/STM32G0xx_HAL_Driver/Src/stm32g0xx_hal_rcc_ex.c ****     }
 3362              		.loc 1 1482 7 discriminator 4 view .LVU982
1486:Drivers/STM32G0xx_HAL_Driver/Src/stm32g0xx_hal_rcc_ex.c ****     {
 3363              		.loc 1 1486 5 discriminator 4 view .LVU983
1486:Drivers/STM32G0xx_HAL_Driver/Src/stm32g0xx_hal_rcc_ex.c ****     {
 3364              		.loc 1 1486 9 is_stmt 0 discriminator 4 view .LVU984
ARM GAS  /tmp/ccVU8yv2.s 			page 96


 3365 0044 154B     		ldr	r3, .L279
 3366 0046 9B68     		ldr	r3, [r3, #8]
1486:Drivers/STM32G0xx_HAL_Driver/Src/stm32g0xx_hal_rcc_ex.c ****     {
 3367              		.loc 1 1486 8 discriminator 4 view .LVU985
 3368 0048 9B07     		lsls	r3, r3, #30
 3369 004a 04D5     		bpl	.L261
1489:Drivers/STM32G0xx_HAL_Driver/Src/stm32g0xx_hal_rcc_ex.c **** 
 3370              		.loc 1 1489 7 is_stmt 1 view .LVU986
1489:Drivers/STM32G0xx_HAL_Driver/Src/stm32g0xx_hal_rcc_ex.c **** 
 3371              		.loc 1 1489 17 is_stmt 0 view .LVU987
 3372 004c 0423     		movs	r3, #4
 3373 004e 1C43     		orrs	r4, r3
 3374              	.LVL286:
1492:Drivers/STM32G0xx_HAL_Driver/Src/stm32g0xx_hal_rcc_ex.c ****     }
 3375              		.loc 1 1492 7 is_stmt 1 view .LVU988
1492:Drivers/STM32G0xx_HAL_Driver/Src/stm32g0xx_hal_rcc_ex.c ****     }
 3376              		.loc 1 1492 7 view .LVU989
1492:Drivers/STM32G0xx_HAL_Driver/Src/stm32g0xx_hal_rcc_ex.c ****     }
 3377              		.loc 1 1492 7 view .LVU990
 3378 0050 124B     		ldr	r3, .L279
 3379 0052 0222     		movs	r2, #2
 3380 0054 DA60     		str	r2, [r3, #12]
 3381              	.L261:
1492:Drivers/STM32G0xx_HAL_Driver/Src/stm32g0xx_hal_rcc_ex.c ****     }
 3382              		.loc 1 1492 7 discriminator 4 view .LVU991
1496:Drivers/STM32G0xx_HAL_Driver/Src/stm32g0xx_hal_rcc_ex.c ****     {
 3383              		.loc 1 1496 5 discriminator 4 view .LVU992
1496:Drivers/STM32G0xx_HAL_Driver/Src/stm32g0xx_hal_rcc_ex.c ****     {
 3384              		.loc 1 1496 9 is_stmt 0 discriminator 4 view .LVU993
 3385 0056 114B     		ldr	r3, .L279
 3386 0058 9B68     		ldr	r3, [r3, #8]
1496:Drivers/STM32G0xx_HAL_Driver/Src/stm32g0xx_hal_rcc_ex.c ****     {
 3387              		.loc 1 1496 8 discriminator 4 view .LVU994
 3388 005a 5B05     		lsls	r3, r3, #21
 3389 005c 04D5     		bpl	.L262
1499:Drivers/STM32G0xx_HAL_Driver/Src/stm32g0xx_hal_rcc_ex.c **** 
 3390              		.loc 1 1499 7 is_stmt 1 view .LVU995
1499:Drivers/STM32G0xx_HAL_Driver/Src/stm32g0xx_hal_rcc_ex.c **** 
 3391              		.loc 1 1499 17 is_stmt 0 view .LVU996
 3392 005e 2023     		movs	r3, #32
 3393 0060 1C43     		orrs	r4, r3
 3394              	.LVL287:
1502:Drivers/STM32G0xx_HAL_Driver/Src/stm32g0xx_hal_rcc_ex.c ****     }
 3395              		.loc 1 1502 7 is_stmt 1 view .LVU997
1502:Drivers/STM32G0xx_HAL_Driver/Src/stm32g0xx_hal_rcc_ex.c ****     }
 3396              		.loc 1 1502 7 view .LVU998
1502:Drivers/STM32G0xx_HAL_Driver/Src/stm32g0xx_hal_rcc_ex.c ****     }
 3397              		.loc 1 1502 7 view .LVU999
 3398 0062 0E4B     		ldr	r3, .L279
 3399 0064 0422     		movs	r2, #4
 3400 0066 DA60     		str	r2, [r3, #12]
 3401              	.L262:
1502:Drivers/STM32G0xx_HAL_Driver/Src/stm32g0xx_hal_rcc_ex.c ****     }
 3402              		.loc 1 1502 7 discriminator 4 view .LVU1000
1506:Drivers/STM32G0xx_HAL_Driver/Src/stm32g0xx_hal_rcc_ex.c ****     {
 3403              		.loc 1 1506 5 discriminator 4 view .LVU1001
1506:Drivers/STM32G0xx_HAL_Driver/Src/stm32g0xx_hal_rcc_ex.c ****     {
ARM GAS  /tmp/ccVU8yv2.s 			page 97


 3404              		.loc 1 1506 9 is_stmt 0 discriminator 4 view .LVU1002
 3405 0068 0C4B     		ldr	r3, .L279
 3406 006a 9B68     		ldr	r3, [r3, #8]
1506:Drivers/STM32G0xx_HAL_Driver/Src/stm32g0xx_hal_rcc_ex.c ****     {
 3407              		.loc 1 1506 8 discriminator 4 view .LVU1003
 3408 006c DB05     		lsls	r3, r3, #23
 3409 006e 04D5     		bpl	.L263
1509:Drivers/STM32G0xx_HAL_Driver/Src/stm32g0xx_hal_rcc_ex.c **** 
 3410              		.loc 1 1509 7 is_stmt 1 view .LVU1004
1509:Drivers/STM32G0xx_HAL_Driver/Src/stm32g0xx_hal_rcc_ex.c **** 
 3411              		.loc 1 1509 17 is_stmt 0 view .LVU1005
 3412 0070 0823     		movs	r3, #8
 3413 0072 1C43     		orrs	r4, r3
 3414              	.LVL288:
1512:Drivers/STM32G0xx_HAL_Driver/Src/stm32g0xx_hal_rcc_ex.c ****     }
 3415              		.loc 1 1512 7 is_stmt 1 view .LVU1006
1512:Drivers/STM32G0xx_HAL_Driver/Src/stm32g0xx_hal_rcc_ex.c ****     }
 3416              		.loc 1 1512 7 view .LVU1007
1512:Drivers/STM32G0xx_HAL_Driver/Src/stm32g0xx_hal_rcc_ex.c ****     }
 3417              		.loc 1 1512 7 view .LVU1008
 3418 0074 094B     		ldr	r3, .L279
 3419 0076 0422     		movs	r2, #4
 3420 0078 DA60     		str	r2, [r3, #12]
 3421              	.L263:
1512:Drivers/STM32G0xx_HAL_Driver/Src/stm32g0xx_hal_rcc_ex.c ****     }
 3422              		.loc 1 1512 7 discriminator 4 view .LVU1009
1516:Drivers/STM32G0xx_HAL_Driver/Src/stm32g0xx_hal_rcc_ex.c ****     {
 3423              		.loc 1 1516 5 discriminator 4 view .LVU1010
1516:Drivers/STM32G0xx_HAL_Driver/Src/stm32g0xx_hal_rcc_ex.c ****     {
 3424              		.loc 1 1516 9 is_stmt 0 discriminator 4 view .LVU1011
 3425 007a 084B     		ldr	r3, .L279
 3426 007c 9B68     		ldr	r3, [r3, #8]
1516:Drivers/STM32G0xx_HAL_Driver/Src/stm32g0xx_hal_rcc_ex.c ****     {
 3427              		.loc 1 1516 8 discriminator 4 view .LVU1012
 3428 007e 9B05     		lsls	r3, r3, #22
 3429 0080 04D5     		bpl	.L264
1519:Drivers/STM32G0xx_HAL_Driver/Src/stm32g0xx_hal_rcc_ex.c **** 
 3430              		.loc 1 1519 7 is_stmt 1 view .LVU1013
1519:Drivers/STM32G0xx_HAL_Driver/Src/stm32g0xx_hal_rcc_ex.c **** 
 3431              		.loc 1 1519 17 is_stmt 0 view .LVU1014
 3432 0082 1023     		movs	r3, #16
 3433 0084 1C43     		orrs	r4, r3
 3434              	.LVL289:
1522:Drivers/STM32G0xx_HAL_Driver/Src/stm32g0xx_hal_rcc_ex.c ****     }
 3435              		.loc 1 1522 7 is_stmt 1 view .LVU1015
1522:Drivers/STM32G0xx_HAL_Driver/Src/stm32g0xx_hal_rcc_ex.c ****     }
 3436              		.loc 1 1522 7 view .LVU1016
1522:Drivers/STM32G0xx_HAL_Driver/Src/stm32g0xx_hal_rcc_ex.c ****     }
 3437              		.loc 1 1522 7 view .LVU1017
 3438 0086 054B     		ldr	r3, .L279
 3439 0088 0422     		movs	r2, #4
 3440 008a DA60     		str	r2, [r3, #12]
 3441              	.L264:
1522:Drivers/STM32G0xx_HAL_Driver/Src/stm32g0xx_hal_rcc_ex.c ****     }
 3442              		.loc 1 1522 7 discriminator 4 view .LVU1018
1526:Drivers/STM32G0xx_HAL_Driver/Src/stm32g0xx_hal_rcc_ex.c ****     {
 3443              		.loc 1 1526 5 discriminator 4 view .LVU1019
ARM GAS  /tmp/ccVU8yv2.s 			page 98


1526:Drivers/STM32G0xx_HAL_Driver/Src/stm32g0xx_hal_rcc_ex.c ****     {
 3444              		.loc 1 1526 9 is_stmt 0 discriminator 4 view .LVU1020
 3445 008c 034B     		ldr	r3, .L279
 3446 008e 9B68     		ldr	r3, [r3, #8]
1526:Drivers/STM32G0xx_HAL_Driver/Src/stm32g0xx_hal_rcc_ex.c ****     {
 3447              		.loc 1 1526 8 discriminator 4 view .LVU1021
 3448 0090 1B07     		lsls	r3, r3, #28
 3449 0092 CAD5     		bpl	.L265
1526:Drivers/STM32G0xx_HAL_Driver/Src/stm32g0xx_hal_rcc_ex.c ****     {
 3450              		.loc 1 1526 8 discriminator 4 view .LVU1022
 3451 0094 C6E7     		b	.L278
 3452              	.L276:
1532:Drivers/STM32G0xx_HAL_Driver/Src/stm32g0xx_hal_rcc_ex.c **** 
1533:Drivers/STM32G0xx_HAL_Driver/Src/stm32g0xx_hal_rcc_ex.c ****   return crsstatus;
 3453              		.loc 1 1533 3 is_stmt 1 view .LVU1023
1534:Drivers/STM32G0xx_HAL_Driver/Src/stm32g0xx_hal_rcc_ex.c **** }
 3454              		.loc 1 1534 1 is_stmt 0 view .LVU1024
 3455 0096 2000     		movs	r0, r4
 3456              		@ sp needed
 3457              	.LVL290:
 3458              	.LVL291:
 3459              	.LVL292:
 3460              		.loc 1 1534 1 view .LVU1025
 3461 0098 70BD     		pop	{r4, r5, r6, pc}
 3462              	.L280:
 3463 009a C046     		.align	2
 3464              	.L279:
 3465 009c 006C0040 		.word	1073769472
 3466              		.cfi_endproc
 3467              	.LFE366:
 3469              		.section	.text.HAL_RCCEx_CRS_SyncOkCallback,"ax",%progbits
 3470              		.align	1
 3471              		.weak	HAL_RCCEx_CRS_SyncOkCallback
 3472              		.syntax unified
 3473              		.code	16
 3474              		.thumb_func
 3475              		.fpu softvfp
 3477              	HAL_RCCEx_CRS_SyncOkCallback:
 3478              	.LFB368:
1535:Drivers/STM32G0xx_HAL_Driver/Src/stm32g0xx_hal_rcc_ex.c **** 
1536:Drivers/STM32G0xx_HAL_Driver/Src/stm32g0xx_hal_rcc_ex.c **** /**
1537:Drivers/STM32G0xx_HAL_Driver/Src/stm32g0xx_hal_rcc_ex.c ****   * @brief Handle the Clock Recovery System interrupt request.
1538:Drivers/STM32G0xx_HAL_Driver/Src/stm32g0xx_hal_rcc_ex.c ****   * @retval None
1539:Drivers/STM32G0xx_HAL_Driver/Src/stm32g0xx_hal_rcc_ex.c ****   */
1540:Drivers/STM32G0xx_HAL_Driver/Src/stm32g0xx_hal_rcc_ex.c **** void HAL_RCCEx_CRS_IRQHandler(void)
1541:Drivers/STM32G0xx_HAL_Driver/Src/stm32g0xx_hal_rcc_ex.c **** {
1542:Drivers/STM32G0xx_HAL_Driver/Src/stm32g0xx_hal_rcc_ex.c ****   uint32_t crserror = RCC_CRS_NONE;
1543:Drivers/STM32G0xx_HAL_Driver/Src/stm32g0xx_hal_rcc_ex.c ****   /* Get current IT flags and IT sources values */
1544:Drivers/STM32G0xx_HAL_Driver/Src/stm32g0xx_hal_rcc_ex.c ****   uint32_t itflags = READ_REG(CRS->ISR);
1545:Drivers/STM32G0xx_HAL_Driver/Src/stm32g0xx_hal_rcc_ex.c ****   uint32_t itsources = READ_REG(CRS->CR);
1546:Drivers/STM32G0xx_HAL_Driver/Src/stm32g0xx_hal_rcc_ex.c **** 
1547:Drivers/STM32G0xx_HAL_Driver/Src/stm32g0xx_hal_rcc_ex.c ****   /* Check CRS SYNCOK flag  */
1548:Drivers/STM32G0xx_HAL_Driver/Src/stm32g0xx_hal_rcc_ex.c ****   if (((itflags & RCC_CRS_FLAG_SYNCOK) != 0U) && ((itsources & RCC_CRS_IT_SYNCOK) != 0U))
1549:Drivers/STM32G0xx_HAL_Driver/Src/stm32g0xx_hal_rcc_ex.c ****   {
1550:Drivers/STM32G0xx_HAL_Driver/Src/stm32g0xx_hal_rcc_ex.c ****     /* Clear CRS SYNC event OK flag */
1551:Drivers/STM32G0xx_HAL_Driver/Src/stm32g0xx_hal_rcc_ex.c ****     WRITE_REG(CRS->ICR, CRS_ICR_SYNCOKC);
1552:Drivers/STM32G0xx_HAL_Driver/Src/stm32g0xx_hal_rcc_ex.c **** 
ARM GAS  /tmp/ccVU8yv2.s 			page 99


1553:Drivers/STM32G0xx_HAL_Driver/Src/stm32g0xx_hal_rcc_ex.c ****     /* user callback */
1554:Drivers/STM32G0xx_HAL_Driver/Src/stm32g0xx_hal_rcc_ex.c ****     HAL_RCCEx_CRS_SyncOkCallback();
1555:Drivers/STM32G0xx_HAL_Driver/Src/stm32g0xx_hal_rcc_ex.c ****   }
1556:Drivers/STM32G0xx_HAL_Driver/Src/stm32g0xx_hal_rcc_ex.c ****   /* Check CRS SYNCWARN flag  */
1557:Drivers/STM32G0xx_HAL_Driver/Src/stm32g0xx_hal_rcc_ex.c ****   else if (((itflags & RCC_CRS_FLAG_SYNCWARN) != 0U) && ((itsources & RCC_CRS_IT_SYNCWARN) != 0U))
1558:Drivers/STM32G0xx_HAL_Driver/Src/stm32g0xx_hal_rcc_ex.c ****   {
1559:Drivers/STM32G0xx_HAL_Driver/Src/stm32g0xx_hal_rcc_ex.c ****     /* Clear CRS SYNCWARN flag */
1560:Drivers/STM32G0xx_HAL_Driver/Src/stm32g0xx_hal_rcc_ex.c ****     WRITE_REG(CRS->ICR, CRS_ICR_SYNCWARNC);
1561:Drivers/STM32G0xx_HAL_Driver/Src/stm32g0xx_hal_rcc_ex.c **** 
1562:Drivers/STM32G0xx_HAL_Driver/Src/stm32g0xx_hal_rcc_ex.c ****     /* user callback */
1563:Drivers/STM32G0xx_HAL_Driver/Src/stm32g0xx_hal_rcc_ex.c ****     HAL_RCCEx_CRS_SyncWarnCallback();
1564:Drivers/STM32G0xx_HAL_Driver/Src/stm32g0xx_hal_rcc_ex.c ****   }
1565:Drivers/STM32G0xx_HAL_Driver/Src/stm32g0xx_hal_rcc_ex.c ****   /* Check CRS Expected SYNC flag  */
1566:Drivers/STM32G0xx_HAL_Driver/Src/stm32g0xx_hal_rcc_ex.c ****   else if (((itflags & RCC_CRS_FLAG_ESYNC) != 0U) && ((itsources & RCC_CRS_IT_ESYNC) != 0U))
1567:Drivers/STM32G0xx_HAL_Driver/Src/stm32g0xx_hal_rcc_ex.c ****   {
1568:Drivers/STM32G0xx_HAL_Driver/Src/stm32g0xx_hal_rcc_ex.c ****     /* frequency error counter reached a zero value */
1569:Drivers/STM32G0xx_HAL_Driver/Src/stm32g0xx_hal_rcc_ex.c ****     WRITE_REG(CRS->ICR, CRS_ICR_ESYNCC);
1570:Drivers/STM32G0xx_HAL_Driver/Src/stm32g0xx_hal_rcc_ex.c **** 
1571:Drivers/STM32G0xx_HAL_Driver/Src/stm32g0xx_hal_rcc_ex.c ****     /* user callback */
1572:Drivers/STM32G0xx_HAL_Driver/Src/stm32g0xx_hal_rcc_ex.c ****     HAL_RCCEx_CRS_ExpectedSyncCallback();
1573:Drivers/STM32G0xx_HAL_Driver/Src/stm32g0xx_hal_rcc_ex.c ****   }
1574:Drivers/STM32G0xx_HAL_Driver/Src/stm32g0xx_hal_rcc_ex.c ****   /* Check CRS Error flags  */
1575:Drivers/STM32G0xx_HAL_Driver/Src/stm32g0xx_hal_rcc_ex.c ****   else
1576:Drivers/STM32G0xx_HAL_Driver/Src/stm32g0xx_hal_rcc_ex.c ****   {
1577:Drivers/STM32G0xx_HAL_Driver/Src/stm32g0xx_hal_rcc_ex.c ****     if (((itflags & RCC_CRS_FLAG_ERR) != 0U) && ((itsources & RCC_CRS_IT_ERR) != 0U))
1578:Drivers/STM32G0xx_HAL_Driver/Src/stm32g0xx_hal_rcc_ex.c ****     {
1579:Drivers/STM32G0xx_HAL_Driver/Src/stm32g0xx_hal_rcc_ex.c ****       if ((itflags & RCC_CRS_FLAG_SYNCERR) != 0U)
1580:Drivers/STM32G0xx_HAL_Driver/Src/stm32g0xx_hal_rcc_ex.c ****       {
1581:Drivers/STM32G0xx_HAL_Driver/Src/stm32g0xx_hal_rcc_ex.c ****         crserror |= RCC_CRS_SYNCERR;
1582:Drivers/STM32G0xx_HAL_Driver/Src/stm32g0xx_hal_rcc_ex.c ****       }
1583:Drivers/STM32G0xx_HAL_Driver/Src/stm32g0xx_hal_rcc_ex.c ****       if ((itflags & RCC_CRS_FLAG_SYNCMISS) != 0U)
1584:Drivers/STM32G0xx_HAL_Driver/Src/stm32g0xx_hal_rcc_ex.c ****       {
1585:Drivers/STM32G0xx_HAL_Driver/Src/stm32g0xx_hal_rcc_ex.c ****         crserror |= RCC_CRS_SYNCMISS;
1586:Drivers/STM32G0xx_HAL_Driver/Src/stm32g0xx_hal_rcc_ex.c ****       }
1587:Drivers/STM32G0xx_HAL_Driver/Src/stm32g0xx_hal_rcc_ex.c ****       if ((itflags & RCC_CRS_FLAG_TRIMOVF) != 0U)
1588:Drivers/STM32G0xx_HAL_Driver/Src/stm32g0xx_hal_rcc_ex.c ****       {
1589:Drivers/STM32G0xx_HAL_Driver/Src/stm32g0xx_hal_rcc_ex.c ****         crserror |= RCC_CRS_TRIMOVF;
1590:Drivers/STM32G0xx_HAL_Driver/Src/stm32g0xx_hal_rcc_ex.c ****       }
1591:Drivers/STM32G0xx_HAL_Driver/Src/stm32g0xx_hal_rcc_ex.c **** 
1592:Drivers/STM32G0xx_HAL_Driver/Src/stm32g0xx_hal_rcc_ex.c ****       /* Clear CRS Error flags */
1593:Drivers/STM32G0xx_HAL_Driver/Src/stm32g0xx_hal_rcc_ex.c ****       WRITE_REG(CRS->ICR, CRS_ICR_ERRC);
1594:Drivers/STM32G0xx_HAL_Driver/Src/stm32g0xx_hal_rcc_ex.c **** 
1595:Drivers/STM32G0xx_HAL_Driver/Src/stm32g0xx_hal_rcc_ex.c ****       /* user error callback */
1596:Drivers/STM32G0xx_HAL_Driver/Src/stm32g0xx_hal_rcc_ex.c ****       HAL_RCCEx_CRS_ErrorCallback(crserror);
1597:Drivers/STM32G0xx_HAL_Driver/Src/stm32g0xx_hal_rcc_ex.c ****     }
1598:Drivers/STM32G0xx_HAL_Driver/Src/stm32g0xx_hal_rcc_ex.c ****   }
1599:Drivers/STM32G0xx_HAL_Driver/Src/stm32g0xx_hal_rcc_ex.c **** }
1600:Drivers/STM32G0xx_HAL_Driver/Src/stm32g0xx_hal_rcc_ex.c **** 
1601:Drivers/STM32G0xx_HAL_Driver/Src/stm32g0xx_hal_rcc_ex.c **** /**
1602:Drivers/STM32G0xx_HAL_Driver/Src/stm32g0xx_hal_rcc_ex.c ****   * @brief  RCCEx Clock Recovery System SYNCOK interrupt callback.
1603:Drivers/STM32G0xx_HAL_Driver/Src/stm32g0xx_hal_rcc_ex.c ****   * @retval none
1604:Drivers/STM32G0xx_HAL_Driver/Src/stm32g0xx_hal_rcc_ex.c ****   */
1605:Drivers/STM32G0xx_HAL_Driver/Src/stm32g0xx_hal_rcc_ex.c **** __weak void HAL_RCCEx_CRS_SyncOkCallback(void)
1606:Drivers/STM32G0xx_HAL_Driver/Src/stm32g0xx_hal_rcc_ex.c **** {
 3479              		.loc 1 1606 1 is_stmt 1 view -0
 3480              		.cfi_startproc
 3481              		@ args = 0, pretend = 0, frame = 0
ARM GAS  /tmp/ccVU8yv2.s 			page 100


 3482              		@ frame_needed = 0, uses_anonymous_args = 0
 3483              		@ link register save eliminated.
1607:Drivers/STM32G0xx_HAL_Driver/Src/stm32g0xx_hal_rcc_ex.c ****   /* NOTE : This function should not be modified, when the callback is needed,
1608:Drivers/STM32G0xx_HAL_Driver/Src/stm32g0xx_hal_rcc_ex.c ****             the @ref HAL_RCCEx_CRS_SyncOkCallback should be implemented in the user file
1609:Drivers/STM32G0xx_HAL_Driver/Src/stm32g0xx_hal_rcc_ex.c ****    */
1610:Drivers/STM32G0xx_HAL_Driver/Src/stm32g0xx_hal_rcc_ex.c **** }
 3484              		.loc 1 1610 1 view .LVU1027
 3485              		@ sp needed
 3486 0000 7047     		bx	lr
 3487              		.cfi_endproc
 3488              	.LFE368:
 3490              		.section	.text.HAL_RCCEx_CRS_SyncWarnCallback,"ax",%progbits
 3491              		.align	1
 3492              		.weak	HAL_RCCEx_CRS_SyncWarnCallback
 3493              		.syntax unified
 3494              		.code	16
 3495              		.thumb_func
 3496              		.fpu softvfp
 3498              	HAL_RCCEx_CRS_SyncWarnCallback:
 3499              	.LFB369:
1611:Drivers/STM32G0xx_HAL_Driver/Src/stm32g0xx_hal_rcc_ex.c **** 
1612:Drivers/STM32G0xx_HAL_Driver/Src/stm32g0xx_hal_rcc_ex.c **** /**
1613:Drivers/STM32G0xx_HAL_Driver/Src/stm32g0xx_hal_rcc_ex.c ****   * @brief  RCCEx Clock Recovery System SYNCWARN interrupt callback.
1614:Drivers/STM32G0xx_HAL_Driver/Src/stm32g0xx_hal_rcc_ex.c ****   * @retval none
1615:Drivers/STM32G0xx_HAL_Driver/Src/stm32g0xx_hal_rcc_ex.c ****   */
1616:Drivers/STM32G0xx_HAL_Driver/Src/stm32g0xx_hal_rcc_ex.c **** __weak void HAL_RCCEx_CRS_SyncWarnCallback(void)
1617:Drivers/STM32G0xx_HAL_Driver/Src/stm32g0xx_hal_rcc_ex.c **** {
 3500              		.loc 1 1617 1 view -0
 3501              		.cfi_startproc
 3502              		@ args = 0, pretend = 0, frame = 0
 3503              		@ frame_needed = 0, uses_anonymous_args = 0
 3504              		@ link register save eliminated.
1618:Drivers/STM32G0xx_HAL_Driver/Src/stm32g0xx_hal_rcc_ex.c ****   /* NOTE : This function should not be modified, when the callback is needed,
1619:Drivers/STM32G0xx_HAL_Driver/Src/stm32g0xx_hal_rcc_ex.c ****             the @ref HAL_RCCEx_CRS_SyncWarnCallback should be implemented in the user file
1620:Drivers/STM32G0xx_HAL_Driver/Src/stm32g0xx_hal_rcc_ex.c ****    */
1621:Drivers/STM32G0xx_HAL_Driver/Src/stm32g0xx_hal_rcc_ex.c **** }
 3505              		.loc 1 1621 1 view .LVU1029
 3506              		@ sp needed
 3507 0000 7047     		bx	lr
 3508              		.cfi_endproc
 3509              	.LFE369:
 3511              		.section	.text.HAL_RCCEx_CRS_ExpectedSyncCallback,"ax",%progbits
 3512              		.align	1
 3513              		.weak	HAL_RCCEx_CRS_ExpectedSyncCallback
 3514              		.syntax unified
 3515              		.code	16
 3516              		.thumb_func
 3517              		.fpu softvfp
 3519              	HAL_RCCEx_CRS_ExpectedSyncCallback:
 3520              	.LFB370:
1622:Drivers/STM32G0xx_HAL_Driver/Src/stm32g0xx_hal_rcc_ex.c **** 
1623:Drivers/STM32G0xx_HAL_Driver/Src/stm32g0xx_hal_rcc_ex.c **** /**
1624:Drivers/STM32G0xx_HAL_Driver/Src/stm32g0xx_hal_rcc_ex.c ****   * @brief  RCCEx Clock Recovery System Expected SYNC interrupt callback.
1625:Drivers/STM32G0xx_HAL_Driver/Src/stm32g0xx_hal_rcc_ex.c ****   * @retval none
1626:Drivers/STM32G0xx_HAL_Driver/Src/stm32g0xx_hal_rcc_ex.c ****   */
1627:Drivers/STM32G0xx_HAL_Driver/Src/stm32g0xx_hal_rcc_ex.c **** __weak void HAL_RCCEx_CRS_ExpectedSyncCallback(void)
1628:Drivers/STM32G0xx_HAL_Driver/Src/stm32g0xx_hal_rcc_ex.c **** {
ARM GAS  /tmp/ccVU8yv2.s 			page 101


 3521              		.loc 1 1628 1 view -0
 3522              		.cfi_startproc
 3523              		@ args = 0, pretend = 0, frame = 0
 3524              		@ frame_needed = 0, uses_anonymous_args = 0
 3525              		@ link register save eliminated.
1629:Drivers/STM32G0xx_HAL_Driver/Src/stm32g0xx_hal_rcc_ex.c ****   /* NOTE : This function should not be modified, when the callback is needed,
1630:Drivers/STM32G0xx_HAL_Driver/Src/stm32g0xx_hal_rcc_ex.c ****             the @ref HAL_RCCEx_CRS_ExpectedSyncCallback should be implemented in the user file
1631:Drivers/STM32G0xx_HAL_Driver/Src/stm32g0xx_hal_rcc_ex.c ****    */
1632:Drivers/STM32G0xx_HAL_Driver/Src/stm32g0xx_hal_rcc_ex.c **** }
 3526              		.loc 1 1632 1 view .LVU1031
 3527              		@ sp needed
 3528 0000 7047     		bx	lr
 3529              		.cfi_endproc
 3530              	.LFE370:
 3532              		.section	.text.HAL_RCCEx_CRS_ErrorCallback,"ax",%progbits
 3533              		.align	1
 3534              		.weak	HAL_RCCEx_CRS_ErrorCallback
 3535              		.syntax unified
 3536              		.code	16
 3537              		.thumb_func
 3538              		.fpu softvfp
 3540              	HAL_RCCEx_CRS_ErrorCallback:
 3541              	.LVL293:
 3542              	.LFB371:
1633:Drivers/STM32G0xx_HAL_Driver/Src/stm32g0xx_hal_rcc_ex.c **** 
1634:Drivers/STM32G0xx_HAL_Driver/Src/stm32g0xx_hal_rcc_ex.c **** /**
1635:Drivers/STM32G0xx_HAL_Driver/Src/stm32g0xx_hal_rcc_ex.c ****   * @brief  RCCEx Clock Recovery System Error interrupt callback.
1636:Drivers/STM32G0xx_HAL_Driver/Src/stm32g0xx_hal_rcc_ex.c ****   * @param  Error Combination of Error status.
1637:Drivers/STM32G0xx_HAL_Driver/Src/stm32g0xx_hal_rcc_ex.c ****   *         This parameter can be a combination of the following values:
1638:Drivers/STM32G0xx_HAL_Driver/Src/stm32g0xx_hal_rcc_ex.c ****   *           @arg @ref RCC_CRS_SYNCERR
1639:Drivers/STM32G0xx_HAL_Driver/Src/stm32g0xx_hal_rcc_ex.c ****   *           @arg @ref RCC_CRS_SYNCMISS
1640:Drivers/STM32G0xx_HAL_Driver/Src/stm32g0xx_hal_rcc_ex.c ****   *           @arg @ref RCC_CRS_TRIMOVF
1641:Drivers/STM32G0xx_HAL_Driver/Src/stm32g0xx_hal_rcc_ex.c ****   * @retval none
1642:Drivers/STM32G0xx_HAL_Driver/Src/stm32g0xx_hal_rcc_ex.c ****   */
1643:Drivers/STM32G0xx_HAL_Driver/Src/stm32g0xx_hal_rcc_ex.c **** __weak void HAL_RCCEx_CRS_ErrorCallback(uint32_t Error)
1644:Drivers/STM32G0xx_HAL_Driver/Src/stm32g0xx_hal_rcc_ex.c **** {
 3543              		.loc 1 1644 1 view -0
 3544              		.cfi_startproc
 3545              		@ args = 0, pretend = 0, frame = 0
 3546              		@ frame_needed = 0, uses_anonymous_args = 0
 3547              		@ link register save eliminated.
1645:Drivers/STM32G0xx_HAL_Driver/Src/stm32g0xx_hal_rcc_ex.c ****   /* Prevent unused argument(s) compilation warning */
1646:Drivers/STM32G0xx_HAL_Driver/Src/stm32g0xx_hal_rcc_ex.c ****   UNUSED(Error);
 3548              		.loc 1 1646 3 view .LVU1033
1647:Drivers/STM32G0xx_HAL_Driver/Src/stm32g0xx_hal_rcc_ex.c **** 
1648:Drivers/STM32G0xx_HAL_Driver/Src/stm32g0xx_hal_rcc_ex.c ****   /* NOTE : This function should not be modified, when the callback is needed,
1649:Drivers/STM32G0xx_HAL_Driver/Src/stm32g0xx_hal_rcc_ex.c ****             the @ref HAL_RCCEx_CRS_ErrorCallback should be implemented in the user file
1650:Drivers/STM32G0xx_HAL_Driver/Src/stm32g0xx_hal_rcc_ex.c ****    */
1651:Drivers/STM32G0xx_HAL_Driver/Src/stm32g0xx_hal_rcc_ex.c **** }
 3549              		.loc 1 1651 1 is_stmt 0 view .LVU1034
 3550              		@ sp needed
 3551 0000 7047     		bx	lr
 3552              		.cfi_endproc
 3553              	.LFE371:
 3555              		.section	.text.HAL_RCCEx_CRS_IRQHandler,"ax",%progbits
 3556              		.align	1
 3557              		.global	HAL_RCCEx_CRS_IRQHandler
ARM GAS  /tmp/ccVU8yv2.s 			page 102


 3558              		.syntax unified
 3559              		.code	16
 3560              		.thumb_func
 3561              		.fpu softvfp
 3563              	HAL_RCCEx_CRS_IRQHandler:
 3564              	.LFB367:
1541:Drivers/STM32G0xx_HAL_Driver/Src/stm32g0xx_hal_rcc_ex.c ****   uint32_t crserror = RCC_CRS_NONE;
 3565              		.loc 1 1541 1 is_stmt 1 view -0
 3566              		.cfi_startproc
 3567              		@ args = 0, pretend = 0, frame = 0
 3568              		@ frame_needed = 0, uses_anonymous_args = 0
 3569 0000 10B5     		push	{r4, lr}
 3570              	.LCFI9:
 3571              		.cfi_def_cfa_offset 8
 3572              		.cfi_offset 4, -8
 3573              		.cfi_offset 14, -4
1542:Drivers/STM32G0xx_HAL_Driver/Src/stm32g0xx_hal_rcc_ex.c ****   /* Get current IT flags and IT sources values */
 3574              		.loc 1 1542 3 view .LVU1036
 3575              	.LVL294:
1544:Drivers/STM32G0xx_HAL_Driver/Src/stm32g0xx_hal_rcc_ex.c ****   uint32_t itsources = READ_REG(CRS->CR);
 3576              		.loc 1 1544 3 view .LVU1037
1544:Drivers/STM32G0xx_HAL_Driver/Src/stm32g0xx_hal_rcc_ex.c ****   uint32_t itsources = READ_REG(CRS->CR);
 3577              		.loc 1 1544 12 is_stmt 0 view .LVU1038
 3578 0002 1D4A     		ldr	r2, .L307
 3579 0004 9368     		ldr	r3, [r2, #8]
 3580              	.LVL295:
1545:Drivers/STM32G0xx_HAL_Driver/Src/stm32g0xx_hal_rcc_ex.c **** 
 3581              		.loc 1 1545 3 is_stmt 1 view .LVU1039
1545:Drivers/STM32G0xx_HAL_Driver/Src/stm32g0xx_hal_rcc_ex.c **** 
 3582              		.loc 1 1545 12 is_stmt 0 view .LVU1040
 3583 0006 1268     		ldr	r2, [r2]
 3584              	.LVL296:
1548:Drivers/STM32G0xx_HAL_Driver/Src/stm32g0xx_hal_rcc_ex.c ****   {
 3585              		.loc 1 1548 3 is_stmt 1 view .LVU1041
1548:Drivers/STM32G0xx_HAL_Driver/Src/stm32g0xx_hal_rcc_ex.c ****   {
 3586              		.loc 1 1548 6 is_stmt 0 view .LVU1042
 3587 0008 D907     		lsls	r1, r3, #31
 3588 000a 01D5     		bpl	.L286
1548:Drivers/STM32G0xx_HAL_Driver/Src/stm32g0xx_hal_rcc_ex.c ****   {
 3589              		.loc 1 1548 47 discriminator 1 view .LVU1043
 3590 000c D107     		lsls	r1, r2, #31
 3591 000e 20D4     		bmi	.L304
 3592              	.L286:
1557:Drivers/STM32G0xx_HAL_Driver/Src/stm32g0xx_hal_rcc_ex.c ****   {
 3593              		.loc 1 1557 8 is_stmt 1 view .LVU1044
1557:Drivers/STM32G0xx_HAL_Driver/Src/stm32g0xx_hal_rcc_ex.c ****   {
 3594              		.loc 1 1557 11 is_stmt 0 view .LVU1045
 3595 0010 9907     		lsls	r1, r3, #30
 3596 0012 01D5     		bpl	.L288
1557:Drivers/STM32G0xx_HAL_Driver/Src/stm32g0xx_hal_rcc_ex.c ****   {
 3597              		.loc 1 1557 54 discriminator 1 view .LVU1046
 3598 0014 9107     		lsls	r1, r2, #30
 3599 0016 22D4     		bmi	.L305
 3600              	.L288:
1566:Drivers/STM32G0xx_HAL_Driver/Src/stm32g0xx_hal_rcc_ex.c ****   {
 3601              		.loc 1 1566 8 is_stmt 1 view .LVU1047
1566:Drivers/STM32G0xx_HAL_Driver/Src/stm32g0xx_hal_rcc_ex.c ****   {
ARM GAS  /tmp/ccVU8yv2.s 			page 103


 3602              		.loc 1 1566 11 is_stmt 0 view .LVU1048
 3603 0018 1907     		lsls	r1, r3, #28
 3604 001a 01D5     		bpl	.L289
1566:Drivers/STM32G0xx_HAL_Driver/Src/stm32g0xx_hal_rcc_ex.c ****   {
 3605              		.loc 1 1566 51 discriminator 1 view .LVU1049
 3606 001c 1107     		lsls	r1, r2, #28
 3607 001e 24D4     		bmi	.L306
 3608              	.L289:
1577:Drivers/STM32G0xx_HAL_Driver/Src/stm32g0xx_hal_rcc_ex.c ****     {
 3609              		.loc 1 1577 5 is_stmt 1 view .LVU1050
1577:Drivers/STM32G0xx_HAL_Driver/Src/stm32g0xx_hal_rcc_ex.c ****     {
 3610              		.loc 1 1577 8 is_stmt 0 view .LVU1051
 3611 0020 5907     		lsls	r1, r3, #29
 3612 0022 1BD5     		bpl	.L285
1577:Drivers/STM32G0xx_HAL_Driver/Src/stm32g0xx_hal_rcc_ex.c ****     {
 3613              		.loc 1 1577 46 discriminator 1 view .LVU1052
 3614 0024 5207     		lsls	r2, r2, #29
 3615 0026 19D5     		bpl	.L285
 3616              	.LVL297:
1579:Drivers/STM32G0xx_HAL_Driver/Src/stm32g0xx_hal_rcc_ex.c ****       {
 3617              		.loc 1 1579 7 is_stmt 1 view .LVU1053
1579:Drivers/STM32G0xx_HAL_Driver/Src/stm32g0xx_hal_rcc_ex.c ****       {
 3618              		.loc 1 1579 20 is_stmt 0 view .LVU1054
 3619 0028 8022     		movs	r2, #128
 3620 002a 5200     		lsls	r2, r2, #1
 3621 002c 1800     		movs	r0, r3
 3622 002e 1040     		ands	r0, r2
1579:Drivers/STM32G0xx_HAL_Driver/Src/stm32g0xx_hal_rcc_ex.c ****       {
 3623              		.loc 1 1579 10 view .LVU1055
 3624 0030 1342     		tst	r3, r2
 3625 0032 00D0     		beq	.L290
1581:Drivers/STM32G0xx_HAL_Driver/Src/stm32g0xx_hal_rcc_ex.c ****       }
 3626              		.loc 1 1581 18 view .LVU1056
 3627 0034 0820     		movs	r0, #8
 3628              	.L290:
 3629              	.LVL298:
1583:Drivers/STM32G0xx_HAL_Driver/Src/stm32g0xx_hal_rcc_ex.c ****       {
 3630              		.loc 1 1583 7 is_stmt 1 view .LVU1057
1583:Drivers/STM32G0xx_HAL_Driver/Src/stm32g0xx_hal_rcc_ex.c ****       {
 3631              		.loc 1 1583 10 is_stmt 0 view .LVU1058
 3632 0036 9A05     		lsls	r2, r3, #22
 3633 0038 01D5     		bpl	.L291
1585:Drivers/STM32G0xx_HAL_Driver/Src/stm32g0xx_hal_rcc_ex.c ****       }
 3634              		.loc 1 1585 9 is_stmt 1 view .LVU1059
1585:Drivers/STM32G0xx_HAL_Driver/Src/stm32g0xx_hal_rcc_ex.c ****       }
 3635              		.loc 1 1585 18 is_stmt 0 view .LVU1060
 3636 003a 1022     		movs	r2, #16
 3637 003c 1043     		orrs	r0, r2
 3638              	.LVL299:
 3639              	.L291:
1587:Drivers/STM32G0xx_HAL_Driver/Src/stm32g0xx_hal_rcc_ex.c ****       {
 3640              		.loc 1 1587 7 is_stmt 1 view .LVU1061
1587:Drivers/STM32G0xx_HAL_Driver/Src/stm32g0xx_hal_rcc_ex.c ****       {
 3641              		.loc 1 1587 10 is_stmt 0 view .LVU1062
 3642 003e 5B05     		lsls	r3, r3, #21
 3643 0040 01D5     		bpl	.L292
 3644              	.LVL300:
ARM GAS  /tmp/ccVU8yv2.s 			page 104


1589:Drivers/STM32G0xx_HAL_Driver/Src/stm32g0xx_hal_rcc_ex.c ****       }
 3645              		.loc 1 1589 9 is_stmt 1 view .LVU1063
1589:Drivers/STM32G0xx_HAL_Driver/Src/stm32g0xx_hal_rcc_ex.c ****       }
 3646              		.loc 1 1589 18 is_stmt 0 view .LVU1064
 3647 0042 2023     		movs	r3, #32
 3648 0044 1843     		orrs	r0, r3
 3649              	.LVL301:
 3650              	.L292:
1593:Drivers/STM32G0xx_HAL_Driver/Src/stm32g0xx_hal_rcc_ex.c **** 
 3651              		.loc 1 1593 7 is_stmt 1 view .LVU1065
 3652 0046 0C4B     		ldr	r3, .L307
 3653 0048 0422     		movs	r2, #4
 3654 004a DA60     		str	r2, [r3, #12]
1596:Drivers/STM32G0xx_HAL_Driver/Src/stm32g0xx_hal_rcc_ex.c ****     }
 3655              		.loc 1 1596 7 view .LVU1066
 3656 004c FFF7FEFF 		bl	HAL_RCCEx_CRS_ErrorCallback
 3657              	.LVL302:
1599:Drivers/STM32G0xx_HAL_Driver/Src/stm32g0xx_hal_rcc_ex.c **** 
 3658              		.loc 1 1599 1 is_stmt 0 view .LVU1067
 3659 0050 04E0     		b	.L285
 3660              	.LVL303:
 3661              	.L304:
1551:Drivers/STM32G0xx_HAL_Driver/Src/stm32g0xx_hal_rcc_ex.c **** 
 3662              		.loc 1 1551 5 is_stmt 1 view .LVU1068
 3663 0052 094B     		ldr	r3, .L307
 3664              	.LVL304:
1551:Drivers/STM32G0xx_HAL_Driver/Src/stm32g0xx_hal_rcc_ex.c **** 
 3665              		.loc 1 1551 5 is_stmt 0 view .LVU1069
 3666 0054 0122     		movs	r2, #1
 3667              	.LVL305:
1551:Drivers/STM32G0xx_HAL_Driver/Src/stm32g0xx_hal_rcc_ex.c **** 
 3668              		.loc 1 1551 5 view .LVU1070
 3669 0056 DA60     		str	r2, [r3, #12]
1554:Drivers/STM32G0xx_HAL_Driver/Src/stm32g0xx_hal_rcc_ex.c ****   }
 3670              		.loc 1 1554 5 is_stmt 1 view .LVU1071
 3671 0058 FFF7FEFF 		bl	HAL_RCCEx_CRS_SyncOkCallback
 3672              	.LVL306:
 3673              	.L285:
1599:Drivers/STM32G0xx_HAL_Driver/Src/stm32g0xx_hal_rcc_ex.c **** 
 3674              		.loc 1 1599 1 is_stmt 0 view .LVU1072
 3675              		@ sp needed
 3676 005c 10BD     		pop	{r4, pc}
 3677              	.LVL307:
 3678              	.L305:
1560:Drivers/STM32G0xx_HAL_Driver/Src/stm32g0xx_hal_rcc_ex.c **** 
 3679              		.loc 1 1560 5 is_stmt 1 view .LVU1073
 3680 005e 064B     		ldr	r3, .L307
 3681              	.LVL308:
1560:Drivers/STM32G0xx_HAL_Driver/Src/stm32g0xx_hal_rcc_ex.c **** 
 3682              		.loc 1 1560 5 is_stmt 0 view .LVU1074
 3683 0060 0222     		movs	r2, #2
 3684              	.LVL309:
1560:Drivers/STM32G0xx_HAL_Driver/Src/stm32g0xx_hal_rcc_ex.c **** 
 3685              		.loc 1 1560 5 view .LVU1075
 3686 0062 DA60     		str	r2, [r3, #12]
1563:Drivers/STM32G0xx_HAL_Driver/Src/stm32g0xx_hal_rcc_ex.c ****   }
 3687              		.loc 1 1563 5 is_stmt 1 view .LVU1076
ARM GAS  /tmp/ccVU8yv2.s 			page 105


 3688 0064 FFF7FEFF 		bl	HAL_RCCEx_CRS_SyncWarnCallback
 3689              	.LVL310:
 3690 0068 F8E7     		b	.L285
 3691              	.LVL311:
 3692              	.L306:
1569:Drivers/STM32G0xx_HAL_Driver/Src/stm32g0xx_hal_rcc_ex.c **** 
 3693              		.loc 1 1569 5 view .LVU1077
 3694 006a 034B     		ldr	r3, .L307
 3695              	.LVL312:
1569:Drivers/STM32G0xx_HAL_Driver/Src/stm32g0xx_hal_rcc_ex.c **** 
 3696              		.loc 1 1569 5 is_stmt 0 view .LVU1078
 3697 006c 0822     		movs	r2, #8
 3698              	.LVL313:
1569:Drivers/STM32G0xx_HAL_Driver/Src/stm32g0xx_hal_rcc_ex.c **** 
 3699              		.loc 1 1569 5 view .LVU1079
 3700 006e DA60     		str	r2, [r3, #12]
1572:Drivers/STM32G0xx_HAL_Driver/Src/stm32g0xx_hal_rcc_ex.c ****   }
 3701              		.loc 1 1572 5 is_stmt 1 view .LVU1080
 3702 0070 FFF7FEFF 		bl	HAL_RCCEx_CRS_ExpectedSyncCallback
 3703              	.LVL314:
 3704 0074 F2E7     		b	.L285
 3705              	.L308:
 3706 0076 C046     		.align	2
 3707              	.L307:
 3708 0078 006C0040 		.word	1073769472
 3709              		.cfi_endproc
 3710              	.LFE367:
 3712              		.text
 3713              	.Letext0:
 3714              		.file 2 "/usr/arm-none-eabi/include/machine/_default_types.h"
 3715              		.file 3 "/usr/arm-none-eabi/include/sys/_stdint.h"
 3716              		.file 4 "Drivers/CMSIS/Device/ST/STM32G0xx/Include/stm32g0b1xx.h"
 3717              		.file 5 "Drivers/CMSIS/Device/ST/STM32G0xx/Include/stm32g0xx.h"
 3718              		.file 6 "Drivers/STM32G0xx_HAL_Driver/Inc/stm32g0xx_hal_def.h"
 3719              		.file 7 "Drivers/STM32G0xx_HAL_Driver/Inc/stm32g0xx_hal_rcc_ex.h"
 3720              		.file 8 "Drivers/STM32G0xx_HAL_Driver/Inc/stm32g0xx_hal_gpio.h"
 3721              		.file 9 "Drivers/STM32G0xx_HAL_Driver/Inc/stm32g0xx_hal_pwr.h"
 3722              		.file 10 "Drivers/STM32G0xx_HAL_Driver/Inc/stm32g0xx_hal_rcc.h"
 3723              		.file 11 "Drivers/STM32G0xx_HAL_Driver/Inc/stm32g0xx_hal.h"
 3724              		.file 12 "Drivers/STM32G0xx_HAL_Driver/Inc/stm32g0xx_ll_dma.h"
ARM GAS  /tmp/ccVU8yv2.s 			page 106


DEFINED SYMBOLS
                            *ABS*:0000000000000000 stm32g0xx_hal_rcc_ex.c
     /tmp/ccVU8yv2.s:16     .text.HAL_RCCEx_PeriphCLKConfig:0000000000000000 $t
     /tmp/ccVU8yv2.s:24     .text.HAL_RCCEx_PeriphCLKConfig:0000000000000000 HAL_RCCEx_PeriphCLKConfig
     /tmp/ccVU8yv2.s:659    .text.HAL_RCCEx_PeriphCLKConfig:00000000000002c8 $d
     /tmp/ccVU8yv2.s:676    .text.HAL_RCCEx_GetPeriphCLKConfig:0000000000000000 $t
     /tmp/ccVU8yv2.s:683    .text.HAL_RCCEx_GetPeriphCLKConfig:0000000000000000 HAL_RCCEx_GetPeriphCLKConfig
     /tmp/ccVU8yv2.s:887    .text.HAL_RCCEx_GetPeriphCLKConfig:00000000000000d0 $d
     /tmp/ccVU8yv2.s:906    .text.HAL_RCCEx_GetPeriphCLKFreq:0000000000000000 $t
     /tmp/ccVU8yv2.s:913    .text.HAL_RCCEx_GetPeriphCLKFreq:0000000000000000 HAL_RCCEx_GetPeriphCLKFreq
     /tmp/ccVU8yv2.s:1004   .rodata.HAL_RCCEx_GetPeriphCLKFreq:0000000000000000 $d
     /tmp/ccVU8yv2.s:1670   .text.HAL_RCCEx_GetPeriphCLKFreq:000000000000030c $d
     /tmp/ccVU8yv2.s:1678   .text.HAL_RCCEx_GetPeriphCLKFreq:000000000000031c $t
     /tmp/ccVU8yv2.s:2478   .text.HAL_RCCEx_GetPeriphCLKFreq:0000000000000640 $d
     /tmp/ccVU8yv2.s:2484   .text.HAL_RCCEx_GetPeriphCLKFreq:0000000000000648 $t
     /tmp/ccVU8yv2.s:2757   .text.HAL_RCCEx_GetPeriphCLKFreq:0000000000000724 $d
     /tmp/ccVU8yv2.s:2767   .text.HAL_RCCEx_EnableLSCO:0000000000000000 $t
     /tmp/ccVU8yv2.s:2774   .text.HAL_RCCEx_EnableLSCO:0000000000000000 HAL_RCCEx_EnableLSCO
     /tmp/ccVU8yv2.s:2938   .text.HAL_RCCEx_EnableLSCO:0000000000000090 $d
     /tmp/ccVU8yv2.s:2946   .text.HAL_RCCEx_DisableLSCO:0000000000000000 $t
     /tmp/ccVU8yv2.s:2953   .text.HAL_RCCEx_DisableLSCO:0000000000000000 HAL_RCCEx_DisableLSCO
     /tmp/ccVU8yv2.s:3068   .text.HAL_RCCEx_DisableLSCO:0000000000000060 $d
     /tmp/ccVU8yv2.s:3076   .text.HAL_RCCEx_CRSConfig:0000000000000000 $t
     /tmp/ccVU8yv2.s:3083   .text.HAL_RCCEx_CRSConfig:0000000000000000 HAL_RCCEx_CRSConfig
     /tmp/ccVU8yv2.s:3161   .text.HAL_RCCEx_CRSConfig:0000000000000044 $d
     /tmp/ccVU8yv2.s:3169   .text.HAL_RCCEx_CRSSoftwareSynchronizationGenerate:0000000000000000 $t
     /tmp/ccVU8yv2.s:3176   .text.HAL_RCCEx_CRSSoftwareSynchronizationGenerate:0000000000000000 HAL_RCCEx_CRSSoftwareSynchronizationGenerate
     /tmp/ccVU8yv2.s:3195   .text.HAL_RCCEx_CRSSoftwareSynchronizationGenerate:000000000000000c $d
     /tmp/ccVU8yv2.s:3200   .text.HAL_RCCEx_CRSGetSynchronizationInfo:0000000000000000 $t
     /tmp/ccVU8yv2.s:3207   .text.HAL_RCCEx_CRSGetSynchronizationInfo:0000000000000000 HAL_RCCEx_CRSGetSynchronizationInfo
     /tmp/ccVU8yv2.s:3254   .text.HAL_RCCEx_CRSGetSynchronizationInfo:0000000000000028 $d
     /tmp/ccVU8yv2.s:3259   .text.HAL_RCCEx_CRSWaitSynchronization:0000000000000000 $t
     /tmp/ccVU8yv2.s:3266   .text.HAL_RCCEx_CRSWaitSynchronization:0000000000000000 HAL_RCCEx_CRSWaitSynchronization
     /tmp/ccVU8yv2.s:3465   .text.HAL_RCCEx_CRSWaitSynchronization:000000000000009c $d
     /tmp/ccVU8yv2.s:3470   .text.HAL_RCCEx_CRS_SyncOkCallback:0000000000000000 $t
     /tmp/ccVU8yv2.s:3477   .text.HAL_RCCEx_CRS_SyncOkCallback:0000000000000000 HAL_RCCEx_CRS_SyncOkCallback
     /tmp/ccVU8yv2.s:3491   .text.HAL_RCCEx_CRS_SyncWarnCallback:0000000000000000 $t
     /tmp/ccVU8yv2.s:3498   .text.HAL_RCCEx_CRS_SyncWarnCallback:0000000000000000 HAL_RCCEx_CRS_SyncWarnCallback
     /tmp/ccVU8yv2.s:3512   .text.HAL_RCCEx_CRS_ExpectedSyncCallback:0000000000000000 $t
     /tmp/ccVU8yv2.s:3519   .text.HAL_RCCEx_CRS_ExpectedSyncCallback:0000000000000000 HAL_RCCEx_CRS_ExpectedSyncCallback
     /tmp/ccVU8yv2.s:3533   .text.HAL_RCCEx_CRS_ErrorCallback:0000000000000000 $t
     /tmp/ccVU8yv2.s:3540   .text.HAL_RCCEx_CRS_ErrorCallback:0000000000000000 HAL_RCCEx_CRS_ErrorCallback
     /tmp/ccVU8yv2.s:3556   .text.HAL_RCCEx_CRS_IRQHandler:0000000000000000 $t
     /tmp/ccVU8yv2.s:3563   .text.HAL_RCCEx_CRS_IRQHandler:0000000000000000 HAL_RCCEx_CRS_IRQHandler
     /tmp/ccVU8yv2.s:3708   .text.HAL_RCCEx_CRS_IRQHandler:0000000000000078 $d

UNDEFINED SYMBOLS
HAL_GetTick
__aeabi_uidiv
HAL_RCC_GetPCLK1Freq
HAL_RCC_GetSysClockFreq
HAL_GPIO_Init
HAL_PWR_EnableBkUpAccess
HAL_PWR_DisableBkUpAccess
