ARM GAS  /tmp/ccFvkBSI.s 			page 1


   1              		.cpu cortex-m0plus
   2              		.arch armv6s-m
   3              		.fpu softvfp
   4              		.eabi_attribute 20, 1
   5              		.eabi_attribute 21, 1
   6              		.eabi_attribute 23, 3
   7              		.eabi_attribute 24, 1
   8              		.eabi_attribute 25, 1
   9              		.eabi_attribute 26, 1
  10              		.eabi_attribute 30, 1
  11              		.eabi_attribute 34, 0
  12              		.eabi_attribute 18, 4
  13              		.file	"stm32g0xx_hal_pcd.c"
  14              		.text
  15              	.Ltext0:
  16              		.cfi_sections	.debug_frame
  17              		.file 1 "Drivers/STM32G0xx_HAL_Driver/Src/stm32g0xx_hal_pcd.c"
  18              		.section	.text.PCD_GET_EP_RX_CNT,"ax",%progbits
  19              		.align	1
  20              		.syntax unified
  21              		.code	16
  22              		.thumb_func
  24              	PCD_GET_EP_RX_CNT:
  25              	.LVL0:
  26              	.LFB355:
  27              		.file 2 "Drivers/STM32G0xx_HAL_Driver/Inc/stm32g0xx_hal_pcd.h"
   1:Drivers/STM32G0xx_HAL_Driver/Inc/stm32g0xx_hal_pcd.h **** /**
   2:Drivers/STM32G0xx_HAL_Driver/Inc/stm32g0xx_hal_pcd.h ****   ******************************************************************************
   3:Drivers/STM32G0xx_HAL_Driver/Inc/stm32g0xx_hal_pcd.h ****   * @file    stm32g0xx_hal_pcd.h
   4:Drivers/STM32G0xx_HAL_Driver/Inc/stm32g0xx_hal_pcd.h ****   * @author  MCD Application Team
   5:Drivers/STM32G0xx_HAL_Driver/Inc/stm32g0xx_hal_pcd.h ****   * @brief   Header file of PCD HAL module.
   6:Drivers/STM32G0xx_HAL_Driver/Inc/stm32g0xx_hal_pcd.h ****   ******************************************************************************
   7:Drivers/STM32G0xx_HAL_Driver/Inc/stm32g0xx_hal_pcd.h ****   * @attention
   8:Drivers/STM32G0xx_HAL_Driver/Inc/stm32g0xx_hal_pcd.h ****   *
   9:Drivers/STM32G0xx_HAL_Driver/Inc/stm32g0xx_hal_pcd.h ****   * <h2><center>&copy; Copyright (c) 2018 STMicroelectronics.
  10:Drivers/STM32G0xx_HAL_Driver/Inc/stm32g0xx_hal_pcd.h ****   * All rights reserved.</center></h2>
  11:Drivers/STM32G0xx_HAL_Driver/Inc/stm32g0xx_hal_pcd.h ****   *
  12:Drivers/STM32G0xx_HAL_Driver/Inc/stm32g0xx_hal_pcd.h ****   * This software component is licensed by ST under BSD 3-Clause license,
  13:Drivers/STM32G0xx_HAL_Driver/Inc/stm32g0xx_hal_pcd.h ****   * the "License"; You may not use this file except in compliance with the
  14:Drivers/STM32G0xx_HAL_Driver/Inc/stm32g0xx_hal_pcd.h ****   * License. You may obtain a copy of the License at:
  15:Drivers/STM32G0xx_HAL_Driver/Inc/stm32g0xx_hal_pcd.h ****   *                        opensource.org/licenses/BSD-3-Clause
  16:Drivers/STM32G0xx_HAL_Driver/Inc/stm32g0xx_hal_pcd.h ****   *
  17:Drivers/STM32G0xx_HAL_Driver/Inc/stm32g0xx_hal_pcd.h ****   ******************************************************************************
  18:Drivers/STM32G0xx_HAL_Driver/Inc/stm32g0xx_hal_pcd.h ****   */
  19:Drivers/STM32G0xx_HAL_Driver/Inc/stm32g0xx_hal_pcd.h **** 
  20:Drivers/STM32G0xx_HAL_Driver/Inc/stm32g0xx_hal_pcd.h **** /* Define to prevent recursive inclusion -------------------------------------*/
  21:Drivers/STM32G0xx_HAL_Driver/Inc/stm32g0xx_hal_pcd.h **** #ifndef STM32G0xx_HAL_PCD_H
  22:Drivers/STM32G0xx_HAL_Driver/Inc/stm32g0xx_hal_pcd.h **** #define STM32G0xx_HAL_PCD_H
  23:Drivers/STM32G0xx_HAL_Driver/Inc/stm32g0xx_hal_pcd.h **** 
  24:Drivers/STM32G0xx_HAL_Driver/Inc/stm32g0xx_hal_pcd.h **** #ifdef __cplusplus
  25:Drivers/STM32G0xx_HAL_Driver/Inc/stm32g0xx_hal_pcd.h **** extern "C" {
  26:Drivers/STM32G0xx_HAL_Driver/Inc/stm32g0xx_hal_pcd.h **** #endif
  27:Drivers/STM32G0xx_HAL_Driver/Inc/stm32g0xx_hal_pcd.h **** 
  28:Drivers/STM32G0xx_HAL_Driver/Inc/stm32g0xx_hal_pcd.h **** /* Includes ------------------------------------------------------------------*/
  29:Drivers/STM32G0xx_HAL_Driver/Inc/stm32g0xx_hal_pcd.h **** #include "stm32g0xx_ll_usb.h"
  30:Drivers/STM32G0xx_HAL_Driver/Inc/stm32g0xx_hal_pcd.h **** 
  31:Drivers/STM32G0xx_HAL_Driver/Inc/stm32g0xx_hal_pcd.h **** #if defined (USB_DRD_FS)
ARM GAS  /tmp/ccFvkBSI.s 			page 2


  32:Drivers/STM32G0xx_HAL_Driver/Inc/stm32g0xx_hal_pcd.h **** 
  33:Drivers/STM32G0xx_HAL_Driver/Inc/stm32g0xx_hal_pcd.h **** /** @addtogroup STM32G0xx_HAL_Driver
  34:Drivers/STM32G0xx_HAL_Driver/Inc/stm32g0xx_hal_pcd.h ****   * @{
  35:Drivers/STM32G0xx_HAL_Driver/Inc/stm32g0xx_hal_pcd.h ****   */
  36:Drivers/STM32G0xx_HAL_Driver/Inc/stm32g0xx_hal_pcd.h **** 
  37:Drivers/STM32G0xx_HAL_Driver/Inc/stm32g0xx_hal_pcd.h **** /** @addtogroup PCD
  38:Drivers/STM32G0xx_HAL_Driver/Inc/stm32g0xx_hal_pcd.h ****   * @{
  39:Drivers/STM32G0xx_HAL_Driver/Inc/stm32g0xx_hal_pcd.h ****   */
  40:Drivers/STM32G0xx_HAL_Driver/Inc/stm32g0xx_hal_pcd.h **** 
  41:Drivers/STM32G0xx_HAL_Driver/Inc/stm32g0xx_hal_pcd.h **** /* Exported types ------------------------------------------------------------*/
  42:Drivers/STM32G0xx_HAL_Driver/Inc/stm32g0xx_hal_pcd.h **** /** @defgroup PCD_Exported_Types PCD Exported Types
  43:Drivers/STM32G0xx_HAL_Driver/Inc/stm32g0xx_hal_pcd.h ****   * @{
  44:Drivers/STM32G0xx_HAL_Driver/Inc/stm32g0xx_hal_pcd.h ****   */
  45:Drivers/STM32G0xx_HAL_Driver/Inc/stm32g0xx_hal_pcd.h **** 
  46:Drivers/STM32G0xx_HAL_Driver/Inc/stm32g0xx_hal_pcd.h **** /**
  47:Drivers/STM32G0xx_HAL_Driver/Inc/stm32g0xx_hal_pcd.h ****   * @brief  PCD State structure definition
  48:Drivers/STM32G0xx_HAL_Driver/Inc/stm32g0xx_hal_pcd.h ****   */
  49:Drivers/STM32G0xx_HAL_Driver/Inc/stm32g0xx_hal_pcd.h **** typedef enum
  50:Drivers/STM32G0xx_HAL_Driver/Inc/stm32g0xx_hal_pcd.h **** {
  51:Drivers/STM32G0xx_HAL_Driver/Inc/stm32g0xx_hal_pcd.h ****   HAL_PCD_STATE_RESET   = 0x00,
  52:Drivers/STM32G0xx_HAL_Driver/Inc/stm32g0xx_hal_pcd.h ****   HAL_PCD_STATE_READY   = 0x01,
  53:Drivers/STM32G0xx_HAL_Driver/Inc/stm32g0xx_hal_pcd.h ****   HAL_PCD_STATE_ERROR   = 0x02,
  54:Drivers/STM32G0xx_HAL_Driver/Inc/stm32g0xx_hal_pcd.h ****   HAL_PCD_STATE_BUSY    = 0x03,
  55:Drivers/STM32G0xx_HAL_Driver/Inc/stm32g0xx_hal_pcd.h ****   HAL_PCD_STATE_TIMEOUT = 0x04
  56:Drivers/STM32G0xx_HAL_Driver/Inc/stm32g0xx_hal_pcd.h **** } PCD_StateTypeDef;
  57:Drivers/STM32G0xx_HAL_Driver/Inc/stm32g0xx_hal_pcd.h **** 
  58:Drivers/STM32G0xx_HAL_Driver/Inc/stm32g0xx_hal_pcd.h **** /* Device LPM suspend state */
  59:Drivers/STM32G0xx_HAL_Driver/Inc/stm32g0xx_hal_pcd.h **** typedef enum
  60:Drivers/STM32G0xx_HAL_Driver/Inc/stm32g0xx_hal_pcd.h **** {
  61:Drivers/STM32G0xx_HAL_Driver/Inc/stm32g0xx_hal_pcd.h ****   LPM_L0 = 0x00, /* on */
  62:Drivers/STM32G0xx_HAL_Driver/Inc/stm32g0xx_hal_pcd.h ****   LPM_L1 = 0x01, /* LPM L1 sleep */
  63:Drivers/STM32G0xx_HAL_Driver/Inc/stm32g0xx_hal_pcd.h ****   LPM_L2 = 0x02, /* suspend */
  64:Drivers/STM32G0xx_HAL_Driver/Inc/stm32g0xx_hal_pcd.h ****   LPM_L3 = 0x03, /* off */
  65:Drivers/STM32G0xx_HAL_Driver/Inc/stm32g0xx_hal_pcd.h **** } PCD_LPM_StateTypeDef;
  66:Drivers/STM32G0xx_HAL_Driver/Inc/stm32g0xx_hal_pcd.h **** 
  67:Drivers/STM32G0xx_HAL_Driver/Inc/stm32g0xx_hal_pcd.h **** typedef enum
  68:Drivers/STM32G0xx_HAL_Driver/Inc/stm32g0xx_hal_pcd.h **** {
  69:Drivers/STM32G0xx_HAL_Driver/Inc/stm32g0xx_hal_pcd.h ****   PCD_LPM_L0_ACTIVE = 0x00, /* on */
  70:Drivers/STM32G0xx_HAL_Driver/Inc/stm32g0xx_hal_pcd.h ****   PCD_LPM_L1_ACTIVE = 0x01, /* LPM L1 sleep */
  71:Drivers/STM32G0xx_HAL_Driver/Inc/stm32g0xx_hal_pcd.h **** } PCD_LPM_MsgTypeDef;
  72:Drivers/STM32G0xx_HAL_Driver/Inc/stm32g0xx_hal_pcd.h **** 
  73:Drivers/STM32G0xx_HAL_Driver/Inc/stm32g0xx_hal_pcd.h **** typedef enum
  74:Drivers/STM32G0xx_HAL_Driver/Inc/stm32g0xx_hal_pcd.h **** {
  75:Drivers/STM32G0xx_HAL_Driver/Inc/stm32g0xx_hal_pcd.h ****   PCD_BCD_ERROR                     = 0xFF,
  76:Drivers/STM32G0xx_HAL_Driver/Inc/stm32g0xx_hal_pcd.h ****   PCD_BCD_CONTACT_DETECTION         = 0xFE,
  77:Drivers/STM32G0xx_HAL_Driver/Inc/stm32g0xx_hal_pcd.h ****   PCD_BCD_STD_DOWNSTREAM_PORT       = 0xFD,
  78:Drivers/STM32G0xx_HAL_Driver/Inc/stm32g0xx_hal_pcd.h ****   PCD_BCD_CHARGING_DOWNSTREAM_PORT  = 0xFC,
  79:Drivers/STM32G0xx_HAL_Driver/Inc/stm32g0xx_hal_pcd.h ****   PCD_BCD_DEDICATED_CHARGING_PORT   = 0xFB,
  80:Drivers/STM32G0xx_HAL_Driver/Inc/stm32g0xx_hal_pcd.h ****   PCD_BCD_DISCOVERY_COMPLETED       = 0x00,
  81:Drivers/STM32G0xx_HAL_Driver/Inc/stm32g0xx_hal_pcd.h **** 
  82:Drivers/STM32G0xx_HAL_Driver/Inc/stm32g0xx_hal_pcd.h **** } PCD_BCD_MsgTypeDef;
  83:Drivers/STM32G0xx_HAL_Driver/Inc/stm32g0xx_hal_pcd.h **** 
  84:Drivers/STM32G0xx_HAL_Driver/Inc/stm32g0xx_hal_pcd.h **** typedef USB_DRD_TypeDef        PCD_TypeDef;
  85:Drivers/STM32G0xx_HAL_Driver/Inc/stm32g0xx_hal_pcd.h **** typedef USB_DRD_CfgTypeDef     PCD_InitTypeDef;
  86:Drivers/STM32G0xx_HAL_Driver/Inc/stm32g0xx_hal_pcd.h **** typedef USB_DRD_EPTypeDef      PCD_EPTypeDef;
  87:Drivers/STM32G0xx_HAL_Driver/Inc/stm32g0xx_hal_pcd.h **** 
  88:Drivers/STM32G0xx_HAL_Driver/Inc/stm32g0xx_hal_pcd.h **** /**
ARM GAS  /tmp/ccFvkBSI.s 			page 3


  89:Drivers/STM32G0xx_HAL_Driver/Inc/stm32g0xx_hal_pcd.h ****   * @brief  PCD Handle Structure definition
  90:Drivers/STM32G0xx_HAL_Driver/Inc/stm32g0xx_hal_pcd.h ****   */
  91:Drivers/STM32G0xx_HAL_Driver/Inc/stm32g0xx_hal_pcd.h **** #if (USE_HAL_PCD_REGISTER_CALLBACKS == 1U)
  92:Drivers/STM32G0xx_HAL_Driver/Inc/stm32g0xx_hal_pcd.h **** typedef struct __PCD_HandleTypeDef
  93:Drivers/STM32G0xx_HAL_Driver/Inc/stm32g0xx_hal_pcd.h **** #else
  94:Drivers/STM32G0xx_HAL_Driver/Inc/stm32g0xx_hal_pcd.h **** typedef struct
  95:Drivers/STM32G0xx_HAL_Driver/Inc/stm32g0xx_hal_pcd.h **** #endif /* USE_HAL_PCD_REGISTER_CALLBACKS */
  96:Drivers/STM32G0xx_HAL_Driver/Inc/stm32g0xx_hal_pcd.h **** {
  97:Drivers/STM32G0xx_HAL_Driver/Inc/stm32g0xx_hal_pcd.h ****   PCD_TypeDef             *Instance;   /*!< Register base address             */
  98:Drivers/STM32G0xx_HAL_Driver/Inc/stm32g0xx_hal_pcd.h ****   PCD_InitTypeDef         Init;        /*!< PCD required parameters           */
  99:Drivers/STM32G0xx_HAL_Driver/Inc/stm32g0xx_hal_pcd.h ****   __IO uint8_t            USB_Address; /*!< USB Address                       */
 100:Drivers/STM32G0xx_HAL_Driver/Inc/stm32g0xx_hal_pcd.h ****   PCD_EPTypeDef           IN_ep[8];   /*!< IN endpoint parameters             */
 101:Drivers/STM32G0xx_HAL_Driver/Inc/stm32g0xx_hal_pcd.h ****   PCD_EPTypeDef           OUT_ep[8];  /*!< OUT endpoint parameters            */
 102:Drivers/STM32G0xx_HAL_Driver/Inc/stm32g0xx_hal_pcd.h ****   HAL_LockTypeDef         Lock;        /*!< PCD peripheral status             */
 103:Drivers/STM32G0xx_HAL_Driver/Inc/stm32g0xx_hal_pcd.h ****   __IO PCD_StateTypeDef   State;       /*!< PCD communication state           */
 104:Drivers/STM32G0xx_HAL_Driver/Inc/stm32g0xx_hal_pcd.h ****   __IO  uint32_t          ErrorCode;   /*!< PCD Error code                    */
 105:Drivers/STM32G0xx_HAL_Driver/Inc/stm32g0xx_hal_pcd.h ****   uint32_t                Setup[12];   /*!< Setup packet buffer               */
 106:Drivers/STM32G0xx_HAL_Driver/Inc/stm32g0xx_hal_pcd.h ****   PCD_LPM_StateTypeDef    LPM_State;   /*!< LPM State                         */
 107:Drivers/STM32G0xx_HAL_Driver/Inc/stm32g0xx_hal_pcd.h ****   uint32_t                BESL;
 108:Drivers/STM32G0xx_HAL_Driver/Inc/stm32g0xx_hal_pcd.h **** 
 109:Drivers/STM32G0xx_HAL_Driver/Inc/stm32g0xx_hal_pcd.h **** 
 110:Drivers/STM32G0xx_HAL_Driver/Inc/stm32g0xx_hal_pcd.h ****   uint32_t lpm_active;                 /*!< Enable or disable the Link Power Management .
 111:Drivers/STM32G0xx_HAL_Driver/Inc/stm32g0xx_hal_pcd.h ****                                        This parameter can be set to ENABLE or DISABLE        */
 112:Drivers/STM32G0xx_HAL_Driver/Inc/stm32g0xx_hal_pcd.h **** 
 113:Drivers/STM32G0xx_HAL_Driver/Inc/stm32g0xx_hal_pcd.h ****   uint32_t battery_charging_active;    /*!< Enable or disable Battery charging.
 114:Drivers/STM32G0xx_HAL_Driver/Inc/stm32g0xx_hal_pcd.h ****                                        This parameter can be set to ENABLE or DISABLE        */
 115:Drivers/STM32G0xx_HAL_Driver/Inc/stm32g0xx_hal_pcd.h ****   void                    *pData;      /*!< Pointer to upper stack Handler */
 116:Drivers/STM32G0xx_HAL_Driver/Inc/stm32g0xx_hal_pcd.h **** 
 117:Drivers/STM32G0xx_HAL_Driver/Inc/stm32g0xx_hal_pcd.h **** #if (USE_HAL_PCD_REGISTER_CALLBACKS == 1U)
 118:Drivers/STM32G0xx_HAL_Driver/Inc/stm32g0xx_hal_pcd.h ****   void (* SOFCallback)(struct __PCD_HandleTypeDef *hpcd);                              /*!< USB OTG
 119:Drivers/STM32G0xx_HAL_Driver/Inc/stm32g0xx_hal_pcd.h ****   void (* SetupStageCallback)(struct __PCD_HandleTypeDef *hpcd);                       /*!< USB OTG
 120:Drivers/STM32G0xx_HAL_Driver/Inc/stm32g0xx_hal_pcd.h ****   void (* ResetCallback)(struct __PCD_HandleTypeDef *hpcd);                            /*!< USB OTG
 121:Drivers/STM32G0xx_HAL_Driver/Inc/stm32g0xx_hal_pcd.h ****   void (* SuspendCallback)(struct __PCD_HandleTypeDef *hpcd);                          /*!< USB OTG
 122:Drivers/STM32G0xx_HAL_Driver/Inc/stm32g0xx_hal_pcd.h ****   void (* ResumeCallback)(struct __PCD_HandleTypeDef *hpcd);                           /*!< USB OTG
 123:Drivers/STM32G0xx_HAL_Driver/Inc/stm32g0xx_hal_pcd.h ****   void (* ConnectCallback)(struct __PCD_HandleTypeDef *hpcd);                          /*!< USB OTG
 124:Drivers/STM32G0xx_HAL_Driver/Inc/stm32g0xx_hal_pcd.h ****   void (* DisconnectCallback)(struct __PCD_HandleTypeDef *hpcd);                       /*!< USB OTG
 125:Drivers/STM32G0xx_HAL_Driver/Inc/stm32g0xx_hal_pcd.h **** 
 126:Drivers/STM32G0xx_HAL_Driver/Inc/stm32g0xx_hal_pcd.h ****   void (* DataOutStageCallback)(struct __PCD_HandleTypeDef *hpcd, uint8_t epnum);      /*!< USB OTG
 127:Drivers/STM32G0xx_HAL_Driver/Inc/stm32g0xx_hal_pcd.h ****   void (* DataInStageCallback)(struct __PCD_HandleTypeDef *hpcd, uint8_t epnum);       /*!< USB OTG
 128:Drivers/STM32G0xx_HAL_Driver/Inc/stm32g0xx_hal_pcd.h ****   void (* ISOOUTIncompleteCallback)(struct __PCD_HandleTypeDef *hpcd, uint8_t epnum);  /*!< USB OTG
 129:Drivers/STM32G0xx_HAL_Driver/Inc/stm32g0xx_hal_pcd.h ****   void (* ISOINIncompleteCallback)(struct __PCD_HandleTypeDef *hpcd, uint8_t epnum);   /*!< USB OTG
 130:Drivers/STM32G0xx_HAL_Driver/Inc/stm32g0xx_hal_pcd.h ****   void (* BCDCallback)(struct __PCD_HandleTypeDef *hpcd, PCD_BCD_MsgTypeDef msg);      /*!< USB OTG
 131:Drivers/STM32G0xx_HAL_Driver/Inc/stm32g0xx_hal_pcd.h ****   void (* LPMCallback)(struct __PCD_HandleTypeDef *hpcd, PCD_LPM_MsgTypeDef msg);      /*!< USB OTG
 132:Drivers/STM32G0xx_HAL_Driver/Inc/stm32g0xx_hal_pcd.h **** 
 133:Drivers/STM32G0xx_HAL_Driver/Inc/stm32g0xx_hal_pcd.h ****   void (* MspInitCallback)(struct __PCD_HandleTypeDef *hpcd);                          /*!< USB OTG
 134:Drivers/STM32G0xx_HAL_Driver/Inc/stm32g0xx_hal_pcd.h ****   void (* MspDeInitCallback)(struct __PCD_HandleTypeDef *hpcd);                        /*!< USB OTG
 135:Drivers/STM32G0xx_HAL_Driver/Inc/stm32g0xx_hal_pcd.h **** #endif /* USE_HAL_PCD_REGISTER_CALLBACKS */
 136:Drivers/STM32G0xx_HAL_Driver/Inc/stm32g0xx_hal_pcd.h **** } PCD_HandleTypeDef;
 137:Drivers/STM32G0xx_HAL_Driver/Inc/stm32g0xx_hal_pcd.h **** 
 138:Drivers/STM32G0xx_HAL_Driver/Inc/stm32g0xx_hal_pcd.h **** /**
 139:Drivers/STM32G0xx_HAL_Driver/Inc/stm32g0xx_hal_pcd.h ****   * @}
 140:Drivers/STM32G0xx_HAL_Driver/Inc/stm32g0xx_hal_pcd.h ****   */
 141:Drivers/STM32G0xx_HAL_Driver/Inc/stm32g0xx_hal_pcd.h **** 
 142:Drivers/STM32G0xx_HAL_Driver/Inc/stm32g0xx_hal_pcd.h **** /* Include PCD HAL Extended module */
 143:Drivers/STM32G0xx_HAL_Driver/Inc/stm32g0xx_hal_pcd.h **** #include "stm32g0xx_hal_pcd_ex.h"
 144:Drivers/STM32G0xx_HAL_Driver/Inc/stm32g0xx_hal_pcd.h **** 
 145:Drivers/STM32G0xx_HAL_Driver/Inc/stm32g0xx_hal_pcd.h **** /* Exported constants --------------------------------------------------------*/
ARM GAS  /tmp/ccFvkBSI.s 			page 4


 146:Drivers/STM32G0xx_HAL_Driver/Inc/stm32g0xx_hal_pcd.h **** /** @defgroup PCD_Exported_Constants PCD Exported Constants
 147:Drivers/STM32G0xx_HAL_Driver/Inc/stm32g0xx_hal_pcd.h ****   * @{
 148:Drivers/STM32G0xx_HAL_Driver/Inc/stm32g0xx_hal_pcd.h ****   */
 149:Drivers/STM32G0xx_HAL_Driver/Inc/stm32g0xx_hal_pcd.h **** 
 150:Drivers/STM32G0xx_HAL_Driver/Inc/stm32g0xx_hal_pcd.h **** /** @defgroup PCD_Speed PCD Speed
 151:Drivers/STM32G0xx_HAL_Driver/Inc/stm32g0xx_hal_pcd.h ****   * @{
 152:Drivers/STM32G0xx_HAL_Driver/Inc/stm32g0xx_hal_pcd.h ****   */
 153:Drivers/STM32G0xx_HAL_Driver/Inc/stm32g0xx_hal_pcd.h **** #define PCD_SPEED_FULL               USBD_FS_SPEED
 154:Drivers/STM32G0xx_HAL_Driver/Inc/stm32g0xx_hal_pcd.h **** /**
 155:Drivers/STM32G0xx_HAL_Driver/Inc/stm32g0xx_hal_pcd.h ****   * @}
 156:Drivers/STM32G0xx_HAL_Driver/Inc/stm32g0xx_hal_pcd.h ****   */
 157:Drivers/STM32G0xx_HAL_Driver/Inc/stm32g0xx_hal_pcd.h **** 
 158:Drivers/STM32G0xx_HAL_Driver/Inc/stm32g0xx_hal_pcd.h **** /** @defgroup PCD_PHY_Module PCD PHY Module
 159:Drivers/STM32G0xx_HAL_Driver/Inc/stm32g0xx_hal_pcd.h ****   * @{
 160:Drivers/STM32G0xx_HAL_Driver/Inc/stm32g0xx_hal_pcd.h ****   */
 161:Drivers/STM32G0xx_HAL_Driver/Inc/stm32g0xx_hal_pcd.h **** #define PCD_PHY_ULPI                 1U
 162:Drivers/STM32G0xx_HAL_Driver/Inc/stm32g0xx_hal_pcd.h **** #define PCD_PHY_EMBEDDED             2U
 163:Drivers/STM32G0xx_HAL_Driver/Inc/stm32g0xx_hal_pcd.h **** #define PCD_PHY_UTMI                 3U
 164:Drivers/STM32G0xx_HAL_Driver/Inc/stm32g0xx_hal_pcd.h **** /**
 165:Drivers/STM32G0xx_HAL_Driver/Inc/stm32g0xx_hal_pcd.h ****   * @}
 166:Drivers/STM32G0xx_HAL_Driver/Inc/stm32g0xx_hal_pcd.h ****   */
 167:Drivers/STM32G0xx_HAL_Driver/Inc/stm32g0xx_hal_pcd.h **** 
 168:Drivers/STM32G0xx_HAL_Driver/Inc/stm32g0xx_hal_pcd.h **** /** @defgroup PCD_Error_Code_definition PCD Error Code definition
 169:Drivers/STM32G0xx_HAL_Driver/Inc/stm32g0xx_hal_pcd.h ****   * @brief  PCD Error Code definition
 170:Drivers/STM32G0xx_HAL_Driver/Inc/stm32g0xx_hal_pcd.h ****   * @{
 171:Drivers/STM32G0xx_HAL_Driver/Inc/stm32g0xx_hal_pcd.h ****   */
 172:Drivers/STM32G0xx_HAL_Driver/Inc/stm32g0xx_hal_pcd.h **** #if (USE_HAL_PCD_REGISTER_CALLBACKS == 1U)
 173:Drivers/STM32G0xx_HAL_Driver/Inc/stm32g0xx_hal_pcd.h **** #define  HAL_PCD_ERROR_INVALID_CALLBACK                        (0x00000010U)    /*!< Invalid Callba
 174:Drivers/STM32G0xx_HAL_Driver/Inc/stm32g0xx_hal_pcd.h **** #endif /* USE_HAL_PCD_REGISTER_CALLBACKS */
 175:Drivers/STM32G0xx_HAL_Driver/Inc/stm32g0xx_hal_pcd.h **** 
 176:Drivers/STM32G0xx_HAL_Driver/Inc/stm32g0xx_hal_pcd.h **** /**
 177:Drivers/STM32G0xx_HAL_Driver/Inc/stm32g0xx_hal_pcd.h ****   * @}
 178:Drivers/STM32G0xx_HAL_Driver/Inc/stm32g0xx_hal_pcd.h ****   */
 179:Drivers/STM32G0xx_HAL_Driver/Inc/stm32g0xx_hal_pcd.h **** 
 180:Drivers/STM32G0xx_HAL_Driver/Inc/stm32g0xx_hal_pcd.h **** /**
 181:Drivers/STM32G0xx_HAL_Driver/Inc/stm32g0xx_hal_pcd.h ****   * @}
 182:Drivers/STM32G0xx_HAL_Driver/Inc/stm32g0xx_hal_pcd.h ****   */
 183:Drivers/STM32G0xx_HAL_Driver/Inc/stm32g0xx_hal_pcd.h **** 
 184:Drivers/STM32G0xx_HAL_Driver/Inc/stm32g0xx_hal_pcd.h **** /* Exported macros -----------------------------------------------------------*/
 185:Drivers/STM32G0xx_HAL_Driver/Inc/stm32g0xx_hal_pcd.h **** /** @defgroup PCD_Exported_Macros PCD Exported Macros
 186:Drivers/STM32G0xx_HAL_Driver/Inc/stm32g0xx_hal_pcd.h ****   *  @brief macros to handle interrupts and specific clock configurations
 187:Drivers/STM32G0xx_HAL_Driver/Inc/stm32g0xx_hal_pcd.h ****   * @{
 188:Drivers/STM32G0xx_HAL_Driver/Inc/stm32g0xx_hal_pcd.h ****   */
 189:Drivers/STM32G0xx_HAL_Driver/Inc/stm32g0xx_hal_pcd.h **** 
 190:Drivers/STM32G0xx_HAL_Driver/Inc/stm32g0xx_hal_pcd.h **** 
 191:Drivers/STM32G0xx_HAL_Driver/Inc/stm32g0xx_hal_pcd.h **** #define __HAL_PCD_ENABLE(__HANDLE__)                                  (void)USB_EnableGlobalInt ((_
 192:Drivers/STM32G0xx_HAL_Driver/Inc/stm32g0xx_hal_pcd.h **** #define __HAL_PCD_DISABLE(__HANDLE__)                                 (void)USB_DisableGlobalInt ((
 193:Drivers/STM32G0xx_HAL_Driver/Inc/stm32g0xx_hal_pcd.h **** #define __HAL_PCD_GET_FLAG(__HANDLE__, __INTERRUPT__)                 ((USB_ReadInterrupts((__HANDL
 194:Drivers/STM32G0xx_HAL_Driver/Inc/stm32g0xx_hal_pcd.h ****                                                                         & (__INTERRUPT__)) == (__IN
 195:Drivers/STM32G0xx_HAL_Driver/Inc/stm32g0xx_hal_pcd.h **** 
 196:Drivers/STM32G0xx_HAL_Driver/Inc/stm32g0xx_hal_pcd.h **** #define __HAL_PCD_CLEAR_FLAG(__HANDLE__, __INTERRUPT__)               (((__HANDLE__)->Instance->IST
 197:Drivers/STM32G0xx_HAL_Driver/Inc/stm32g0xx_hal_pcd.h ****                                                                        &= (uint16_t)(~(__INTERRUPT_
 198:Drivers/STM32G0xx_HAL_Driver/Inc/stm32g0xx_hal_pcd.h **** 
 199:Drivers/STM32G0xx_HAL_Driver/Inc/stm32g0xx_hal_pcd.h **** #define __HAL_USB_WAKEUP_EXTI_ENABLE_IT()                             EXTI->IMR2 |= USB_WAKEUP_EXTI
 200:Drivers/STM32G0xx_HAL_Driver/Inc/stm32g0xx_hal_pcd.h **** #define __HAL_USB_WAKEUP_EXTI_DISABLE_IT()                            EXTI->IMR2 &= ~(USB_WAKEUP_EX
 201:Drivers/STM32G0xx_HAL_Driver/Inc/stm32g0xx_hal_pcd.h **** 
 202:Drivers/STM32G0xx_HAL_Driver/Inc/stm32g0xx_hal_pcd.h **** 
ARM GAS  /tmp/ccFvkBSI.s 			page 5


 203:Drivers/STM32G0xx_HAL_Driver/Inc/stm32g0xx_hal_pcd.h **** /**
 204:Drivers/STM32G0xx_HAL_Driver/Inc/stm32g0xx_hal_pcd.h ****   * @}
 205:Drivers/STM32G0xx_HAL_Driver/Inc/stm32g0xx_hal_pcd.h ****   */
 206:Drivers/STM32G0xx_HAL_Driver/Inc/stm32g0xx_hal_pcd.h **** 
 207:Drivers/STM32G0xx_HAL_Driver/Inc/stm32g0xx_hal_pcd.h **** /* Exported functions --------------------------------------------------------*/
 208:Drivers/STM32G0xx_HAL_Driver/Inc/stm32g0xx_hal_pcd.h **** /** @addtogroup PCD_Exported_Functions PCD Exported Functions
 209:Drivers/STM32G0xx_HAL_Driver/Inc/stm32g0xx_hal_pcd.h ****   * @{
 210:Drivers/STM32G0xx_HAL_Driver/Inc/stm32g0xx_hal_pcd.h ****   */
 211:Drivers/STM32G0xx_HAL_Driver/Inc/stm32g0xx_hal_pcd.h **** 
 212:Drivers/STM32G0xx_HAL_Driver/Inc/stm32g0xx_hal_pcd.h **** /* Initialization/de-initialization functions  ********************************/
 213:Drivers/STM32G0xx_HAL_Driver/Inc/stm32g0xx_hal_pcd.h **** /** @addtogroup PCD_Exported_Functions_Group1 Initialization and de-initialization functions
 214:Drivers/STM32G0xx_HAL_Driver/Inc/stm32g0xx_hal_pcd.h ****   * @{
 215:Drivers/STM32G0xx_HAL_Driver/Inc/stm32g0xx_hal_pcd.h ****   */
 216:Drivers/STM32G0xx_HAL_Driver/Inc/stm32g0xx_hal_pcd.h **** HAL_StatusTypeDef HAL_PCD_Init(PCD_HandleTypeDef *hpcd);
 217:Drivers/STM32G0xx_HAL_Driver/Inc/stm32g0xx_hal_pcd.h **** HAL_StatusTypeDef HAL_PCD_DeInit(PCD_HandleTypeDef *hpcd);
 218:Drivers/STM32G0xx_HAL_Driver/Inc/stm32g0xx_hal_pcd.h **** void HAL_PCD_MspInit(PCD_HandleTypeDef *hpcd);
 219:Drivers/STM32G0xx_HAL_Driver/Inc/stm32g0xx_hal_pcd.h **** void HAL_PCD_MspDeInit(PCD_HandleTypeDef *hpcd);
 220:Drivers/STM32G0xx_HAL_Driver/Inc/stm32g0xx_hal_pcd.h **** 
 221:Drivers/STM32G0xx_HAL_Driver/Inc/stm32g0xx_hal_pcd.h **** #if (USE_HAL_PCD_REGISTER_CALLBACKS == 1U)
 222:Drivers/STM32G0xx_HAL_Driver/Inc/stm32g0xx_hal_pcd.h **** /** @defgroup HAL_PCD_Callback_ID_enumeration_definition HAL USB OTG PCD Callback ID enumeration de
 223:Drivers/STM32G0xx_HAL_Driver/Inc/stm32g0xx_hal_pcd.h ****   * @brief  HAL USB OTG PCD Callback ID enumeration definition
 224:Drivers/STM32G0xx_HAL_Driver/Inc/stm32g0xx_hal_pcd.h ****   * @{
 225:Drivers/STM32G0xx_HAL_Driver/Inc/stm32g0xx_hal_pcd.h ****   */
 226:Drivers/STM32G0xx_HAL_Driver/Inc/stm32g0xx_hal_pcd.h **** typedef enum
 227:Drivers/STM32G0xx_HAL_Driver/Inc/stm32g0xx_hal_pcd.h **** {
 228:Drivers/STM32G0xx_HAL_Driver/Inc/stm32g0xx_hal_pcd.h ****   HAL_PCD_SOF_CB_ID          = 0x01,      /*!< USB PCD SOF callback ID          */
 229:Drivers/STM32G0xx_HAL_Driver/Inc/stm32g0xx_hal_pcd.h ****   HAL_PCD_SETUPSTAGE_CB_ID   = 0x02,      /*!< USB PCD Setup Stage callback ID  */
 230:Drivers/STM32G0xx_HAL_Driver/Inc/stm32g0xx_hal_pcd.h ****   HAL_PCD_RESET_CB_ID        = 0x03,      /*!< USB PCD Reset callback ID        */
 231:Drivers/STM32G0xx_HAL_Driver/Inc/stm32g0xx_hal_pcd.h ****   HAL_PCD_SUSPEND_CB_ID      = 0x04,      /*!< USB PCD Suspend callback ID      */
 232:Drivers/STM32G0xx_HAL_Driver/Inc/stm32g0xx_hal_pcd.h ****   HAL_PCD_RESUME_CB_ID       = 0x05,      /*!< USB PCD Resume callback ID       */
 233:Drivers/STM32G0xx_HAL_Driver/Inc/stm32g0xx_hal_pcd.h ****   HAL_PCD_CONNECT_CB_ID      = 0x06,      /*!< USB PCD Connect callback ID      */
 234:Drivers/STM32G0xx_HAL_Driver/Inc/stm32g0xx_hal_pcd.h ****   HAL_PCD_DISCONNECT_CB_ID   = 0x07,      /*!< USB PCD Disconnect callback ID   */
 235:Drivers/STM32G0xx_HAL_Driver/Inc/stm32g0xx_hal_pcd.h **** 
 236:Drivers/STM32G0xx_HAL_Driver/Inc/stm32g0xx_hal_pcd.h ****   HAL_PCD_MSPINIT_CB_ID      = 0x08,      /*!< USB PCD MspInit callback ID      */
 237:Drivers/STM32G0xx_HAL_Driver/Inc/stm32g0xx_hal_pcd.h ****   HAL_PCD_MSPDEINIT_CB_ID    = 0x09       /*!< USB PCD MspDeInit callback ID    */
 238:Drivers/STM32G0xx_HAL_Driver/Inc/stm32g0xx_hal_pcd.h **** 
 239:Drivers/STM32G0xx_HAL_Driver/Inc/stm32g0xx_hal_pcd.h **** } HAL_PCD_CallbackIDTypeDef;
 240:Drivers/STM32G0xx_HAL_Driver/Inc/stm32g0xx_hal_pcd.h **** /**
 241:Drivers/STM32G0xx_HAL_Driver/Inc/stm32g0xx_hal_pcd.h ****   * @}
 242:Drivers/STM32G0xx_HAL_Driver/Inc/stm32g0xx_hal_pcd.h ****   */
 243:Drivers/STM32G0xx_HAL_Driver/Inc/stm32g0xx_hal_pcd.h **** 
 244:Drivers/STM32G0xx_HAL_Driver/Inc/stm32g0xx_hal_pcd.h **** /** @defgroup HAL_PCD_Callback_pointer_definition HAL USB OTG PCD Callback pointer definition
 245:Drivers/STM32G0xx_HAL_Driver/Inc/stm32g0xx_hal_pcd.h ****   * @brief  HAL USB OTG PCD Callback pointer definition
 246:Drivers/STM32G0xx_HAL_Driver/Inc/stm32g0xx_hal_pcd.h ****   * @{
 247:Drivers/STM32G0xx_HAL_Driver/Inc/stm32g0xx_hal_pcd.h ****   */
 248:Drivers/STM32G0xx_HAL_Driver/Inc/stm32g0xx_hal_pcd.h **** 
 249:Drivers/STM32G0xx_HAL_Driver/Inc/stm32g0xx_hal_pcd.h **** typedef void (*pPCD_CallbackTypeDef)(PCD_HandleTypeDef *hpcd);                                   /*
 250:Drivers/STM32G0xx_HAL_Driver/Inc/stm32g0xx_hal_pcd.h **** typedef void (*pPCD_DataOutStageCallbackTypeDef)(PCD_HandleTypeDef *hpcd, uint8_t epnum);        /*
 251:Drivers/STM32G0xx_HAL_Driver/Inc/stm32g0xx_hal_pcd.h **** typedef void (*pPCD_DataInStageCallbackTypeDef)(PCD_HandleTypeDef *hpcd, uint8_t epnum);         /*
 252:Drivers/STM32G0xx_HAL_Driver/Inc/stm32g0xx_hal_pcd.h **** typedef void (*pPCD_IsoOutIncpltCallbackTypeDef)(PCD_HandleTypeDef *hpcd, uint8_t epnum);        /*
 253:Drivers/STM32G0xx_HAL_Driver/Inc/stm32g0xx_hal_pcd.h **** typedef void (*pPCD_IsoInIncpltCallbackTypeDef)(PCD_HandleTypeDef *hpcd, uint8_t epnum);         /*
 254:Drivers/STM32G0xx_HAL_Driver/Inc/stm32g0xx_hal_pcd.h **** typedef void (*pPCD_LpmCallbackTypeDef)(PCD_HandleTypeDef *hpcd, PCD_LPM_MsgTypeDef msg);        /*
 255:Drivers/STM32G0xx_HAL_Driver/Inc/stm32g0xx_hal_pcd.h **** typedef void (*pPCD_BcdCallbackTypeDef)(PCD_HandleTypeDef *hpcd, PCD_BCD_MsgTypeDef msg);        /*
 256:Drivers/STM32G0xx_HAL_Driver/Inc/stm32g0xx_hal_pcd.h **** 
 257:Drivers/STM32G0xx_HAL_Driver/Inc/stm32g0xx_hal_pcd.h **** /**
 258:Drivers/STM32G0xx_HAL_Driver/Inc/stm32g0xx_hal_pcd.h ****   * @}
 259:Drivers/STM32G0xx_HAL_Driver/Inc/stm32g0xx_hal_pcd.h ****   */
ARM GAS  /tmp/ccFvkBSI.s 			page 6


 260:Drivers/STM32G0xx_HAL_Driver/Inc/stm32g0xx_hal_pcd.h **** 
 261:Drivers/STM32G0xx_HAL_Driver/Inc/stm32g0xx_hal_pcd.h **** HAL_StatusTypeDef HAL_PCD_RegisterCallback(PCD_HandleTypeDef *hpcd,
 262:Drivers/STM32G0xx_HAL_Driver/Inc/stm32g0xx_hal_pcd.h ****                                            HAL_PCD_CallbackIDTypeDef CallbackID,
 263:Drivers/STM32G0xx_HAL_Driver/Inc/stm32g0xx_hal_pcd.h ****                                            pPCD_CallbackTypeDef pCallback);
 264:Drivers/STM32G0xx_HAL_Driver/Inc/stm32g0xx_hal_pcd.h **** 
 265:Drivers/STM32G0xx_HAL_Driver/Inc/stm32g0xx_hal_pcd.h **** HAL_StatusTypeDef HAL_PCD_UnRegisterCallback(PCD_HandleTypeDef *hpcd,
 266:Drivers/STM32G0xx_HAL_Driver/Inc/stm32g0xx_hal_pcd.h ****                                              HAL_PCD_CallbackIDTypeDef CallbackID);
 267:Drivers/STM32G0xx_HAL_Driver/Inc/stm32g0xx_hal_pcd.h **** 
 268:Drivers/STM32G0xx_HAL_Driver/Inc/stm32g0xx_hal_pcd.h **** HAL_StatusTypeDef HAL_PCD_RegisterDataOutStageCallback(PCD_HandleTypeDef *hpcd,
 269:Drivers/STM32G0xx_HAL_Driver/Inc/stm32g0xx_hal_pcd.h ****                                                        pPCD_DataOutStageCallbackTypeDef pCallback);
 270:Drivers/STM32G0xx_HAL_Driver/Inc/stm32g0xx_hal_pcd.h **** 
 271:Drivers/STM32G0xx_HAL_Driver/Inc/stm32g0xx_hal_pcd.h **** HAL_StatusTypeDef HAL_PCD_UnRegisterDataOutStageCallback(PCD_HandleTypeDef *hpcd);
 272:Drivers/STM32G0xx_HAL_Driver/Inc/stm32g0xx_hal_pcd.h **** 
 273:Drivers/STM32G0xx_HAL_Driver/Inc/stm32g0xx_hal_pcd.h **** HAL_StatusTypeDef HAL_PCD_RegisterDataInStageCallback(PCD_HandleTypeDef *hpcd,
 274:Drivers/STM32G0xx_HAL_Driver/Inc/stm32g0xx_hal_pcd.h ****                                                       pPCD_DataInStageCallbackTypeDef pCallback);
 275:Drivers/STM32G0xx_HAL_Driver/Inc/stm32g0xx_hal_pcd.h **** 
 276:Drivers/STM32G0xx_HAL_Driver/Inc/stm32g0xx_hal_pcd.h **** HAL_StatusTypeDef HAL_PCD_UnRegisterDataInStageCallback(PCD_HandleTypeDef *hpcd);
 277:Drivers/STM32G0xx_HAL_Driver/Inc/stm32g0xx_hal_pcd.h **** 
 278:Drivers/STM32G0xx_HAL_Driver/Inc/stm32g0xx_hal_pcd.h **** HAL_StatusTypeDef HAL_PCD_RegisterIsoOutIncpltCallback(PCD_HandleTypeDef *hpcd,
 279:Drivers/STM32G0xx_HAL_Driver/Inc/stm32g0xx_hal_pcd.h ****                                                        pPCD_IsoOutIncpltCallbackTypeDef pCallback);
 280:Drivers/STM32G0xx_HAL_Driver/Inc/stm32g0xx_hal_pcd.h **** 
 281:Drivers/STM32G0xx_HAL_Driver/Inc/stm32g0xx_hal_pcd.h **** HAL_StatusTypeDef HAL_PCD_UnRegisterIsoOutIncpltCallback(PCD_HandleTypeDef *hpcd);
 282:Drivers/STM32G0xx_HAL_Driver/Inc/stm32g0xx_hal_pcd.h **** 
 283:Drivers/STM32G0xx_HAL_Driver/Inc/stm32g0xx_hal_pcd.h **** HAL_StatusTypeDef HAL_PCD_RegisterIsoInIncpltCallback(PCD_HandleTypeDef *hpcd,
 284:Drivers/STM32G0xx_HAL_Driver/Inc/stm32g0xx_hal_pcd.h ****                                                       pPCD_IsoInIncpltCallbackTypeDef pCallback);
 285:Drivers/STM32G0xx_HAL_Driver/Inc/stm32g0xx_hal_pcd.h **** 
 286:Drivers/STM32G0xx_HAL_Driver/Inc/stm32g0xx_hal_pcd.h **** HAL_StatusTypeDef HAL_PCD_UnRegisterIsoInIncpltCallback(PCD_HandleTypeDef *hpcd);
 287:Drivers/STM32G0xx_HAL_Driver/Inc/stm32g0xx_hal_pcd.h **** 
 288:Drivers/STM32G0xx_HAL_Driver/Inc/stm32g0xx_hal_pcd.h **** HAL_StatusTypeDef HAL_PCD_RegisterBcdCallback(PCD_HandleTypeDef *hpcd,
 289:Drivers/STM32G0xx_HAL_Driver/Inc/stm32g0xx_hal_pcd.h ****                                               pPCD_BcdCallbackTypeDef pCallback);
 290:Drivers/STM32G0xx_HAL_Driver/Inc/stm32g0xx_hal_pcd.h **** 
 291:Drivers/STM32G0xx_HAL_Driver/Inc/stm32g0xx_hal_pcd.h **** HAL_StatusTypeDef HAL_PCD_UnRegisterBcdCallback(PCD_HandleTypeDef *hpcd);
 292:Drivers/STM32G0xx_HAL_Driver/Inc/stm32g0xx_hal_pcd.h **** 
 293:Drivers/STM32G0xx_HAL_Driver/Inc/stm32g0xx_hal_pcd.h **** HAL_StatusTypeDef HAL_PCD_RegisterLpmCallback(PCD_HandleTypeDef *hpcd,
 294:Drivers/STM32G0xx_HAL_Driver/Inc/stm32g0xx_hal_pcd.h ****                                               pPCD_LpmCallbackTypeDef pCallback);
 295:Drivers/STM32G0xx_HAL_Driver/Inc/stm32g0xx_hal_pcd.h **** 
 296:Drivers/STM32G0xx_HAL_Driver/Inc/stm32g0xx_hal_pcd.h **** HAL_StatusTypeDef HAL_PCD_UnRegisterLpmCallback(PCD_HandleTypeDef *hpcd);
 297:Drivers/STM32G0xx_HAL_Driver/Inc/stm32g0xx_hal_pcd.h **** #endif /* USE_HAL_PCD_REGISTER_CALLBACKS */
 298:Drivers/STM32G0xx_HAL_Driver/Inc/stm32g0xx_hal_pcd.h **** /**
 299:Drivers/STM32G0xx_HAL_Driver/Inc/stm32g0xx_hal_pcd.h ****   * @}
 300:Drivers/STM32G0xx_HAL_Driver/Inc/stm32g0xx_hal_pcd.h ****   */
 301:Drivers/STM32G0xx_HAL_Driver/Inc/stm32g0xx_hal_pcd.h **** 
 302:Drivers/STM32G0xx_HAL_Driver/Inc/stm32g0xx_hal_pcd.h **** /* I/O operation functions  ***************************************************/
 303:Drivers/STM32G0xx_HAL_Driver/Inc/stm32g0xx_hal_pcd.h **** /* Non-Blocking mode: Interrupt */
 304:Drivers/STM32G0xx_HAL_Driver/Inc/stm32g0xx_hal_pcd.h **** /** @addtogroup PCD_Exported_Functions_Group2 Input and Output operation functions
 305:Drivers/STM32G0xx_HAL_Driver/Inc/stm32g0xx_hal_pcd.h ****   * @{
 306:Drivers/STM32G0xx_HAL_Driver/Inc/stm32g0xx_hal_pcd.h ****   */
 307:Drivers/STM32G0xx_HAL_Driver/Inc/stm32g0xx_hal_pcd.h **** HAL_StatusTypeDef HAL_PCD_Start(PCD_HandleTypeDef *hpcd);
 308:Drivers/STM32G0xx_HAL_Driver/Inc/stm32g0xx_hal_pcd.h **** HAL_StatusTypeDef HAL_PCD_Stop(PCD_HandleTypeDef *hpcd);
 309:Drivers/STM32G0xx_HAL_Driver/Inc/stm32g0xx_hal_pcd.h **** void HAL_PCD_IRQHandler(PCD_HandleTypeDef *hpcd);
 310:Drivers/STM32G0xx_HAL_Driver/Inc/stm32g0xx_hal_pcd.h **** 
 311:Drivers/STM32G0xx_HAL_Driver/Inc/stm32g0xx_hal_pcd.h **** void HAL_PCD_SOFCallback(PCD_HandleTypeDef *hpcd);
 312:Drivers/STM32G0xx_HAL_Driver/Inc/stm32g0xx_hal_pcd.h **** void HAL_PCD_SetupStageCallback(PCD_HandleTypeDef *hpcd);
 313:Drivers/STM32G0xx_HAL_Driver/Inc/stm32g0xx_hal_pcd.h **** void HAL_PCD_ResetCallback(PCD_HandleTypeDef *hpcd);
 314:Drivers/STM32G0xx_HAL_Driver/Inc/stm32g0xx_hal_pcd.h **** void HAL_PCD_SuspendCallback(PCD_HandleTypeDef *hpcd);
 315:Drivers/STM32G0xx_HAL_Driver/Inc/stm32g0xx_hal_pcd.h **** void HAL_PCD_ResumeCallback(PCD_HandleTypeDef *hpcd);
 316:Drivers/STM32G0xx_HAL_Driver/Inc/stm32g0xx_hal_pcd.h **** void HAL_PCD_ConnectCallback(PCD_HandleTypeDef *hpcd);
ARM GAS  /tmp/ccFvkBSI.s 			page 7


 317:Drivers/STM32G0xx_HAL_Driver/Inc/stm32g0xx_hal_pcd.h **** void HAL_PCD_DisconnectCallback(PCD_HandleTypeDef *hpcd);
 318:Drivers/STM32G0xx_HAL_Driver/Inc/stm32g0xx_hal_pcd.h **** 
 319:Drivers/STM32G0xx_HAL_Driver/Inc/stm32g0xx_hal_pcd.h **** void HAL_PCD_DataOutStageCallback(PCD_HandleTypeDef *hpcd, uint8_t epnum);
 320:Drivers/STM32G0xx_HAL_Driver/Inc/stm32g0xx_hal_pcd.h **** void HAL_PCD_DataInStageCallback(PCD_HandleTypeDef *hpcd, uint8_t epnum);
 321:Drivers/STM32G0xx_HAL_Driver/Inc/stm32g0xx_hal_pcd.h **** void HAL_PCD_ISOOUTIncompleteCallback(PCD_HandleTypeDef *hpcd, uint8_t epnum);
 322:Drivers/STM32G0xx_HAL_Driver/Inc/stm32g0xx_hal_pcd.h **** void HAL_PCD_ISOINIncompleteCallback(PCD_HandleTypeDef *hpcd, uint8_t epnum);
 323:Drivers/STM32G0xx_HAL_Driver/Inc/stm32g0xx_hal_pcd.h **** /**
 324:Drivers/STM32G0xx_HAL_Driver/Inc/stm32g0xx_hal_pcd.h ****   * @}
 325:Drivers/STM32G0xx_HAL_Driver/Inc/stm32g0xx_hal_pcd.h ****   */
 326:Drivers/STM32G0xx_HAL_Driver/Inc/stm32g0xx_hal_pcd.h **** 
 327:Drivers/STM32G0xx_HAL_Driver/Inc/stm32g0xx_hal_pcd.h **** /* Peripheral Control functions  **********************************************/
 328:Drivers/STM32G0xx_HAL_Driver/Inc/stm32g0xx_hal_pcd.h **** /** @addtogroup PCD_Exported_Functions_Group3 Peripheral Control functions
 329:Drivers/STM32G0xx_HAL_Driver/Inc/stm32g0xx_hal_pcd.h ****   * @{
 330:Drivers/STM32G0xx_HAL_Driver/Inc/stm32g0xx_hal_pcd.h ****   */
 331:Drivers/STM32G0xx_HAL_Driver/Inc/stm32g0xx_hal_pcd.h **** HAL_StatusTypeDef HAL_PCD_DevConnect(PCD_HandleTypeDef *hpcd);
 332:Drivers/STM32G0xx_HAL_Driver/Inc/stm32g0xx_hal_pcd.h **** HAL_StatusTypeDef HAL_PCD_DevDisconnect(PCD_HandleTypeDef *hpcd);
 333:Drivers/STM32G0xx_HAL_Driver/Inc/stm32g0xx_hal_pcd.h **** HAL_StatusTypeDef HAL_PCD_SetAddress(PCD_HandleTypeDef *hpcd, uint8_t address);
 334:Drivers/STM32G0xx_HAL_Driver/Inc/stm32g0xx_hal_pcd.h **** HAL_StatusTypeDef HAL_PCD_EP_Open(PCD_HandleTypeDef *hpcd, uint8_t ep_addr,
 335:Drivers/STM32G0xx_HAL_Driver/Inc/stm32g0xx_hal_pcd.h ****                                   uint16_t ep_mps, uint8_t ep_type);
 336:Drivers/STM32G0xx_HAL_Driver/Inc/stm32g0xx_hal_pcd.h **** 
 337:Drivers/STM32G0xx_HAL_Driver/Inc/stm32g0xx_hal_pcd.h **** HAL_StatusTypeDef HAL_PCD_EP_Close(PCD_HandleTypeDef *hpcd, uint8_t ep_addr);
 338:Drivers/STM32G0xx_HAL_Driver/Inc/stm32g0xx_hal_pcd.h **** HAL_StatusTypeDef HAL_PCD_EP_Receive(PCD_HandleTypeDef *hpcd, uint8_t ep_addr,
 339:Drivers/STM32G0xx_HAL_Driver/Inc/stm32g0xx_hal_pcd.h ****                                      uint8_t *pBuf, uint32_t len);
 340:Drivers/STM32G0xx_HAL_Driver/Inc/stm32g0xx_hal_pcd.h **** 
 341:Drivers/STM32G0xx_HAL_Driver/Inc/stm32g0xx_hal_pcd.h **** HAL_StatusTypeDef HAL_PCD_EP_Transmit(PCD_HandleTypeDef *hpcd, uint8_t ep_addr,
 342:Drivers/STM32G0xx_HAL_Driver/Inc/stm32g0xx_hal_pcd.h ****                                       uint8_t *pBuf, uint32_t len);
 343:Drivers/STM32G0xx_HAL_Driver/Inc/stm32g0xx_hal_pcd.h **** 
 344:Drivers/STM32G0xx_HAL_Driver/Inc/stm32g0xx_hal_pcd.h **** 
 345:Drivers/STM32G0xx_HAL_Driver/Inc/stm32g0xx_hal_pcd.h **** HAL_StatusTypeDef HAL_PCD_EP_SetStall(PCD_HandleTypeDef *hpcd, uint8_t ep_addr);
 346:Drivers/STM32G0xx_HAL_Driver/Inc/stm32g0xx_hal_pcd.h **** HAL_StatusTypeDef HAL_PCD_EP_ClrStall(PCD_HandleTypeDef *hpcd, uint8_t ep_addr);
 347:Drivers/STM32G0xx_HAL_Driver/Inc/stm32g0xx_hal_pcd.h **** HAL_StatusTypeDef HAL_PCD_EP_Flush(PCD_HandleTypeDef *hpcd, uint8_t ep_addr);
 348:Drivers/STM32G0xx_HAL_Driver/Inc/stm32g0xx_hal_pcd.h **** HAL_StatusTypeDef HAL_PCD_ActivateRemoteWakeup(PCD_HandleTypeDef *hpcd);
 349:Drivers/STM32G0xx_HAL_Driver/Inc/stm32g0xx_hal_pcd.h **** HAL_StatusTypeDef HAL_PCD_DeActivateRemoteWakeup(PCD_HandleTypeDef *hpcd);
 350:Drivers/STM32G0xx_HAL_Driver/Inc/stm32g0xx_hal_pcd.h **** 
 351:Drivers/STM32G0xx_HAL_Driver/Inc/stm32g0xx_hal_pcd.h **** uint32_t          HAL_PCD_EP_GetRxCount(PCD_HandleTypeDef *hpcd, uint8_t ep_addr);
 352:Drivers/STM32G0xx_HAL_Driver/Inc/stm32g0xx_hal_pcd.h **** /**
 353:Drivers/STM32G0xx_HAL_Driver/Inc/stm32g0xx_hal_pcd.h ****   * @}
 354:Drivers/STM32G0xx_HAL_Driver/Inc/stm32g0xx_hal_pcd.h ****   */
 355:Drivers/STM32G0xx_HAL_Driver/Inc/stm32g0xx_hal_pcd.h **** 
 356:Drivers/STM32G0xx_HAL_Driver/Inc/stm32g0xx_hal_pcd.h **** /* Peripheral State functions  ************************************************/
 357:Drivers/STM32G0xx_HAL_Driver/Inc/stm32g0xx_hal_pcd.h **** /** @addtogroup PCD_Exported_Functions_Group4 Peripheral State functions
 358:Drivers/STM32G0xx_HAL_Driver/Inc/stm32g0xx_hal_pcd.h ****   * @{
 359:Drivers/STM32G0xx_HAL_Driver/Inc/stm32g0xx_hal_pcd.h ****   */
 360:Drivers/STM32G0xx_HAL_Driver/Inc/stm32g0xx_hal_pcd.h **** PCD_StateTypeDef HAL_PCD_GetState(PCD_HandleTypeDef *hpcd);
 361:Drivers/STM32G0xx_HAL_Driver/Inc/stm32g0xx_hal_pcd.h **** /**
 362:Drivers/STM32G0xx_HAL_Driver/Inc/stm32g0xx_hal_pcd.h ****   * @}
 363:Drivers/STM32G0xx_HAL_Driver/Inc/stm32g0xx_hal_pcd.h ****   */
 364:Drivers/STM32G0xx_HAL_Driver/Inc/stm32g0xx_hal_pcd.h **** 
 365:Drivers/STM32G0xx_HAL_Driver/Inc/stm32g0xx_hal_pcd.h **** /**
 366:Drivers/STM32G0xx_HAL_Driver/Inc/stm32g0xx_hal_pcd.h ****   * @}
 367:Drivers/STM32G0xx_HAL_Driver/Inc/stm32g0xx_hal_pcd.h ****   */
 368:Drivers/STM32G0xx_HAL_Driver/Inc/stm32g0xx_hal_pcd.h **** 
 369:Drivers/STM32G0xx_HAL_Driver/Inc/stm32g0xx_hal_pcd.h **** /* Private constants ---------------------------------------------------------*/
 370:Drivers/STM32G0xx_HAL_Driver/Inc/stm32g0xx_hal_pcd.h **** /** @defgroup PCD_Private_Constants PCD Private Constants
 371:Drivers/STM32G0xx_HAL_Driver/Inc/stm32g0xx_hal_pcd.h ****   * @{
 372:Drivers/STM32G0xx_HAL_Driver/Inc/stm32g0xx_hal_pcd.h ****   */
 373:Drivers/STM32G0xx_HAL_Driver/Inc/stm32g0xx_hal_pcd.h **** /** @defgroup USB_EXTI_Line_Interrupt USB EXTI line interrupt
ARM GAS  /tmp/ccFvkBSI.s 			page 8


 374:Drivers/STM32G0xx_HAL_Driver/Inc/stm32g0xx_hal_pcd.h ****   * @{
 375:Drivers/STM32G0xx_HAL_Driver/Inc/stm32g0xx_hal_pcd.h ****   */
 376:Drivers/STM32G0xx_HAL_Driver/Inc/stm32g0xx_hal_pcd.h **** 
 377:Drivers/STM32G0xx_HAL_Driver/Inc/stm32g0xx_hal_pcd.h **** 
 378:Drivers/STM32G0xx_HAL_Driver/Inc/stm32g0xx_hal_pcd.h **** #define USB_WAKEUP_EXTI_LINE                                          (0x1U << 4)  /*!< USB FS EXTI
 379:Drivers/STM32G0xx_HAL_Driver/Inc/stm32g0xx_hal_pcd.h **** 
 380:Drivers/STM32G0xx_HAL_Driver/Inc/stm32g0xx_hal_pcd.h **** 
 381:Drivers/STM32G0xx_HAL_Driver/Inc/stm32g0xx_hal_pcd.h **** /**
 382:Drivers/STM32G0xx_HAL_Driver/Inc/stm32g0xx_hal_pcd.h ****   * @}
 383:Drivers/STM32G0xx_HAL_Driver/Inc/stm32g0xx_hal_pcd.h ****   */
 384:Drivers/STM32G0xx_HAL_Driver/Inc/stm32g0xx_hal_pcd.h **** 
 385:Drivers/STM32G0xx_HAL_Driver/Inc/stm32g0xx_hal_pcd.h **** /** @defgroup PCD_EP0_MPS PCD EP0 MPS
 386:Drivers/STM32G0xx_HAL_Driver/Inc/stm32g0xx_hal_pcd.h ****   * @{
 387:Drivers/STM32G0xx_HAL_Driver/Inc/stm32g0xx_hal_pcd.h ****   */
 388:Drivers/STM32G0xx_HAL_Driver/Inc/stm32g0xx_hal_pcd.h **** #define PCD_EP0MPS_64                                                 EP_MPS_64
 389:Drivers/STM32G0xx_HAL_Driver/Inc/stm32g0xx_hal_pcd.h **** #define PCD_EP0MPS_32                                                 EP_MPS_32
 390:Drivers/STM32G0xx_HAL_Driver/Inc/stm32g0xx_hal_pcd.h **** #define PCD_EP0MPS_16                                                 EP_MPS_16
 391:Drivers/STM32G0xx_HAL_Driver/Inc/stm32g0xx_hal_pcd.h **** #define PCD_EP0MPS_08                                                 EP_MPS_8
 392:Drivers/STM32G0xx_HAL_Driver/Inc/stm32g0xx_hal_pcd.h **** /**
 393:Drivers/STM32G0xx_HAL_Driver/Inc/stm32g0xx_hal_pcd.h ****   * @}
 394:Drivers/STM32G0xx_HAL_Driver/Inc/stm32g0xx_hal_pcd.h ****   */
 395:Drivers/STM32G0xx_HAL_Driver/Inc/stm32g0xx_hal_pcd.h **** 
 396:Drivers/STM32G0xx_HAL_Driver/Inc/stm32g0xx_hal_pcd.h **** /** @defgroup PCD_ENDP PCD ENDP
 397:Drivers/STM32G0xx_HAL_Driver/Inc/stm32g0xx_hal_pcd.h ****   * @{
 398:Drivers/STM32G0xx_HAL_Driver/Inc/stm32g0xx_hal_pcd.h ****   */
 399:Drivers/STM32G0xx_HAL_Driver/Inc/stm32g0xx_hal_pcd.h **** #define PCD_ENDP0                                                     0U
 400:Drivers/STM32G0xx_HAL_Driver/Inc/stm32g0xx_hal_pcd.h **** #define PCD_ENDP1                                                     1U
 401:Drivers/STM32G0xx_HAL_Driver/Inc/stm32g0xx_hal_pcd.h **** #define PCD_ENDP2                                                     2U
 402:Drivers/STM32G0xx_HAL_Driver/Inc/stm32g0xx_hal_pcd.h **** #define PCD_ENDP3                                                     3U
 403:Drivers/STM32G0xx_HAL_Driver/Inc/stm32g0xx_hal_pcd.h **** #define PCD_ENDP4                                                     4U
 404:Drivers/STM32G0xx_HAL_Driver/Inc/stm32g0xx_hal_pcd.h **** #define PCD_ENDP5                                                     5U
 405:Drivers/STM32G0xx_HAL_Driver/Inc/stm32g0xx_hal_pcd.h **** #define PCD_ENDP6                                                     6U
 406:Drivers/STM32G0xx_HAL_Driver/Inc/stm32g0xx_hal_pcd.h **** #define PCD_ENDP7                                                     7U
 407:Drivers/STM32G0xx_HAL_Driver/Inc/stm32g0xx_hal_pcd.h **** /**
 408:Drivers/STM32G0xx_HAL_Driver/Inc/stm32g0xx_hal_pcd.h ****   * @}
 409:Drivers/STM32G0xx_HAL_Driver/Inc/stm32g0xx_hal_pcd.h ****   */
 410:Drivers/STM32G0xx_HAL_Driver/Inc/stm32g0xx_hal_pcd.h **** 
 411:Drivers/STM32G0xx_HAL_Driver/Inc/stm32g0xx_hal_pcd.h **** /** @defgroup PCD_ENDP_Kind PCD Endpoint Kind
 412:Drivers/STM32G0xx_HAL_Driver/Inc/stm32g0xx_hal_pcd.h ****   * @{
 413:Drivers/STM32G0xx_HAL_Driver/Inc/stm32g0xx_hal_pcd.h ****   */
 414:Drivers/STM32G0xx_HAL_Driver/Inc/stm32g0xx_hal_pcd.h **** #define PCD_SNG_BUF                                                   0U
 415:Drivers/STM32G0xx_HAL_Driver/Inc/stm32g0xx_hal_pcd.h **** #define PCD_DBL_BUF                                                   1U
 416:Drivers/STM32G0xx_HAL_Driver/Inc/stm32g0xx_hal_pcd.h **** /**
 417:Drivers/STM32G0xx_HAL_Driver/Inc/stm32g0xx_hal_pcd.h ****   * @}
 418:Drivers/STM32G0xx_HAL_Driver/Inc/stm32g0xx_hal_pcd.h ****   */
 419:Drivers/STM32G0xx_HAL_Driver/Inc/stm32g0xx_hal_pcd.h **** 
 420:Drivers/STM32G0xx_HAL_Driver/Inc/stm32g0xx_hal_pcd.h **** /**
 421:Drivers/STM32G0xx_HAL_Driver/Inc/stm32g0xx_hal_pcd.h ****   * @}
 422:Drivers/STM32G0xx_HAL_Driver/Inc/stm32g0xx_hal_pcd.h ****   */
 423:Drivers/STM32G0xx_HAL_Driver/Inc/stm32g0xx_hal_pcd.h **** 
 424:Drivers/STM32G0xx_HAL_Driver/Inc/stm32g0xx_hal_pcd.h **** /* Private macros ------------------------------------------------------------*/
 425:Drivers/STM32G0xx_HAL_Driver/Inc/stm32g0xx_hal_pcd.h **** /** @defgroup PCD_Private_Macros PCD Private Macros
 426:Drivers/STM32G0xx_HAL_Driver/Inc/stm32g0xx_hal_pcd.h ****   * @{
 427:Drivers/STM32G0xx_HAL_Driver/Inc/stm32g0xx_hal_pcd.h ****   */
 428:Drivers/STM32G0xx_HAL_Driver/Inc/stm32g0xx_hal_pcd.h **** /* SetENDPOINT */
 429:Drivers/STM32G0xx_HAL_Driver/Inc/stm32g0xx_hal_pcd.h **** #define PCD_SET_ENDPOINT                       USB_DRD_SET_CHEP
 430:Drivers/STM32G0xx_HAL_Driver/Inc/stm32g0xx_hal_pcd.h **** 
ARM GAS  /tmp/ccFvkBSI.s 			page 9


 431:Drivers/STM32G0xx_HAL_Driver/Inc/stm32g0xx_hal_pcd.h **** /* GetENDPOINT Register value*/
 432:Drivers/STM32G0xx_HAL_Driver/Inc/stm32g0xx_hal_pcd.h **** #define PCD_GET_ENDPOINT                       USB_DRD_GET_CHEP
 433:Drivers/STM32G0xx_HAL_Driver/Inc/stm32g0xx_hal_pcd.h **** 
 434:Drivers/STM32G0xx_HAL_Driver/Inc/stm32g0xx_hal_pcd.h **** /* ENDPOINT transfer */
 435:Drivers/STM32G0xx_HAL_Driver/Inc/stm32g0xx_hal_pcd.h **** #define USB_EP0StartXfer                       USB_EPStartXfer
 436:Drivers/STM32G0xx_HAL_Driver/Inc/stm32g0xx_hal_pcd.h **** 
 437:Drivers/STM32G0xx_HAL_Driver/Inc/stm32g0xx_hal_pcd.h **** /**
 438:Drivers/STM32G0xx_HAL_Driver/Inc/stm32g0xx_hal_pcd.h ****   * @brief free buffer used from the application realizing it to the line
 439:Drivers/STM32G0xx_HAL_Driver/Inc/stm32g0xx_hal_pcd.h ****   *         toggles bit SW_BUF in the double buffered endpoint register
 440:Drivers/STM32G0xx_HAL_Driver/Inc/stm32g0xx_hal_pcd.h ****   * @param USBx USB device.
 441:Drivers/STM32G0xx_HAL_Driver/Inc/stm32g0xx_hal_pcd.h ****   * @param   bEpNum, bDir
 442:Drivers/STM32G0xx_HAL_Driver/Inc/stm32g0xx_hal_pcd.h ****   * @retval None
 443:Drivers/STM32G0xx_HAL_Driver/Inc/stm32g0xx_hal_pcd.h ****   */
 444:Drivers/STM32G0xx_HAL_Driver/Inc/stm32g0xx_hal_pcd.h **** #define PCD_FreeUserBuffer                     USB_DRD_FreeUserBuffer
 445:Drivers/STM32G0xx_HAL_Driver/Inc/stm32g0xx_hal_pcd.h **** 
 446:Drivers/STM32G0xx_HAL_Driver/Inc/stm32g0xx_hal_pcd.h **** /**
 447:Drivers/STM32G0xx_HAL_Driver/Inc/stm32g0xx_hal_pcd.h ****   * @brief  sets the status for tx transfer (bits STAT_TX[1:0]).
 448:Drivers/STM32G0xx_HAL_Driver/Inc/stm32g0xx_hal_pcd.h ****   * @param  USBx USB peripheral instance register address.
 449:Drivers/STM32G0xx_HAL_Driver/Inc/stm32g0xx_hal_pcd.h ****   * @param  bEpNum Endpoint Number.
 450:Drivers/STM32G0xx_HAL_Driver/Inc/stm32g0xx_hal_pcd.h ****   * @param  wState new state
 451:Drivers/STM32G0xx_HAL_Driver/Inc/stm32g0xx_hal_pcd.h ****   * @retval None
 452:Drivers/STM32G0xx_HAL_Driver/Inc/stm32g0xx_hal_pcd.h ****   */
 453:Drivers/STM32G0xx_HAL_Driver/Inc/stm32g0xx_hal_pcd.h **** #define PCD_SET_EP_TX_STATUS                   USB_DRD_SET_CHEP_TX_STATUS
 454:Drivers/STM32G0xx_HAL_Driver/Inc/stm32g0xx_hal_pcd.h **** 
 455:Drivers/STM32G0xx_HAL_Driver/Inc/stm32g0xx_hal_pcd.h **** /**
 456:Drivers/STM32G0xx_HAL_Driver/Inc/stm32g0xx_hal_pcd.h ****   * @brief  sets the status for rx transfer (bits STAT_TX[1:0])
 457:Drivers/STM32G0xx_HAL_Driver/Inc/stm32g0xx_hal_pcd.h ****   * @param  USBx USB peripheral instance register address.
 458:Drivers/STM32G0xx_HAL_Driver/Inc/stm32g0xx_hal_pcd.h ****   * @param  bEpNum Endpoint Number.
 459:Drivers/STM32G0xx_HAL_Driver/Inc/stm32g0xx_hal_pcd.h ****   * @param  wState new state
 460:Drivers/STM32G0xx_HAL_Driver/Inc/stm32g0xx_hal_pcd.h ****   * @retval None
 461:Drivers/STM32G0xx_HAL_Driver/Inc/stm32g0xx_hal_pcd.h ****   */
 462:Drivers/STM32G0xx_HAL_Driver/Inc/stm32g0xx_hal_pcd.h **** #define PCD_SET_EP_RX_STATUS                   USB_DRD_SET_CHEP_RX_STATUS
 463:Drivers/STM32G0xx_HAL_Driver/Inc/stm32g0xx_hal_pcd.h **** 
 464:Drivers/STM32G0xx_HAL_Driver/Inc/stm32g0xx_hal_pcd.h **** /**
 465:Drivers/STM32G0xx_HAL_Driver/Inc/stm32g0xx_hal_pcd.h ****   * @brief  Sets/clears directly EP_KIND bit in the endpoint register.
 466:Drivers/STM32G0xx_HAL_Driver/Inc/stm32g0xx_hal_pcd.h ****   * @param  USBx USB peripheral instance register address.
 467:Drivers/STM32G0xx_HAL_Driver/Inc/stm32g0xx_hal_pcd.h ****   * @param  bEpNum Endpoint Number.
 468:Drivers/STM32G0xx_HAL_Driver/Inc/stm32g0xx_hal_pcd.h ****   * @retval None
 469:Drivers/STM32G0xx_HAL_Driver/Inc/stm32g0xx_hal_pcd.h ****   */
 470:Drivers/STM32G0xx_HAL_Driver/Inc/stm32g0xx_hal_pcd.h **** #define PCD_SET_EP_DBUF                        USB_DRD_SET_CHEP_KIND
 471:Drivers/STM32G0xx_HAL_Driver/Inc/stm32g0xx_hal_pcd.h **** #define PCD_CLEAR_EP_DBUF                      USB_DRD_CLEAR_CHEP_KIND
 472:Drivers/STM32G0xx_HAL_Driver/Inc/stm32g0xx_hal_pcd.h **** 
 473:Drivers/STM32G0xx_HAL_Driver/Inc/stm32g0xx_hal_pcd.h **** /**
 474:Drivers/STM32G0xx_HAL_Driver/Inc/stm32g0xx_hal_pcd.h ****   * @brief  Clears bit CTR_RX / CTR_TX in the endpoint register.
 475:Drivers/STM32G0xx_HAL_Driver/Inc/stm32g0xx_hal_pcd.h ****   * @param  USBx USB peripheral instance register address.
 476:Drivers/STM32G0xx_HAL_Driver/Inc/stm32g0xx_hal_pcd.h ****   * @param  bEpNum Endpoint Number.
 477:Drivers/STM32G0xx_HAL_Driver/Inc/stm32g0xx_hal_pcd.h ****   * @retval None
 478:Drivers/STM32G0xx_HAL_Driver/Inc/stm32g0xx_hal_pcd.h ****   */
 479:Drivers/STM32G0xx_HAL_Driver/Inc/stm32g0xx_hal_pcd.h **** #define PCD_CLEAR_RX_EP_CTR                    USB_DRD_CLEAR_RX_CHEP_CTR
 480:Drivers/STM32G0xx_HAL_Driver/Inc/stm32g0xx_hal_pcd.h **** #define PCD_CLEAR_TX_EP_CTR                    USB_DRD_CLEAR_TX_CHEP_CTR
 481:Drivers/STM32G0xx_HAL_Driver/Inc/stm32g0xx_hal_pcd.h **** /**
 482:Drivers/STM32G0xx_HAL_Driver/Inc/stm32g0xx_hal_pcd.h ****   * @brief  Toggles DTOG_RX / DTOG_TX bit in the endpoint register.
 483:Drivers/STM32G0xx_HAL_Driver/Inc/stm32g0xx_hal_pcd.h ****   * @param  USBx USB peripheral instance register address.
 484:Drivers/STM32G0xx_HAL_Driver/Inc/stm32g0xx_hal_pcd.h ****   * @param  bEpNum Endpoint Number.
 485:Drivers/STM32G0xx_HAL_Driver/Inc/stm32g0xx_hal_pcd.h ****   * @retval None
 486:Drivers/STM32G0xx_HAL_Driver/Inc/stm32g0xx_hal_pcd.h ****   */
 487:Drivers/STM32G0xx_HAL_Driver/Inc/stm32g0xx_hal_pcd.h **** #define PCD_RX_DTOG                            USB_DRD_RX_DTOG
ARM GAS  /tmp/ccFvkBSI.s 			page 10


 488:Drivers/STM32G0xx_HAL_Driver/Inc/stm32g0xx_hal_pcd.h **** #define PCD_TX_DTOG                            USB_DRD_TX_DTOG
 489:Drivers/STM32G0xx_HAL_Driver/Inc/stm32g0xx_hal_pcd.h **** /**
 490:Drivers/STM32G0xx_HAL_Driver/Inc/stm32g0xx_hal_pcd.h ****   * @brief  Clears DTOG_RX / DTOG_TX bit in the endpoint register.
 491:Drivers/STM32G0xx_HAL_Driver/Inc/stm32g0xx_hal_pcd.h ****   * @param  USBx USB peripheral instance register address.
 492:Drivers/STM32G0xx_HAL_Driver/Inc/stm32g0xx_hal_pcd.h ****   * @param  bEpNum Endpoint Number.
 493:Drivers/STM32G0xx_HAL_Driver/Inc/stm32g0xx_hal_pcd.h ****   * @retval None
 494:Drivers/STM32G0xx_HAL_Driver/Inc/stm32g0xx_hal_pcd.h ****   */
 495:Drivers/STM32G0xx_HAL_Driver/Inc/stm32g0xx_hal_pcd.h **** #define PCD_CLEAR_RX_DTOG                      USB_DRD_CLEAR_RX_DTOG
 496:Drivers/STM32G0xx_HAL_Driver/Inc/stm32g0xx_hal_pcd.h **** #define PCD_CLEAR_TX_DTOG                      USB_DRD_CLEAR_TX_DTOG
 497:Drivers/STM32G0xx_HAL_Driver/Inc/stm32g0xx_hal_pcd.h **** 
 498:Drivers/STM32G0xx_HAL_Driver/Inc/stm32g0xx_hal_pcd.h **** /**
 499:Drivers/STM32G0xx_HAL_Driver/Inc/stm32g0xx_hal_pcd.h ****   * @brief  Sets address in an endpoint register.
 500:Drivers/STM32G0xx_HAL_Driver/Inc/stm32g0xx_hal_pcd.h ****   * @param  USBx USB peripheral instance register address.
 501:Drivers/STM32G0xx_HAL_Driver/Inc/stm32g0xx_hal_pcd.h ****   * @param  bEpNum Endpoint Number.
 502:Drivers/STM32G0xx_HAL_Driver/Inc/stm32g0xx_hal_pcd.h ****   * @param  bAddr Address.
 503:Drivers/STM32G0xx_HAL_Driver/Inc/stm32g0xx_hal_pcd.h ****   * @retval None
 504:Drivers/STM32G0xx_HAL_Driver/Inc/stm32g0xx_hal_pcd.h ****   */
 505:Drivers/STM32G0xx_HAL_Driver/Inc/stm32g0xx_hal_pcd.h **** #define PCD_SET_EP_ADDRESS                     USB_DRD_SET_CHEP_ADDRESS
 506:Drivers/STM32G0xx_HAL_Driver/Inc/stm32g0xx_hal_pcd.h **** 
 507:Drivers/STM32G0xx_HAL_Driver/Inc/stm32g0xx_hal_pcd.h **** /**
 508:Drivers/STM32G0xx_HAL_Driver/Inc/stm32g0xx_hal_pcd.h ****   * @brief  sets address of the tx/rx buffer.
 509:Drivers/STM32G0xx_HAL_Driver/Inc/stm32g0xx_hal_pcd.h ****   * @param  USBx USB peripheral instance register address.
 510:Drivers/STM32G0xx_HAL_Driver/Inc/stm32g0xx_hal_pcd.h ****   * @param  bEpNum Endpoint Number.
 511:Drivers/STM32G0xx_HAL_Driver/Inc/stm32g0xx_hal_pcd.h ****   * @param  wAddr address to be set (must be word aligned).
 512:Drivers/STM32G0xx_HAL_Driver/Inc/stm32g0xx_hal_pcd.h ****   * @retval None
 513:Drivers/STM32G0xx_HAL_Driver/Inc/stm32g0xx_hal_pcd.h ****   */
 514:Drivers/STM32G0xx_HAL_Driver/Inc/stm32g0xx_hal_pcd.h **** #define PCD_SET_EP_TX_ADDRESS                  USB_DRD_SET_CHEP_TX_ADDRESS
 515:Drivers/STM32G0xx_HAL_Driver/Inc/stm32g0xx_hal_pcd.h **** #define PCD_SET_EP_RX_ADDRESS                  USB_DRD_SET_CHEP_RX_ADDRESS
 516:Drivers/STM32G0xx_HAL_Driver/Inc/stm32g0xx_hal_pcd.h **** 
 517:Drivers/STM32G0xx_HAL_Driver/Inc/stm32g0xx_hal_pcd.h **** /**
 518:Drivers/STM32G0xx_HAL_Driver/Inc/stm32g0xx_hal_pcd.h ****   * @brief  sets counter for the tx/rx buffer.
 519:Drivers/STM32G0xx_HAL_Driver/Inc/stm32g0xx_hal_pcd.h ****   * @param  USBx USB peripheral instance register address.
 520:Drivers/STM32G0xx_HAL_Driver/Inc/stm32g0xx_hal_pcd.h ****   * @param  bEpNum Endpoint Number.
 521:Drivers/STM32G0xx_HAL_Driver/Inc/stm32g0xx_hal_pcd.h ****   * @param  wCount Counter value.
 522:Drivers/STM32G0xx_HAL_Driver/Inc/stm32g0xx_hal_pcd.h ****   * @retval None
 523:Drivers/STM32G0xx_HAL_Driver/Inc/stm32g0xx_hal_pcd.h ****   */
 524:Drivers/STM32G0xx_HAL_Driver/Inc/stm32g0xx_hal_pcd.h **** #define PCD_SET_EP_TX_CNT                      USB_DRD_SET_CHEP_TX_CNT
 525:Drivers/STM32G0xx_HAL_Driver/Inc/stm32g0xx_hal_pcd.h **** #define PCD_SET_EP_RX_CNT                      USB_DRD_SET_CHEP_RX_CNT
 526:Drivers/STM32G0xx_HAL_Driver/Inc/stm32g0xx_hal_pcd.h **** 
 527:Drivers/STM32G0xx_HAL_Driver/Inc/stm32g0xx_hal_pcd.h **** /**
 528:Drivers/STM32G0xx_HAL_Driver/Inc/stm32g0xx_hal_pcd.h ****   * @brief  gets counter of the tx buffer.
 529:Drivers/STM32G0xx_HAL_Driver/Inc/stm32g0xx_hal_pcd.h ****   * @param  USBx USB peripheral instance register address.
 530:Drivers/STM32G0xx_HAL_Driver/Inc/stm32g0xx_hal_pcd.h ****   * @param  bEpNum Endpoint Number.
 531:Drivers/STM32G0xx_HAL_Driver/Inc/stm32g0xx_hal_pcd.h ****   * @retval Counter value
 532:Drivers/STM32G0xx_HAL_Driver/Inc/stm32g0xx_hal_pcd.h ****   */
 533:Drivers/STM32G0xx_HAL_Driver/Inc/stm32g0xx_hal_pcd.h **** #define PCD_GET_EP_TX_CNT                      USB_DRD_GET_CHEP_TX_CNT
 534:Drivers/STM32G0xx_HAL_Driver/Inc/stm32g0xx_hal_pcd.h **** 
 535:Drivers/STM32G0xx_HAL_Driver/Inc/stm32g0xx_hal_pcd.h **** /**
 536:Drivers/STM32G0xx_HAL_Driver/Inc/stm32g0xx_hal_pcd.h ****   * @brief  gets counter of the rx buffer.
 537:Drivers/STM32G0xx_HAL_Driver/Inc/stm32g0xx_hal_pcd.h ****   * @param  Instance USB peripheral instance register address.
 538:Drivers/STM32G0xx_HAL_Driver/Inc/stm32g0xx_hal_pcd.h ****   * @param  bEpNum channel Number.
 539:Drivers/STM32G0xx_HAL_Driver/Inc/stm32g0xx_hal_pcd.h ****   * @retval Counter value
 540:Drivers/STM32G0xx_HAL_Driver/Inc/stm32g0xx_hal_pcd.h ****   */
 541:Drivers/STM32G0xx_HAL_Driver/Inc/stm32g0xx_hal_pcd.h **** __STATIC_INLINE uint16_t PCD_GET_EP_RX_CNT(PCD_TypeDef *Instance, uint16_t bEpNum)
 542:Drivers/STM32G0xx_HAL_Driver/Inc/stm32g0xx_hal_pcd.h **** {
  28              		.loc 2 542 1 view -0
  29              		.cfi_startproc
ARM GAS  /tmp/ccFvkBSI.s 			page 11


  30              		@ args = 0, pretend = 0, frame = 8
  31              		@ frame_needed = 0, uses_anonymous_args = 0
  32              		@ link register save eliminated.
  33              		.loc 2 542 1 is_stmt 0 view .LVU1
  34 0000 82B0     		sub	sp, sp, #8
  35              	.LCFI0:
  36              		.cfi_def_cfa_offset 8
 543:Drivers/STM32G0xx_HAL_Driver/Inc/stm32g0xx_hal_pcd.h ****   UNUSED(Instance);
  37              		.loc 2 543 3 is_stmt 1 view .LVU2
 544:Drivers/STM32G0xx_HAL_Driver/Inc/stm32g0xx_hal_pcd.h ****   __IO uint32_t count = 10U;
  38              		.loc 2 544 3 view .LVU3
  39              		.loc 2 544 17 is_stmt 0 view .LVU4
  40 0002 0A23     		movs	r3, #10
  41 0004 0193     		str	r3, [sp, #4]
 545:Drivers/STM32G0xx_HAL_Driver/Inc/stm32g0xx_hal_pcd.h **** 
 546:Drivers/STM32G0xx_HAL_Driver/Inc/stm32g0xx_hal_pcd.h ****   /* WA: few cycles for RX PMA descriptor to update */
 547:Drivers/STM32G0xx_HAL_Driver/Inc/stm32g0xx_hal_pcd.h ****   while (count > 0U)
  42              		.loc 2 547 3 is_stmt 1 view .LVU5
  43              		.loc 2 547 9 is_stmt 0 view .LVU6
  44 0006 02E0     		b	.L2
  45              	.L3:
 548:Drivers/STM32G0xx_HAL_Driver/Inc/stm32g0xx_hal_pcd.h ****   {
 549:Drivers/STM32G0xx_HAL_Driver/Inc/stm32g0xx_hal_pcd.h ****     count--;
  46              		.loc 2 549 5 is_stmt 1 view .LVU7
  47              		.loc 2 549 10 is_stmt 0 view .LVU8
  48 0008 019B     		ldr	r3, [sp, #4]
  49 000a 013B     		subs	r3, r3, #1
  50 000c 0193     		str	r3, [sp, #4]
  51              	.L2:
 547:Drivers/STM32G0xx_HAL_Driver/Inc/stm32g0xx_hal_pcd.h ****   {
  52              		.loc 2 547 16 is_stmt 1 view .LVU9
  53 000e 019B     		ldr	r3, [sp, #4]
  54 0010 002B     		cmp	r3, #0
  55 0012 F9D1     		bne	.L3
 550:Drivers/STM32G0xx_HAL_Driver/Inc/stm32g0xx_hal_pcd.h ****   }
 551:Drivers/STM32G0xx_HAL_Driver/Inc/stm32g0xx_hal_pcd.h **** 
 552:Drivers/STM32G0xx_HAL_Driver/Inc/stm32g0xx_hal_pcd.h ****   return (uint16_t)USB_DRD_GET_CHEP_RX_CNT((Instance), (bEpNum));
  56              		.loc 2 552 3 view .LVU10
  57              		.loc 2 552 20 is_stmt 0 view .LVU11
  58 0014 CB00     		lsls	r3, r1, #3
  59 0016 044A     		ldr	r2, .L4
  60 0018 9446     		mov	ip, r2
  61 001a 6344     		add	r3, r3, ip
  62 001c 5868     		ldr	r0, [r3, #4]
  63              	.LVL1:
  64              		.loc 2 552 20 view .LVU12
  65 001e 000C     		lsrs	r0, r0, #16
  66              		.loc 2 552 10 view .LVU13
  67 0020 8005     		lsls	r0, r0, #22
  68 0022 800D     		lsrs	r0, r0, #22
 553:Drivers/STM32G0xx_HAL_Driver/Inc/stm32g0xx_hal_pcd.h **** }
  69              		.loc 2 553 1 view .LVU14
  70 0024 02B0     		add	sp, sp, #8
  71              		@ sp needed
  72 0026 7047     		bx	lr
  73              	.L5:
  74              		.align	2
ARM GAS  /tmp/ccFvkBSI.s 			page 12


  75              	.L4:
  76 0028 00980040 		.word	1073780736
  77              		.cfi_endproc
  78              	.LFE355:
  80              		.section	.text.PCD_GET_EP_DBUF0_CNT,"ax",%progbits
  81              		.align	1
  82              		.syntax unified
  83              		.code	16
  84              		.thumb_func
  86              	PCD_GET_EP_DBUF0_CNT:
  87              	.LVL2:
  88              	.LFB356:
 554:Drivers/STM32G0xx_HAL_Driver/Inc/stm32g0xx_hal_pcd.h **** 
 555:Drivers/STM32G0xx_HAL_Driver/Inc/stm32g0xx_hal_pcd.h **** /**
 556:Drivers/STM32G0xx_HAL_Driver/Inc/stm32g0xx_hal_pcd.h ****   * @brief  Sets addresses in a double buffer endpoint.
 557:Drivers/STM32G0xx_HAL_Driver/Inc/stm32g0xx_hal_pcd.h ****   * @param  USBx USB peripheral instance register address.
 558:Drivers/STM32G0xx_HAL_Driver/Inc/stm32g0xx_hal_pcd.h ****   * @param  bEpNum Endpoint Number.
 559:Drivers/STM32G0xx_HAL_Driver/Inc/stm32g0xx_hal_pcd.h ****   * @param  wBuf0Addr: buffer 0 address.
 560:Drivers/STM32G0xx_HAL_Driver/Inc/stm32g0xx_hal_pcd.h ****   * @param  wBuf1Addr = buffer 1 address.
 561:Drivers/STM32G0xx_HAL_Driver/Inc/stm32g0xx_hal_pcd.h ****   * @retval None
 562:Drivers/STM32G0xx_HAL_Driver/Inc/stm32g0xx_hal_pcd.h ****   */
 563:Drivers/STM32G0xx_HAL_Driver/Inc/stm32g0xx_hal_pcd.h **** #define PCD_SET_EP_DBUF_ADDR                   USB_DRD_SET_CHEP_DBUF_ADDR
 564:Drivers/STM32G0xx_HAL_Driver/Inc/stm32g0xx_hal_pcd.h **** 
 565:Drivers/STM32G0xx_HAL_Driver/Inc/stm32g0xx_hal_pcd.h **** /**
 566:Drivers/STM32G0xx_HAL_Driver/Inc/stm32g0xx_hal_pcd.h ****   * @brief  Gets buffer 0/1 address of a double buffer endpoint.
 567:Drivers/STM32G0xx_HAL_Driver/Inc/stm32g0xx_hal_pcd.h ****   * @param  USBx USB peripheral instance register address.
 568:Drivers/STM32G0xx_HAL_Driver/Inc/stm32g0xx_hal_pcd.h ****   * @param  bEpNum Endpoint Number.
 569:Drivers/STM32G0xx_HAL_Driver/Inc/stm32g0xx_hal_pcd.h ****   * @param  bDir endpoint dir  EP_DBUF_OUT = OUT
 570:Drivers/STM32G0xx_HAL_Driver/Inc/stm32g0xx_hal_pcd.h ****   *         EP_DBUF_IN  = IN
 571:Drivers/STM32G0xx_HAL_Driver/Inc/stm32g0xx_hal_pcd.h ****   * @param  wCount: Counter value
 572:Drivers/STM32G0xx_HAL_Driver/Inc/stm32g0xx_hal_pcd.h ****   * @retval None
 573:Drivers/STM32G0xx_HAL_Driver/Inc/stm32g0xx_hal_pcd.h ****   */
 574:Drivers/STM32G0xx_HAL_Driver/Inc/stm32g0xx_hal_pcd.h **** #define PCD_SET_EP_DBUF0_CNT                   USB_DRD_SET_CHEP_DBUF0_CNT
 575:Drivers/STM32G0xx_HAL_Driver/Inc/stm32g0xx_hal_pcd.h **** #define PCD_SET_EP_DBUF1_CNT                   USB_DRD_SET_CHEP_DBUF1_CNT
 576:Drivers/STM32G0xx_HAL_Driver/Inc/stm32g0xx_hal_pcd.h **** #define PCD_SET_EP_DBUF_CNT                    USB_DRD_SET_CHEP_DBUF_CNT
 577:Drivers/STM32G0xx_HAL_Driver/Inc/stm32g0xx_hal_pcd.h **** 
 578:Drivers/STM32G0xx_HAL_Driver/Inc/stm32g0xx_hal_pcd.h **** /**
 579:Drivers/STM32G0xx_HAL_Driver/Inc/stm32g0xx_hal_pcd.h ****   * @brief  gets counter of the rx buffer0.
 580:Drivers/STM32G0xx_HAL_Driver/Inc/stm32g0xx_hal_pcd.h ****   * @param  Instance USB peripheral instance register address.
 581:Drivers/STM32G0xx_HAL_Driver/Inc/stm32g0xx_hal_pcd.h ****   * @param  bEpNum channel Number.
 582:Drivers/STM32G0xx_HAL_Driver/Inc/stm32g0xx_hal_pcd.h ****   * @retval Counter value
 583:Drivers/STM32G0xx_HAL_Driver/Inc/stm32g0xx_hal_pcd.h ****   */
 584:Drivers/STM32G0xx_HAL_Driver/Inc/stm32g0xx_hal_pcd.h **** __STATIC_INLINE uint16_t PCD_GET_EP_DBUF0_CNT(PCD_TypeDef *Instance, uint16_t bEpNum)
 585:Drivers/STM32G0xx_HAL_Driver/Inc/stm32g0xx_hal_pcd.h **** {
  89              		.loc 2 585 1 is_stmt 1 view -0
  90              		.cfi_startproc
  91              		@ args = 0, pretend = 0, frame = 8
  92              		@ frame_needed = 0, uses_anonymous_args = 0
  93              		@ link register save eliminated.
  94              		.loc 2 585 1 is_stmt 0 view .LVU16
  95 0000 82B0     		sub	sp, sp, #8
  96              	.LCFI1:
  97              		.cfi_def_cfa_offset 8
 586:Drivers/STM32G0xx_HAL_Driver/Inc/stm32g0xx_hal_pcd.h ****   UNUSED(Instance);
  98              		.loc 2 586 3 is_stmt 1 view .LVU17
 587:Drivers/STM32G0xx_HAL_Driver/Inc/stm32g0xx_hal_pcd.h ****   __IO uint32_t count = 10U;
  99              		.loc 2 587 3 view .LVU18
ARM GAS  /tmp/ccFvkBSI.s 			page 13


 100              		.loc 2 587 17 is_stmt 0 view .LVU19
 101 0002 0A23     		movs	r3, #10
 102 0004 0193     		str	r3, [sp, #4]
 588:Drivers/STM32G0xx_HAL_Driver/Inc/stm32g0xx_hal_pcd.h **** 
 589:Drivers/STM32G0xx_HAL_Driver/Inc/stm32g0xx_hal_pcd.h ****   /* WA: few cycles for RX PMA descriptor to update */
 590:Drivers/STM32G0xx_HAL_Driver/Inc/stm32g0xx_hal_pcd.h ****   while (count > 0U)
 103              		.loc 2 590 3 is_stmt 1 view .LVU20
 104              		.loc 2 590 9 is_stmt 0 view .LVU21
 105 0006 02E0     		b	.L7
 106              	.L8:
 591:Drivers/STM32G0xx_HAL_Driver/Inc/stm32g0xx_hal_pcd.h ****   {
 592:Drivers/STM32G0xx_HAL_Driver/Inc/stm32g0xx_hal_pcd.h ****     count--;
 107              		.loc 2 592 5 is_stmt 1 view .LVU22
 108              		.loc 2 592 10 is_stmt 0 view .LVU23
 109 0008 019B     		ldr	r3, [sp, #4]
 110 000a 013B     		subs	r3, r3, #1
 111 000c 0193     		str	r3, [sp, #4]
 112              	.L7:
 590:Drivers/STM32G0xx_HAL_Driver/Inc/stm32g0xx_hal_pcd.h ****   {
 113              		.loc 2 590 16 is_stmt 1 view .LVU24
 114 000e 019B     		ldr	r3, [sp, #4]
 115 0010 002B     		cmp	r3, #0
 116 0012 F9D1     		bne	.L8
 593:Drivers/STM32G0xx_HAL_Driver/Inc/stm32g0xx_hal_pcd.h ****   }
 594:Drivers/STM32G0xx_HAL_Driver/Inc/stm32g0xx_hal_pcd.h **** 
 595:Drivers/STM32G0xx_HAL_Driver/Inc/stm32g0xx_hal_pcd.h ****   return (uint16_t)USB_DRD_GET_CHEP_DBUF0_CNT((Instance), (bEpNum));
 117              		.loc 2 595 3 view .LVU25
 118              		.loc 2 595 20 is_stmt 0 view .LVU26
 119 0014 CB00     		lsls	r3, r1, #3
 120 0016 044A     		ldr	r2, .L9
 121 0018 9446     		mov	ip, r2
 122 001a 6344     		add	r3, r3, ip
 123 001c 1868     		ldr	r0, [r3]
 124              	.LVL3:
 125              		.loc 2 595 20 view .LVU27
 126 001e 000C     		lsrs	r0, r0, #16
 127              		.loc 2 595 10 view .LVU28
 128 0020 8005     		lsls	r0, r0, #22
 129 0022 800D     		lsrs	r0, r0, #22
 596:Drivers/STM32G0xx_HAL_Driver/Inc/stm32g0xx_hal_pcd.h **** }
 130              		.loc 2 596 1 view .LVU29
 131 0024 02B0     		add	sp, sp, #8
 132              		@ sp needed
 133 0026 7047     		bx	lr
 134              	.L10:
 135              		.align	2
 136              	.L9:
 137 0028 00980040 		.word	1073780736
 138              		.cfi_endproc
 139              	.LFE356:
 141              		.section	.text.PCD_GET_EP_DBUF1_CNT,"ax",%progbits
 142              		.align	1
 143              		.syntax unified
 144              		.code	16
 145              		.thumb_func
 147              	PCD_GET_EP_DBUF1_CNT:
 148              	.LVL4:
ARM GAS  /tmp/ccFvkBSI.s 			page 14


 149              	.LFB357:
 597:Drivers/STM32G0xx_HAL_Driver/Inc/stm32g0xx_hal_pcd.h **** 
 598:Drivers/STM32G0xx_HAL_Driver/Inc/stm32g0xx_hal_pcd.h **** /**
 599:Drivers/STM32G0xx_HAL_Driver/Inc/stm32g0xx_hal_pcd.h ****   * @brief  gets counter of the rx buffer1.
 600:Drivers/STM32G0xx_HAL_Driver/Inc/stm32g0xx_hal_pcd.h ****   * @param  Instance USB peripheral instance register address.
 601:Drivers/STM32G0xx_HAL_Driver/Inc/stm32g0xx_hal_pcd.h ****   * @param  bEpNum channel Number.
 602:Drivers/STM32G0xx_HAL_Driver/Inc/stm32g0xx_hal_pcd.h ****   * @retval Counter value
 603:Drivers/STM32G0xx_HAL_Driver/Inc/stm32g0xx_hal_pcd.h ****   */
 604:Drivers/STM32G0xx_HAL_Driver/Inc/stm32g0xx_hal_pcd.h **** __STATIC_INLINE uint16_t PCD_GET_EP_DBUF1_CNT(PCD_TypeDef *Instance, uint16_t bEpNum)
 605:Drivers/STM32G0xx_HAL_Driver/Inc/stm32g0xx_hal_pcd.h **** {
 150              		.loc 2 605 1 is_stmt 1 view -0
 151              		.cfi_startproc
 152              		@ args = 0, pretend = 0, frame = 8
 153              		@ frame_needed = 0, uses_anonymous_args = 0
 154              		@ link register save eliminated.
 155              		.loc 2 605 1 is_stmt 0 view .LVU31
 156 0000 82B0     		sub	sp, sp, #8
 157              	.LCFI2:
 158              		.cfi_def_cfa_offset 8
 606:Drivers/STM32G0xx_HAL_Driver/Inc/stm32g0xx_hal_pcd.h ****   UNUSED(Instance);
 159              		.loc 2 606 3 is_stmt 1 view .LVU32
 607:Drivers/STM32G0xx_HAL_Driver/Inc/stm32g0xx_hal_pcd.h ****   __IO uint32_t count = 10U;
 160              		.loc 2 607 3 view .LVU33
 161              		.loc 2 607 17 is_stmt 0 view .LVU34
 162 0002 0A23     		movs	r3, #10
 163 0004 0193     		str	r3, [sp, #4]
 608:Drivers/STM32G0xx_HAL_Driver/Inc/stm32g0xx_hal_pcd.h **** 
 609:Drivers/STM32G0xx_HAL_Driver/Inc/stm32g0xx_hal_pcd.h ****   /* WA: few cycles for RX PMA descriptor to update */
 610:Drivers/STM32G0xx_HAL_Driver/Inc/stm32g0xx_hal_pcd.h ****   while (count > 0U)
 164              		.loc 2 610 3 is_stmt 1 view .LVU35
 165              		.loc 2 610 9 is_stmt 0 view .LVU36
 166 0006 02E0     		b	.L12
 167              	.L13:
 611:Drivers/STM32G0xx_HAL_Driver/Inc/stm32g0xx_hal_pcd.h ****   {
 612:Drivers/STM32G0xx_HAL_Driver/Inc/stm32g0xx_hal_pcd.h ****     count--;
 168              		.loc 2 612 5 is_stmt 1 view .LVU37
 169              		.loc 2 612 10 is_stmt 0 view .LVU38
 170 0008 019B     		ldr	r3, [sp, #4]
 171 000a 013B     		subs	r3, r3, #1
 172 000c 0193     		str	r3, [sp, #4]
 173              	.L12:
 610:Drivers/STM32G0xx_HAL_Driver/Inc/stm32g0xx_hal_pcd.h ****   {
 174              		.loc 2 610 16 is_stmt 1 view .LVU39
 175 000e 019B     		ldr	r3, [sp, #4]
 176 0010 002B     		cmp	r3, #0
 177 0012 F9D1     		bne	.L13
 613:Drivers/STM32G0xx_HAL_Driver/Inc/stm32g0xx_hal_pcd.h ****   }
 614:Drivers/STM32G0xx_HAL_Driver/Inc/stm32g0xx_hal_pcd.h **** 
 615:Drivers/STM32G0xx_HAL_Driver/Inc/stm32g0xx_hal_pcd.h ****   return (uint16_t)USB_DRD_GET_CHEP_DBUF1_CNT((Instance), (bEpNum));
 178              		.loc 2 615 3 view .LVU40
 179              		.loc 2 615 20 is_stmt 0 view .LVU41
 180 0014 CB00     		lsls	r3, r1, #3
 181 0016 044A     		ldr	r2, .L14
 182 0018 9446     		mov	ip, r2
 183 001a 6344     		add	r3, r3, ip
 184 001c 5868     		ldr	r0, [r3, #4]
 185              	.LVL5:
ARM GAS  /tmp/ccFvkBSI.s 			page 15


 186              		.loc 2 615 20 view .LVU42
 187 001e 000C     		lsrs	r0, r0, #16
 188              		.loc 2 615 10 view .LVU43
 189 0020 8005     		lsls	r0, r0, #22
 190 0022 800D     		lsrs	r0, r0, #22
 616:Drivers/STM32G0xx_HAL_Driver/Inc/stm32g0xx_hal_pcd.h **** }
 191              		.loc 2 616 1 view .LVU44
 192 0024 02B0     		add	sp, sp, #8
 193              		@ sp needed
 194 0026 7047     		bx	lr
 195              	.L15:
 196              		.align	2
 197              	.L14:
 198 0028 00980040 		.word	1073780736
 199              		.cfi_endproc
 200              	.LFE357:
 202              		.section	.text.HAL_PCD_EP_DB_Receive,"ax",%progbits
 203              		.align	1
 204              		.syntax unified
 205              		.code	16
 206              		.thumb_func
 208              	HAL_PCD_EP_DB_Receive:
 209              	.LVL6:
 210              	.LFB391:
   1:Drivers/STM32G0xx_HAL_Driver/Src/stm32g0xx_hal_pcd.c **** /**
   2:Drivers/STM32G0xx_HAL_Driver/Src/stm32g0xx_hal_pcd.c ****   ******************************************************************************
   3:Drivers/STM32G0xx_HAL_Driver/Src/stm32g0xx_hal_pcd.c ****   * @file    stm32g0xx_hal_pcd.c
   4:Drivers/STM32G0xx_HAL_Driver/Src/stm32g0xx_hal_pcd.c ****   * @author  MCD Application Team
   5:Drivers/STM32G0xx_HAL_Driver/Src/stm32g0xx_hal_pcd.c ****   * @brief   PCD HAL module driver.
   6:Drivers/STM32G0xx_HAL_Driver/Src/stm32g0xx_hal_pcd.c ****   *          This file provides firmware functions to manage the following
   7:Drivers/STM32G0xx_HAL_Driver/Src/stm32g0xx_hal_pcd.c ****   *          functionalities of the USB Peripheral Controller:
   8:Drivers/STM32G0xx_HAL_Driver/Src/stm32g0xx_hal_pcd.c ****   *           + Initialization and de-initialization functions
   9:Drivers/STM32G0xx_HAL_Driver/Src/stm32g0xx_hal_pcd.c ****   *           + IO operation functions
  10:Drivers/STM32G0xx_HAL_Driver/Src/stm32g0xx_hal_pcd.c ****   *           + Peripheral Control functions
  11:Drivers/STM32G0xx_HAL_Driver/Src/stm32g0xx_hal_pcd.c ****   *           + Peripheral State functions
  12:Drivers/STM32G0xx_HAL_Driver/Src/stm32g0xx_hal_pcd.c ****   *
  13:Drivers/STM32G0xx_HAL_Driver/Src/stm32g0xx_hal_pcd.c ****   @verbatim
  14:Drivers/STM32G0xx_HAL_Driver/Src/stm32g0xx_hal_pcd.c ****   ==============================================================================
  15:Drivers/STM32G0xx_HAL_Driver/Src/stm32g0xx_hal_pcd.c ****                     ##### How to use this driver #####
  16:Drivers/STM32G0xx_HAL_Driver/Src/stm32g0xx_hal_pcd.c ****   ==============================================================================
  17:Drivers/STM32G0xx_HAL_Driver/Src/stm32g0xx_hal_pcd.c ****     [..]
  18:Drivers/STM32G0xx_HAL_Driver/Src/stm32g0xx_hal_pcd.c ****       The PCD HAL driver can be used as follows:
  19:Drivers/STM32G0xx_HAL_Driver/Src/stm32g0xx_hal_pcd.c **** 
  20:Drivers/STM32G0xx_HAL_Driver/Src/stm32g0xx_hal_pcd.c ****      (#) Declare a PCD_HandleTypeDef handle structure, for example:
  21:Drivers/STM32G0xx_HAL_Driver/Src/stm32g0xx_hal_pcd.c ****          PCD_HandleTypeDef  hpcd;
  22:Drivers/STM32G0xx_HAL_Driver/Src/stm32g0xx_hal_pcd.c **** 
  23:Drivers/STM32G0xx_HAL_Driver/Src/stm32g0xx_hal_pcd.c ****      (#) Fill parameters of Init structure in HCD handle
  24:Drivers/STM32G0xx_HAL_Driver/Src/stm32g0xx_hal_pcd.c **** 
  25:Drivers/STM32G0xx_HAL_Driver/Src/stm32g0xx_hal_pcd.c ****      (#) Call HAL_PCD_Init() API to initialize the PCD peripheral (Core, Device core, ...)
  26:Drivers/STM32G0xx_HAL_Driver/Src/stm32g0xx_hal_pcd.c **** 
  27:Drivers/STM32G0xx_HAL_Driver/Src/stm32g0xx_hal_pcd.c ****      (#) Initialize the PCD low level resources through the HAL_PCD_MspInit() API:
  28:Drivers/STM32G0xx_HAL_Driver/Src/stm32g0xx_hal_pcd.c ****          (##) Enable the PCD/USB Low Level interface clock using
  29:Drivers/STM32G0xx_HAL_Driver/Src/stm32g0xx_hal_pcd.c ****               (+++) __HAL_RCC_USB_CLK_ENABLE(); For USB Device only FS peripheral
  30:Drivers/STM32G0xx_HAL_Driver/Src/stm32g0xx_hal_pcd.c **** 
  31:Drivers/STM32G0xx_HAL_Driver/Src/stm32g0xx_hal_pcd.c ****          (##) Initialize the related GPIO clocks
  32:Drivers/STM32G0xx_HAL_Driver/Src/stm32g0xx_hal_pcd.c ****          (##) Configure PCD pin-out
  33:Drivers/STM32G0xx_HAL_Driver/Src/stm32g0xx_hal_pcd.c ****          (##) Configure PCD NVIC interrupt
ARM GAS  /tmp/ccFvkBSI.s 			page 16


  34:Drivers/STM32G0xx_HAL_Driver/Src/stm32g0xx_hal_pcd.c **** 
  35:Drivers/STM32G0xx_HAL_Driver/Src/stm32g0xx_hal_pcd.c ****      (#)Associate the Upper USB device stack to the HAL PCD Driver:
  36:Drivers/STM32G0xx_HAL_Driver/Src/stm32g0xx_hal_pcd.c ****          (##) hpcd.pData = pdev;
  37:Drivers/STM32G0xx_HAL_Driver/Src/stm32g0xx_hal_pcd.c **** 
  38:Drivers/STM32G0xx_HAL_Driver/Src/stm32g0xx_hal_pcd.c ****      (#)Enable PCD transmission and reception:
  39:Drivers/STM32G0xx_HAL_Driver/Src/stm32g0xx_hal_pcd.c ****          (##) HAL_PCD_Start();
  40:Drivers/STM32G0xx_HAL_Driver/Src/stm32g0xx_hal_pcd.c **** 
  41:Drivers/STM32G0xx_HAL_Driver/Src/stm32g0xx_hal_pcd.c ****   @endverbatim
  42:Drivers/STM32G0xx_HAL_Driver/Src/stm32g0xx_hal_pcd.c ****   ******************************************************************************
  43:Drivers/STM32G0xx_HAL_Driver/Src/stm32g0xx_hal_pcd.c ****   * @attention
  44:Drivers/STM32G0xx_HAL_Driver/Src/stm32g0xx_hal_pcd.c ****   *
  45:Drivers/STM32G0xx_HAL_Driver/Src/stm32g0xx_hal_pcd.c ****   * <h2><center>&copy; Copyright (c) 2018 STMicroelectronics.
  46:Drivers/STM32G0xx_HAL_Driver/Src/stm32g0xx_hal_pcd.c ****   * All rights reserved.</center></h2>
  47:Drivers/STM32G0xx_HAL_Driver/Src/stm32g0xx_hal_pcd.c ****   *
  48:Drivers/STM32G0xx_HAL_Driver/Src/stm32g0xx_hal_pcd.c ****   * This software component is licensed by ST under BSD 3-Clause license,
  49:Drivers/STM32G0xx_HAL_Driver/Src/stm32g0xx_hal_pcd.c ****   * the "License"; You may not use this file except in compliance with the
  50:Drivers/STM32G0xx_HAL_Driver/Src/stm32g0xx_hal_pcd.c ****   * License. You may obtain a copy of the License at:
  51:Drivers/STM32G0xx_HAL_Driver/Src/stm32g0xx_hal_pcd.c ****   *                        opensource.org/licenses/BSD-3-Clause
  52:Drivers/STM32G0xx_HAL_Driver/Src/stm32g0xx_hal_pcd.c ****   *
  53:Drivers/STM32G0xx_HAL_Driver/Src/stm32g0xx_hal_pcd.c ****   ******************************************************************************
  54:Drivers/STM32G0xx_HAL_Driver/Src/stm32g0xx_hal_pcd.c ****   */
  55:Drivers/STM32G0xx_HAL_Driver/Src/stm32g0xx_hal_pcd.c **** 
  56:Drivers/STM32G0xx_HAL_Driver/Src/stm32g0xx_hal_pcd.c **** /* Includes ------------------------------------------------------------------*/
  57:Drivers/STM32G0xx_HAL_Driver/Src/stm32g0xx_hal_pcd.c **** #include "stm32g0xx_hal.h"
  58:Drivers/STM32G0xx_HAL_Driver/Src/stm32g0xx_hal_pcd.c **** 
  59:Drivers/STM32G0xx_HAL_Driver/Src/stm32g0xx_hal_pcd.c **** /** @addtogroup STM32G0xx_HAL_Driver
  60:Drivers/STM32G0xx_HAL_Driver/Src/stm32g0xx_hal_pcd.c ****   * @{
  61:Drivers/STM32G0xx_HAL_Driver/Src/stm32g0xx_hal_pcd.c ****   */
  62:Drivers/STM32G0xx_HAL_Driver/Src/stm32g0xx_hal_pcd.c **** 
  63:Drivers/STM32G0xx_HAL_Driver/Src/stm32g0xx_hal_pcd.c **** /** @defgroup PCD PCD
  64:Drivers/STM32G0xx_HAL_Driver/Src/stm32g0xx_hal_pcd.c ****   * @brief PCD HAL module driver
  65:Drivers/STM32G0xx_HAL_Driver/Src/stm32g0xx_hal_pcd.c ****   * @{
  66:Drivers/STM32G0xx_HAL_Driver/Src/stm32g0xx_hal_pcd.c ****   */
  67:Drivers/STM32G0xx_HAL_Driver/Src/stm32g0xx_hal_pcd.c **** 
  68:Drivers/STM32G0xx_HAL_Driver/Src/stm32g0xx_hal_pcd.c **** #ifdef HAL_PCD_MODULE_ENABLED
  69:Drivers/STM32G0xx_HAL_Driver/Src/stm32g0xx_hal_pcd.c **** 
  70:Drivers/STM32G0xx_HAL_Driver/Src/stm32g0xx_hal_pcd.c **** #if defined (USB_DRD_FS)
  71:Drivers/STM32G0xx_HAL_Driver/Src/stm32g0xx_hal_pcd.c **** 
  72:Drivers/STM32G0xx_HAL_Driver/Src/stm32g0xx_hal_pcd.c **** /* Private types -------------------------------------------------------------*/
  73:Drivers/STM32G0xx_HAL_Driver/Src/stm32g0xx_hal_pcd.c **** /* Private variables ---------------------------------------------------------*/
  74:Drivers/STM32G0xx_HAL_Driver/Src/stm32g0xx_hal_pcd.c **** /* Private constants ---------------------------------------------------------*/
  75:Drivers/STM32G0xx_HAL_Driver/Src/stm32g0xx_hal_pcd.c **** /* Private macros ------------------------------------------------------------*/
  76:Drivers/STM32G0xx_HAL_Driver/Src/stm32g0xx_hal_pcd.c **** /** @defgroup PCD_Private_Macros PCD Private Macros
  77:Drivers/STM32G0xx_HAL_Driver/Src/stm32g0xx_hal_pcd.c ****   * @{
  78:Drivers/STM32G0xx_HAL_Driver/Src/stm32g0xx_hal_pcd.c ****   */
  79:Drivers/STM32G0xx_HAL_Driver/Src/stm32g0xx_hal_pcd.c **** #define PCD_MIN(a, b)  (((a) < (b)) ? (a) : (b))
  80:Drivers/STM32G0xx_HAL_Driver/Src/stm32g0xx_hal_pcd.c **** #define PCD_MAX(a, b)  (((a) > (b)) ? (a) : (b))
  81:Drivers/STM32G0xx_HAL_Driver/Src/stm32g0xx_hal_pcd.c **** /**
  82:Drivers/STM32G0xx_HAL_Driver/Src/stm32g0xx_hal_pcd.c ****   * @}
  83:Drivers/STM32G0xx_HAL_Driver/Src/stm32g0xx_hal_pcd.c ****   */
  84:Drivers/STM32G0xx_HAL_Driver/Src/stm32g0xx_hal_pcd.c **** 
  85:Drivers/STM32G0xx_HAL_Driver/Src/stm32g0xx_hal_pcd.c **** /* Private functions prototypes ----------------------------------------------*/
  86:Drivers/STM32G0xx_HAL_Driver/Src/stm32g0xx_hal_pcd.c **** /** @defgroup PCD_Private_Functions PCD Private Functions
  87:Drivers/STM32G0xx_HAL_Driver/Src/stm32g0xx_hal_pcd.c ****   * @{
  88:Drivers/STM32G0xx_HAL_Driver/Src/stm32g0xx_hal_pcd.c ****   */
  89:Drivers/STM32G0xx_HAL_Driver/Src/stm32g0xx_hal_pcd.c **** 
  90:Drivers/STM32G0xx_HAL_Driver/Src/stm32g0xx_hal_pcd.c **** static HAL_StatusTypeDef PCD_EP_ISR_Handler(PCD_HandleTypeDef *hpcd);
ARM GAS  /tmp/ccFvkBSI.s 			page 17


  91:Drivers/STM32G0xx_HAL_Driver/Src/stm32g0xx_hal_pcd.c **** static HAL_StatusTypeDef HAL_PCD_EP_DB_Transmit(PCD_HandleTypeDef *hpcd, PCD_EPTypeDef *ep, uint16_
  92:Drivers/STM32G0xx_HAL_Driver/Src/stm32g0xx_hal_pcd.c **** static uint16_t HAL_PCD_EP_DB_Receive(PCD_HandleTypeDef *hpcd, PCD_EPTypeDef *ep, uint16_t wEPVal);
  93:Drivers/STM32G0xx_HAL_Driver/Src/stm32g0xx_hal_pcd.c **** 
  94:Drivers/STM32G0xx_HAL_Driver/Src/stm32g0xx_hal_pcd.c **** /**
  95:Drivers/STM32G0xx_HAL_Driver/Src/stm32g0xx_hal_pcd.c ****   * @}
  96:Drivers/STM32G0xx_HAL_Driver/Src/stm32g0xx_hal_pcd.c ****   */
  97:Drivers/STM32G0xx_HAL_Driver/Src/stm32g0xx_hal_pcd.c **** 
  98:Drivers/STM32G0xx_HAL_Driver/Src/stm32g0xx_hal_pcd.c **** /* Exported functions --------------------------------------------------------*/
  99:Drivers/STM32G0xx_HAL_Driver/Src/stm32g0xx_hal_pcd.c **** /** @defgroup PCD_Exported_Functions PCD Exported Functions
 100:Drivers/STM32G0xx_HAL_Driver/Src/stm32g0xx_hal_pcd.c ****   * @{
 101:Drivers/STM32G0xx_HAL_Driver/Src/stm32g0xx_hal_pcd.c ****   */
 102:Drivers/STM32G0xx_HAL_Driver/Src/stm32g0xx_hal_pcd.c **** 
 103:Drivers/STM32G0xx_HAL_Driver/Src/stm32g0xx_hal_pcd.c **** /** @defgroup PCD_Exported_Functions_Group1 Initialization and de-initialization functions
 104:Drivers/STM32G0xx_HAL_Driver/Src/stm32g0xx_hal_pcd.c ****   *  @brief    Initialization and Configuration functions
 105:Drivers/STM32G0xx_HAL_Driver/Src/stm32g0xx_hal_pcd.c ****   *
 106:Drivers/STM32G0xx_HAL_Driver/Src/stm32g0xx_hal_pcd.c **** @verbatim
 107:Drivers/STM32G0xx_HAL_Driver/Src/stm32g0xx_hal_pcd.c ****  ===============================================================================
 108:Drivers/STM32G0xx_HAL_Driver/Src/stm32g0xx_hal_pcd.c ****             ##### Initialization and de-initialization functions #####
 109:Drivers/STM32G0xx_HAL_Driver/Src/stm32g0xx_hal_pcd.c ****  ===============================================================================
 110:Drivers/STM32G0xx_HAL_Driver/Src/stm32g0xx_hal_pcd.c ****     [..]  This section provides functions allowing to:
 111:Drivers/STM32G0xx_HAL_Driver/Src/stm32g0xx_hal_pcd.c **** 
 112:Drivers/STM32G0xx_HAL_Driver/Src/stm32g0xx_hal_pcd.c **** @endverbatim
 113:Drivers/STM32G0xx_HAL_Driver/Src/stm32g0xx_hal_pcd.c ****   * @{
 114:Drivers/STM32G0xx_HAL_Driver/Src/stm32g0xx_hal_pcd.c ****   */
 115:Drivers/STM32G0xx_HAL_Driver/Src/stm32g0xx_hal_pcd.c **** 
 116:Drivers/STM32G0xx_HAL_Driver/Src/stm32g0xx_hal_pcd.c **** /**
 117:Drivers/STM32G0xx_HAL_Driver/Src/stm32g0xx_hal_pcd.c ****   * @brief  Initializes the PCD according to the specified
 118:Drivers/STM32G0xx_HAL_Driver/Src/stm32g0xx_hal_pcd.c ****   *         parameters in the PCD_InitTypeDef and initialize the associated handle.
 119:Drivers/STM32G0xx_HAL_Driver/Src/stm32g0xx_hal_pcd.c ****   * @param  hpcd PCD handle
 120:Drivers/STM32G0xx_HAL_Driver/Src/stm32g0xx_hal_pcd.c ****   * @retval HAL status
 121:Drivers/STM32G0xx_HAL_Driver/Src/stm32g0xx_hal_pcd.c ****   */
 122:Drivers/STM32G0xx_HAL_Driver/Src/stm32g0xx_hal_pcd.c **** HAL_StatusTypeDef HAL_PCD_Init(PCD_HandleTypeDef *hpcd)
 123:Drivers/STM32G0xx_HAL_Driver/Src/stm32g0xx_hal_pcd.c **** {
 124:Drivers/STM32G0xx_HAL_Driver/Src/stm32g0xx_hal_pcd.c ****   uint8_t i;
 125:Drivers/STM32G0xx_HAL_Driver/Src/stm32g0xx_hal_pcd.c **** 
 126:Drivers/STM32G0xx_HAL_Driver/Src/stm32g0xx_hal_pcd.c ****   /* Check the PCD handle allocation */
 127:Drivers/STM32G0xx_HAL_Driver/Src/stm32g0xx_hal_pcd.c ****   if (hpcd == NULL)
 128:Drivers/STM32G0xx_HAL_Driver/Src/stm32g0xx_hal_pcd.c ****   {
 129:Drivers/STM32G0xx_HAL_Driver/Src/stm32g0xx_hal_pcd.c ****     return HAL_ERROR;
 130:Drivers/STM32G0xx_HAL_Driver/Src/stm32g0xx_hal_pcd.c ****   }
 131:Drivers/STM32G0xx_HAL_Driver/Src/stm32g0xx_hal_pcd.c **** 
 132:Drivers/STM32G0xx_HAL_Driver/Src/stm32g0xx_hal_pcd.c ****   /* Check the parameters */
 133:Drivers/STM32G0xx_HAL_Driver/Src/stm32g0xx_hal_pcd.c ****   assert_param(IS_PCD_ALL_INSTANCE(hpcd->Instance));
 134:Drivers/STM32G0xx_HAL_Driver/Src/stm32g0xx_hal_pcd.c **** 
 135:Drivers/STM32G0xx_HAL_Driver/Src/stm32g0xx_hal_pcd.c ****   if (hpcd->State == HAL_PCD_STATE_RESET)
 136:Drivers/STM32G0xx_HAL_Driver/Src/stm32g0xx_hal_pcd.c ****   {
 137:Drivers/STM32G0xx_HAL_Driver/Src/stm32g0xx_hal_pcd.c ****     /* Allocate lock resource and initialize it */
 138:Drivers/STM32G0xx_HAL_Driver/Src/stm32g0xx_hal_pcd.c ****     hpcd->Lock = HAL_UNLOCKED;
 139:Drivers/STM32G0xx_HAL_Driver/Src/stm32g0xx_hal_pcd.c **** 
 140:Drivers/STM32G0xx_HAL_Driver/Src/stm32g0xx_hal_pcd.c **** #if (USE_HAL_PCD_REGISTER_CALLBACKS == 1U)
 141:Drivers/STM32G0xx_HAL_Driver/Src/stm32g0xx_hal_pcd.c ****     hpcd->SOFCallback = HAL_PCD_SOFCallback;
 142:Drivers/STM32G0xx_HAL_Driver/Src/stm32g0xx_hal_pcd.c ****     hpcd->SetupStageCallback = HAL_PCD_SetupStageCallback;
 143:Drivers/STM32G0xx_HAL_Driver/Src/stm32g0xx_hal_pcd.c ****     hpcd->ResetCallback = HAL_PCD_ResetCallback;
 144:Drivers/STM32G0xx_HAL_Driver/Src/stm32g0xx_hal_pcd.c ****     hpcd->SuspendCallback = HAL_PCD_SuspendCallback;
 145:Drivers/STM32G0xx_HAL_Driver/Src/stm32g0xx_hal_pcd.c ****     hpcd->ResumeCallback = HAL_PCD_ResumeCallback;
 146:Drivers/STM32G0xx_HAL_Driver/Src/stm32g0xx_hal_pcd.c ****     hpcd->ConnectCallback = HAL_PCD_ConnectCallback;
 147:Drivers/STM32G0xx_HAL_Driver/Src/stm32g0xx_hal_pcd.c ****     hpcd->DisconnectCallback = HAL_PCD_DisconnectCallback;
ARM GAS  /tmp/ccFvkBSI.s 			page 18


 148:Drivers/STM32G0xx_HAL_Driver/Src/stm32g0xx_hal_pcd.c ****     hpcd->DataOutStageCallback = HAL_PCD_DataOutStageCallback;
 149:Drivers/STM32G0xx_HAL_Driver/Src/stm32g0xx_hal_pcd.c ****     hpcd->DataInStageCallback = HAL_PCD_DataInStageCallback;
 150:Drivers/STM32G0xx_HAL_Driver/Src/stm32g0xx_hal_pcd.c ****     hpcd->ISOOUTIncompleteCallback = HAL_PCD_ISOOUTIncompleteCallback;
 151:Drivers/STM32G0xx_HAL_Driver/Src/stm32g0xx_hal_pcd.c ****     hpcd->ISOINIncompleteCallback = HAL_PCD_ISOINIncompleteCallback;
 152:Drivers/STM32G0xx_HAL_Driver/Src/stm32g0xx_hal_pcd.c ****     hpcd->LPMCallback = HAL_PCDEx_LPM_Callback;
 153:Drivers/STM32G0xx_HAL_Driver/Src/stm32g0xx_hal_pcd.c ****     hpcd->BCDCallback = HAL_PCDEx_BCD_Callback;
 154:Drivers/STM32G0xx_HAL_Driver/Src/stm32g0xx_hal_pcd.c **** 
 155:Drivers/STM32G0xx_HAL_Driver/Src/stm32g0xx_hal_pcd.c ****     if (hpcd->MspInitCallback == NULL)
 156:Drivers/STM32G0xx_HAL_Driver/Src/stm32g0xx_hal_pcd.c ****     {
 157:Drivers/STM32G0xx_HAL_Driver/Src/stm32g0xx_hal_pcd.c ****       hpcd->MspInitCallback = HAL_PCD_MspInit;
 158:Drivers/STM32G0xx_HAL_Driver/Src/stm32g0xx_hal_pcd.c ****     }
 159:Drivers/STM32G0xx_HAL_Driver/Src/stm32g0xx_hal_pcd.c **** 
 160:Drivers/STM32G0xx_HAL_Driver/Src/stm32g0xx_hal_pcd.c ****     /* Init the low level hardware */
 161:Drivers/STM32G0xx_HAL_Driver/Src/stm32g0xx_hal_pcd.c ****     hpcd->MspInitCallback(hpcd);
 162:Drivers/STM32G0xx_HAL_Driver/Src/stm32g0xx_hal_pcd.c **** #else
 163:Drivers/STM32G0xx_HAL_Driver/Src/stm32g0xx_hal_pcd.c ****     /* Init the low level hardware : GPIO, CLOCK, NVIC... */
 164:Drivers/STM32G0xx_HAL_Driver/Src/stm32g0xx_hal_pcd.c ****     HAL_PCD_MspInit(hpcd);
 165:Drivers/STM32G0xx_HAL_Driver/Src/stm32g0xx_hal_pcd.c **** #endif /* (USE_HAL_PCD_REGISTER_CALLBACKS) */
 166:Drivers/STM32G0xx_HAL_Driver/Src/stm32g0xx_hal_pcd.c ****   }
 167:Drivers/STM32G0xx_HAL_Driver/Src/stm32g0xx_hal_pcd.c **** 
 168:Drivers/STM32G0xx_HAL_Driver/Src/stm32g0xx_hal_pcd.c ****   hpcd->State = HAL_PCD_STATE_BUSY;
 169:Drivers/STM32G0xx_HAL_Driver/Src/stm32g0xx_hal_pcd.c **** 
 170:Drivers/STM32G0xx_HAL_Driver/Src/stm32g0xx_hal_pcd.c ****   /* Disable the Interrupts */
 171:Drivers/STM32G0xx_HAL_Driver/Src/stm32g0xx_hal_pcd.c ****   __HAL_PCD_DISABLE(hpcd);
 172:Drivers/STM32G0xx_HAL_Driver/Src/stm32g0xx_hal_pcd.c **** 
 173:Drivers/STM32G0xx_HAL_Driver/Src/stm32g0xx_hal_pcd.c ****   /* Init endpoints structures */
 174:Drivers/STM32G0xx_HAL_Driver/Src/stm32g0xx_hal_pcd.c ****   for (i = 0U; i < hpcd->Init.dev_endpoints; i++)
 175:Drivers/STM32G0xx_HAL_Driver/Src/stm32g0xx_hal_pcd.c ****   {
 176:Drivers/STM32G0xx_HAL_Driver/Src/stm32g0xx_hal_pcd.c ****     /* Init ep structure */
 177:Drivers/STM32G0xx_HAL_Driver/Src/stm32g0xx_hal_pcd.c ****     hpcd->IN_ep[i].is_in = 1U;
 178:Drivers/STM32G0xx_HAL_Driver/Src/stm32g0xx_hal_pcd.c ****     hpcd->IN_ep[i].num = i;
 179:Drivers/STM32G0xx_HAL_Driver/Src/stm32g0xx_hal_pcd.c ****     hpcd->IN_ep[i].tx_fifo_num = i;
 180:Drivers/STM32G0xx_HAL_Driver/Src/stm32g0xx_hal_pcd.c ****     /* Control until ep is activated */
 181:Drivers/STM32G0xx_HAL_Driver/Src/stm32g0xx_hal_pcd.c ****     hpcd->IN_ep[i].type = EP_TYPE_CTRL;
 182:Drivers/STM32G0xx_HAL_Driver/Src/stm32g0xx_hal_pcd.c ****     hpcd->IN_ep[i].maxpacket = 0U;
 183:Drivers/STM32G0xx_HAL_Driver/Src/stm32g0xx_hal_pcd.c ****     hpcd->IN_ep[i].xfer_buff = 0U;
 184:Drivers/STM32G0xx_HAL_Driver/Src/stm32g0xx_hal_pcd.c ****     hpcd->IN_ep[i].xfer_len = 0U;
 185:Drivers/STM32G0xx_HAL_Driver/Src/stm32g0xx_hal_pcd.c ****   }
 186:Drivers/STM32G0xx_HAL_Driver/Src/stm32g0xx_hal_pcd.c **** 
 187:Drivers/STM32G0xx_HAL_Driver/Src/stm32g0xx_hal_pcd.c ****   for (i = 0U; i < hpcd->Init.dev_endpoints; i++)
 188:Drivers/STM32G0xx_HAL_Driver/Src/stm32g0xx_hal_pcd.c ****   {
 189:Drivers/STM32G0xx_HAL_Driver/Src/stm32g0xx_hal_pcd.c ****     hpcd->OUT_ep[i].is_in = 0U;
 190:Drivers/STM32G0xx_HAL_Driver/Src/stm32g0xx_hal_pcd.c ****     hpcd->OUT_ep[i].num = i;
 191:Drivers/STM32G0xx_HAL_Driver/Src/stm32g0xx_hal_pcd.c ****     /* Control until ep is activated */
 192:Drivers/STM32G0xx_HAL_Driver/Src/stm32g0xx_hal_pcd.c ****     hpcd->OUT_ep[i].type = EP_TYPE_CTRL;
 193:Drivers/STM32G0xx_HAL_Driver/Src/stm32g0xx_hal_pcd.c ****     hpcd->OUT_ep[i].maxpacket = 0U;
 194:Drivers/STM32G0xx_HAL_Driver/Src/stm32g0xx_hal_pcd.c ****     hpcd->OUT_ep[i].xfer_buff = 0U;
 195:Drivers/STM32G0xx_HAL_Driver/Src/stm32g0xx_hal_pcd.c ****     hpcd->OUT_ep[i].xfer_len = 0U;
 196:Drivers/STM32G0xx_HAL_Driver/Src/stm32g0xx_hal_pcd.c ****   }
 197:Drivers/STM32G0xx_HAL_Driver/Src/stm32g0xx_hal_pcd.c **** 
 198:Drivers/STM32G0xx_HAL_Driver/Src/stm32g0xx_hal_pcd.c ****   /* Init Device */
 199:Drivers/STM32G0xx_HAL_Driver/Src/stm32g0xx_hal_pcd.c ****   (void)USB_DevInit(hpcd->Instance, hpcd->Init);
 200:Drivers/STM32G0xx_HAL_Driver/Src/stm32g0xx_hal_pcd.c **** 
 201:Drivers/STM32G0xx_HAL_Driver/Src/stm32g0xx_hal_pcd.c ****   hpcd->USB_Address = 0U;
 202:Drivers/STM32G0xx_HAL_Driver/Src/stm32g0xx_hal_pcd.c ****   hpcd->State = HAL_PCD_STATE_READY;
 203:Drivers/STM32G0xx_HAL_Driver/Src/stm32g0xx_hal_pcd.c **** 
 204:Drivers/STM32G0xx_HAL_Driver/Src/stm32g0xx_hal_pcd.c ****   /* Activate LPM */
ARM GAS  /tmp/ccFvkBSI.s 			page 19


 205:Drivers/STM32G0xx_HAL_Driver/Src/stm32g0xx_hal_pcd.c ****   if (hpcd->Init.lpm_enable == 1U)
 206:Drivers/STM32G0xx_HAL_Driver/Src/stm32g0xx_hal_pcd.c ****   {
 207:Drivers/STM32G0xx_HAL_Driver/Src/stm32g0xx_hal_pcd.c ****     (void)HAL_PCDEx_ActivateLPM(hpcd);
 208:Drivers/STM32G0xx_HAL_Driver/Src/stm32g0xx_hal_pcd.c ****   }
 209:Drivers/STM32G0xx_HAL_Driver/Src/stm32g0xx_hal_pcd.c **** 
 210:Drivers/STM32G0xx_HAL_Driver/Src/stm32g0xx_hal_pcd.c ****   return HAL_OK;
 211:Drivers/STM32G0xx_HAL_Driver/Src/stm32g0xx_hal_pcd.c **** }
 212:Drivers/STM32G0xx_HAL_Driver/Src/stm32g0xx_hal_pcd.c **** 
 213:Drivers/STM32G0xx_HAL_Driver/Src/stm32g0xx_hal_pcd.c **** /**
 214:Drivers/STM32G0xx_HAL_Driver/Src/stm32g0xx_hal_pcd.c ****   * @brief  DeInitializes the PCD peripheral.
 215:Drivers/STM32G0xx_HAL_Driver/Src/stm32g0xx_hal_pcd.c ****   * @param  hpcd PCD handle
 216:Drivers/STM32G0xx_HAL_Driver/Src/stm32g0xx_hal_pcd.c ****   * @retval HAL status
 217:Drivers/STM32G0xx_HAL_Driver/Src/stm32g0xx_hal_pcd.c ****   */
 218:Drivers/STM32G0xx_HAL_Driver/Src/stm32g0xx_hal_pcd.c **** HAL_StatusTypeDef HAL_PCD_DeInit(PCD_HandleTypeDef *hpcd)
 219:Drivers/STM32G0xx_HAL_Driver/Src/stm32g0xx_hal_pcd.c **** {
 220:Drivers/STM32G0xx_HAL_Driver/Src/stm32g0xx_hal_pcd.c ****   /* Check the PCD handle allocation */
 221:Drivers/STM32G0xx_HAL_Driver/Src/stm32g0xx_hal_pcd.c ****   if (hpcd == NULL)
 222:Drivers/STM32G0xx_HAL_Driver/Src/stm32g0xx_hal_pcd.c ****   {
 223:Drivers/STM32G0xx_HAL_Driver/Src/stm32g0xx_hal_pcd.c ****     return HAL_ERROR;
 224:Drivers/STM32G0xx_HAL_Driver/Src/stm32g0xx_hal_pcd.c ****   }
 225:Drivers/STM32G0xx_HAL_Driver/Src/stm32g0xx_hal_pcd.c **** 
 226:Drivers/STM32G0xx_HAL_Driver/Src/stm32g0xx_hal_pcd.c ****   hpcd->State = HAL_PCD_STATE_BUSY;
 227:Drivers/STM32G0xx_HAL_Driver/Src/stm32g0xx_hal_pcd.c **** 
 228:Drivers/STM32G0xx_HAL_Driver/Src/stm32g0xx_hal_pcd.c ****   /* Stop Device */
 229:Drivers/STM32G0xx_HAL_Driver/Src/stm32g0xx_hal_pcd.c ****   if (USB_StopDevice(hpcd->Instance) != HAL_OK)
 230:Drivers/STM32G0xx_HAL_Driver/Src/stm32g0xx_hal_pcd.c ****   {
 231:Drivers/STM32G0xx_HAL_Driver/Src/stm32g0xx_hal_pcd.c ****     return HAL_ERROR;
 232:Drivers/STM32G0xx_HAL_Driver/Src/stm32g0xx_hal_pcd.c ****   }
 233:Drivers/STM32G0xx_HAL_Driver/Src/stm32g0xx_hal_pcd.c **** 
 234:Drivers/STM32G0xx_HAL_Driver/Src/stm32g0xx_hal_pcd.c **** #if (USE_HAL_PCD_REGISTER_CALLBACKS == 1U)
 235:Drivers/STM32G0xx_HAL_Driver/Src/stm32g0xx_hal_pcd.c ****   if (hpcd->MspDeInitCallback == NULL)
 236:Drivers/STM32G0xx_HAL_Driver/Src/stm32g0xx_hal_pcd.c ****   {
 237:Drivers/STM32G0xx_HAL_Driver/Src/stm32g0xx_hal_pcd.c ****     hpcd->MspDeInitCallback = HAL_PCD_MspDeInit; /* Legacy weak MspDeInit  */
 238:Drivers/STM32G0xx_HAL_Driver/Src/stm32g0xx_hal_pcd.c ****   }
 239:Drivers/STM32G0xx_HAL_Driver/Src/stm32g0xx_hal_pcd.c **** 
 240:Drivers/STM32G0xx_HAL_Driver/Src/stm32g0xx_hal_pcd.c ****   /* DeInit the low level hardware */
 241:Drivers/STM32G0xx_HAL_Driver/Src/stm32g0xx_hal_pcd.c ****   hpcd->MspDeInitCallback(hpcd);
 242:Drivers/STM32G0xx_HAL_Driver/Src/stm32g0xx_hal_pcd.c **** #else
 243:Drivers/STM32G0xx_HAL_Driver/Src/stm32g0xx_hal_pcd.c ****   /* DeInit the low level hardware: CLOCK, NVIC.*/
 244:Drivers/STM32G0xx_HAL_Driver/Src/stm32g0xx_hal_pcd.c ****   HAL_PCD_MspDeInit(hpcd);
 245:Drivers/STM32G0xx_HAL_Driver/Src/stm32g0xx_hal_pcd.c **** #endif /* USE_HAL_PCD_REGISTER_CALLBACKS */
 246:Drivers/STM32G0xx_HAL_Driver/Src/stm32g0xx_hal_pcd.c **** 
 247:Drivers/STM32G0xx_HAL_Driver/Src/stm32g0xx_hal_pcd.c ****   hpcd->State = HAL_PCD_STATE_RESET;
 248:Drivers/STM32G0xx_HAL_Driver/Src/stm32g0xx_hal_pcd.c **** 
 249:Drivers/STM32G0xx_HAL_Driver/Src/stm32g0xx_hal_pcd.c ****   return HAL_OK;
 250:Drivers/STM32G0xx_HAL_Driver/Src/stm32g0xx_hal_pcd.c **** }
 251:Drivers/STM32G0xx_HAL_Driver/Src/stm32g0xx_hal_pcd.c **** 
 252:Drivers/STM32G0xx_HAL_Driver/Src/stm32g0xx_hal_pcd.c **** /**
 253:Drivers/STM32G0xx_HAL_Driver/Src/stm32g0xx_hal_pcd.c ****   * @brief  Initializes the PCD MSP.
 254:Drivers/STM32G0xx_HAL_Driver/Src/stm32g0xx_hal_pcd.c ****   * @param  hpcd PCD handle
 255:Drivers/STM32G0xx_HAL_Driver/Src/stm32g0xx_hal_pcd.c ****   * @retval None
 256:Drivers/STM32G0xx_HAL_Driver/Src/stm32g0xx_hal_pcd.c ****   */
 257:Drivers/STM32G0xx_HAL_Driver/Src/stm32g0xx_hal_pcd.c **** __weak void HAL_PCD_MspInit(PCD_HandleTypeDef *hpcd)
 258:Drivers/STM32G0xx_HAL_Driver/Src/stm32g0xx_hal_pcd.c **** {
 259:Drivers/STM32G0xx_HAL_Driver/Src/stm32g0xx_hal_pcd.c ****   /* Prevent unused argument(s) compilation warning */
 260:Drivers/STM32G0xx_HAL_Driver/Src/stm32g0xx_hal_pcd.c ****   UNUSED(hpcd);
 261:Drivers/STM32G0xx_HAL_Driver/Src/stm32g0xx_hal_pcd.c **** 
ARM GAS  /tmp/ccFvkBSI.s 			page 20


 262:Drivers/STM32G0xx_HAL_Driver/Src/stm32g0xx_hal_pcd.c ****   /* NOTE : This function should not be modified, when the callback is needed,
 263:Drivers/STM32G0xx_HAL_Driver/Src/stm32g0xx_hal_pcd.c ****             the HAL_PCD_MspInit could be implemented in the user file
 264:Drivers/STM32G0xx_HAL_Driver/Src/stm32g0xx_hal_pcd.c ****    */
 265:Drivers/STM32G0xx_HAL_Driver/Src/stm32g0xx_hal_pcd.c **** }
 266:Drivers/STM32G0xx_HAL_Driver/Src/stm32g0xx_hal_pcd.c **** 
 267:Drivers/STM32G0xx_HAL_Driver/Src/stm32g0xx_hal_pcd.c **** /**
 268:Drivers/STM32G0xx_HAL_Driver/Src/stm32g0xx_hal_pcd.c ****   * @brief  DeInitializes PCD MSP.
 269:Drivers/STM32G0xx_HAL_Driver/Src/stm32g0xx_hal_pcd.c ****   * @param  hpcd PCD handle
 270:Drivers/STM32G0xx_HAL_Driver/Src/stm32g0xx_hal_pcd.c ****   * @retval None
 271:Drivers/STM32G0xx_HAL_Driver/Src/stm32g0xx_hal_pcd.c ****   */
 272:Drivers/STM32G0xx_HAL_Driver/Src/stm32g0xx_hal_pcd.c **** __weak void HAL_PCD_MspDeInit(PCD_HandleTypeDef *hpcd)
 273:Drivers/STM32G0xx_HAL_Driver/Src/stm32g0xx_hal_pcd.c **** {
 274:Drivers/STM32G0xx_HAL_Driver/Src/stm32g0xx_hal_pcd.c ****   /* Prevent unused argument(s) compilation warning */
 275:Drivers/STM32G0xx_HAL_Driver/Src/stm32g0xx_hal_pcd.c ****   UNUSED(hpcd);
 276:Drivers/STM32G0xx_HAL_Driver/Src/stm32g0xx_hal_pcd.c **** 
 277:Drivers/STM32G0xx_HAL_Driver/Src/stm32g0xx_hal_pcd.c ****   /* NOTE : This function should not be modified, when the callback is needed,
 278:Drivers/STM32G0xx_HAL_Driver/Src/stm32g0xx_hal_pcd.c ****             the HAL_PCD_MspDeInit could be implemented in the user file
 279:Drivers/STM32G0xx_HAL_Driver/Src/stm32g0xx_hal_pcd.c ****    */
 280:Drivers/STM32G0xx_HAL_Driver/Src/stm32g0xx_hal_pcd.c **** }
 281:Drivers/STM32G0xx_HAL_Driver/Src/stm32g0xx_hal_pcd.c **** 
 282:Drivers/STM32G0xx_HAL_Driver/Src/stm32g0xx_hal_pcd.c **** #if (USE_HAL_PCD_REGISTER_CALLBACKS == 1U)
 283:Drivers/STM32G0xx_HAL_Driver/Src/stm32g0xx_hal_pcd.c **** /**
 284:Drivers/STM32G0xx_HAL_Driver/Src/stm32g0xx_hal_pcd.c ****   * @brief  Register a User USB PCD Callback
 285:Drivers/STM32G0xx_HAL_Driver/Src/stm32g0xx_hal_pcd.c ****   *         To be used instead of the weak predefined callback
 286:Drivers/STM32G0xx_HAL_Driver/Src/stm32g0xx_hal_pcd.c ****   * @param  hpcd USB PCD handle
 287:Drivers/STM32G0xx_HAL_Driver/Src/stm32g0xx_hal_pcd.c ****   * @param  CallbackID ID of the callback to be registered
 288:Drivers/STM32G0xx_HAL_Driver/Src/stm32g0xx_hal_pcd.c ****   *         This parameter can be one of the following values:
 289:Drivers/STM32G0xx_HAL_Driver/Src/stm32g0xx_hal_pcd.c ****   *          @arg @ref HAL_PCD_SOF_CB_ID USB PCD SOF callback ID
 290:Drivers/STM32G0xx_HAL_Driver/Src/stm32g0xx_hal_pcd.c ****   *          @arg @ref HAL_PCD_SETUPSTAGE_CB_ID USB PCD Setup callback ID
 291:Drivers/STM32G0xx_HAL_Driver/Src/stm32g0xx_hal_pcd.c ****   *          @arg @ref HAL_PCD_RESET_CB_ID USB PCD Reset callback ID
 292:Drivers/STM32G0xx_HAL_Driver/Src/stm32g0xx_hal_pcd.c ****   *          @arg @ref HAL_PCD_SUSPEND_CB_ID USB PCD Suspend callback ID
 293:Drivers/STM32G0xx_HAL_Driver/Src/stm32g0xx_hal_pcd.c ****   *          @arg @ref HAL_PCD_RESUME_CB_ID USB PCD Resume callback ID
 294:Drivers/STM32G0xx_HAL_Driver/Src/stm32g0xx_hal_pcd.c ****   *          @arg @ref HAL_PCD_CONNECT_CB_ID USB PCD Connect callback ID
 295:Drivers/STM32G0xx_HAL_Driver/Src/stm32g0xx_hal_pcd.c ****   *          @arg @ref HAL_PCD_DISCONNECT_CB_ID OTG PCD Disconnect callback ID
 296:Drivers/STM32G0xx_HAL_Driver/Src/stm32g0xx_hal_pcd.c ****   *          @arg @ref HAL_PCD_MSPINIT_CB_ID MspDeInit callback ID
 297:Drivers/STM32G0xx_HAL_Driver/Src/stm32g0xx_hal_pcd.c ****   *          @arg @ref HAL_PCD_MSPDEINIT_CB_ID MspDeInit callback ID
 298:Drivers/STM32G0xx_HAL_Driver/Src/stm32g0xx_hal_pcd.c ****   * @param  pCallback pointer to the Callback function
 299:Drivers/STM32G0xx_HAL_Driver/Src/stm32g0xx_hal_pcd.c ****   * @retval HAL status
 300:Drivers/STM32G0xx_HAL_Driver/Src/stm32g0xx_hal_pcd.c ****   */
 301:Drivers/STM32G0xx_HAL_Driver/Src/stm32g0xx_hal_pcd.c **** HAL_StatusTypeDef HAL_PCD_RegisterCallback(PCD_HandleTypeDef *hpcd,
 302:Drivers/STM32G0xx_HAL_Driver/Src/stm32g0xx_hal_pcd.c ****                                            HAL_PCD_CallbackIDTypeDef CallbackID,
 303:Drivers/STM32G0xx_HAL_Driver/Src/stm32g0xx_hal_pcd.c ****                                            pPCD_CallbackTypeDef pCallback)
 304:Drivers/STM32G0xx_HAL_Driver/Src/stm32g0xx_hal_pcd.c **** {
 305:Drivers/STM32G0xx_HAL_Driver/Src/stm32g0xx_hal_pcd.c ****   HAL_StatusTypeDef status = HAL_OK;
 306:Drivers/STM32G0xx_HAL_Driver/Src/stm32g0xx_hal_pcd.c **** 
 307:Drivers/STM32G0xx_HAL_Driver/Src/stm32g0xx_hal_pcd.c ****   if (pCallback == NULL)
 308:Drivers/STM32G0xx_HAL_Driver/Src/stm32g0xx_hal_pcd.c ****   {
 309:Drivers/STM32G0xx_HAL_Driver/Src/stm32g0xx_hal_pcd.c ****     /* Update the error code */
 310:Drivers/STM32G0xx_HAL_Driver/Src/stm32g0xx_hal_pcd.c ****     hpcd->ErrorCode |= HAL_PCD_ERROR_INVALID_CALLBACK;
 311:Drivers/STM32G0xx_HAL_Driver/Src/stm32g0xx_hal_pcd.c ****     return HAL_ERROR;
 312:Drivers/STM32G0xx_HAL_Driver/Src/stm32g0xx_hal_pcd.c ****   }
 313:Drivers/STM32G0xx_HAL_Driver/Src/stm32g0xx_hal_pcd.c ****   /* Process locked */
 314:Drivers/STM32G0xx_HAL_Driver/Src/stm32g0xx_hal_pcd.c ****   __HAL_LOCK(hpcd);
 315:Drivers/STM32G0xx_HAL_Driver/Src/stm32g0xx_hal_pcd.c **** 
 316:Drivers/STM32G0xx_HAL_Driver/Src/stm32g0xx_hal_pcd.c ****   if (hpcd->State == HAL_PCD_STATE_READY)
 317:Drivers/STM32G0xx_HAL_Driver/Src/stm32g0xx_hal_pcd.c ****   {
 318:Drivers/STM32G0xx_HAL_Driver/Src/stm32g0xx_hal_pcd.c ****     switch (CallbackID)
ARM GAS  /tmp/ccFvkBSI.s 			page 21


 319:Drivers/STM32G0xx_HAL_Driver/Src/stm32g0xx_hal_pcd.c ****     {
 320:Drivers/STM32G0xx_HAL_Driver/Src/stm32g0xx_hal_pcd.c ****       case HAL_PCD_SOF_CB_ID :
 321:Drivers/STM32G0xx_HAL_Driver/Src/stm32g0xx_hal_pcd.c ****         hpcd->SOFCallback = pCallback;
 322:Drivers/STM32G0xx_HAL_Driver/Src/stm32g0xx_hal_pcd.c ****         break;
 323:Drivers/STM32G0xx_HAL_Driver/Src/stm32g0xx_hal_pcd.c **** 
 324:Drivers/STM32G0xx_HAL_Driver/Src/stm32g0xx_hal_pcd.c ****       case HAL_PCD_SETUPSTAGE_CB_ID :
 325:Drivers/STM32G0xx_HAL_Driver/Src/stm32g0xx_hal_pcd.c ****         hpcd->SetupStageCallback = pCallback;
 326:Drivers/STM32G0xx_HAL_Driver/Src/stm32g0xx_hal_pcd.c ****         break;
 327:Drivers/STM32G0xx_HAL_Driver/Src/stm32g0xx_hal_pcd.c **** 
 328:Drivers/STM32G0xx_HAL_Driver/Src/stm32g0xx_hal_pcd.c ****       case HAL_PCD_RESET_CB_ID :
 329:Drivers/STM32G0xx_HAL_Driver/Src/stm32g0xx_hal_pcd.c ****         hpcd->ResetCallback = pCallback;
 330:Drivers/STM32G0xx_HAL_Driver/Src/stm32g0xx_hal_pcd.c ****         break;
 331:Drivers/STM32G0xx_HAL_Driver/Src/stm32g0xx_hal_pcd.c **** 
 332:Drivers/STM32G0xx_HAL_Driver/Src/stm32g0xx_hal_pcd.c ****       case HAL_PCD_SUSPEND_CB_ID :
 333:Drivers/STM32G0xx_HAL_Driver/Src/stm32g0xx_hal_pcd.c ****         hpcd->SuspendCallback = pCallback;
 334:Drivers/STM32G0xx_HAL_Driver/Src/stm32g0xx_hal_pcd.c ****         break;
 335:Drivers/STM32G0xx_HAL_Driver/Src/stm32g0xx_hal_pcd.c **** 
 336:Drivers/STM32G0xx_HAL_Driver/Src/stm32g0xx_hal_pcd.c ****       case HAL_PCD_RESUME_CB_ID :
 337:Drivers/STM32G0xx_HAL_Driver/Src/stm32g0xx_hal_pcd.c ****         hpcd->ResumeCallback = pCallback;
 338:Drivers/STM32G0xx_HAL_Driver/Src/stm32g0xx_hal_pcd.c ****         break;
 339:Drivers/STM32G0xx_HAL_Driver/Src/stm32g0xx_hal_pcd.c **** 
 340:Drivers/STM32G0xx_HAL_Driver/Src/stm32g0xx_hal_pcd.c ****       case HAL_PCD_CONNECT_CB_ID :
 341:Drivers/STM32G0xx_HAL_Driver/Src/stm32g0xx_hal_pcd.c ****         hpcd->ConnectCallback = pCallback;
 342:Drivers/STM32G0xx_HAL_Driver/Src/stm32g0xx_hal_pcd.c ****         break;
 343:Drivers/STM32G0xx_HAL_Driver/Src/stm32g0xx_hal_pcd.c **** 
 344:Drivers/STM32G0xx_HAL_Driver/Src/stm32g0xx_hal_pcd.c ****       case HAL_PCD_DISCONNECT_CB_ID :
 345:Drivers/STM32G0xx_HAL_Driver/Src/stm32g0xx_hal_pcd.c ****         hpcd->DisconnectCallback = pCallback;
 346:Drivers/STM32G0xx_HAL_Driver/Src/stm32g0xx_hal_pcd.c ****         break;
 347:Drivers/STM32G0xx_HAL_Driver/Src/stm32g0xx_hal_pcd.c **** 
 348:Drivers/STM32G0xx_HAL_Driver/Src/stm32g0xx_hal_pcd.c ****       case HAL_PCD_MSPINIT_CB_ID :
 349:Drivers/STM32G0xx_HAL_Driver/Src/stm32g0xx_hal_pcd.c ****         hpcd->MspInitCallback = pCallback;
 350:Drivers/STM32G0xx_HAL_Driver/Src/stm32g0xx_hal_pcd.c ****         break;
 351:Drivers/STM32G0xx_HAL_Driver/Src/stm32g0xx_hal_pcd.c **** 
 352:Drivers/STM32G0xx_HAL_Driver/Src/stm32g0xx_hal_pcd.c ****       case HAL_PCD_MSPDEINIT_CB_ID :
 353:Drivers/STM32G0xx_HAL_Driver/Src/stm32g0xx_hal_pcd.c ****         hpcd->MspDeInitCallback = pCallback;
 354:Drivers/STM32G0xx_HAL_Driver/Src/stm32g0xx_hal_pcd.c ****         break;
 355:Drivers/STM32G0xx_HAL_Driver/Src/stm32g0xx_hal_pcd.c **** 
 356:Drivers/STM32G0xx_HAL_Driver/Src/stm32g0xx_hal_pcd.c ****       default :
 357:Drivers/STM32G0xx_HAL_Driver/Src/stm32g0xx_hal_pcd.c ****         /* Update the error code */
 358:Drivers/STM32G0xx_HAL_Driver/Src/stm32g0xx_hal_pcd.c ****         hpcd->ErrorCode |= HAL_PCD_ERROR_INVALID_CALLBACK;
 359:Drivers/STM32G0xx_HAL_Driver/Src/stm32g0xx_hal_pcd.c ****         /* Return error status */
 360:Drivers/STM32G0xx_HAL_Driver/Src/stm32g0xx_hal_pcd.c ****         status =  HAL_ERROR;
 361:Drivers/STM32G0xx_HAL_Driver/Src/stm32g0xx_hal_pcd.c ****         break;
 362:Drivers/STM32G0xx_HAL_Driver/Src/stm32g0xx_hal_pcd.c ****     }
 363:Drivers/STM32G0xx_HAL_Driver/Src/stm32g0xx_hal_pcd.c ****   }
 364:Drivers/STM32G0xx_HAL_Driver/Src/stm32g0xx_hal_pcd.c ****   else if (hpcd->State == HAL_PCD_STATE_RESET)
 365:Drivers/STM32G0xx_HAL_Driver/Src/stm32g0xx_hal_pcd.c ****   {
 366:Drivers/STM32G0xx_HAL_Driver/Src/stm32g0xx_hal_pcd.c ****     switch (CallbackID)
 367:Drivers/STM32G0xx_HAL_Driver/Src/stm32g0xx_hal_pcd.c ****     {
 368:Drivers/STM32G0xx_HAL_Driver/Src/stm32g0xx_hal_pcd.c ****       case HAL_PCD_MSPINIT_CB_ID :
 369:Drivers/STM32G0xx_HAL_Driver/Src/stm32g0xx_hal_pcd.c ****         hpcd->MspInitCallback = pCallback;
 370:Drivers/STM32G0xx_HAL_Driver/Src/stm32g0xx_hal_pcd.c ****         break;
 371:Drivers/STM32G0xx_HAL_Driver/Src/stm32g0xx_hal_pcd.c **** 
 372:Drivers/STM32G0xx_HAL_Driver/Src/stm32g0xx_hal_pcd.c ****       case HAL_PCD_MSPDEINIT_CB_ID :
 373:Drivers/STM32G0xx_HAL_Driver/Src/stm32g0xx_hal_pcd.c ****         hpcd->MspDeInitCallback = pCallback;
 374:Drivers/STM32G0xx_HAL_Driver/Src/stm32g0xx_hal_pcd.c ****         break;
 375:Drivers/STM32G0xx_HAL_Driver/Src/stm32g0xx_hal_pcd.c **** 
ARM GAS  /tmp/ccFvkBSI.s 			page 22


 376:Drivers/STM32G0xx_HAL_Driver/Src/stm32g0xx_hal_pcd.c ****       default :
 377:Drivers/STM32G0xx_HAL_Driver/Src/stm32g0xx_hal_pcd.c ****         /* Update the error code */
 378:Drivers/STM32G0xx_HAL_Driver/Src/stm32g0xx_hal_pcd.c ****         hpcd->ErrorCode |= HAL_PCD_ERROR_INVALID_CALLBACK;
 379:Drivers/STM32G0xx_HAL_Driver/Src/stm32g0xx_hal_pcd.c ****         /* Return error status */
 380:Drivers/STM32G0xx_HAL_Driver/Src/stm32g0xx_hal_pcd.c ****         status =  HAL_ERROR;
 381:Drivers/STM32G0xx_HAL_Driver/Src/stm32g0xx_hal_pcd.c ****         break;
 382:Drivers/STM32G0xx_HAL_Driver/Src/stm32g0xx_hal_pcd.c ****     }
 383:Drivers/STM32G0xx_HAL_Driver/Src/stm32g0xx_hal_pcd.c ****   }
 384:Drivers/STM32G0xx_HAL_Driver/Src/stm32g0xx_hal_pcd.c ****   else
 385:Drivers/STM32G0xx_HAL_Driver/Src/stm32g0xx_hal_pcd.c ****   {
 386:Drivers/STM32G0xx_HAL_Driver/Src/stm32g0xx_hal_pcd.c ****     /* Update the error code */
 387:Drivers/STM32G0xx_HAL_Driver/Src/stm32g0xx_hal_pcd.c ****     hpcd->ErrorCode |= HAL_PCD_ERROR_INVALID_CALLBACK;
 388:Drivers/STM32G0xx_HAL_Driver/Src/stm32g0xx_hal_pcd.c ****     /* Return error status */
 389:Drivers/STM32G0xx_HAL_Driver/Src/stm32g0xx_hal_pcd.c ****     status =  HAL_ERROR;
 390:Drivers/STM32G0xx_HAL_Driver/Src/stm32g0xx_hal_pcd.c ****   }
 391:Drivers/STM32G0xx_HAL_Driver/Src/stm32g0xx_hal_pcd.c **** 
 392:Drivers/STM32G0xx_HAL_Driver/Src/stm32g0xx_hal_pcd.c ****   /* Release Lock */
 393:Drivers/STM32G0xx_HAL_Driver/Src/stm32g0xx_hal_pcd.c ****   __HAL_UNLOCK(hpcd);
 394:Drivers/STM32G0xx_HAL_Driver/Src/stm32g0xx_hal_pcd.c ****   return status;
 395:Drivers/STM32G0xx_HAL_Driver/Src/stm32g0xx_hal_pcd.c **** }
 396:Drivers/STM32G0xx_HAL_Driver/Src/stm32g0xx_hal_pcd.c **** 
 397:Drivers/STM32G0xx_HAL_Driver/Src/stm32g0xx_hal_pcd.c **** /**
 398:Drivers/STM32G0xx_HAL_Driver/Src/stm32g0xx_hal_pcd.c ****   * @brief  Unregister an USB PCD Callback
 399:Drivers/STM32G0xx_HAL_Driver/Src/stm32g0xx_hal_pcd.c ****   *         USB PCD callabck is redirected to the weak predefined callback
 400:Drivers/STM32G0xx_HAL_Driver/Src/stm32g0xx_hal_pcd.c ****   * @param  hpcd USB PCD handle
 401:Drivers/STM32G0xx_HAL_Driver/Src/stm32g0xx_hal_pcd.c ****   * @param  CallbackID ID of the callback to be unregistered
 402:Drivers/STM32G0xx_HAL_Driver/Src/stm32g0xx_hal_pcd.c ****   *         This parameter can be one of the following values:
 403:Drivers/STM32G0xx_HAL_Driver/Src/stm32g0xx_hal_pcd.c ****   *          @arg @ref HAL_PCD_SOF_CB_ID USB PCD SOF callback ID
 404:Drivers/STM32G0xx_HAL_Driver/Src/stm32g0xx_hal_pcd.c ****   *          @arg @ref HAL_PCD_SETUPSTAGE_CB_ID USB PCD Setup callback ID
 405:Drivers/STM32G0xx_HAL_Driver/Src/stm32g0xx_hal_pcd.c ****   *          @arg @ref HAL_PCD_RESET_CB_ID USB PCD Reset callback ID
 406:Drivers/STM32G0xx_HAL_Driver/Src/stm32g0xx_hal_pcd.c ****   *          @arg @ref HAL_PCD_SUSPEND_CB_ID USB PCD Suspend callback ID
 407:Drivers/STM32G0xx_HAL_Driver/Src/stm32g0xx_hal_pcd.c ****   *          @arg @ref HAL_PCD_RESUME_CB_ID USB PCD Resume callback ID
 408:Drivers/STM32G0xx_HAL_Driver/Src/stm32g0xx_hal_pcd.c ****   *          @arg @ref HAL_PCD_CONNECT_CB_ID USB PCD Connect callback ID
 409:Drivers/STM32G0xx_HAL_Driver/Src/stm32g0xx_hal_pcd.c ****   *          @arg @ref HAL_PCD_DISCONNECT_CB_ID OTG PCD Disconnect callback ID
 410:Drivers/STM32G0xx_HAL_Driver/Src/stm32g0xx_hal_pcd.c ****   *          @arg @ref HAL_PCD_MSPINIT_CB_ID MspDeInit callback ID
 411:Drivers/STM32G0xx_HAL_Driver/Src/stm32g0xx_hal_pcd.c ****   *          @arg @ref HAL_PCD_MSPDEINIT_CB_ID MspDeInit callback ID
 412:Drivers/STM32G0xx_HAL_Driver/Src/stm32g0xx_hal_pcd.c ****   * @retval HAL status
 413:Drivers/STM32G0xx_HAL_Driver/Src/stm32g0xx_hal_pcd.c ****   */
 414:Drivers/STM32G0xx_HAL_Driver/Src/stm32g0xx_hal_pcd.c **** HAL_StatusTypeDef HAL_PCD_UnRegisterCallback(PCD_HandleTypeDef *hpcd, HAL_PCD_CallbackIDTypeDef Cal
 415:Drivers/STM32G0xx_HAL_Driver/Src/stm32g0xx_hal_pcd.c **** {
 416:Drivers/STM32G0xx_HAL_Driver/Src/stm32g0xx_hal_pcd.c ****   HAL_StatusTypeDef status = HAL_OK;
 417:Drivers/STM32G0xx_HAL_Driver/Src/stm32g0xx_hal_pcd.c **** 
 418:Drivers/STM32G0xx_HAL_Driver/Src/stm32g0xx_hal_pcd.c ****   /* Process locked */
 419:Drivers/STM32G0xx_HAL_Driver/Src/stm32g0xx_hal_pcd.c ****   __HAL_LOCK(hpcd);
 420:Drivers/STM32G0xx_HAL_Driver/Src/stm32g0xx_hal_pcd.c **** 
 421:Drivers/STM32G0xx_HAL_Driver/Src/stm32g0xx_hal_pcd.c ****   /* Setup Legacy weak Callbacks  */
 422:Drivers/STM32G0xx_HAL_Driver/Src/stm32g0xx_hal_pcd.c ****   if (hpcd->State == HAL_PCD_STATE_READY)
 423:Drivers/STM32G0xx_HAL_Driver/Src/stm32g0xx_hal_pcd.c ****   {
 424:Drivers/STM32G0xx_HAL_Driver/Src/stm32g0xx_hal_pcd.c ****     switch (CallbackID)
 425:Drivers/STM32G0xx_HAL_Driver/Src/stm32g0xx_hal_pcd.c ****     {
 426:Drivers/STM32G0xx_HAL_Driver/Src/stm32g0xx_hal_pcd.c ****       case HAL_PCD_SOF_CB_ID :
 427:Drivers/STM32G0xx_HAL_Driver/Src/stm32g0xx_hal_pcd.c ****         hpcd->SOFCallback = HAL_PCD_SOFCallback;
 428:Drivers/STM32G0xx_HAL_Driver/Src/stm32g0xx_hal_pcd.c ****         break;
 429:Drivers/STM32G0xx_HAL_Driver/Src/stm32g0xx_hal_pcd.c **** 
 430:Drivers/STM32G0xx_HAL_Driver/Src/stm32g0xx_hal_pcd.c ****       case HAL_PCD_SETUPSTAGE_CB_ID :
 431:Drivers/STM32G0xx_HAL_Driver/Src/stm32g0xx_hal_pcd.c ****         hpcd->SetupStageCallback = HAL_PCD_SetupStageCallback;
 432:Drivers/STM32G0xx_HAL_Driver/Src/stm32g0xx_hal_pcd.c ****         break;
ARM GAS  /tmp/ccFvkBSI.s 			page 23


 433:Drivers/STM32G0xx_HAL_Driver/Src/stm32g0xx_hal_pcd.c **** 
 434:Drivers/STM32G0xx_HAL_Driver/Src/stm32g0xx_hal_pcd.c ****       case HAL_PCD_RESET_CB_ID :
 435:Drivers/STM32G0xx_HAL_Driver/Src/stm32g0xx_hal_pcd.c ****         hpcd->ResetCallback = HAL_PCD_ResetCallback;
 436:Drivers/STM32G0xx_HAL_Driver/Src/stm32g0xx_hal_pcd.c ****         break;
 437:Drivers/STM32G0xx_HAL_Driver/Src/stm32g0xx_hal_pcd.c **** 
 438:Drivers/STM32G0xx_HAL_Driver/Src/stm32g0xx_hal_pcd.c ****       case HAL_PCD_SUSPEND_CB_ID :
 439:Drivers/STM32G0xx_HAL_Driver/Src/stm32g0xx_hal_pcd.c ****         hpcd->SuspendCallback = HAL_PCD_SuspendCallback;
 440:Drivers/STM32G0xx_HAL_Driver/Src/stm32g0xx_hal_pcd.c ****         break;
 441:Drivers/STM32G0xx_HAL_Driver/Src/stm32g0xx_hal_pcd.c **** 
 442:Drivers/STM32G0xx_HAL_Driver/Src/stm32g0xx_hal_pcd.c ****       case HAL_PCD_RESUME_CB_ID :
 443:Drivers/STM32G0xx_HAL_Driver/Src/stm32g0xx_hal_pcd.c ****         hpcd->ResumeCallback = HAL_PCD_ResumeCallback;
 444:Drivers/STM32G0xx_HAL_Driver/Src/stm32g0xx_hal_pcd.c ****         break;
 445:Drivers/STM32G0xx_HAL_Driver/Src/stm32g0xx_hal_pcd.c **** 
 446:Drivers/STM32G0xx_HAL_Driver/Src/stm32g0xx_hal_pcd.c ****       case HAL_PCD_CONNECT_CB_ID :
 447:Drivers/STM32G0xx_HAL_Driver/Src/stm32g0xx_hal_pcd.c ****         hpcd->ConnectCallback = HAL_PCD_ConnectCallback;
 448:Drivers/STM32G0xx_HAL_Driver/Src/stm32g0xx_hal_pcd.c ****         break;
 449:Drivers/STM32G0xx_HAL_Driver/Src/stm32g0xx_hal_pcd.c **** 
 450:Drivers/STM32G0xx_HAL_Driver/Src/stm32g0xx_hal_pcd.c ****       case HAL_PCD_DISCONNECT_CB_ID :
 451:Drivers/STM32G0xx_HAL_Driver/Src/stm32g0xx_hal_pcd.c ****         hpcd->DisconnectCallback = HAL_PCD_DisconnectCallback;
 452:Drivers/STM32G0xx_HAL_Driver/Src/stm32g0xx_hal_pcd.c ****         break;
 453:Drivers/STM32G0xx_HAL_Driver/Src/stm32g0xx_hal_pcd.c **** 
 454:Drivers/STM32G0xx_HAL_Driver/Src/stm32g0xx_hal_pcd.c ****       case HAL_PCD_MSPINIT_CB_ID :
 455:Drivers/STM32G0xx_HAL_Driver/Src/stm32g0xx_hal_pcd.c ****         hpcd->MspInitCallback = HAL_PCD_MspInit;
 456:Drivers/STM32G0xx_HAL_Driver/Src/stm32g0xx_hal_pcd.c ****         break;
 457:Drivers/STM32G0xx_HAL_Driver/Src/stm32g0xx_hal_pcd.c **** 
 458:Drivers/STM32G0xx_HAL_Driver/Src/stm32g0xx_hal_pcd.c ****       case HAL_PCD_MSPDEINIT_CB_ID :
 459:Drivers/STM32G0xx_HAL_Driver/Src/stm32g0xx_hal_pcd.c ****         hpcd->MspDeInitCallback = HAL_PCD_MspDeInit;
 460:Drivers/STM32G0xx_HAL_Driver/Src/stm32g0xx_hal_pcd.c ****         break;
 461:Drivers/STM32G0xx_HAL_Driver/Src/stm32g0xx_hal_pcd.c **** 
 462:Drivers/STM32G0xx_HAL_Driver/Src/stm32g0xx_hal_pcd.c ****       default :
 463:Drivers/STM32G0xx_HAL_Driver/Src/stm32g0xx_hal_pcd.c ****         /* Update the error code */
 464:Drivers/STM32G0xx_HAL_Driver/Src/stm32g0xx_hal_pcd.c ****         hpcd->ErrorCode |= HAL_PCD_ERROR_INVALID_CALLBACK;
 465:Drivers/STM32G0xx_HAL_Driver/Src/stm32g0xx_hal_pcd.c **** 
 466:Drivers/STM32G0xx_HAL_Driver/Src/stm32g0xx_hal_pcd.c ****         /* Return error status */
 467:Drivers/STM32G0xx_HAL_Driver/Src/stm32g0xx_hal_pcd.c ****         status =  HAL_ERROR;
 468:Drivers/STM32G0xx_HAL_Driver/Src/stm32g0xx_hal_pcd.c ****         break;
 469:Drivers/STM32G0xx_HAL_Driver/Src/stm32g0xx_hal_pcd.c ****     }
 470:Drivers/STM32G0xx_HAL_Driver/Src/stm32g0xx_hal_pcd.c ****   }
 471:Drivers/STM32G0xx_HAL_Driver/Src/stm32g0xx_hal_pcd.c ****   else if (hpcd->State == HAL_PCD_STATE_RESET)
 472:Drivers/STM32G0xx_HAL_Driver/Src/stm32g0xx_hal_pcd.c ****   {
 473:Drivers/STM32G0xx_HAL_Driver/Src/stm32g0xx_hal_pcd.c ****     switch (CallbackID)
 474:Drivers/STM32G0xx_HAL_Driver/Src/stm32g0xx_hal_pcd.c ****     {
 475:Drivers/STM32G0xx_HAL_Driver/Src/stm32g0xx_hal_pcd.c ****       case HAL_PCD_MSPINIT_CB_ID :
 476:Drivers/STM32G0xx_HAL_Driver/Src/stm32g0xx_hal_pcd.c ****         hpcd->MspInitCallback = HAL_PCD_MspInit;
 477:Drivers/STM32G0xx_HAL_Driver/Src/stm32g0xx_hal_pcd.c ****         break;
 478:Drivers/STM32G0xx_HAL_Driver/Src/stm32g0xx_hal_pcd.c **** 
 479:Drivers/STM32G0xx_HAL_Driver/Src/stm32g0xx_hal_pcd.c ****       case HAL_PCD_MSPDEINIT_CB_ID :
 480:Drivers/STM32G0xx_HAL_Driver/Src/stm32g0xx_hal_pcd.c ****         hpcd->MspDeInitCallback = HAL_PCD_MspDeInit;
 481:Drivers/STM32G0xx_HAL_Driver/Src/stm32g0xx_hal_pcd.c ****         break;
 482:Drivers/STM32G0xx_HAL_Driver/Src/stm32g0xx_hal_pcd.c **** 
 483:Drivers/STM32G0xx_HAL_Driver/Src/stm32g0xx_hal_pcd.c ****       default :
 484:Drivers/STM32G0xx_HAL_Driver/Src/stm32g0xx_hal_pcd.c ****         /* Update the error code */
 485:Drivers/STM32G0xx_HAL_Driver/Src/stm32g0xx_hal_pcd.c ****         hpcd->ErrorCode |= HAL_PCD_ERROR_INVALID_CALLBACK;
 486:Drivers/STM32G0xx_HAL_Driver/Src/stm32g0xx_hal_pcd.c **** 
 487:Drivers/STM32G0xx_HAL_Driver/Src/stm32g0xx_hal_pcd.c ****         /* Return error status */
 488:Drivers/STM32G0xx_HAL_Driver/Src/stm32g0xx_hal_pcd.c ****         status =  HAL_ERROR;
 489:Drivers/STM32G0xx_HAL_Driver/Src/stm32g0xx_hal_pcd.c ****         break;
ARM GAS  /tmp/ccFvkBSI.s 			page 24


 490:Drivers/STM32G0xx_HAL_Driver/Src/stm32g0xx_hal_pcd.c ****     }
 491:Drivers/STM32G0xx_HAL_Driver/Src/stm32g0xx_hal_pcd.c ****   }
 492:Drivers/STM32G0xx_HAL_Driver/Src/stm32g0xx_hal_pcd.c ****   else
 493:Drivers/STM32G0xx_HAL_Driver/Src/stm32g0xx_hal_pcd.c ****   {
 494:Drivers/STM32G0xx_HAL_Driver/Src/stm32g0xx_hal_pcd.c ****     /* Update the error code */
 495:Drivers/STM32G0xx_HAL_Driver/Src/stm32g0xx_hal_pcd.c ****     hpcd->ErrorCode |= HAL_PCD_ERROR_INVALID_CALLBACK;
 496:Drivers/STM32G0xx_HAL_Driver/Src/stm32g0xx_hal_pcd.c **** 
 497:Drivers/STM32G0xx_HAL_Driver/Src/stm32g0xx_hal_pcd.c ****     /* Return error status */
 498:Drivers/STM32G0xx_HAL_Driver/Src/stm32g0xx_hal_pcd.c ****     status =  HAL_ERROR;
 499:Drivers/STM32G0xx_HAL_Driver/Src/stm32g0xx_hal_pcd.c ****   }
 500:Drivers/STM32G0xx_HAL_Driver/Src/stm32g0xx_hal_pcd.c **** 
 501:Drivers/STM32G0xx_HAL_Driver/Src/stm32g0xx_hal_pcd.c ****   /* Release Lock */
 502:Drivers/STM32G0xx_HAL_Driver/Src/stm32g0xx_hal_pcd.c ****   __HAL_UNLOCK(hpcd);
 503:Drivers/STM32G0xx_HAL_Driver/Src/stm32g0xx_hal_pcd.c ****   return status;
 504:Drivers/STM32G0xx_HAL_Driver/Src/stm32g0xx_hal_pcd.c **** }
 505:Drivers/STM32G0xx_HAL_Driver/Src/stm32g0xx_hal_pcd.c **** 
 506:Drivers/STM32G0xx_HAL_Driver/Src/stm32g0xx_hal_pcd.c **** /**
 507:Drivers/STM32G0xx_HAL_Driver/Src/stm32g0xx_hal_pcd.c ****   * @brief  Register USB PCD Data OUT Stage Callback
 508:Drivers/STM32G0xx_HAL_Driver/Src/stm32g0xx_hal_pcd.c ****   *         To be used instead of the weak HAL_PCD_DataOutStageCallback() predefined callback
 509:Drivers/STM32G0xx_HAL_Driver/Src/stm32g0xx_hal_pcd.c ****   * @param  hpcd PCD handle
 510:Drivers/STM32G0xx_HAL_Driver/Src/stm32g0xx_hal_pcd.c ****   * @param  pCallback pointer to the USB PCD Data OUT Stage Callback function
 511:Drivers/STM32G0xx_HAL_Driver/Src/stm32g0xx_hal_pcd.c ****   * @retval HAL status
 512:Drivers/STM32G0xx_HAL_Driver/Src/stm32g0xx_hal_pcd.c ****   */
 513:Drivers/STM32G0xx_HAL_Driver/Src/stm32g0xx_hal_pcd.c **** HAL_StatusTypeDef HAL_PCD_RegisterDataOutStageCallback(PCD_HandleTypeDef *hpcd,
 514:Drivers/STM32G0xx_HAL_Driver/Src/stm32g0xx_hal_pcd.c ****                                                        pPCD_DataOutStageCallbackTypeDef pCallback)
 515:Drivers/STM32G0xx_HAL_Driver/Src/stm32g0xx_hal_pcd.c **** {
 516:Drivers/STM32G0xx_HAL_Driver/Src/stm32g0xx_hal_pcd.c ****   HAL_StatusTypeDef status = HAL_OK;
 517:Drivers/STM32G0xx_HAL_Driver/Src/stm32g0xx_hal_pcd.c **** 
 518:Drivers/STM32G0xx_HAL_Driver/Src/stm32g0xx_hal_pcd.c ****   if (pCallback == NULL)
 519:Drivers/STM32G0xx_HAL_Driver/Src/stm32g0xx_hal_pcd.c ****   {
 520:Drivers/STM32G0xx_HAL_Driver/Src/stm32g0xx_hal_pcd.c ****     /* Update the error code */
 521:Drivers/STM32G0xx_HAL_Driver/Src/stm32g0xx_hal_pcd.c ****     hpcd->ErrorCode |= HAL_PCD_ERROR_INVALID_CALLBACK;
 522:Drivers/STM32G0xx_HAL_Driver/Src/stm32g0xx_hal_pcd.c **** 
 523:Drivers/STM32G0xx_HAL_Driver/Src/stm32g0xx_hal_pcd.c ****     return HAL_ERROR;
 524:Drivers/STM32G0xx_HAL_Driver/Src/stm32g0xx_hal_pcd.c ****   }
 525:Drivers/STM32G0xx_HAL_Driver/Src/stm32g0xx_hal_pcd.c **** 
 526:Drivers/STM32G0xx_HAL_Driver/Src/stm32g0xx_hal_pcd.c ****   /* Process locked */
 527:Drivers/STM32G0xx_HAL_Driver/Src/stm32g0xx_hal_pcd.c ****   __HAL_LOCK(hpcd);
 528:Drivers/STM32G0xx_HAL_Driver/Src/stm32g0xx_hal_pcd.c **** 
 529:Drivers/STM32G0xx_HAL_Driver/Src/stm32g0xx_hal_pcd.c ****   if (hpcd->State == HAL_PCD_STATE_READY)
 530:Drivers/STM32G0xx_HAL_Driver/Src/stm32g0xx_hal_pcd.c ****   {
 531:Drivers/STM32G0xx_HAL_Driver/Src/stm32g0xx_hal_pcd.c ****     hpcd->DataOutStageCallback = pCallback;
 532:Drivers/STM32G0xx_HAL_Driver/Src/stm32g0xx_hal_pcd.c ****   }
 533:Drivers/STM32G0xx_HAL_Driver/Src/stm32g0xx_hal_pcd.c ****   else
 534:Drivers/STM32G0xx_HAL_Driver/Src/stm32g0xx_hal_pcd.c ****   {
 535:Drivers/STM32G0xx_HAL_Driver/Src/stm32g0xx_hal_pcd.c ****     /* Update the error code */
 536:Drivers/STM32G0xx_HAL_Driver/Src/stm32g0xx_hal_pcd.c ****     hpcd->ErrorCode |= HAL_PCD_ERROR_INVALID_CALLBACK;
 537:Drivers/STM32G0xx_HAL_Driver/Src/stm32g0xx_hal_pcd.c **** 
 538:Drivers/STM32G0xx_HAL_Driver/Src/stm32g0xx_hal_pcd.c ****     /* Return error status */
 539:Drivers/STM32G0xx_HAL_Driver/Src/stm32g0xx_hal_pcd.c ****     status =  HAL_ERROR;
 540:Drivers/STM32G0xx_HAL_Driver/Src/stm32g0xx_hal_pcd.c ****   }
 541:Drivers/STM32G0xx_HAL_Driver/Src/stm32g0xx_hal_pcd.c **** 
 542:Drivers/STM32G0xx_HAL_Driver/Src/stm32g0xx_hal_pcd.c ****   /* Release Lock */
 543:Drivers/STM32G0xx_HAL_Driver/Src/stm32g0xx_hal_pcd.c ****   __HAL_UNLOCK(hpcd);
 544:Drivers/STM32G0xx_HAL_Driver/Src/stm32g0xx_hal_pcd.c **** 
 545:Drivers/STM32G0xx_HAL_Driver/Src/stm32g0xx_hal_pcd.c ****   return status;
 546:Drivers/STM32G0xx_HAL_Driver/Src/stm32g0xx_hal_pcd.c **** }
ARM GAS  /tmp/ccFvkBSI.s 			page 25


 547:Drivers/STM32G0xx_HAL_Driver/Src/stm32g0xx_hal_pcd.c **** 
 548:Drivers/STM32G0xx_HAL_Driver/Src/stm32g0xx_hal_pcd.c **** /**
 549:Drivers/STM32G0xx_HAL_Driver/Src/stm32g0xx_hal_pcd.c ****   * @brief  Unregister the USB PCD Data OUT Stage Callback
 550:Drivers/STM32G0xx_HAL_Driver/Src/stm32g0xx_hal_pcd.c ****   *         USB PCD Data OUT Stage Callback is redirected to the weak HAL_PCD_DataOutStageCallback(
 551:Drivers/STM32G0xx_HAL_Driver/Src/stm32g0xx_hal_pcd.c ****   * @param  hpcd PCD handle
 552:Drivers/STM32G0xx_HAL_Driver/Src/stm32g0xx_hal_pcd.c ****   * @retval HAL status
 553:Drivers/STM32G0xx_HAL_Driver/Src/stm32g0xx_hal_pcd.c ****   */
 554:Drivers/STM32G0xx_HAL_Driver/Src/stm32g0xx_hal_pcd.c **** HAL_StatusTypeDef HAL_PCD_UnRegisterDataOutStageCallback(PCD_HandleTypeDef *hpcd)
 555:Drivers/STM32G0xx_HAL_Driver/Src/stm32g0xx_hal_pcd.c **** {
 556:Drivers/STM32G0xx_HAL_Driver/Src/stm32g0xx_hal_pcd.c ****   HAL_StatusTypeDef status = HAL_OK;
 557:Drivers/STM32G0xx_HAL_Driver/Src/stm32g0xx_hal_pcd.c **** 
 558:Drivers/STM32G0xx_HAL_Driver/Src/stm32g0xx_hal_pcd.c ****   /* Process locked */
 559:Drivers/STM32G0xx_HAL_Driver/Src/stm32g0xx_hal_pcd.c ****   __HAL_LOCK(hpcd);
 560:Drivers/STM32G0xx_HAL_Driver/Src/stm32g0xx_hal_pcd.c **** 
 561:Drivers/STM32G0xx_HAL_Driver/Src/stm32g0xx_hal_pcd.c ****   if (hpcd->State == HAL_PCD_STATE_READY)
 562:Drivers/STM32G0xx_HAL_Driver/Src/stm32g0xx_hal_pcd.c ****   {
 563:Drivers/STM32G0xx_HAL_Driver/Src/stm32g0xx_hal_pcd.c ****     hpcd->DataOutStageCallback = HAL_PCD_DataOutStageCallback; /* Legacy weak DataOutStageCallback 
 564:Drivers/STM32G0xx_HAL_Driver/Src/stm32g0xx_hal_pcd.c ****   }
 565:Drivers/STM32G0xx_HAL_Driver/Src/stm32g0xx_hal_pcd.c ****   else
 566:Drivers/STM32G0xx_HAL_Driver/Src/stm32g0xx_hal_pcd.c ****   {
 567:Drivers/STM32G0xx_HAL_Driver/Src/stm32g0xx_hal_pcd.c ****     /* Update the error code */
 568:Drivers/STM32G0xx_HAL_Driver/Src/stm32g0xx_hal_pcd.c ****     hpcd->ErrorCode |= HAL_PCD_ERROR_INVALID_CALLBACK;
 569:Drivers/STM32G0xx_HAL_Driver/Src/stm32g0xx_hal_pcd.c **** 
 570:Drivers/STM32G0xx_HAL_Driver/Src/stm32g0xx_hal_pcd.c ****     /* Return error status */
 571:Drivers/STM32G0xx_HAL_Driver/Src/stm32g0xx_hal_pcd.c ****     status =  HAL_ERROR;
 572:Drivers/STM32G0xx_HAL_Driver/Src/stm32g0xx_hal_pcd.c ****   }
 573:Drivers/STM32G0xx_HAL_Driver/Src/stm32g0xx_hal_pcd.c **** 
 574:Drivers/STM32G0xx_HAL_Driver/Src/stm32g0xx_hal_pcd.c ****   /* Release Lock */
 575:Drivers/STM32G0xx_HAL_Driver/Src/stm32g0xx_hal_pcd.c ****   __HAL_UNLOCK(hpcd);
 576:Drivers/STM32G0xx_HAL_Driver/Src/stm32g0xx_hal_pcd.c **** 
 577:Drivers/STM32G0xx_HAL_Driver/Src/stm32g0xx_hal_pcd.c ****   return status;
 578:Drivers/STM32G0xx_HAL_Driver/Src/stm32g0xx_hal_pcd.c **** }
 579:Drivers/STM32G0xx_HAL_Driver/Src/stm32g0xx_hal_pcd.c **** 
 580:Drivers/STM32G0xx_HAL_Driver/Src/stm32g0xx_hal_pcd.c **** /**
 581:Drivers/STM32G0xx_HAL_Driver/Src/stm32g0xx_hal_pcd.c ****   * @brief  Register USB PCD Data IN Stage Callback
 582:Drivers/STM32G0xx_HAL_Driver/Src/stm32g0xx_hal_pcd.c ****   *         To be used instead of the weak HAL_PCD_DataInStageCallback() predefined callback
 583:Drivers/STM32G0xx_HAL_Driver/Src/stm32g0xx_hal_pcd.c ****   * @param  hpcd PCD handle
 584:Drivers/STM32G0xx_HAL_Driver/Src/stm32g0xx_hal_pcd.c ****   * @param  pCallback pointer to the USB PCD Data IN Stage Callback function
 585:Drivers/STM32G0xx_HAL_Driver/Src/stm32g0xx_hal_pcd.c ****   * @retval HAL status
 586:Drivers/STM32G0xx_HAL_Driver/Src/stm32g0xx_hal_pcd.c ****   */
 587:Drivers/STM32G0xx_HAL_Driver/Src/stm32g0xx_hal_pcd.c **** HAL_StatusTypeDef HAL_PCD_RegisterDataInStageCallback(PCD_HandleTypeDef *hpcd,
 588:Drivers/STM32G0xx_HAL_Driver/Src/stm32g0xx_hal_pcd.c ****                                                       pPCD_DataInStageCallbackTypeDef pCallback)
 589:Drivers/STM32G0xx_HAL_Driver/Src/stm32g0xx_hal_pcd.c **** {
 590:Drivers/STM32G0xx_HAL_Driver/Src/stm32g0xx_hal_pcd.c ****   HAL_StatusTypeDef status = HAL_OK;
 591:Drivers/STM32G0xx_HAL_Driver/Src/stm32g0xx_hal_pcd.c **** 
 592:Drivers/STM32G0xx_HAL_Driver/Src/stm32g0xx_hal_pcd.c ****   if (pCallback == NULL)
 593:Drivers/STM32G0xx_HAL_Driver/Src/stm32g0xx_hal_pcd.c ****   {
 594:Drivers/STM32G0xx_HAL_Driver/Src/stm32g0xx_hal_pcd.c ****     /* Update the error code */
 595:Drivers/STM32G0xx_HAL_Driver/Src/stm32g0xx_hal_pcd.c ****     hpcd->ErrorCode |= HAL_PCD_ERROR_INVALID_CALLBACK;
 596:Drivers/STM32G0xx_HAL_Driver/Src/stm32g0xx_hal_pcd.c **** 
 597:Drivers/STM32G0xx_HAL_Driver/Src/stm32g0xx_hal_pcd.c ****     return HAL_ERROR;
 598:Drivers/STM32G0xx_HAL_Driver/Src/stm32g0xx_hal_pcd.c ****   }
 599:Drivers/STM32G0xx_HAL_Driver/Src/stm32g0xx_hal_pcd.c **** 
 600:Drivers/STM32G0xx_HAL_Driver/Src/stm32g0xx_hal_pcd.c ****   /* Process locked */
 601:Drivers/STM32G0xx_HAL_Driver/Src/stm32g0xx_hal_pcd.c ****   __HAL_LOCK(hpcd);
 602:Drivers/STM32G0xx_HAL_Driver/Src/stm32g0xx_hal_pcd.c **** 
 603:Drivers/STM32G0xx_HAL_Driver/Src/stm32g0xx_hal_pcd.c ****   if (hpcd->State == HAL_PCD_STATE_READY)
ARM GAS  /tmp/ccFvkBSI.s 			page 26


 604:Drivers/STM32G0xx_HAL_Driver/Src/stm32g0xx_hal_pcd.c ****   {
 605:Drivers/STM32G0xx_HAL_Driver/Src/stm32g0xx_hal_pcd.c ****     hpcd->DataInStageCallback = pCallback;
 606:Drivers/STM32G0xx_HAL_Driver/Src/stm32g0xx_hal_pcd.c ****   }
 607:Drivers/STM32G0xx_HAL_Driver/Src/stm32g0xx_hal_pcd.c ****   else
 608:Drivers/STM32G0xx_HAL_Driver/Src/stm32g0xx_hal_pcd.c ****   {
 609:Drivers/STM32G0xx_HAL_Driver/Src/stm32g0xx_hal_pcd.c ****     /* Update the error code */
 610:Drivers/STM32G0xx_HAL_Driver/Src/stm32g0xx_hal_pcd.c ****     hpcd->ErrorCode |= HAL_PCD_ERROR_INVALID_CALLBACK;
 611:Drivers/STM32G0xx_HAL_Driver/Src/stm32g0xx_hal_pcd.c **** 
 612:Drivers/STM32G0xx_HAL_Driver/Src/stm32g0xx_hal_pcd.c ****     /* Return error status */
 613:Drivers/STM32G0xx_HAL_Driver/Src/stm32g0xx_hal_pcd.c ****     status =  HAL_ERROR;
 614:Drivers/STM32G0xx_HAL_Driver/Src/stm32g0xx_hal_pcd.c ****   }
 615:Drivers/STM32G0xx_HAL_Driver/Src/stm32g0xx_hal_pcd.c **** 
 616:Drivers/STM32G0xx_HAL_Driver/Src/stm32g0xx_hal_pcd.c ****   /* Release Lock */
 617:Drivers/STM32G0xx_HAL_Driver/Src/stm32g0xx_hal_pcd.c ****   __HAL_UNLOCK(hpcd);
 618:Drivers/STM32G0xx_HAL_Driver/Src/stm32g0xx_hal_pcd.c **** 
 619:Drivers/STM32G0xx_HAL_Driver/Src/stm32g0xx_hal_pcd.c ****   return status;
 620:Drivers/STM32G0xx_HAL_Driver/Src/stm32g0xx_hal_pcd.c **** }
 621:Drivers/STM32G0xx_HAL_Driver/Src/stm32g0xx_hal_pcd.c **** 
 622:Drivers/STM32G0xx_HAL_Driver/Src/stm32g0xx_hal_pcd.c **** /**
 623:Drivers/STM32G0xx_HAL_Driver/Src/stm32g0xx_hal_pcd.c ****   * @brief  Unregister the USB PCD Data IN Stage Callback
 624:Drivers/STM32G0xx_HAL_Driver/Src/stm32g0xx_hal_pcd.c ****   *         USB PCD Data OUT Stage Callback is redirected to the weak HAL_PCD_DataInStageCallback()
 625:Drivers/STM32G0xx_HAL_Driver/Src/stm32g0xx_hal_pcd.c ****   * @param  hpcd PCD handle
 626:Drivers/STM32G0xx_HAL_Driver/Src/stm32g0xx_hal_pcd.c ****   * @retval HAL status
 627:Drivers/STM32G0xx_HAL_Driver/Src/stm32g0xx_hal_pcd.c ****   */
 628:Drivers/STM32G0xx_HAL_Driver/Src/stm32g0xx_hal_pcd.c **** HAL_StatusTypeDef HAL_PCD_UnRegisterDataInStageCallback(PCD_HandleTypeDef *hpcd)
 629:Drivers/STM32G0xx_HAL_Driver/Src/stm32g0xx_hal_pcd.c **** {
 630:Drivers/STM32G0xx_HAL_Driver/Src/stm32g0xx_hal_pcd.c ****   HAL_StatusTypeDef status = HAL_OK;
 631:Drivers/STM32G0xx_HAL_Driver/Src/stm32g0xx_hal_pcd.c **** 
 632:Drivers/STM32G0xx_HAL_Driver/Src/stm32g0xx_hal_pcd.c ****   /* Process locked */
 633:Drivers/STM32G0xx_HAL_Driver/Src/stm32g0xx_hal_pcd.c ****   __HAL_LOCK(hpcd);
 634:Drivers/STM32G0xx_HAL_Driver/Src/stm32g0xx_hal_pcd.c **** 
 635:Drivers/STM32G0xx_HAL_Driver/Src/stm32g0xx_hal_pcd.c ****   if (hpcd->State == HAL_PCD_STATE_READY)
 636:Drivers/STM32G0xx_HAL_Driver/Src/stm32g0xx_hal_pcd.c ****   {
 637:Drivers/STM32G0xx_HAL_Driver/Src/stm32g0xx_hal_pcd.c ****     hpcd->DataInStageCallback = HAL_PCD_DataInStageCallback; /* Legacy weak DataInStageCallback  */
 638:Drivers/STM32G0xx_HAL_Driver/Src/stm32g0xx_hal_pcd.c ****   }
 639:Drivers/STM32G0xx_HAL_Driver/Src/stm32g0xx_hal_pcd.c ****   else
 640:Drivers/STM32G0xx_HAL_Driver/Src/stm32g0xx_hal_pcd.c ****   {
 641:Drivers/STM32G0xx_HAL_Driver/Src/stm32g0xx_hal_pcd.c ****     /* Update the error code */
 642:Drivers/STM32G0xx_HAL_Driver/Src/stm32g0xx_hal_pcd.c ****     hpcd->ErrorCode |= HAL_PCD_ERROR_INVALID_CALLBACK;
 643:Drivers/STM32G0xx_HAL_Driver/Src/stm32g0xx_hal_pcd.c **** 
 644:Drivers/STM32G0xx_HAL_Driver/Src/stm32g0xx_hal_pcd.c ****     /* Return error status */
 645:Drivers/STM32G0xx_HAL_Driver/Src/stm32g0xx_hal_pcd.c ****     status =  HAL_ERROR;
 646:Drivers/STM32G0xx_HAL_Driver/Src/stm32g0xx_hal_pcd.c ****   }
 647:Drivers/STM32G0xx_HAL_Driver/Src/stm32g0xx_hal_pcd.c **** 
 648:Drivers/STM32G0xx_HAL_Driver/Src/stm32g0xx_hal_pcd.c ****   /* Release Lock */
 649:Drivers/STM32G0xx_HAL_Driver/Src/stm32g0xx_hal_pcd.c ****   __HAL_UNLOCK(hpcd);
 650:Drivers/STM32G0xx_HAL_Driver/Src/stm32g0xx_hal_pcd.c **** 
 651:Drivers/STM32G0xx_HAL_Driver/Src/stm32g0xx_hal_pcd.c ****   return status;
 652:Drivers/STM32G0xx_HAL_Driver/Src/stm32g0xx_hal_pcd.c **** }
 653:Drivers/STM32G0xx_HAL_Driver/Src/stm32g0xx_hal_pcd.c **** 
 654:Drivers/STM32G0xx_HAL_Driver/Src/stm32g0xx_hal_pcd.c **** /**
 655:Drivers/STM32G0xx_HAL_Driver/Src/stm32g0xx_hal_pcd.c ****   * @brief  Register USB PCD Iso OUT incomplete Callback
 656:Drivers/STM32G0xx_HAL_Driver/Src/stm32g0xx_hal_pcd.c ****   *         To be used instead of the weak HAL_PCD_ISOOUTIncompleteCallback() predefined callback
 657:Drivers/STM32G0xx_HAL_Driver/Src/stm32g0xx_hal_pcd.c ****   * @param  hpcd PCD handle
 658:Drivers/STM32G0xx_HAL_Driver/Src/stm32g0xx_hal_pcd.c ****   * @param  pCallback pointer to the USB PCD Iso OUT incomplete Callback function
 659:Drivers/STM32G0xx_HAL_Driver/Src/stm32g0xx_hal_pcd.c ****   * @retval HAL status
 660:Drivers/STM32G0xx_HAL_Driver/Src/stm32g0xx_hal_pcd.c ****   */
ARM GAS  /tmp/ccFvkBSI.s 			page 27


 661:Drivers/STM32G0xx_HAL_Driver/Src/stm32g0xx_hal_pcd.c **** HAL_StatusTypeDef HAL_PCD_RegisterIsoOutIncpltCallback(PCD_HandleTypeDef *hpcd,
 662:Drivers/STM32G0xx_HAL_Driver/Src/stm32g0xx_hal_pcd.c ****                                                        pPCD_IsoOutIncpltCallbackTypeDef pCallback)
 663:Drivers/STM32G0xx_HAL_Driver/Src/stm32g0xx_hal_pcd.c **** {
 664:Drivers/STM32G0xx_HAL_Driver/Src/stm32g0xx_hal_pcd.c ****   HAL_StatusTypeDef status = HAL_OK;
 665:Drivers/STM32G0xx_HAL_Driver/Src/stm32g0xx_hal_pcd.c **** 
 666:Drivers/STM32G0xx_HAL_Driver/Src/stm32g0xx_hal_pcd.c ****   if (pCallback == NULL)
 667:Drivers/STM32G0xx_HAL_Driver/Src/stm32g0xx_hal_pcd.c ****   {
 668:Drivers/STM32G0xx_HAL_Driver/Src/stm32g0xx_hal_pcd.c ****     /* Update the error code */
 669:Drivers/STM32G0xx_HAL_Driver/Src/stm32g0xx_hal_pcd.c ****     hpcd->ErrorCode |= HAL_PCD_ERROR_INVALID_CALLBACK;
 670:Drivers/STM32G0xx_HAL_Driver/Src/stm32g0xx_hal_pcd.c **** 
 671:Drivers/STM32G0xx_HAL_Driver/Src/stm32g0xx_hal_pcd.c ****     return HAL_ERROR;
 672:Drivers/STM32G0xx_HAL_Driver/Src/stm32g0xx_hal_pcd.c ****   }
 673:Drivers/STM32G0xx_HAL_Driver/Src/stm32g0xx_hal_pcd.c **** 
 674:Drivers/STM32G0xx_HAL_Driver/Src/stm32g0xx_hal_pcd.c ****   /* Process locked */
 675:Drivers/STM32G0xx_HAL_Driver/Src/stm32g0xx_hal_pcd.c ****   __HAL_LOCK(hpcd);
 676:Drivers/STM32G0xx_HAL_Driver/Src/stm32g0xx_hal_pcd.c **** 
 677:Drivers/STM32G0xx_HAL_Driver/Src/stm32g0xx_hal_pcd.c ****   if (hpcd->State == HAL_PCD_STATE_READY)
 678:Drivers/STM32G0xx_HAL_Driver/Src/stm32g0xx_hal_pcd.c ****   {
 679:Drivers/STM32G0xx_HAL_Driver/Src/stm32g0xx_hal_pcd.c ****     hpcd->ISOOUTIncompleteCallback = pCallback;
 680:Drivers/STM32G0xx_HAL_Driver/Src/stm32g0xx_hal_pcd.c ****   }
 681:Drivers/STM32G0xx_HAL_Driver/Src/stm32g0xx_hal_pcd.c ****   else
 682:Drivers/STM32G0xx_HAL_Driver/Src/stm32g0xx_hal_pcd.c ****   {
 683:Drivers/STM32G0xx_HAL_Driver/Src/stm32g0xx_hal_pcd.c ****     /* Update the error code */
 684:Drivers/STM32G0xx_HAL_Driver/Src/stm32g0xx_hal_pcd.c ****     hpcd->ErrorCode |= HAL_PCD_ERROR_INVALID_CALLBACK;
 685:Drivers/STM32G0xx_HAL_Driver/Src/stm32g0xx_hal_pcd.c **** 
 686:Drivers/STM32G0xx_HAL_Driver/Src/stm32g0xx_hal_pcd.c ****     /* Return error status */
 687:Drivers/STM32G0xx_HAL_Driver/Src/stm32g0xx_hal_pcd.c ****     status =  HAL_ERROR;
 688:Drivers/STM32G0xx_HAL_Driver/Src/stm32g0xx_hal_pcd.c ****   }
 689:Drivers/STM32G0xx_HAL_Driver/Src/stm32g0xx_hal_pcd.c **** 
 690:Drivers/STM32G0xx_HAL_Driver/Src/stm32g0xx_hal_pcd.c ****   /* Release Lock */
 691:Drivers/STM32G0xx_HAL_Driver/Src/stm32g0xx_hal_pcd.c ****   __HAL_UNLOCK(hpcd);
 692:Drivers/STM32G0xx_HAL_Driver/Src/stm32g0xx_hal_pcd.c **** 
 693:Drivers/STM32G0xx_HAL_Driver/Src/stm32g0xx_hal_pcd.c ****   return status;
 694:Drivers/STM32G0xx_HAL_Driver/Src/stm32g0xx_hal_pcd.c **** }
 695:Drivers/STM32G0xx_HAL_Driver/Src/stm32g0xx_hal_pcd.c **** 
 696:Drivers/STM32G0xx_HAL_Driver/Src/stm32g0xx_hal_pcd.c **** /**
 697:Drivers/STM32G0xx_HAL_Driver/Src/stm32g0xx_hal_pcd.c ****   * @brief  Unregister the USB PCD Iso OUT incomplete Callback
 698:Drivers/STM32G0xx_HAL_Driver/Src/stm32g0xx_hal_pcd.c ****   *         USB PCD Iso OUT incomplete Callback is redirected
 699:Drivers/STM32G0xx_HAL_Driver/Src/stm32g0xx_hal_pcd.c ****   *         to the weak HAL_PCD_ISOOUTIncompleteCallback() predefined callback
 700:Drivers/STM32G0xx_HAL_Driver/Src/stm32g0xx_hal_pcd.c ****   * @param  hpcd PCD handle
 701:Drivers/STM32G0xx_HAL_Driver/Src/stm32g0xx_hal_pcd.c ****   * @retval HAL status
 702:Drivers/STM32G0xx_HAL_Driver/Src/stm32g0xx_hal_pcd.c ****   */
 703:Drivers/STM32G0xx_HAL_Driver/Src/stm32g0xx_hal_pcd.c **** HAL_StatusTypeDef HAL_PCD_UnRegisterIsoOutIncpltCallback(PCD_HandleTypeDef *hpcd)
 704:Drivers/STM32G0xx_HAL_Driver/Src/stm32g0xx_hal_pcd.c **** {
 705:Drivers/STM32G0xx_HAL_Driver/Src/stm32g0xx_hal_pcd.c ****   HAL_StatusTypeDef status = HAL_OK;
 706:Drivers/STM32G0xx_HAL_Driver/Src/stm32g0xx_hal_pcd.c **** 
 707:Drivers/STM32G0xx_HAL_Driver/Src/stm32g0xx_hal_pcd.c ****   /* Process locked */
 708:Drivers/STM32G0xx_HAL_Driver/Src/stm32g0xx_hal_pcd.c ****   __HAL_LOCK(hpcd);
 709:Drivers/STM32G0xx_HAL_Driver/Src/stm32g0xx_hal_pcd.c **** 
 710:Drivers/STM32G0xx_HAL_Driver/Src/stm32g0xx_hal_pcd.c ****   if (hpcd->State == HAL_PCD_STATE_READY)
 711:Drivers/STM32G0xx_HAL_Driver/Src/stm32g0xx_hal_pcd.c ****   {
 712:Drivers/STM32G0xx_HAL_Driver/Src/stm32g0xx_hal_pcd.c ****     hpcd->ISOOUTIncompleteCallback = HAL_PCD_ISOOUTIncompleteCallback; /* Legacy weak ISOOUTIncompl
 713:Drivers/STM32G0xx_HAL_Driver/Src/stm32g0xx_hal_pcd.c ****   }
 714:Drivers/STM32G0xx_HAL_Driver/Src/stm32g0xx_hal_pcd.c ****   else
 715:Drivers/STM32G0xx_HAL_Driver/Src/stm32g0xx_hal_pcd.c ****   {
 716:Drivers/STM32G0xx_HAL_Driver/Src/stm32g0xx_hal_pcd.c ****     /* Update the error code */
 717:Drivers/STM32G0xx_HAL_Driver/Src/stm32g0xx_hal_pcd.c ****     hpcd->ErrorCode |= HAL_PCD_ERROR_INVALID_CALLBACK;
ARM GAS  /tmp/ccFvkBSI.s 			page 28


 718:Drivers/STM32G0xx_HAL_Driver/Src/stm32g0xx_hal_pcd.c **** 
 719:Drivers/STM32G0xx_HAL_Driver/Src/stm32g0xx_hal_pcd.c ****     /* Return error status */
 720:Drivers/STM32G0xx_HAL_Driver/Src/stm32g0xx_hal_pcd.c ****     status =  HAL_ERROR;
 721:Drivers/STM32G0xx_HAL_Driver/Src/stm32g0xx_hal_pcd.c ****   }
 722:Drivers/STM32G0xx_HAL_Driver/Src/stm32g0xx_hal_pcd.c **** 
 723:Drivers/STM32G0xx_HAL_Driver/Src/stm32g0xx_hal_pcd.c ****   /* Release Lock */
 724:Drivers/STM32G0xx_HAL_Driver/Src/stm32g0xx_hal_pcd.c ****   __HAL_UNLOCK(hpcd);
 725:Drivers/STM32G0xx_HAL_Driver/Src/stm32g0xx_hal_pcd.c **** 
 726:Drivers/STM32G0xx_HAL_Driver/Src/stm32g0xx_hal_pcd.c ****   return status;
 727:Drivers/STM32G0xx_HAL_Driver/Src/stm32g0xx_hal_pcd.c **** }
 728:Drivers/STM32G0xx_HAL_Driver/Src/stm32g0xx_hal_pcd.c **** 
 729:Drivers/STM32G0xx_HAL_Driver/Src/stm32g0xx_hal_pcd.c **** /**
 730:Drivers/STM32G0xx_HAL_Driver/Src/stm32g0xx_hal_pcd.c ****   * @brief  Register USB PCD Iso IN incomplete Callback
 731:Drivers/STM32G0xx_HAL_Driver/Src/stm32g0xx_hal_pcd.c ****   *         To be used instead of the weak HAL_PCD_ISOINIncompleteCallback() predefined callback
 732:Drivers/STM32G0xx_HAL_Driver/Src/stm32g0xx_hal_pcd.c ****   * @param  hpcd PCD handle
 733:Drivers/STM32G0xx_HAL_Driver/Src/stm32g0xx_hal_pcd.c ****   * @param  pCallback pointer to the USB PCD Iso IN incomplete Callback function
 734:Drivers/STM32G0xx_HAL_Driver/Src/stm32g0xx_hal_pcd.c ****   * @retval HAL status
 735:Drivers/STM32G0xx_HAL_Driver/Src/stm32g0xx_hal_pcd.c ****   */
 736:Drivers/STM32G0xx_HAL_Driver/Src/stm32g0xx_hal_pcd.c **** HAL_StatusTypeDef HAL_PCD_RegisterIsoInIncpltCallback(PCD_HandleTypeDef *hpcd,
 737:Drivers/STM32G0xx_HAL_Driver/Src/stm32g0xx_hal_pcd.c ****                                                       pPCD_IsoInIncpltCallbackTypeDef pCallback)
 738:Drivers/STM32G0xx_HAL_Driver/Src/stm32g0xx_hal_pcd.c **** {
 739:Drivers/STM32G0xx_HAL_Driver/Src/stm32g0xx_hal_pcd.c ****   HAL_StatusTypeDef status = HAL_OK;
 740:Drivers/STM32G0xx_HAL_Driver/Src/stm32g0xx_hal_pcd.c **** 
 741:Drivers/STM32G0xx_HAL_Driver/Src/stm32g0xx_hal_pcd.c ****   if (pCallback == NULL)
 742:Drivers/STM32G0xx_HAL_Driver/Src/stm32g0xx_hal_pcd.c ****   {
 743:Drivers/STM32G0xx_HAL_Driver/Src/stm32g0xx_hal_pcd.c ****     /* Update the error code */
 744:Drivers/STM32G0xx_HAL_Driver/Src/stm32g0xx_hal_pcd.c ****     hpcd->ErrorCode |= HAL_PCD_ERROR_INVALID_CALLBACK;
 745:Drivers/STM32G0xx_HAL_Driver/Src/stm32g0xx_hal_pcd.c **** 
 746:Drivers/STM32G0xx_HAL_Driver/Src/stm32g0xx_hal_pcd.c ****     return HAL_ERROR;
 747:Drivers/STM32G0xx_HAL_Driver/Src/stm32g0xx_hal_pcd.c ****   }
 748:Drivers/STM32G0xx_HAL_Driver/Src/stm32g0xx_hal_pcd.c **** 
 749:Drivers/STM32G0xx_HAL_Driver/Src/stm32g0xx_hal_pcd.c ****   /* Process locked */
 750:Drivers/STM32G0xx_HAL_Driver/Src/stm32g0xx_hal_pcd.c ****   __HAL_LOCK(hpcd);
 751:Drivers/STM32G0xx_HAL_Driver/Src/stm32g0xx_hal_pcd.c **** 
 752:Drivers/STM32G0xx_HAL_Driver/Src/stm32g0xx_hal_pcd.c ****   if (hpcd->State == HAL_PCD_STATE_READY)
 753:Drivers/STM32G0xx_HAL_Driver/Src/stm32g0xx_hal_pcd.c ****   {
 754:Drivers/STM32G0xx_HAL_Driver/Src/stm32g0xx_hal_pcd.c ****     hpcd->ISOINIncompleteCallback = pCallback;
 755:Drivers/STM32G0xx_HAL_Driver/Src/stm32g0xx_hal_pcd.c ****   }
 756:Drivers/STM32G0xx_HAL_Driver/Src/stm32g0xx_hal_pcd.c ****   else
 757:Drivers/STM32G0xx_HAL_Driver/Src/stm32g0xx_hal_pcd.c ****   {
 758:Drivers/STM32G0xx_HAL_Driver/Src/stm32g0xx_hal_pcd.c ****     /* Update the error code */
 759:Drivers/STM32G0xx_HAL_Driver/Src/stm32g0xx_hal_pcd.c ****     hpcd->ErrorCode |= HAL_PCD_ERROR_INVALID_CALLBACK;
 760:Drivers/STM32G0xx_HAL_Driver/Src/stm32g0xx_hal_pcd.c **** 
 761:Drivers/STM32G0xx_HAL_Driver/Src/stm32g0xx_hal_pcd.c ****     /* Return error status */
 762:Drivers/STM32G0xx_HAL_Driver/Src/stm32g0xx_hal_pcd.c ****     status =  HAL_ERROR;
 763:Drivers/STM32G0xx_HAL_Driver/Src/stm32g0xx_hal_pcd.c ****   }
 764:Drivers/STM32G0xx_HAL_Driver/Src/stm32g0xx_hal_pcd.c **** 
 765:Drivers/STM32G0xx_HAL_Driver/Src/stm32g0xx_hal_pcd.c ****   /* Release Lock */
 766:Drivers/STM32G0xx_HAL_Driver/Src/stm32g0xx_hal_pcd.c ****   __HAL_UNLOCK(hpcd);
 767:Drivers/STM32G0xx_HAL_Driver/Src/stm32g0xx_hal_pcd.c **** 
 768:Drivers/STM32G0xx_HAL_Driver/Src/stm32g0xx_hal_pcd.c ****   return status;
 769:Drivers/STM32G0xx_HAL_Driver/Src/stm32g0xx_hal_pcd.c **** }
 770:Drivers/STM32G0xx_HAL_Driver/Src/stm32g0xx_hal_pcd.c **** 
 771:Drivers/STM32G0xx_HAL_Driver/Src/stm32g0xx_hal_pcd.c **** /**
 772:Drivers/STM32G0xx_HAL_Driver/Src/stm32g0xx_hal_pcd.c ****   * @brief  Unregister the USB PCD Iso IN incomplete Callback
 773:Drivers/STM32G0xx_HAL_Driver/Src/stm32g0xx_hal_pcd.c ****   *         USB PCD Iso IN incomplete Callback is redirected
 774:Drivers/STM32G0xx_HAL_Driver/Src/stm32g0xx_hal_pcd.c ****   *         to the weak HAL_PCD_ISOINIncompleteCallback() predefined callback
ARM GAS  /tmp/ccFvkBSI.s 			page 29


 775:Drivers/STM32G0xx_HAL_Driver/Src/stm32g0xx_hal_pcd.c ****   * @param  hpcd PCD handle
 776:Drivers/STM32G0xx_HAL_Driver/Src/stm32g0xx_hal_pcd.c ****   * @retval HAL status
 777:Drivers/STM32G0xx_HAL_Driver/Src/stm32g0xx_hal_pcd.c ****   */
 778:Drivers/STM32G0xx_HAL_Driver/Src/stm32g0xx_hal_pcd.c **** HAL_StatusTypeDef HAL_PCD_UnRegisterIsoInIncpltCallback(PCD_HandleTypeDef *hpcd)
 779:Drivers/STM32G0xx_HAL_Driver/Src/stm32g0xx_hal_pcd.c **** {
 780:Drivers/STM32G0xx_HAL_Driver/Src/stm32g0xx_hal_pcd.c ****   HAL_StatusTypeDef status = HAL_OK;
 781:Drivers/STM32G0xx_HAL_Driver/Src/stm32g0xx_hal_pcd.c **** 
 782:Drivers/STM32G0xx_HAL_Driver/Src/stm32g0xx_hal_pcd.c ****   /* Process locked */
 783:Drivers/STM32G0xx_HAL_Driver/Src/stm32g0xx_hal_pcd.c ****   __HAL_LOCK(hpcd);
 784:Drivers/STM32G0xx_HAL_Driver/Src/stm32g0xx_hal_pcd.c **** 
 785:Drivers/STM32G0xx_HAL_Driver/Src/stm32g0xx_hal_pcd.c ****   if (hpcd->State == HAL_PCD_STATE_READY)
 786:Drivers/STM32G0xx_HAL_Driver/Src/stm32g0xx_hal_pcd.c ****   {
 787:Drivers/STM32G0xx_HAL_Driver/Src/stm32g0xx_hal_pcd.c ****     hpcd->ISOINIncompleteCallback = HAL_PCD_ISOINIncompleteCallback; /* Legacy weak ISOINIncomplete
 788:Drivers/STM32G0xx_HAL_Driver/Src/stm32g0xx_hal_pcd.c ****   }
 789:Drivers/STM32G0xx_HAL_Driver/Src/stm32g0xx_hal_pcd.c ****   else
 790:Drivers/STM32G0xx_HAL_Driver/Src/stm32g0xx_hal_pcd.c ****   {
 791:Drivers/STM32G0xx_HAL_Driver/Src/stm32g0xx_hal_pcd.c ****     /* Update the error code */
 792:Drivers/STM32G0xx_HAL_Driver/Src/stm32g0xx_hal_pcd.c ****     hpcd->ErrorCode |= HAL_PCD_ERROR_INVALID_CALLBACK;
 793:Drivers/STM32G0xx_HAL_Driver/Src/stm32g0xx_hal_pcd.c **** 
 794:Drivers/STM32G0xx_HAL_Driver/Src/stm32g0xx_hal_pcd.c ****     /* Return error status */
 795:Drivers/STM32G0xx_HAL_Driver/Src/stm32g0xx_hal_pcd.c ****     status =  HAL_ERROR;
 796:Drivers/STM32G0xx_HAL_Driver/Src/stm32g0xx_hal_pcd.c ****   }
 797:Drivers/STM32G0xx_HAL_Driver/Src/stm32g0xx_hal_pcd.c **** 
 798:Drivers/STM32G0xx_HAL_Driver/Src/stm32g0xx_hal_pcd.c ****   /* Release Lock */
 799:Drivers/STM32G0xx_HAL_Driver/Src/stm32g0xx_hal_pcd.c ****   __HAL_UNLOCK(hpcd);
 800:Drivers/STM32G0xx_HAL_Driver/Src/stm32g0xx_hal_pcd.c **** 
 801:Drivers/STM32G0xx_HAL_Driver/Src/stm32g0xx_hal_pcd.c ****   return status;
 802:Drivers/STM32G0xx_HAL_Driver/Src/stm32g0xx_hal_pcd.c **** }
 803:Drivers/STM32G0xx_HAL_Driver/Src/stm32g0xx_hal_pcd.c **** 
 804:Drivers/STM32G0xx_HAL_Driver/Src/stm32g0xx_hal_pcd.c **** /**
 805:Drivers/STM32G0xx_HAL_Driver/Src/stm32g0xx_hal_pcd.c ****   * @brief  Register USB PCD BCD Callback
 806:Drivers/STM32G0xx_HAL_Driver/Src/stm32g0xx_hal_pcd.c ****   *         To be used instead of the weak HAL_PCDEx_BCD_Callback() predefined callback
 807:Drivers/STM32G0xx_HAL_Driver/Src/stm32g0xx_hal_pcd.c ****   * @param  hpcd PCD handle
 808:Drivers/STM32G0xx_HAL_Driver/Src/stm32g0xx_hal_pcd.c ****   * @param  pCallback pointer to the USB PCD BCD Callback function
 809:Drivers/STM32G0xx_HAL_Driver/Src/stm32g0xx_hal_pcd.c ****   * @retval HAL status
 810:Drivers/STM32G0xx_HAL_Driver/Src/stm32g0xx_hal_pcd.c ****   */
 811:Drivers/STM32G0xx_HAL_Driver/Src/stm32g0xx_hal_pcd.c **** HAL_StatusTypeDef HAL_PCD_RegisterBcdCallback(PCD_HandleTypeDef *hpcd, pPCD_BcdCallbackTypeDef pCal
 812:Drivers/STM32G0xx_HAL_Driver/Src/stm32g0xx_hal_pcd.c **** {
 813:Drivers/STM32G0xx_HAL_Driver/Src/stm32g0xx_hal_pcd.c ****   HAL_StatusTypeDef status = HAL_OK;
 814:Drivers/STM32G0xx_HAL_Driver/Src/stm32g0xx_hal_pcd.c **** 
 815:Drivers/STM32G0xx_HAL_Driver/Src/stm32g0xx_hal_pcd.c ****   if (pCallback == NULL)
 816:Drivers/STM32G0xx_HAL_Driver/Src/stm32g0xx_hal_pcd.c ****   {
 817:Drivers/STM32G0xx_HAL_Driver/Src/stm32g0xx_hal_pcd.c ****     /* Update the error code */
 818:Drivers/STM32G0xx_HAL_Driver/Src/stm32g0xx_hal_pcd.c ****     hpcd->ErrorCode |= HAL_PCD_ERROR_INVALID_CALLBACK;
 819:Drivers/STM32G0xx_HAL_Driver/Src/stm32g0xx_hal_pcd.c **** 
 820:Drivers/STM32G0xx_HAL_Driver/Src/stm32g0xx_hal_pcd.c ****     return HAL_ERROR;
 821:Drivers/STM32G0xx_HAL_Driver/Src/stm32g0xx_hal_pcd.c ****   }
 822:Drivers/STM32G0xx_HAL_Driver/Src/stm32g0xx_hal_pcd.c **** 
 823:Drivers/STM32G0xx_HAL_Driver/Src/stm32g0xx_hal_pcd.c ****   /* Process locked */
 824:Drivers/STM32G0xx_HAL_Driver/Src/stm32g0xx_hal_pcd.c ****   __HAL_LOCK(hpcd);
 825:Drivers/STM32G0xx_HAL_Driver/Src/stm32g0xx_hal_pcd.c **** 
 826:Drivers/STM32G0xx_HAL_Driver/Src/stm32g0xx_hal_pcd.c ****   if (hpcd->State == HAL_PCD_STATE_READY)
 827:Drivers/STM32G0xx_HAL_Driver/Src/stm32g0xx_hal_pcd.c ****   {
 828:Drivers/STM32G0xx_HAL_Driver/Src/stm32g0xx_hal_pcd.c ****     hpcd->BCDCallback = pCallback;
 829:Drivers/STM32G0xx_HAL_Driver/Src/stm32g0xx_hal_pcd.c ****   }
 830:Drivers/STM32G0xx_HAL_Driver/Src/stm32g0xx_hal_pcd.c ****   else
 831:Drivers/STM32G0xx_HAL_Driver/Src/stm32g0xx_hal_pcd.c ****   {
ARM GAS  /tmp/ccFvkBSI.s 			page 30


 832:Drivers/STM32G0xx_HAL_Driver/Src/stm32g0xx_hal_pcd.c ****     /* Update the error code */
 833:Drivers/STM32G0xx_HAL_Driver/Src/stm32g0xx_hal_pcd.c ****     hpcd->ErrorCode |= HAL_PCD_ERROR_INVALID_CALLBACK;
 834:Drivers/STM32G0xx_HAL_Driver/Src/stm32g0xx_hal_pcd.c **** 
 835:Drivers/STM32G0xx_HAL_Driver/Src/stm32g0xx_hal_pcd.c ****     /* Return error status */
 836:Drivers/STM32G0xx_HAL_Driver/Src/stm32g0xx_hal_pcd.c ****     status =  HAL_ERROR;
 837:Drivers/STM32G0xx_HAL_Driver/Src/stm32g0xx_hal_pcd.c ****   }
 838:Drivers/STM32G0xx_HAL_Driver/Src/stm32g0xx_hal_pcd.c **** 
 839:Drivers/STM32G0xx_HAL_Driver/Src/stm32g0xx_hal_pcd.c ****   /* Release Lock */
 840:Drivers/STM32G0xx_HAL_Driver/Src/stm32g0xx_hal_pcd.c ****   __HAL_UNLOCK(hpcd);
 841:Drivers/STM32G0xx_HAL_Driver/Src/stm32g0xx_hal_pcd.c **** 
 842:Drivers/STM32G0xx_HAL_Driver/Src/stm32g0xx_hal_pcd.c ****   return status;
 843:Drivers/STM32G0xx_HAL_Driver/Src/stm32g0xx_hal_pcd.c **** }
 844:Drivers/STM32G0xx_HAL_Driver/Src/stm32g0xx_hal_pcd.c **** 
 845:Drivers/STM32G0xx_HAL_Driver/Src/stm32g0xx_hal_pcd.c **** /**
 846:Drivers/STM32G0xx_HAL_Driver/Src/stm32g0xx_hal_pcd.c ****   * @brief  Unregister the USB PCD BCD Callback
 847:Drivers/STM32G0xx_HAL_Driver/Src/stm32g0xx_hal_pcd.c ****   *         USB BCD Callback is redirected to the weak HAL_PCDEx_BCD_Callback() predefined callback
 848:Drivers/STM32G0xx_HAL_Driver/Src/stm32g0xx_hal_pcd.c ****   * @param  hpcd PCD handle
 849:Drivers/STM32G0xx_HAL_Driver/Src/stm32g0xx_hal_pcd.c ****   * @retval HAL status
 850:Drivers/STM32G0xx_HAL_Driver/Src/stm32g0xx_hal_pcd.c ****   */
 851:Drivers/STM32G0xx_HAL_Driver/Src/stm32g0xx_hal_pcd.c **** HAL_StatusTypeDef HAL_PCD_UnRegisterBcdCallback(PCD_HandleTypeDef *hpcd)
 852:Drivers/STM32G0xx_HAL_Driver/Src/stm32g0xx_hal_pcd.c **** {
 853:Drivers/STM32G0xx_HAL_Driver/Src/stm32g0xx_hal_pcd.c ****   HAL_StatusTypeDef status = HAL_OK;
 854:Drivers/STM32G0xx_HAL_Driver/Src/stm32g0xx_hal_pcd.c **** 
 855:Drivers/STM32G0xx_HAL_Driver/Src/stm32g0xx_hal_pcd.c ****   /* Process locked */
 856:Drivers/STM32G0xx_HAL_Driver/Src/stm32g0xx_hal_pcd.c ****   __HAL_LOCK(hpcd);
 857:Drivers/STM32G0xx_HAL_Driver/Src/stm32g0xx_hal_pcd.c **** 
 858:Drivers/STM32G0xx_HAL_Driver/Src/stm32g0xx_hal_pcd.c ****   if (hpcd->State == HAL_PCD_STATE_READY)
 859:Drivers/STM32G0xx_HAL_Driver/Src/stm32g0xx_hal_pcd.c ****   {
 860:Drivers/STM32G0xx_HAL_Driver/Src/stm32g0xx_hal_pcd.c ****     hpcd->BCDCallback = HAL_PCDEx_BCD_Callback; /* Legacy weak HAL_PCDEx_BCD_Callback  */
 861:Drivers/STM32G0xx_HAL_Driver/Src/stm32g0xx_hal_pcd.c ****   }
 862:Drivers/STM32G0xx_HAL_Driver/Src/stm32g0xx_hal_pcd.c ****   else
 863:Drivers/STM32G0xx_HAL_Driver/Src/stm32g0xx_hal_pcd.c ****   {
 864:Drivers/STM32G0xx_HAL_Driver/Src/stm32g0xx_hal_pcd.c ****     /* Update the error code */
 865:Drivers/STM32G0xx_HAL_Driver/Src/stm32g0xx_hal_pcd.c ****     hpcd->ErrorCode |= HAL_PCD_ERROR_INVALID_CALLBACK;
 866:Drivers/STM32G0xx_HAL_Driver/Src/stm32g0xx_hal_pcd.c **** 
 867:Drivers/STM32G0xx_HAL_Driver/Src/stm32g0xx_hal_pcd.c ****     /* Return error status */
 868:Drivers/STM32G0xx_HAL_Driver/Src/stm32g0xx_hal_pcd.c ****     status =  HAL_ERROR;
 869:Drivers/STM32G0xx_HAL_Driver/Src/stm32g0xx_hal_pcd.c ****   }
 870:Drivers/STM32G0xx_HAL_Driver/Src/stm32g0xx_hal_pcd.c **** 
 871:Drivers/STM32G0xx_HAL_Driver/Src/stm32g0xx_hal_pcd.c ****   /* Release Lock */
 872:Drivers/STM32G0xx_HAL_Driver/Src/stm32g0xx_hal_pcd.c ****   __HAL_UNLOCK(hpcd);
 873:Drivers/STM32G0xx_HAL_Driver/Src/stm32g0xx_hal_pcd.c **** 
 874:Drivers/STM32G0xx_HAL_Driver/Src/stm32g0xx_hal_pcd.c ****   return status;
 875:Drivers/STM32G0xx_HAL_Driver/Src/stm32g0xx_hal_pcd.c **** }
 876:Drivers/STM32G0xx_HAL_Driver/Src/stm32g0xx_hal_pcd.c **** 
 877:Drivers/STM32G0xx_HAL_Driver/Src/stm32g0xx_hal_pcd.c **** /**
 878:Drivers/STM32G0xx_HAL_Driver/Src/stm32g0xx_hal_pcd.c ****   * @brief  Register USB PCD LPM Callback
 879:Drivers/STM32G0xx_HAL_Driver/Src/stm32g0xx_hal_pcd.c ****   *         To be used instead of the weak HAL_PCDEx_LPM_Callback() predefined callback
 880:Drivers/STM32G0xx_HAL_Driver/Src/stm32g0xx_hal_pcd.c ****   * @param  hpcd PCD handle
 881:Drivers/STM32G0xx_HAL_Driver/Src/stm32g0xx_hal_pcd.c ****   * @param  pCallback pointer to the USB PCD LPM Callback function
 882:Drivers/STM32G0xx_HAL_Driver/Src/stm32g0xx_hal_pcd.c ****   * @retval HAL status
 883:Drivers/STM32G0xx_HAL_Driver/Src/stm32g0xx_hal_pcd.c ****   */
 884:Drivers/STM32G0xx_HAL_Driver/Src/stm32g0xx_hal_pcd.c **** HAL_StatusTypeDef HAL_PCD_RegisterLpmCallback(PCD_HandleTypeDef *hpcd, pPCD_LpmCallbackTypeDef pCal
 885:Drivers/STM32G0xx_HAL_Driver/Src/stm32g0xx_hal_pcd.c **** {
 886:Drivers/STM32G0xx_HAL_Driver/Src/stm32g0xx_hal_pcd.c ****   HAL_StatusTypeDef status = HAL_OK;
 887:Drivers/STM32G0xx_HAL_Driver/Src/stm32g0xx_hal_pcd.c **** 
 888:Drivers/STM32G0xx_HAL_Driver/Src/stm32g0xx_hal_pcd.c ****   if (pCallback == NULL)
ARM GAS  /tmp/ccFvkBSI.s 			page 31


 889:Drivers/STM32G0xx_HAL_Driver/Src/stm32g0xx_hal_pcd.c ****   {
 890:Drivers/STM32G0xx_HAL_Driver/Src/stm32g0xx_hal_pcd.c ****     /* Update the error code */
 891:Drivers/STM32G0xx_HAL_Driver/Src/stm32g0xx_hal_pcd.c ****     hpcd->ErrorCode |= HAL_PCD_ERROR_INVALID_CALLBACK;
 892:Drivers/STM32G0xx_HAL_Driver/Src/stm32g0xx_hal_pcd.c **** 
 893:Drivers/STM32G0xx_HAL_Driver/Src/stm32g0xx_hal_pcd.c ****     return HAL_ERROR;
 894:Drivers/STM32G0xx_HAL_Driver/Src/stm32g0xx_hal_pcd.c ****   }
 895:Drivers/STM32G0xx_HAL_Driver/Src/stm32g0xx_hal_pcd.c **** 
 896:Drivers/STM32G0xx_HAL_Driver/Src/stm32g0xx_hal_pcd.c ****   /* Process locked */
 897:Drivers/STM32G0xx_HAL_Driver/Src/stm32g0xx_hal_pcd.c ****   __HAL_LOCK(hpcd);
 898:Drivers/STM32G0xx_HAL_Driver/Src/stm32g0xx_hal_pcd.c **** 
 899:Drivers/STM32G0xx_HAL_Driver/Src/stm32g0xx_hal_pcd.c ****   if (hpcd->State == HAL_PCD_STATE_READY)
 900:Drivers/STM32G0xx_HAL_Driver/Src/stm32g0xx_hal_pcd.c ****   {
 901:Drivers/STM32G0xx_HAL_Driver/Src/stm32g0xx_hal_pcd.c ****     hpcd->LPMCallback = pCallback;
 902:Drivers/STM32G0xx_HAL_Driver/Src/stm32g0xx_hal_pcd.c ****   }
 903:Drivers/STM32G0xx_HAL_Driver/Src/stm32g0xx_hal_pcd.c ****   else
 904:Drivers/STM32G0xx_HAL_Driver/Src/stm32g0xx_hal_pcd.c ****   {
 905:Drivers/STM32G0xx_HAL_Driver/Src/stm32g0xx_hal_pcd.c ****     /* Update the error code */
 906:Drivers/STM32G0xx_HAL_Driver/Src/stm32g0xx_hal_pcd.c ****     hpcd->ErrorCode |= HAL_PCD_ERROR_INVALID_CALLBACK;
 907:Drivers/STM32G0xx_HAL_Driver/Src/stm32g0xx_hal_pcd.c **** 
 908:Drivers/STM32G0xx_HAL_Driver/Src/stm32g0xx_hal_pcd.c ****     /* Return error status */
 909:Drivers/STM32G0xx_HAL_Driver/Src/stm32g0xx_hal_pcd.c ****     status =  HAL_ERROR;
 910:Drivers/STM32G0xx_HAL_Driver/Src/stm32g0xx_hal_pcd.c ****   }
 911:Drivers/STM32G0xx_HAL_Driver/Src/stm32g0xx_hal_pcd.c **** 
 912:Drivers/STM32G0xx_HAL_Driver/Src/stm32g0xx_hal_pcd.c ****   /* Release Lock */
 913:Drivers/STM32G0xx_HAL_Driver/Src/stm32g0xx_hal_pcd.c ****   __HAL_UNLOCK(hpcd);
 914:Drivers/STM32G0xx_HAL_Driver/Src/stm32g0xx_hal_pcd.c **** 
 915:Drivers/STM32G0xx_HAL_Driver/Src/stm32g0xx_hal_pcd.c ****   return status;
 916:Drivers/STM32G0xx_HAL_Driver/Src/stm32g0xx_hal_pcd.c **** }
 917:Drivers/STM32G0xx_HAL_Driver/Src/stm32g0xx_hal_pcd.c **** 
 918:Drivers/STM32G0xx_HAL_Driver/Src/stm32g0xx_hal_pcd.c **** /**
 919:Drivers/STM32G0xx_HAL_Driver/Src/stm32g0xx_hal_pcd.c ****   * @brief  Unregister the USB PCD LPM Callback
 920:Drivers/STM32G0xx_HAL_Driver/Src/stm32g0xx_hal_pcd.c ****   *         USB LPM Callback is redirected to the weak HAL_PCDEx_LPM_Callback() predefined callback
 921:Drivers/STM32G0xx_HAL_Driver/Src/stm32g0xx_hal_pcd.c ****   * @param  hpcd PCD handle
 922:Drivers/STM32G0xx_HAL_Driver/Src/stm32g0xx_hal_pcd.c ****   * @retval HAL status
 923:Drivers/STM32G0xx_HAL_Driver/Src/stm32g0xx_hal_pcd.c ****   */
 924:Drivers/STM32G0xx_HAL_Driver/Src/stm32g0xx_hal_pcd.c **** HAL_StatusTypeDef HAL_PCD_UnRegisterLpmCallback(PCD_HandleTypeDef *hpcd)
 925:Drivers/STM32G0xx_HAL_Driver/Src/stm32g0xx_hal_pcd.c **** {
 926:Drivers/STM32G0xx_HAL_Driver/Src/stm32g0xx_hal_pcd.c ****   HAL_StatusTypeDef status = HAL_OK;
 927:Drivers/STM32G0xx_HAL_Driver/Src/stm32g0xx_hal_pcd.c **** 
 928:Drivers/STM32G0xx_HAL_Driver/Src/stm32g0xx_hal_pcd.c ****   /* Process locked */
 929:Drivers/STM32G0xx_HAL_Driver/Src/stm32g0xx_hal_pcd.c ****   __HAL_LOCK(hpcd);
 930:Drivers/STM32G0xx_HAL_Driver/Src/stm32g0xx_hal_pcd.c **** 
 931:Drivers/STM32G0xx_HAL_Driver/Src/stm32g0xx_hal_pcd.c ****   if (hpcd->State == HAL_PCD_STATE_READY)
 932:Drivers/STM32G0xx_HAL_Driver/Src/stm32g0xx_hal_pcd.c ****   {
 933:Drivers/STM32G0xx_HAL_Driver/Src/stm32g0xx_hal_pcd.c ****     hpcd->LPMCallback = HAL_PCDEx_LPM_Callback; /* Legacy weak HAL_PCDEx_LPM_Callback  */
 934:Drivers/STM32G0xx_HAL_Driver/Src/stm32g0xx_hal_pcd.c ****   }
 935:Drivers/STM32G0xx_HAL_Driver/Src/stm32g0xx_hal_pcd.c ****   else
 936:Drivers/STM32G0xx_HAL_Driver/Src/stm32g0xx_hal_pcd.c ****   {
 937:Drivers/STM32G0xx_HAL_Driver/Src/stm32g0xx_hal_pcd.c ****     /* Update the error code */
 938:Drivers/STM32G0xx_HAL_Driver/Src/stm32g0xx_hal_pcd.c ****     hpcd->ErrorCode |= HAL_PCD_ERROR_INVALID_CALLBACK;
 939:Drivers/STM32G0xx_HAL_Driver/Src/stm32g0xx_hal_pcd.c **** 
 940:Drivers/STM32G0xx_HAL_Driver/Src/stm32g0xx_hal_pcd.c ****     /* Return error status */
 941:Drivers/STM32G0xx_HAL_Driver/Src/stm32g0xx_hal_pcd.c ****     status =  HAL_ERROR;
 942:Drivers/STM32G0xx_HAL_Driver/Src/stm32g0xx_hal_pcd.c ****   }
 943:Drivers/STM32G0xx_HAL_Driver/Src/stm32g0xx_hal_pcd.c **** 
 944:Drivers/STM32G0xx_HAL_Driver/Src/stm32g0xx_hal_pcd.c ****   /* Release Lock */
 945:Drivers/STM32G0xx_HAL_Driver/Src/stm32g0xx_hal_pcd.c ****   __HAL_UNLOCK(hpcd);
ARM GAS  /tmp/ccFvkBSI.s 			page 32


 946:Drivers/STM32G0xx_HAL_Driver/Src/stm32g0xx_hal_pcd.c **** 
 947:Drivers/STM32G0xx_HAL_Driver/Src/stm32g0xx_hal_pcd.c ****   return status;
 948:Drivers/STM32G0xx_HAL_Driver/Src/stm32g0xx_hal_pcd.c **** }
 949:Drivers/STM32G0xx_HAL_Driver/Src/stm32g0xx_hal_pcd.c **** #endif /* USE_HAL_PCD_REGISTER_CALLBACKS */
 950:Drivers/STM32G0xx_HAL_Driver/Src/stm32g0xx_hal_pcd.c **** 
 951:Drivers/STM32G0xx_HAL_Driver/Src/stm32g0xx_hal_pcd.c **** /**
 952:Drivers/STM32G0xx_HAL_Driver/Src/stm32g0xx_hal_pcd.c ****   * @}
 953:Drivers/STM32G0xx_HAL_Driver/Src/stm32g0xx_hal_pcd.c ****   */
 954:Drivers/STM32G0xx_HAL_Driver/Src/stm32g0xx_hal_pcd.c **** 
 955:Drivers/STM32G0xx_HAL_Driver/Src/stm32g0xx_hal_pcd.c **** /** @defgroup PCD_Exported_Functions_Group2 Input and Output operation functions
 956:Drivers/STM32G0xx_HAL_Driver/Src/stm32g0xx_hal_pcd.c ****   *  @brief   Data transfers functions
 957:Drivers/STM32G0xx_HAL_Driver/Src/stm32g0xx_hal_pcd.c ****   *
 958:Drivers/STM32G0xx_HAL_Driver/Src/stm32g0xx_hal_pcd.c **** @verbatim
 959:Drivers/STM32G0xx_HAL_Driver/Src/stm32g0xx_hal_pcd.c ****  ===============================================================================
 960:Drivers/STM32G0xx_HAL_Driver/Src/stm32g0xx_hal_pcd.c ****                       ##### IO operation functions #####
 961:Drivers/STM32G0xx_HAL_Driver/Src/stm32g0xx_hal_pcd.c ****  ===============================================================================
 962:Drivers/STM32G0xx_HAL_Driver/Src/stm32g0xx_hal_pcd.c ****     [..]
 963:Drivers/STM32G0xx_HAL_Driver/Src/stm32g0xx_hal_pcd.c ****     This subsection provides a set of functions allowing to manage the PCD data
 964:Drivers/STM32G0xx_HAL_Driver/Src/stm32g0xx_hal_pcd.c ****     transfers.
 965:Drivers/STM32G0xx_HAL_Driver/Src/stm32g0xx_hal_pcd.c **** 
 966:Drivers/STM32G0xx_HAL_Driver/Src/stm32g0xx_hal_pcd.c **** @endverbatim
 967:Drivers/STM32G0xx_HAL_Driver/Src/stm32g0xx_hal_pcd.c ****   * @{
 968:Drivers/STM32G0xx_HAL_Driver/Src/stm32g0xx_hal_pcd.c ****   */
 969:Drivers/STM32G0xx_HAL_Driver/Src/stm32g0xx_hal_pcd.c **** 
 970:Drivers/STM32G0xx_HAL_Driver/Src/stm32g0xx_hal_pcd.c **** /**
 971:Drivers/STM32G0xx_HAL_Driver/Src/stm32g0xx_hal_pcd.c ****   * @brief  Start the USB device
 972:Drivers/STM32G0xx_HAL_Driver/Src/stm32g0xx_hal_pcd.c ****   * @param  hpcd PCD handle
 973:Drivers/STM32G0xx_HAL_Driver/Src/stm32g0xx_hal_pcd.c ****   * @retval HAL status
 974:Drivers/STM32G0xx_HAL_Driver/Src/stm32g0xx_hal_pcd.c ****   */
 975:Drivers/STM32G0xx_HAL_Driver/Src/stm32g0xx_hal_pcd.c **** HAL_StatusTypeDef HAL_PCD_Start(PCD_HandleTypeDef *hpcd)
 976:Drivers/STM32G0xx_HAL_Driver/Src/stm32g0xx_hal_pcd.c **** {
 977:Drivers/STM32G0xx_HAL_Driver/Src/stm32g0xx_hal_pcd.c ****   __HAL_LOCK(hpcd);
 978:Drivers/STM32G0xx_HAL_Driver/Src/stm32g0xx_hal_pcd.c ****   __HAL_PCD_ENABLE(hpcd);
 979:Drivers/STM32G0xx_HAL_Driver/Src/stm32g0xx_hal_pcd.c ****   (void)USB_DevConnect(hpcd->Instance);
 980:Drivers/STM32G0xx_HAL_Driver/Src/stm32g0xx_hal_pcd.c ****   __HAL_UNLOCK(hpcd);
 981:Drivers/STM32G0xx_HAL_Driver/Src/stm32g0xx_hal_pcd.c **** 
 982:Drivers/STM32G0xx_HAL_Driver/Src/stm32g0xx_hal_pcd.c ****   return HAL_OK;
 983:Drivers/STM32G0xx_HAL_Driver/Src/stm32g0xx_hal_pcd.c **** }
 984:Drivers/STM32G0xx_HAL_Driver/Src/stm32g0xx_hal_pcd.c **** 
 985:Drivers/STM32G0xx_HAL_Driver/Src/stm32g0xx_hal_pcd.c **** /**
 986:Drivers/STM32G0xx_HAL_Driver/Src/stm32g0xx_hal_pcd.c ****   * @brief  Stop the USB device.
 987:Drivers/STM32G0xx_HAL_Driver/Src/stm32g0xx_hal_pcd.c ****   * @param  hpcd PCD handle
 988:Drivers/STM32G0xx_HAL_Driver/Src/stm32g0xx_hal_pcd.c ****   * @retval HAL status
 989:Drivers/STM32G0xx_HAL_Driver/Src/stm32g0xx_hal_pcd.c ****   */
 990:Drivers/STM32G0xx_HAL_Driver/Src/stm32g0xx_hal_pcd.c **** HAL_StatusTypeDef HAL_PCD_Stop(PCD_HandleTypeDef *hpcd)
 991:Drivers/STM32G0xx_HAL_Driver/Src/stm32g0xx_hal_pcd.c **** {
 992:Drivers/STM32G0xx_HAL_Driver/Src/stm32g0xx_hal_pcd.c ****   __HAL_LOCK(hpcd);
 993:Drivers/STM32G0xx_HAL_Driver/Src/stm32g0xx_hal_pcd.c ****   __HAL_PCD_DISABLE(hpcd);
 994:Drivers/STM32G0xx_HAL_Driver/Src/stm32g0xx_hal_pcd.c ****   (void)USB_DevDisconnect(hpcd->Instance);
 995:Drivers/STM32G0xx_HAL_Driver/Src/stm32g0xx_hal_pcd.c ****   __HAL_UNLOCK(hpcd);
 996:Drivers/STM32G0xx_HAL_Driver/Src/stm32g0xx_hal_pcd.c **** 
 997:Drivers/STM32G0xx_HAL_Driver/Src/stm32g0xx_hal_pcd.c ****   return HAL_OK;
 998:Drivers/STM32G0xx_HAL_Driver/Src/stm32g0xx_hal_pcd.c **** }
 999:Drivers/STM32G0xx_HAL_Driver/Src/stm32g0xx_hal_pcd.c **** 
1000:Drivers/STM32G0xx_HAL_Driver/Src/stm32g0xx_hal_pcd.c **** 
1001:Drivers/STM32G0xx_HAL_Driver/Src/stm32g0xx_hal_pcd.c **** /**
1002:Drivers/STM32G0xx_HAL_Driver/Src/stm32g0xx_hal_pcd.c ****   * @brief  This function handles PCD interrupt request.
ARM GAS  /tmp/ccFvkBSI.s 			page 33


1003:Drivers/STM32G0xx_HAL_Driver/Src/stm32g0xx_hal_pcd.c ****   * @param  hpcd PCD handle
1004:Drivers/STM32G0xx_HAL_Driver/Src/stm32g0xx_hal_pcd.c ****   * @retval HAL status
1005:Drivers/STM32G0xx_HAL_Driver/Src/stm32g0xx_hal_pcd.c ****   */
1006:Drivers/STM32G0xx_HAL_Driver/Src/stm32g0xx_hal_pcd.c **** void HAL_PCD_IRQHandler(PCD_HandleTypeDef *hpcd)
1007:Drivers/STM32G0xx_HAL_Driver/Src/stm32g0xx_hal_pcd.c **** {
1008:Drivers/STM32G0xx_HAL_Driver/Src/stm32g0xx_hal_pcd.c ****   /* check if this is an USB pending IT */
1009:Drivers/STM32G0xx_HAL_Driver/Src/stm32g0xx_hal_pcd.c ****   if ((SYSCFG->IT_LINE_SR[8] & (0x1U << 2)) == 0U)
1010:Drivers/STM32G0xx_HAL_Driver/Src/stm32g0xx_hal_pcd.c ****   {
1011:Drivers/STM32G0xx_HAL_Driver/Src/stm32g0xx_hal_pcd.c ****     return;
1012:Drivers/STM32G0xx_HAL_Driver/Src/stm32g0xx_hal_pcd.c ****   }
1013:Drivers/STM32G0xx_HAL_Driver/Src/stm32g0xx_hal_pcd.c **** 
1014:Drivers/STM32G0xx_HAL_Driver/Src/stm32g0xx_hal_pcd.c ****   if (__HAL_PCD_GET_FLAG(hpcd, USB_ISTR_CTR))
1015:Drivers/STM32G0xx_HAL_Driver/Src/stm32g0xx_hal_pcd.c ****   {
1016:Drivers/STM32G0xx_HAL_Driver/Src/stm32g0xx_hal_pcd.c ****     /* servicing of the endpoint correct transfer interrupt */
1017:Drivers/STM32G0xx_HAL_Driver/Src/stm32g0xx_hal_pcd.c ****     /* clear of the CTR flag into the sub */
1018:Drivers/STM32G0xx_HAL_Driver/Src/stm32g0xx_hal_pcd.c ****     (void)PCD_EP_ISR_Handler(hpcd);
1019:Drivers/STM32G0xx_HAL_Driver/Src/stm32g0xx_hal_pcd.c ****   }
1020:Drivers/STM32G0xx_HAL_Driver/Src/stm32g0xx_hal_pcd.c **** 
1021:Drivers/STM32G0xx_HAL_Driver/Src/stm32g0xx_hal_pcd.c ****   if (__HAL_PCD_GET_FLAG(hpcd, USB_ISTR_RESET))
1022:Drivers/STM32G0xx_HAL_Driver/Src/stm32g0xx_hal_pcd.c ****   {
1023:Drivers/STM32G0xx_HAL_Driver/Src/stm32g0xx_hal_pcd.c ****     __HAL_PCD_CLEAR_FLAG(hpcd, USB_ISTR_RESET);
1024:Drivers/STM32G0xx_HAL_Driver/Src/stm32g0xx_hal_pcd.c **** 
1025:Drivers/STM32G0xx_HAL_Driver/Src/stm32g0xx_hal_pcd.c **** #if (USE_HAL_PCD_REGISTER_CALLBACKS == 1U)
1026:Drivers/STM32G0xx_HAL_Driver/Src/stm32g0xx_hal_pcd.c ****     hpcd->ResetCallback(hpcd);
1027:Drivers/STM32G0xx_HAL_Driver/Src/stm32g0xx_hal_pcd.c **** #else
1028:Drivers/STM32G0xx_HAL_Driver/Src/stm32g0xx_hal_pcd.c ****     HAL_PCD_ResetCallback(hpcd);
1029:Drivers/STM32G0xx_HAL_Driver/Src/stm32g0xx_hal_pcd.c **** #endif /* USE_HAL_PCD_REGISTER_CALLBACKS */
1030:Drivers/STM32G0xx_HAL_Driver/Src/stm32g0xx_hal_pcd.c **** 
1031:Drivers/STM32G0xx_HAL_Driver/Src/stm32g0xx_hal_pcd.c ****     (void)HAL_PCD_SetAddress(hpcd, 0U);
1032:Drivers/STM32G0xx_HAL_Driver/Src/stm32g0xx_hal_pcd.c ****   }
1033:Drivers/STM32G0xx_HAL_Driver/Src/stm32g0xx_hal_pcd.c **** 
1034:Drivers/STM32G0xx_HAL_Driver/Src/stm32g0xx_hal_pcd.c ****   if (__HAL_PCD_GET_FLAG(hpcd, USB_ISTR_PMAOVR))
1035:Drivers/STM32G0xx_HAL_Driver/Src/stm32g0xx_hal_pcd.c ****   {
1036:Drivers/STM32G0xx_HAL_Driver/Src/stm32g0xx_hal_pcd.c ****     __HAL_PCD_CLEAR_FLAG(hpcd, USB_ISTR_PMAOVR);
1037:Drivers/STM32G0xx_HAL_Driver/Src/stm32g0xx_hal_pcd.c ****   }
1038:Drivers/STM32G0xx_HAL_Driver/Src/stm32g0xx_hal_pcd.c **** 
1039:Drivers/STM32G0xx_HAL_Driver/Src/stm32g0xx_hal_pcd.c ****   if (__HAL_PCD_GET_FLAG(hpcd, USB_ISTR_ERR))
1040:Drivers/STM32G0xx_HAL_Driver/Src/stm32g0xx_hal_pcd.c ****   {
1041:Drivers/STM32G0xx_HAL_Driver/Src/stm32g0xx_hal_pcd.c ****     __HAL_PCD_CLEAR_FLAG(hpcd, USB_ISTR_ERR);
1042:Drivers/STM32G0xx_HAL_Driver/Src/stm32g0xx_hal_pcd.c ****   }
1043:Drivers/STM32G0xx_HAL_Driver/Src/stm32g0xx_hal_pcd.c **** 
1044:Drivers/STM32G0xx_HAL_Driver/Src/stm32g0xx_hal_pcd.c ****   if (__HAL_PCD_GET_FLAG(hpcd, USB_ISTR_WKUP))
1045:Drivers/STM32G0xx_HAL_Driver/Src/stm32g0xx_hal_pcd.c ****   {
1046:Drivers/STM32G0xx_HAL_Driver/Src/stm32g0xx_hal_pcd.c ****     hpcd->Instance->CNTR &= ~(USB_CNTR_SUSPRDY);
1047:Drivers/STM32G0xx_HAL_Driver/Src/stm32g0xx_hal_pcd.c ****     hpcd->Instance->CNTR &= ~(USB_CNTR_SUSPEN);
1048:Drivers/STM32G0xx_HAL_Driver/Src/stm32g0xx_hal_pcd.c **** 
1049:Drivers/STM32G0xx_HAL_Driver/Src/stm32g0xx_hal_pcd.c ****     if (hpcd->LPM_State == LPM_L1)
1050:Drivers/STM32G0xx_HAL_Driver/Src/stm32g0xx_hal_pcd.c ****     {
1051:Drivers/STM32G0xx_HAL_Driver/Src/stm32g0xx_hal_pcd.c ****       hpcd->LPM_State = LPM_L0;
1052:Drivers/STM32G0xx_HAL_Driver/Src/stm32g0xx_hal_pcd.c **** #if (USE_HAL_PCD_REGISTER_CALLBACKS == 1U)
1053:Drivers/STM32G0xx_HAL_Driver/Src/stm32g0xx_hal_pcd.c ****       hpcd->LPMCallback(hpcd, PCD_LPM_L0_ACTIVE);
1054:Drivers/STM32G0xx_HAL_Driver/Src/stm32g0xx_hal_pcd.c **** #else
1055:Drivers/STM32G0xx_HAL_Driver/Src/stm32g0xx_hal_pcd.c ****       HAL_PCDEx_LPM_Callback(hpcd, PCD_LPM_L0_ACTIVE);
1056:Drivers/STM32G0xx_HAL_Driver/Src/stm32g0xx_hal_pcd.c **** #endif /* USE_HAL_PCD_REGISTER_CALLBACKS */
1057:Drivers/STM32G0xx_HAL_Driver/Src/stm32g0xx_hal_pcd.c ****     }
1058:Drivers/STM32G0xx_HAL_Driver/Src/stm32g0xx_hal_pcd.c **** 
1059:Drivers/STM32G0xx_HAL_Driver/Src/stm32g0xx_hal_pcd.c **** #if (USE_HAL_PCD_REGISTER_CALLBACKS == 1U)
ARM GAS  /tmp/ccFvkBSI.s 			page 34


1060:Drivers/STM32G0xx_HAL_Driver/Src/stm32g0xx_hal_pcd.c ****     hpcd->ResumeCallback(hpcd);
1061:Drivers/STM32G0xx_HAL_Driver/Src/stm32g0xx_hal_pcd.c **** #else
1062:Drivers/STM32G0xx_HAL_Driver/Src/stm32g0xx_hal_pcd.c ****     HAL_PCD_ResumeCallback(hpcd);
1063:Drivers/STM32G0xx_HAL_Driver/Src/stm32g0xx_hal_pcd.c **** #endif /* USE_HAL_PCD_REGISTER_CALLBACKS */
1064:Drivers/STM32G0xx_HAL_Driver/Src/stm32g0xx_hal_pcd.c **** 
1065:Drivers/STM32G0xx_HAL_Driver/Src/stm32g0xx_hal_pcd.c ****     __HAL_PCD_CLEAR_FLAG(hpcd, USB_ISTR_WKUP);
1066:Drivers/STM32G0xx_HAL_Driver/Src/stm32g0xx_hal_pcd.c ****   }
1067:Drivers/STM32G0xx_HAL_Driver/Src/stm32g0xx_hal_pcd.c **** 
1068:Drivers/STM32G0xx_HAL_Driver/Src/stm32g0xx_hal_pcd.c ****   if (__HAL_PCD_GET_FLAG(hpcd, USB_ISTR_SUSP))
1069:Drivers/STM32G0xx_HAL_Driver/Src/stm32g0xx_hal_pcd.c ****   {
1070:Drivers/STM32G0xx_HAL_Driver/Src/stm32g0xx_hal_pcd.c ****     /* Force low-power mode in the macrocell */
1071:Drivers/STM32G0xx_HAL_Driver/Src/stm32g0xx_hal_pcd.c ****     hpcd->Instance->CNTR |= USB_CNTR_SUSPEN;
1072:Drivers/STM32G0xx_HAL_Driver/Src/stm32g0xx_hal_pcd.c **** 
1073:Drivers/STM32G0xx_HAL_Driver/Src/stm32g0xx_hal_pcd.c ****     /* clear of the ISTR bit must be done after setting of CNTR_FSUSP */
1074:Drivers/STM32G0xx_HAL_Driver/Src/stm32g0xx_hal_pcd.c ****     __HAL_PCD_CLEAR_FLAG(hpcd, USB_ISTR_SUSP);
1075:Drivers/STM32G0xx_HAL_Driver/Src/stm32g0xx_hal_pcd.c **** 
1076:Drivers/STM32G0xx_HAL_Driver/Src/stm32g0xx_hal_pcd.c ****     hpcd->Instance->CNTR |= USB_CNTR_SUSPRDY;
1077:Drivers/STM32G0xx_HAL_Driver/Src/stm32g0xx_hal_pcd.c **** 
1078:Drivers/STM32G0xx_HAL_Driver/Src/stm32g0xx_hal_pcd.c **** #if (USE_HAL_PCD_REGISTER_CALLBACKS == 1U)
1079:Drivers/STM32G0xx_HAL_Driver/Src/stm32g0xx_hal_pcd.c ****     hpcd->SuspendCallback(hpcd);
1080:Drivers/STM32G0xx_HAL_Driver/Src/stm32g0xx_hal_pcd.c **** #else
1081:Drivers/STM32G0xx_HAL_Driver/Src/stm32g0xx_hal_pcd.c ****     HAL_PCD_SuspendCallback(hpcd);
1082:Drivers/STM32G0xx_HAL_Driver/Src/stm32g0xx_hal_pcd.c **** #endif /* USE_HAL_PCD_REGISTER_CALLBACKS */
1083:Drivers/STM32G0xx_HAL_Driver/Src/stm32g0xx_hal_pcd.c ****   }
1084:Drivers/STM32G0xx_HAL_Driver/Src/stm32g0xx_hal_pcd.c **** 
1085:Drivers/STM32G0xx_HAL_Driver/Src/stm32g0xx_hal_pcd.c ****   /* Handle LPM Interrupt */
1086:Drivers/STM32G0xx_HAL_Driver/Src/stm32g0xx_hal_pcd.c ****   if (__HAL_PCD_GET_FLAG(hpcd, USB_ISTR_L1REQ))
1087:Drivers/STM32G0xx_HAL_Driver/Src/stm32g0xx_hal_pcd.c ****   {
1088:Drivers/STM32G0xx_HAL_Driver/Src/stm32g0xx_hal_pcd.c ****     __HAL_PCD_CLEAR_FLAG(hpcd, USB_ISTR_L1REQ);
1089:Drivers/STM32G0xx_HAL_Driver/Src/stm32g0xx_hal_pcd.c ****     if (hpcd->LPM_State == LPM_L0)
1090:Drivers/STM32G0xx_HAL_Driver/Src/stm32g0xx_hal_pcd.c ****     {
1091:Drivers/STM32G0xx_HAL_Driver/Src/stm32g0xx_hal_pcd.c ****       /* Force suspend and low-power mode before going to L1 state*/
1092:Drivers/STM32G0xx_HAL_Driver/Src/stm32g0xx_hal_pcd.c ****       hpcd->Instance->CNTR |= USB_CNTR_SUSPRDY;
1093:Drivers/STM32G0xx_HAL_Driver/Src/stm32g0xx_hal_pcd.c ****       hpcd->Instance->CNTR |= USB_CNTR_SUSPEN;
1094:Drivers/STM32G0xx_HAL_Driver/Src/stm32g0xx_hal_pcd.c **** 
1095:Drivers/STM32G0xx_HAL_Driver/Src/stm32g0xx_hal_pcd.c ****       hpcd->LPM_State = LPM_L1;
1096:Drivers/STM32G0xx_HAL_Driver/Src/stm32g0xx_hal_pcd.c ****       hpcd->BESL = ((uint32_t)hpcd->Instance->LPMCSR & USB_LPMCSR_BESL) >> 2;
1097:Drivers/STM32G0xx_HAL_Driver/Src/stm32g0xx_hal_pcd.c **** #if (USE_HAL_PCD_REGISTER_CALLBACKS == 1U)
1098:Drivers/STM32G0xx_HAL_Driver/Src/stm32g0xx_hal_pcd.c ****       hpcd->LPMCallback(hpcd, PCD_LPM_L1_ACTIVE);
1099:Drivers/STM32G0xx_HAL_Driver/Src/stm32g0xx_hal_pcd.c **** #else
1100:Drivers/STM32G0xx_HAL_Driver/Src/stm32g0xx_hal_pcd.c ****       HAL_PCDEx_LPM_Callback(hpcd, PCD_LPM_L1_ACTIVE);
1101:Drivers/STM32G0xx_HAL_Driver/Src/stm32g0xx_hal_pcd.c **** #endif /* USE_HAL_PCD_REGISTER_CALLBACKS */
1102:Drivers/STM32G0xx_HAL_Driver/Src/stm32g0xx_hal_pcd.c ****     }
1103:Drivers/STM32G0xx_HAL_Driver/Src/stm32g0xx_hal_pcd.c ****     else
1104:Drivers/STM32G0xx_HAL_Driver/Src/stm32g0xx_hal_pcd.c ****     {
1105:Drivers/STM32G0xx_HAL_Driver/Src/stm32g0xx_hal_pcd.c **** #if (USE_HAL_PCD_REGISTER_CALLBACKS == 1U)
1106:Drivers/STM32G0xx_HAL_Driver/Src/stm32g0xx_hal_pcd.c ****       hpcd->SuspendCallback(hpcd);
1107:Drivers/STM32G0xx_HAL_Driver/Src/stm32g0xx_hal_pcd.c **** #else
1108:Drivers/STM32G0xx_HAL_Driver/Src/stm32g0xx_hal_pcd.c ****       HAL_PCD_SuspendCallback(hpcd);
1109:Drivers/STM32G0xx_HAL_Driver/Src/stm32g0xx_hal_pcd.c **** #endif /* USE_HAL_PCD_REGISTER_CALLBACKS */
1110:Drivers/STM32G0xx_HAL_Driver/Src/stm32g0xx_hal_pcd.c ****     }
1111:Drivers/STM32G0xx_HAL_Driver/Src/stm32g0xx_hal_pcd.c ****   }
1112:Drivers/STM32G0xx_HAL_Driver/Src/stm32g0xx_hal_pcd.c **** 
1113:Drivers/STM32G0xx_HAL_Driver/Src/stm32g0xx_hal_pcd.c ****   if (__HAL_PCD_GET_FLAG(hpcd, USB_ISTR_SOF))
1114:Drivers/STM32G0xx_HAL_Driver/Src/stm32g0xx_hal_pcd.c ****   {
1115:Drivers/STM32G0xx_HAL_Driver/Src/stm32g0xx_hal_pcd.c ****     __HAL_PCD_CLEAR_FLAG(hpcd, USB_ISTR_SOF);
1116:Drivers/STM32G0xx_HAL_Driver/Src/stm32g0xx_hal_pcd.c **** 
ARM GAS  /tmp/ccFvkBSI.s 			page 35


1117:Drivers/STM32G0xx_HAL_Driver/Src/stm32g0xx_hal_pcd.c **** #if (USE_HAL_PCD_REGISTER_CALLBACKS == 1U)
1118:Drivers/STM32G0xx_HAL_Driver/Src/stm32g0xx_hal_pcd.c ****     hpcd->SOFCallback(hpcd);
1119:Drivers/STM32G0xx_HAL_Driver/Src/stm32g0xx_hal_pcd.c **** #else
1120:Drivers/STM32G0xx_HAL_Driver/Src/stm32g0xx_hal_pcd.c ****     HAL_PCD_SOFCallback(hpcd);
1121:Drivers/STM32G0xx_HAL_Driver/Src/stm32g0xx_hal_pcd.c **** #endif /* USE_HAL_PCD_REGISTER_CALLBACKS */
1122:Drivers/STM32G0xx_HAL_Driver/Src/stm32g0xx_hal_pcd.c ****   }
1123:Drivers/STM32G0xx_HAL_Driver/Src/stm32g0xx_hal_pcd.c **** 
1124:Drivers/STM32G0xx_HAL_Driver/Src/stm32g0xx_hal_pcd.c ****   if (__HAL_PCD_GET_FLAG(hpcd, USB_ISTR_ESOF))
1125:Drivers/STM32G0xx_HAL_Driver/Src/stm32g0xx_hal_pcd.c ****   {
1126:Drivers/STM32G0xx_HAL_Driver/Src/stm32g0xx_hal_pcd.c ****     /* clear ESOF flag in ISTR */
1127:Drivers/STM32G0xx_HAL_Driver/Src/stm32g0xx_hal_pcd.c ****     __HAL_PCD_CLEAR_FLAG(hpcd, USB_ISTR_ESOF);
1128:Drivers/STM32G0xx_HAL_Driver/Src/stm32g0xx_hal_pcd.c ****   }
1129:Drivers/STM32G0xx_HAL_Driver/Src/stm32g0xx_hal_pcd.c **** }
1130:Drivers/STM32G0xx_HAL_Driver/Src/stm32g0xx_hal_pcd.c **** 
1131:Drivers/STM32G0xx_HAL_Driver/Src/stm32g0xx_hal_pcd.c **** 
1132:Drivers/STM32G0xx_HAL_Driver/Src/stm32g0xx_hal_pcd.c **** /**
1133:Drivers/STM32G0xx_HAL_Driver/Src/stm32g0xx_hal_pcd.c ****   * @brief  Data OUT stage callback.
1134:Drivers/STM32G0xx_HAL_Driver/Src/stm32g0xx_hal_pcd.c ****   * @param  hpcd PCD handle
1135:Drivers/STM32G0xx_HAL_Driver/Src/stm32g0xx_hal_pcd.c ****   * @param  epnum endpoint number
1136:Drivers/STM32G0xx_HAL_Driver/Src/stm32g0xx_hal_pcd.c ****   * @retval None
1137:Drivers/STM32G0xx_HAL_Driver/Src/stm32g0xx_hal_pcd.c ****   */
1138:Drivers/STM32G0xx_HAL_Driver/Src/stm32g0xx_hal_pcd.c **** __weak void HAL_PCD_DataOutStageCallback(PCD_HandleTypeDef *hpcd, uint8_t epnum)
1139:Drivers/STM32G0xx_HAL_Driver/Src/stm32g0xx_hal_pcd.c **** {
1140:Drivers/STM32G0xx_HAL_Driver/Src/stm32g0xx_hal_pcd.c ****   /* Prevent unused argument(s) compilation warning */
1141:Drivers/STM32G0xx_HAL_Driver/Src/stm32g0xx_hal_pcd.c ****   UNUSED(hpcd);
1142:Drivers/STM32G0xx_HAL_Driver/Src/stm32g0xx_hal_pcd.c ****   UNUSED(epnum);
1143:Drivers/STM32G0xx_HAL_Driver/Src/stm32g0xx_hal_pcd.c **** 
1144:Drivers/STM32G0xx_HAL_Driver/Src/stm32g0xx_hal_pcd.c ****   /* NOTE : This function should not be modified, when the callback is needed,
1145:Drivers/STM32G0xx_HAL_Driver/Src/stm32g0xx_hal_pcd.c ****             the HAL_PCD_DataOutStageCallback could be implemented in the user file
1146:Drivers/STM32G0xx_HAL_Driver/Src/stm32g0xx_hal_pcd.c ****    */
1147:Drivers/STM32G0xx_HAL_Driver/Src/stm32g0xx_hal_pcd.c **** }
1148:Drivers/STM32G0xx_HAL_Driver/Src/stm32g0xx_hal_pcd.c **** 
1149:Drivers/STM32G0xx_HAL_Driver/Src/stm32g0xx_hal_pcd.c **** /**
1150:Drivers/STM32G0xx_HAL_Driver/Src/stm32g0xx_hal_pcd.c ****   * @brief  Data IN stage callback
1151:Drivers/STM32G0xx_HAL_Driver/Src/stm32g0xx_hal_pcd.c ****   * @param  hpcd PCD handle
1152:Drivers/STM32G0xx_HAL_Driver/Src/stm32g0xx_hal_pcd.c ****   * @param  epnum endpoint number
1153:Drivers/STM32G0xx_HAL_Driver/Src/stm32g0xx_hal_pcd.c ****   * @retval None
1154:Drivers/STM32G0xx_HAL_Driver/Src/stm32g0xx_hal_pcd.c ****   */
1155:Drivers/STM32G0xx_HAL_Driver/Src/stm32g0xx_hal_pcd.c **** __weak void HAL_PCD_DataInStageCallback(PCD_HandleTypeDef *hpcd, uint8_t epnum)
1156:Drivers/STM32G0xx_HAL_Driver/Src/stm32g0xx_hal_pcd.c **** {
1157:Drivers/STM32G0xx_HAL_Driver/Src/stm32g0xx_hal_pcd.c ****   /* Prevent unused argument(s) compilation warning */
1158:Drivers/STM32G0xx_HAL_Driver/Src/stm32g0xx_hal_pcd.c ****   UNUSED(hpcd);
1159:Drivers/STM32G0xx_HAL_Driver/Src/stm32g0xx_hal_pcd.c ****   UNUSED(epnum);
1160:Drivers/STM32G0xx_HAL_Driver/Src/stm32g0xx_hal_pcd.c **** 
1161:Drivers/STM32G0xx_HAL_Driver/Src/stm32g0xx_hal_pcd.c ****   /* NOTE : This function should not be modified, when the callback is needed,
1162:Drivers/STM32G0xx_HAL_Driver/Src/stm32g0xx_hal_pcd.c ****             the HAL_PCD_DataInStageCallback could be implemented in the user file
1163:Drivers/STM32G0xx_HAL_Driver/Src/stm32g0xx_hal_pcd.c ****    */
1164:Drivers/STM32G0xx_HAL_Driver/Src/stm32g0xx_hal_pcd.c **** }
1165:Drivers/STM32G0xx_HAL_Driver/Src/stm32g0xx_hal_pcd.c **** /**
1166:Drivers/STM32G0xx_HAL_Driver/Src/stm32g0xx_hal_pcd.c ****   * @brief  Setup stage callback
1167:Drivers/STM32G0xx_HAL_Driver/Src/stm32g0xx_hal_pcd.c ****   * @param  hpcd PCD handle
1168:Drivers/STM32G0xx_HAL_Driver/Src/stm32g0xx_hal_pcd.c ****   * @retval None
1169:Drivers/STM32G0xx_HAL_Driver/Src/stm32g0xx_hal_pcd.c ****   */
1170:Drivers/STM32G0xx_HAL_Driver/Src/stm32g0xx_hal_pcd.c **** __weak void HAL_PCD_SetupStageCallback(PCD_HandleTypeDef *hpcd)
1171:Drivers/STM32G0xx_HAL_Driver/Src/stm32g0xx_hal_pcd.c **** {
1172:Drivers/STM32G0xx_HAL_Driver/Src/stm32g0xx_hal_pcd.c ****   /* Prevent unused argument(s) compilation warning */
1173:Drivers/STM32G0xx_HAL_Driver/Src/stm32g0xx_hal_pcd.c ****   UNUSED(hpcd);
ARM GAS  /tmp/ccFvkBSI.s 			page 36


1174:Drivers/STM32G0xx_HAL_Driver/Src/stm32g0xx_hal_pcd.c **** 
1175:Drivers/STM32G0xx_HAL_Driver/Src/stm32g0xx_hal_pcd.c ****   /* NOTE : This function should not be modified, when the callback is needed,
1176:Drivers/STM32G0xx_HAL_Driver/Src/stm32g0xx_hal_pcd.c ****             the HAL_PCD_SetupStageCallback could be implemented in the user file
1177:Drivers/STM32G0xx_HAL_Driver/Src/stm32g0xx_hal_pcd.c ****    */
1178:Drivers/STM32G0xx_HAL_Driver/Src/stm32g0xx_hal_pcd.c **** }
1179:Drivers/STM32G0xx_HAL_Driver/Src/stm32g0xx_hal_pcd.c **** 
1180:Drivers/STM32G0xx_HAL_Driver/Src/stm32g0xx_hal_pcd.c **** /**
1181:Drivers/STM32G0xx_HAL_Driver/Src/stm32g0xx_hal_pcd.c ****   * @brief  USB Start Of Frame callback.
1182:Drivers/STM32G0xx_HAL_Driver/Src/stm32g0xx_hal_pcd.c ****   * @param  hpcd PCD handle
1183:Drivers/STM32G0xx_HAL_Driver/Src/stm32g0xx_hal_pcd.c ****   * @retval None
1184:Drivers/STM32G0xx_HAL_Driver/Src/stm32g0xx_hal_pcd.c ****   */
1185:Drivers/STM32G0xx_HAL_Driver/Src/stm32g0xx_hal_pcd.c **** __weak void HAL_PCD_SOFCallback(PCD_HandleTypeDef *hpcd)
1186:Drivers/STM32G0xx_HAL_Driver/Src/stm32g0xx_hal_pcd.c **** {
1187:Drivers/STM32G0xx_HAL_Driver/Src/stm32g0xx_hal_pcd.c ****   /* Prevent unused argument(s) compilation warning */
1188:Drivers/STM32G0xx_HAL_Driver/Src/stm32g0xx_hal_pcd.c ****   UNUSED(hpcd);
1189:Drivers/STM32G0xx_HAL_Driver/Src/stm32g0xx_hal_pcd.c **** 
1190:Drivers/STM32G0xx_HAL_Driver/Src/stm32g0xx_hal_pcd.c ****   /* NOTE : This function should not be modified, when the callback is needed,
1191:Drivers/STM32G0xx_HAL_Driver/Src/stm32g0xx_hal_pcd.c ****             the HAL_PCD_SOFCallback could be implemented in the user file
1192:Drivers/STM32G0xx_HAL_Driver/Src/stm32g0xx_hal_pcd.c ****    */
1193:Drivers/STM32G0xx_HAL_Driver/Src/stm32g0xx_hal_pcd.c **** }
1194:Drivers/STM32G0xx_HAL_Driver/Src/stm32g0xx_hal_pcd.c **** 
1195:Drivers/STM32G0xx_HAL_Driver/Src/stm32g0xx_hal_pcd.c **** /**
1196:Drivers/STM32G0xx_HAL_Driver/Src/stm32g0xx_hal_pcd.c ****   * @brief  USB Reset callback.
1197:Drivers/STM32G0xx_HAL_Driver/Src/stm32g0xx_hal_pcd.c ****   * @param  hpcd PCD handle
1198:Drivers/STM32G0xx_HAL_Driver/Src/stm32g0xx_hal_pcd.c ****   * @retval None
1199:Drivers/STM32G0xx_HAL_Driver/Src/stm32g0xx_hal_pcd.c ****   */
1200:Drivers/STM32G0xx_HAL_Driver/Src/stm32g0xx_hal_pcd.c **** __weak void HAL_PCD_ResetCallback(PCD_HandleTypeDef *hpcd)
1201:Drivers/STM32G0xx_HAL_Driver/Src/stm32g0xx_hal_pcd.c **** {
1202:Drivers/STM32G0xx_HAL_Driver/Src/stm32g0xx_hal_pcd.c ****   /* Prevent unused argument(s) compilation warning */
1203:Drivers/STM32G0xx_HAL_Driver/Src/stm32g0xx_hal_pcd.c ****   UNUSED(hpcd);
1204:Drivers/STM32G0xx_HAL_Driver/Src/stm32g0xx_hal_pcd.c **** 
1205:Drivers/STM32G0xx_HAL_Driver/Src/stm32g0xx_hal_pcd.c ****   /* NOTE : This function should not be modified, when the callback is needed,
1206:Drivers/STM32G0xx_HAL_Driver/Src/stm32g0xx_hal_pcd.c ****             the HAL_PCD_ResetCallback could be implemented in the user file
1207:Drivers/STM32G0xx_HAL_Driver/Src/stm32g0xx_hal_pcd.c ****    */
1208:Drivers/STM32G0xx_HAL_Driver/Src/stm32g0xx_hal_pcd.c **** }
1209:Drivers/STM32G0xx_HAL_Driver/Src/stm32g0xx_hal_pcd.c **** 
1210:Drivers/STM32G0xx_HAL_Driver/Src/stm32g0xx_hal_pcd.c **** /**
1211:Drivers/STM32G0xx_HAL_Driver/Src/stm32g0xx_hal_pcd.c ****   * @brief  Suspend event callback.
1212:Drivers/STM32G0xx_HAL_Driver/Src/stm32g0xx_hal_pcd.c ****   * @param  hpcd PCD handle
1213:Drivers/STM32G0xx_HAL_Driver/Src/stm32g0xx_hal_pcd.c ****   * @retval None
1214:Drivers/STM32G0xx_HAL_Driver/Src/stm32g0xx_hal_pcd.c ****   */
1215:Drivers/STM32G0xx_HAL_Driver/Src/stm32g0xx_hal_pcd.c **** __weak void HAL_PCD_SuspendCallback(PCD_HandleTypeDef *hpcd)
1216:Drivers/STM32G0xx_HAL_Driver/Src/stm32g0xx_hal_pcd.c **** {
1217:Drivers/STM32G0xx_HAL_Driver/Src/stm32g0xx_hal_pcd.c ****   /* Prevent unused argument(s) compilation warning */
1218:Drivers/STM32G0xx_HAL_Driver/Src/stm32g0xx_hal_pcd.c ****   UNUSED(hpcd);
1219:Drivers/STM32G0xx_HAL_Driver/Src/stm32g0xx_hal_pcd.c **** 
1220:Drivers/STM32G0xx_HAL_Driver/Src/stm32g0xx_hal_pcd.c ****   /* NOTE : This function should not be modified, when the callback is needed,
1221:Drivers/STM32G0xx_HAL_Driver/Src/stm32g0xx_hal_pcd.c ****             the HAL_PCD_SuspendCallback could be implemented in the user file
1222:Drivers/STM32G0xx_HAL_Driver/Src/stm32g0xx_hal_pcd.c ****    */
1223:Drivers/STM32G0xx_HAL_Driver/Src/stm32g0xx_hal_pcd.c **** }
1224:Drivers/STM32G0xx_HAL_Driver/Src/stm32g0xx_hal_pcd.c **** 
1225:Drivers/STM32G0xx_HAL_Driver/Src/stm32g0xx_hal_pcd.c **** /**
1226:Drivers/STM32G0xx_HAL_Driver/Src/stm32g0xx_hal_pcd.c ****   * @brief  Resume event callback.
1227:Drivers/STM32G0xx_HAL_Driver/Src/stm32g0xx_hal_pcd.c ****   * @param  hpcd PCD handle
1228:Drivers/STM32G0xx_HAL_Driver/Src/stm32g0xx_hal_pcd.c ****   * @retval None
1229:Drivers/STM32G0xx_HAL_Driver/Src/stm32g0xx_hal_pcd.c ****   */
1230:Drivers/STM32G0xx_HAL_Driver/Src/stm32g0xx_hal_pcd.c **** __weak void HAL_PCD_ResumeCallback(PCD_HandleTypeDef *hpcd)
ARM GAS  /tmp/ccFvkBSI.s 			page 37


1231:Drivers/STM32G0xx_HAL_Driver/Src/stm32g0xx_hal_pcd.c **** {
1232:Drivers/STM32G0xx_HAL_Driver/Src/stm32g0xx_hal_pcd.c ****   /* Prevent unused argument(s) compilation warning */
1233:Drivers/STM32G0xx_HAL_Driver/Src/stm32g0xx_hal_pcd.c ****   UNUSED(hpcd);
1234:Drivers/STM32G0xx_HAL_Driver/Src/stm32g0xx_hal_pcd.c **** 
1235:Drivers/STM32G0xx_HAL_Driver/Src/stm32g0xx_hal_pcd.c ****   /* NOTE : This function should not be modified, when the callback is needed,
1236:Drivers/STM32G0xx_HAL_Driver/Src/stm32g0xx_hal_pcd.c ****             the HAL_PCD_ResumeCallback could be implemented in the user file
1237:Drivers/STM32G0xx_HAL_Driver/Src/stm32g0xx_hal_pcd.c ****    */
1238:Drivers/STM32G0xx_HAL_Driver/Src/stm32g0xx_hal_pcd.c **** }
1239:Drivers/STM32G0xx_HAL_Driver/Src/stm32g0xx_hal_pcd.c **** 
1240:Drivers/STM32G0xx_HAL_Driver/Src/stm32g0xx_hal_pcd.c **** /**
1241:Drivers/STM32G0xx_HAL_Driver/Src/stm32g0xx_hal_pcd.c ****   * @brief  Incomplete ISO OUT callback.
1242:Drivers/STM32G0xx_HAL_Driver/Src/stm32g0xx_hal_pcd.c ****   * @param  hpcd PCD handle
1243:Drivers/STM32G0xx_HAL_Driver/Src/stm32g0xx_hal_pcd.c ****   * @param  epnum endpoint number
1244:Drivers/STM32G0xx_HAL_Driver/Src/stm32g0xx_hal_pcd.c ****   * @retval None
1245:Drivers/STM32G0xx_HAL_Driver/Src/stm32g0xx_hal_pcd.c ****   */
1246:Drivers/STM32G0xx_HAL_Driver/Src/stm32g0xx_hal_pcd.c **** __weak void HAL_PCD_ISOOUTIncompleteCallback(PCD_HandleTypeDef *hpcd, uint8_t epnum)
1247:Drivers/STM32G0xx_HAL_Driver/Src/stm32g0xx_hal_pcd.c **** {
1248:Drivers/STM32G0xx_HAL_Driver/Src/stm32g0xx_hal_pcd.c ****   /* Prevent unused argument(s) compilation warning */
1249:Drivers/STM32G0xx_HAL_Driver/Src/stm32g0xx_hal_pcd.c ****   UNUSED(hpcd);
1250:Drivers/STM32G0xx_HAL_Driver/Src/stm32g0xx_hal_pcd.c ****   UNUSED(epnum);
1251:Drivers/STM32G0xx_HAL_Driver/Src/stm32g0xx_hal_pcd.c **** 
1252:Drivers/STM32G0xx_HAL_Driver/Src/stm32g0xx_hal_pcd.c ****   /* NOTE : This function should not be modified, when the callback is needed,
1253:Drivers/STM32G0xx_HAL_Driver/Src/stm32g0xx_hal_pcd.c ****             the HAL_PCD_ISOOUTIncompleteCallback could be implemented in the user file
1254:Drivers/STM32G0xx_HAL_Driver/Src/stm32g0xx_hal_pcd.c ****    */
1255:Drivers/STM32G0xx_HAL_Driver/Src/stm32g0xx_hal_pcd.c **** }
1256:Drivers/STM32G0xx_HAL_Driver/Src/stm32g0xx_hal_pcd.c **** 
1257:Drivers/STM32G0xx_HAL_Driver/Src/stm32g0xx_hal_pcd.c **** /**
1258:Drivers/STM32G0xx_HAL_Driver/Src/stm32g0xx_hal_pcd.c ****   * @brief  Incomplete ISO IN callback.
1259:Drivers/STM32G0xx_HAL_Driver/Src/stm32g0xx_hal_pcd.c ****   * @param  hpcd PCD handle
1260:Drivers/STM32G0xx_HAL_Driver/Src/stm32g0xx_hal_pcd.c ****   * @param  epnum endpoint number
1261:Drivers/STM32G0xx_HAL_Driver/Src/stm32g0xx_hal_pcd.c ****   * @retval None
1262:Drivers/STM32G0xx_HAL_Driver/Src/stm32g0xx_hal_pcd.c ****   */
1263:Drivers/STM32G0xx_HAL_Driver/Src/stm32g0xx_hal_pcd.c **** __weak void HAL_PCD_ISOINIncompleteCallback(PCD_HandleTypeDef *hpcd, uint8_t epnum)
1264:Drivers/STM32G0xx_HAL_Driver/Src/stm32g0xx_hal_pcd.c **** {
1265:Drivers/STM32G0xx_HAL_Driver/Src/stm32g0xx_hal_pcd.c ****   /* Prevent unused argument(s) compilation warning */
1266:Drivers/STM32G0xx_HAL_Driver/Src/stm32g0xx_hal_pcd.c ****   UNUSED(hpcd);
1267:Drivers/STM32G0xx_HAL_Driver/Src/stm32g0xx_hal_pcd.c ****   UNUSED(epnum);
1268:Drivers/STM32G0xx_HAL_Driver/Src/stm32g0xx_hal_pcd.c **** 
1269:Drivers/STM32G0xx_HAL_Driver/Src/stm32g0xx_hal_pcd.c ****   /* NOTE : This function should not be modified, when the callback is needed,
1270:Drivers/STM32G0xx_HAL_Driver/Src/stm32g0xx_hal_pcd.c ****             the HAL_PCD_ISOINIncompleteCallback could be implemented in the user file
1271:Drivers/STM32G0xx_HAL_Driver/Src/stm32g0xx_hal_pcd.c ****    */
1272:Drivers/STM32G0xx_HAL_Driver/Src/stm32g0xx_hal_pcd.c **** }
1273:Drivers/STM32G0xx_HAL_Driver/Src/stm32g0xx_hal_pcd.c **** 
1274:Drivers/STM32G0xx_HAL_Driver/Src/stm32g0xx_hal_pcd.c **** /**
1275:Drivers/STM32G0xx_HAL_Driver/Src/stm32g0xx_hal_pcd.c ****   * @brief  Connection event callback.
1276:Drivers/STM32G0xx_HAL_Driver/Src/stm32g0xx_hal_pcd.c ****   * @param  hpcd PCD handle
1277:Drivers/STM32G0xx_HAL_Driver/Src/stm32g0xx_hal_pcd.c ****   * @retval None
1278:Drivers/STM32G0xx_HAL_Driver/Src/stm32g0xx_hal_pcd.c ****   */
1279:Drivers/STM32G0xx_HAL_Driver/Src/stm32g0xx_hal_pcd.c **** __weak void HAL_PCD_ConnectCallback(PCD_HandleTypeDef *hpcd)
1280:Drivers/STM32G0xx_HAL_Driver/Src/stm32g0xx_hal_pcd.c **** {
1281:Drivers/STM32G0xx_HAL_Driver/Src/stm32g0xx_hal_pcd.c ****   /* Prevent unused argument(s) compilation warning */
1282:Drivers/STM32G0xx_HAL_Driver/Src/stm32g0xx_hal_pcd.c ****   UNUSED(hpcd);
1283:Drivers/STM32G0xx_HAL_Driver/Src/stm32g0xx_hal_pcd.c **** 
1284:Drivers/STM32G0xx_HAL_Driver/Src/stm32g0xx_hal_pcd.c ****   /* NOTE : This function should not be modified, when the callback is needed,
1285:Drivers/STM32G0xx_HAL_Driver/Src/stm32g0xx_hal_pcd.c ****             the HAL_PCD_ConnectCallback could be implemented in the user file
1286:Drivers/STM32G0xx_HAL_Driver/Src/stm32g0xx_hal_pcd.c ****    */
1287:Drivers/STM32G0xx_HAL_Driver/Src/stm32g0xx_hal_pcd.c **** }
ARM GAS  /tmp/ccFvkBSI.s 			page 38


1288:Drivers/STM32G0xx_HAL_Driver/Src/stm32g0xx_hal_pcd.c **** 
1289:Drivers/STM32G0xx_HAL_Driver/Src/stm32g0xx_hal_pcd.c **** /**
1290:Drivers/STM32G0xx_HAL_Driver/Src/stm32g0xx_hal_pcd.c ****   * @brief  Disconnection event callback.
1291:Drivers/STM32G0xx_HAL_Driver/Src/stm32g0xx_hal_pcd.c ****   * @param  hpcd PCD handle
1292:Drivers/STM32G0xx_HAL_Driver/Src/stm32g0xx_hal_pcd.c ****   * @retval None
1293:Drivers/STM32G0xx_HAL_Driver/Src/stm32g0xx_hal_pcd.c ****   */
1294:Drivers/STM32G0xx_HAL_Driver/Src/stm32g0xx_hal_pcd.c **** __weak void HAL_PCD_DisconnectCallback(PCD_HandleTypeDef *hpcd)
1295:Drivers/STM32G0xx_HAL_Driver/Src/stm32g0xx_hal_pcd.c **** {
1296:Drivers/STM32G0xx_HAL_Driver/Src/stm32g0xx_hal_pcd.c ****   /* Prevent unused argument(s) compilation warning */
1297:Drivers/STM32G0xx_HAL_Driver/Src/stm32g0xx_hal_pcd.c ****   UNUSED(hpcd);
1298:Drivers/STM32G0xx_HAL_Driver/Src/stm32g0xx_hal_pcd.c **** 
1299:Drivers/STM32G0xx_HAL_Driver/Src/stm32g0xx_hal_pcd.c ****   /* NOTE : This function should not be modified, when the callback is needed,
1300:Drivers/STM32G0xx_HAL_Driver/Src/stm32g0xx_hal_pcd.c ****             the HAL_PCD_DisconnectCallback could be implemented in the user file
1301:Drivers/STM32G0xx_HAL_Driver/Src/stm32g0xx_hal_pcd.c ****    */
1302:Drivers/STM32G0xx_HAL_Driver/Src/stm32g0xx_hal_pcd.c **** }
1303:Drivers/STM32G0xx_HAL_Driver/Src/stm32g0xx_hal_pcd.c **** 
1304:Drivers/STM32G0xx_HAL_Driver/Src/stm32g0xx_hal_pcd.c **** /**
1305:Drivers/STM32G0xx_HAL_Driver/Src/stm32g0xx_hal_pcd.c ****   * @}
1306:Drivers/STM32G0xx_HAL_Driver/Src/stm32g0xx_hal_pcd.c ****   */
1307:Drivers/STM32G0xx_HAL_Driver/Src/stm32g0xx_hal_pcd.c **** 
1308:Drivers/STM32G0xx_HAL_Driver/Src/stm32g0xx_hal_pcd.c **** /** @defgroup PCD_Exported_Functions_Group3 Peripheral Control functions
1309:Drivers/STM32G0xx_HAL_Driver/Src/stm32g0xx_hal_pcd.c ****   *  @brief   management functions
1310:Drivers/STM32G0xx_HAL_Driver/Src/stm32g0xx_hal_pcd.c ****   *
1311:Drivers/STM32G0xx_HAL_Driver/Src/stm32g0xx_hal_pcd.c **** @verbatim
1312:Drivers/STM32G0xx_HAL_Driver/Src/stm32g0xx_hal_pcd.c ****  ===============================================================================
1313:Drivers/STM32G0xx_HAL_Driver/Src/stm32g0xx_hal_pcd.c ****                       ##### Peripheral Control functions #####
1314:Drivers/STM32G0xx_HAL_Driver/Src/stm32g0xx_hal_pcd.c ****  ===============================================================================
1315:Drivers/STM32G0xx_HAL_Driver/Src/stm32g0xx_hal_pcd.c ****     [..]
1316:Drivers/STM32G0xx_HAL_Driver/Src/stm32g0xx_hal_pcd.c ****     This subsection provides a set of functions allowing to control the PCD data
1317:Drivers/STM32G0xx_HAL_Driver/Src/stm32g0xx_hal_pcd.c ****     transfers.
1318:Drivers/STM32G0xx_HAL_Driver/Src/stm32g0xx_hal_pcd.c **** 
1319:Drivers/STM32G0xx_HAL_Driver/Src/stm32g0xx_hal_pcd.c **** @endverbatim
1320:Drivers/STM32G0xx_HAL_Driver/Src/stm32g0xx_hal_pcd.c ****   * @{
1321:Drivers/STM32G0xx_HAL_Driver/Src/stm32g0xx_hal_pcd.c ****   */
1322:Drivers/STM32G0xx_HAL_Driver/Src/stm32g0xx_hal_pcd.c **** 
1323:Drivers/STM32G0xx_HAL_Driver/Src/stm32g0xx_hal_pcd.c **** /**
1324:Drivers/STM32G0xx_HAL_Driver/Src/stm32g0xx_hal_pcd.c ****   * @brief  Connect the USB device
1325:Drivers/STM32G0xx_HAL_Driver/Src/stm32g0xx_hal_pcd.c ****   * @param  hpcd PCD handle
1326:Drivers/STM32G0xx_HAL_Driver/Src/stm32g0xx_hal_pcd.c ****   * @retval HAL status
1327:Drivers/STM32G0xx_HAL_Driver/Src/stm32g0xx_hal_pcd.c ****   */
1328:Drivers/STM32G0xx_HAL_Driver/Src/stm32g0xx_hal_pcd.c **** HAL_StatusTypeDef HAL_PCD_DevConnect(PCD_HandleTypeDef *hpcd)
1329:Drivers/STM32G0xx_HAL_Driver/Src/stm32g0xx_hal_pcd.c **** {
1330:Drivers/STM32G0xx_HAL_Driver/Src/stm32g0xx_hal_pcd.c ****   __HAL_LOCK(hpcd);
1331:Drivers/STM32G0xx_HAL_Driver/Src/stm32g0xx_hal_pcd.c ****   (void)USB_DevConnect(hpcd->Instance);
1332:Drivers/STM32G0xx_HAL_Driver/Src/stm32g0xx_hal_pcd.c ****   __HAL_UNLOCK(hpcd);
1333:Drivers/STM32G0xx_HAL_Driver/Src/stm32g0xx_hal_pcd.c **** 
1334:Drivers/STM32G0xx_HAL_Driver/Src/stm32g0xx_hal_pcd.c ****   return HAL_OK;
1335:Drivers/STM32G0xx_HAL_Driver/Src/stm32g0xx_hal_pcd.c **** }
1336:Drivers/STM32G0xx_HAL_Driver/Src/stm32g0xx_hal_pcd.c **** 
1337:Drivers/STM32G0xx_HAL_Driver/Src/stm32g0xx_hal_pcd.c **** /**
1338:Drivers/STM32G0xx_HAL_Driver/Src/stm32g0xx_hal_pcd.c ****   * @brief  Disconnect the USB device.
1339:Drivers/STM32G0xx_HAL_Driver/Src/stm32g0xx_hal_pcd.c ****   * @param  hpcd PCD handle
1340:Drivers/STM32G0xx_HAL_Driver/Src/stm32g0xx_hal_pcd.c ****   * @retval HAL status
1341:Drivers/STM32G0xx_HAL_Driver/Src/stm32g0xx_hal_pcd.c ****   */
1342:Drivers/STM32G0xx_HAL_Driver/Src/stm32g0xx_hal_pcd.c **** HAL_StatusTypeDef HAL_PCD_DevDisconnect(PCD_HandleTypeDef *hpcd)
1343:Drivers/STM32G0xx_HAL_Driver/Src/stm32g0xx_hal_pcd.c **** {
1344:Drivers/STM32G0xx_HAL_Driver/Src/stm32g0xx_hal_pcd.c ****   __HAL_LOCK(hpcd);
ARM GAS  /tmp/ccFvkBSI.s 			page 39


1345:Drivers/STM32G0xx_HAL_Driver/Src/stm32g0xx_hal_pcd.c ****   (void)USB_DevDisconnect(hpcd->Instance);
1346:Drivers/STM32G0xx_HAL_Driver/Src/stm32g0xx_hal_pcd.c ****   __HAL_UNLOCK(hpcd);
1347:Drivers/STM32G0xx_HAL_Driver/Src/stm32g0xx_hal_pcd.c **** 
1348:Drivers/STM32G0xx_HAL_Driver/Src/stm32g0xx_hal_pcd.c ****   return HAL_OK;
1349:Drivers/STM32G0xx_HAL_Driver/Src/stm32g0xx_hal_pcd.c **** }
1350:Drivers/STM32G0xx_HAL_Driver/Src/stm32g0xx_hal_pcd.c **** 
1351:Drivers/STM32G0xx_HAL_Driver/Src/stm32g0xx_hal_pcd.c **** /**
1352:Drivers/STM32G0xx_HAL_Driver/Src/stm32g0xx_hal_pcd.c ****   * @brief  Set the USB Device address.
1353:Drivers/STM32G0xx_HAL_Driver/Src/stm32g0xx_hal_pcd.c ****   * @param  hpcd PCD handle
1354:Drivers/STM32G0xx_HAL_Driver/Src/stm32g0xx_hal_pcd.c ****   * @param  address new device address
1355:Drivers/STM32G0xx_HAL_Driver/Src/stm32g0xx_hal_pcd.c ****   * @retval HAL status
1356:Drivers/STM32G0xx_HAL_Driver/Src/stm32g0xx_hal_pcd.c ****   */
1357:Drivers/STM32G0xx_HAL_Driver/Src/stm32g0xx_hal_pcd.c **** HAL_StatusTypeDef HAL_PCD_SetAddress(PCD_HandleTypeDef *hpcd, uint8_t address)
1358:Drivers/STM32G0xx_HAL_Driver/Src/stm32g0xx_hal_pcd.c **** {
1359:Drivers/STM32G0xx_HAL_Driver/Src/stm32g0xx_hal_pcd.c ****   __HAL_LOCK(hpcd);
1360:Drivers/STM32G0xx_HAL_Driver/Src/stm32g0xx_hal_pcd.c ****   hpcd->USB_Address = address;
1361:Drivers/STM32G0xx_HAL_Driver/Src/stm32g0xx_hal_pcd.c ****   (void)USB_SetDevAddress(hpcd->Instance, address);
1362:Drivers/STM32G0xx_HAL_Driver/Src/stm32g0xx_hal_pcd.c ****   __HAL_UNLOCK(hpcd);
1363:Drivers/STM32G0xx_HAL_Driver/Src/stm32g0xx_hal_pcd.c **** 
1364:Drivers/STM32G0xx_HAL_Driver/Src/stm32g0xx_hal_pcd.c ****   return HAL_OK;
1365:Drivers/STM32G0xx_HAL_Driver/Src/stm32g0xx_hal_pcd.c **** }
1366:Drivers/STM32G0xx_HAL_Driver/Src/stm32g0xx_hal_pcd.c **** /**
1367:Drivers/STM32G0xx_HAL_Driver/Src/stm32g0xx_hal_pcd.c ****   * @brief  Open and configure an endpoint.
1368:Drivers/STM32G0xx_HAL_Driver/Src/stm32g0xx_hal_pcd.c ****   * @param  hpcd PCD handle
1369:Drivers/STM32G0xx_HAL_Driver/Src/stm32g0xx_hal_pcd.c ****   * @param  ep_addr endpoint address
1370:Drivers/STM32G0xx_HAL_Driver/Src/stm32g0xx_hal_pcd.c ****   * @param  ep_mps endpoint max packet size
1371:Drivers/STM32G0xx_HAL_Driver/Src/stm32g0xx_hal_pcd.c ****   * @param  ep_type endpoint type
1372:Drivers/STM32G0xx_HAL_Driver/Src/stm32g0xx_hal_pcd.c ****   * @retval HAL status
1373:Drivers/STM32G0xx_HAL_Driver/Src/stm32g0xx_hal_pcd.c ****   */
1374:Drivers/STM32G0xx_HAL_Driver/Src/stm32g0xx_hal_pcd.c **** HAL_StatusTypeDef HAL_PCD_EP_Open(PCD_HandleTypeDef *hpcd, uint8_t ep_addr,
1375:Drivers/STM32G0xx_HAL_Driver/Src/stm32g0xx_hal_pcd.c ****                                   uint16_t ep_mps, uint8_t ep_type)
1376:Drivers/STM32G0xx_HAL_Driver/Src/stm32g0xx_hal_pcd.c **** {
1377:Drivers/STM32G0xx_HAL_Driver/Src/stm32g0xx_hal_pcd.c ****   HAL_StatusTypeDef  ret = HAL_OK;
1378:Drivers/STM32G0xx_HAL_Driver/Src/stm32g0xx_hal_pcd.c ****   PCD_EPTypeDef *ep;
1379:Drivers/STM32G0xx_HAL_Driver/Src/stm32g0xx_hal_pcd.c **** 
1380:Drivers/STM32G0xx_HAL_Driver/Src/stm32g0xx_hal_pcd.c ****   if ((ep_addr & 0x80U) == 0x80U)
1381:Drivers/STM32G0xx_HAL_Driver/Src/stm32g0xx_hal_pcd.c ****   {
1382:Drivers/STM32G0xx_HAL_Driver/Src/stm32g0xx_hal_pcd.c ****     ep = &hpcd->IN_ep[ep_addr & EP_ADDR_MSK];
1383:Drivers/STM32G0xx_HAL_Driver/Src/stm32g0xx_hal_pcd.c ****     ep->is_in = 1U;
1384:Drivers/STM32G0xx_HAL_Driver/Src/stm32g0xx_hal_pcd.c ****   }
1385:Drivers/STM32G0xx_HAL_Driver/Src/stm32g0xx_hal_pcd.c ****   else
1386:Drivers/STM32G0xx_HAL_Driver/Src/stm32g0xx_hal_pcd.c ****   {
1387:Drivers/STM32G0xx_HAL_Driver/Src/stm32g0xx_hal_pcd.c ****     ep = &hpcd->OUT_ep[ep_addr & EP_ADDR_MSK];
1388:Drivers/STM32G0xx_HAL_Driver/Src/stm32g0xx_hal_pcd.c ****     ep->is_in = 0U;
1389:Drivers/STM32G0xx_HAL_Driver/Src/stm32g0xx_hal_pcd.c ****   }
1390:Drivers/STM32G0xx_HAL_Driver/Src/stm32g0xx_hal_pcd.c **** 
1391:Drivers/STM32G0xx_HAL_Driver/Src/stm32g0xx_hal_pcd.c ****   ep->num = ep_addr & EP_ADDR_MSK;
1392:Drivers/STM32G0xx_HAL_Driver/Src/stm32g0xx_hal_pcd.c ****   ep->maxpacket = ep_mps;
1393:Drivers/STM32G0xx_HAL_Driver/Src/stm32g0xx_hal_pcd.c ****   ep->type = ep_type;
1394:Drivers/STM32G0xx_HAL_Driver/Src/stm32g0xx_hal_pcd.c **** 
1395:Drivers/STM32G0xx_HAL_Driver/Src/stm32g0xx_hal_pcd.c ****   if (ep->is_in != 0U)
1396:Drivers/STM32G0xx_HAL_Driver/Src/stm32g0xx_hal_pcd.c ****   {
1397:Drivers/STM32G0xx_HAL_Driver/Src/stm32g0xx_hal_pcd.c ****     /* Assign a Tx FIFO */
1398:Drivers/STM32G0xx_HAL_Driver/Src/stm32g0xx_hal_pcd.c ****     ep->tx_fifo_num = ep->num;
1399:Drivers/STM32G0xx_HAL_Driver/Src/stm32g0xx_hal_pcd.c ****   }
1400:Drivers/STM32G0xx_HAL_Driver/Src/stm32g0xx_hal_pcd.c ****   /* Set initial data PID. */
1401:Drivers/STM32G0xx_HAL_Driver/Src/stm32g0xx_hal_pcd.c ****   if (ep_type == EP_TYPE_BULK)
ARM GAS  /tmp/ccFvkBSI.s 			page 40


1402:Drivers/STM32G0xx_HAL_Driver/Src/stm32g0xx_hal_pcd.c ****   {
1403:Drivers/STM32G0xx_HAL_Driver/Src/stm32g0xx_hal_pcd.c ****     ep->data_pid_start = 0U;
1404:Drivers/STM32G0xx_HAL_Driver/Src/stm32g0xx_hal_pcd.c ****   }
1405:Drivers/STM32G0xx_HAL_Driver/Src/stm32g0xx_hal_pcd.c **** 
1406:Drivers/STM32G0xx_HAL_Driver/Src/stm32g0xx_hal_pcd.c ****   __HAL_LOCK(hpcd);
1407:Drivers/STM32G0xx_HAL_Driver/Src/stm32g0xx_hal_pcd.c ****   (void)USB_ActivateEndpoint(hpcd->Instance, ep);
1408:Drivers/STM32G0xx_HAL_Driver/Src/stm32g0xx_hal_pcd.c ****   __HAL_UNLOCK(hpcd);
1409:Drivers/STM32G0xx_HAL_Driver/Src/stm32g0xx_hal_pcd.c **** 
1410:Drivers/STM32G0xx_HAL_Driver/Src/stm32g0xx_hal_pcd.c ****   return ret;
1411:Drivers/STM32G0xx_HAL_Driver/Src/stm32g0xx_hal_pcd.c **** }
1412:Drivers/STM32G0xx_HAL_Driver/Src/stm32g0xx_hal_pcd.c **** 
1413:Drivers/STM32G0xx_HAL_Driver/Src/stm32g0xx_hal_pcd.c **** /**
1414:Drivers/STM32G0xx_HAL_Driver/Src/stm32g0xx_hal_pcd.c ****   * @brief  Deactivate an endpoint.
1415:Drivers/STM32G0xx_HAL_Driver/Src/stm32g0xx_hal_pcd.c ****   * @param  hpcd PCD handle
1416:Drivers/STM32G0xx_HAL_Driver/Src/stm32g0xx_hal_pcd.c ****   * @param  ep_addr endpoint address
1417:Drivers/STM32G0xx_HAL_Driver/Src/stm32g0xx_hal_pcd.c ****   * @retval HAL status
1418:Drivers/STM32G0xx_HAL_Driver/Src/stm32g0xx_hal_pcd.c ****   */
1419:Drivers/STM32G0xx_HAL_Driver/Src/stm32g0xx_hal_pcd.c **** HAL_StatusTypeDef HAL_PCD_EP_Close(PCD_HandleTypeDef *hpcd, uint8_t ep_addr)
1420:Drivers/STM32G0xx_HAL_Driver/Src/stm32g0xx_hal_pcd.c **** {
1421:Drivers/STM32G0xx_HAL_Driver/Src/stm32g0xx_hal_pcd.c ****   PCD_EPTypeDef *ep;
1422:Drivers/STM32G0xx_HAL_Driver/Src/stm32g0xx_hal_pcd.c **** 
1423:Drivers/STM32G0xx_HAL_Driver/Src/stm32g0xx_hal_pcd.c ****   if ((ep_addr & 0x80U) == 0x80U)
1424:Drivers/STM32G0xx_HAL_Driver/Src/stm32g0xx_hal_pcd.c ****   {
1425:Drivers/STM32G0xx_HAL_Driver/Src/stm32g0xx_hal_pcd.c ****     ep = &hpcd->IN_ep[ep_addr & EP_ADDR_MSK];
1426:Drivers/STM32G0xx_HAL_Driver/Src/stm32g0xx_hal_pcd.c ****     ep->is_in = 1U;
1427:Drivers/STM32G0xx_HAL_Driver/Src/stm32g0xx_hal_pcd.c ****   }
1428:Drivers/STM32G0xx_HAL_Driver/Src/stm32g0xx_hal_pcd.c ****   else
1429:Drivers/STM32G0xx_HAL_Driver/Src/stm32g0xx_hal_pcd.c ****   {
1430:Drivers/STM32G0xx_HAL_Driver/Src/stm32g0xx_hal_pcd.c ****     ep = &hpcd->OUT_ep[ep_addr & EP_ADDR_MSK];
1431:Drivers/STM32G0xx_HAL_Driver/Src/stm32g0xx_hal_pcd.c ****     ep->is_in = 0U;
1432:Drivers/STM32G0xx_HAL_Driver/Src/stm32g0xx_hal_pcd.c ****   }
1433:Drivers/STM32G0xx_HAL_Driver/Src/stm32g0xx_hal_pcd.c ****   ep->num   = ep_addr & EP_ADDR_MSK;
1434:Drivers/STM32G0xx_HAL_Driver/Src/stm32g0xx_hal_pcd.c **** 
1435:Drivers/STM32G0xx_HAL_Driver/Src/stm32g0xx_hal_pcd.c ****   __HAL_LOCK(hpcd);
1436:Drivers/STM32G0xx_HAL_Driver/Src/stm32g0xx_hal_pcd.c ****   (void)USB_DeactivateEndpoint(hpcd->Instance, ep);
1437:Drivers/STM32G0xx_HAL_Driver/Src/stm32g0xx_hal_pcd.c ****   __HAL_UNLOCK(hpcd);
1438:Drivers/STM32G0xx_HAL_Driver/Src/stm32g0xx_hal_pcd.c ****   return HAL_OK;
1439:Drivers/STM32G0xx_HAL_Driver/Src/stm32g0xx_hal_pcd.c **** }
1440:Drivers/STM32G0xx_HAL_Driver/Src/stm32g0xx_hal_pcd.c **** 
1441:Drivers/STM32G0xx_HAL_Driver/Src/stm32g0xx_hal_pcd.c **** 
1442:Drivers/STM32G0xx_HAL_Driver/Src/stm32g0xx_hal_pcd.c **** /**
1443:Drivers/STM32G0xx_HAL_Driver/Src/stm32g0xx_hal_pcd.c ****   * @brief  Receive an amount of data.
1444:Drivers/STM32G0xx_HAL_Driver/Src/stm32g0xx_hal_pcd.c ****   * @param  hpcd PCD handle
1445:Drivers/STM32G0xx_HAL_Driver/Src/stm32g0xx_hal_pcd.c ****   * @param  ep_addr endpoint address
1446:Drivers/STM32G0xx_HAL_Driver/Src/stm32g0xx_hal_pcd.c ****   * @param  pBuf pointer to the reception buffer
1447:Drivers/STM32G0xx_HAL_Driver/Src/stm32g0xx_hal_pcd.c ****   * @param  len amount of data to be received
1448:Drivers/STM32G0xx_HAL_Driver/Src/stm32g0xx_hal_pcd.c ****   * @retval HAL status
1449:Drivers/STM32G0xx_HAL_Driver/Src/stm32g0xx_hal_pcd.c ****   */
1450:Drivers/STM32G0xx_HAL_Driver/Src/stm32g0xx_hal_pcd.c **** HAL_StatusTypeDef HAL_PCD_EP_Receive(PCD_HandleTypeDef *hpcd, uint8_t ep_addr, uint8_t *pBuf, uint3
1451:Drivers/STM32G0xx_HAL_Driver/Src/stm32g0xx_hal_pcd.c **** {
1452:Drivers/STM32G0xx_HAL_Driver/Src/stm32g0xx_hal_pcd.c ****   PCD_EPTypeDef *ep;
1453:Drivers/STM32G0xx_HAL_Driver/Src/stm32g0xx_hal_pcd.c **** 
1454:Drivers/STM32G0xx_HAL_Driver/Src/stm32g0xx_hal_pcd.c ****   ep = &hpcd->OUT_ep[ep_addr & EP_ADDR_MSK];
1455:Drivers/STM32G0xx_HAL_Driver/Src/stm32g0xx_hal_pcd.c **** 
1456:Drivers/STM32G0xx_HAL_Driver/Src/stm32g0xx_hal_pcd.c ****   /*setup and start the Xfer */
1457:Drivers/STM32G0xx_HAL_Driver/Src/stm32g0xx_hal_pcd.c ****   ep->xfer_buff = pBuf;
1458:Drivers/STM32G0xx_HAL_Driver/Src/stm32g0xx_hal_pcd.c ****   ep->xfer_len = len;
ARM GAS  /tmp/ccFvkBSI.s 			page 41


1459:Drivers/STM32G0xx_HAL_Driver/Src/stm32g0xx_hal_pcd.c ****   ep->xfer_count = 0U;
1460:Drivers/STM32G0xx_HAL_Driver/Src/stm32g0xx_hal_pcd.c ****   ep->is_in = 0U;
1461:Drivers/STM32G0xx_HAL_Driver/Src/stm32g0xx_hal_pcd.c ****   ep->num = ep_addr & EP_ADDR_MSK;
1462:Drivers/STM32G0xx_HAL_Driver/Src/stm32g0xx_hal_pcd.c **** 
1463:Drivers/STM32G0xx_HAL_Driver/Src/stm32g0xx_hal_pcd.c ****   if ((ep_addr & EP_ADDR_MSK) == 0U)
1464:Drivers/STM32G0xx_HAL_Driver/Src/stm32g0xx_hal_pcd.c ****   {
1465:Drivers/STM32G0xx_HAL_Driver/Src/stm32g0xx_hal_pcd.c ****     (void)USB_EP0StartXfer(hpcd->Instance, ep);
1466:Drivers/STM32G0xx_HAL_Driver/Src/stm32g0xx_hal_pcd.c ****   }
1467:Drivers/STM32G0xx_HAL_Driver/Src/stm32g0xx_hal_pcd.c ****   else
1468:Drivers/STM32G0xx_HAL_Driver/Src/stm32g0xx_hal_pcd.c ****   {
1469:Drivers/STM32G0xx_HAL_Driver/Src/stm32g0xx_hal_pcd.c ****     (void)USB_EPStartXfer(hpcd->Instance, ep);
1470:Drivers/STM32G0xx_HAL_Driver/Src/stm32g0xx_hal_pcd.c ****   }
1471:Drivers/STM32G0xx_HAL_Driver/Src/stm32g0xx_hal_pcd.c **** 
1472:Drivers/STM32G0xx_HAL_Driver/Src/stm32g0xx_hal_pcd.c ****   return HAL_OK;
1473:Drivers/STM32G0xx_HAL_Driver/Src/stm32g0xx_hal_pcd.c **** }
1474:Drivers/STM32G0xx_HAL_Driver/Src/stm32g0xx_hal_pcd.c **** 
1475:Drivers/STM32G0xx_HAL_Driver/Src/stm32g0xx_hal_pcd.c **** /**
1476:Drivers/STM32G0xx_HAL_Driver/Src/stm32g0xx_hal_pcd.c ****   * @brief  Get Received Data Size
1477:Drivers/STM32G0xx_HAL_Driver/Src/stm32g0xx_hal_pcd.c ****   * @param  hpcd PCD handle
1478:Drivers/STM32G0xx_HAL_Driver/Src/stm32g0xx_hal_pcd.c ****   * @param  ep_addr endpoint address
1479:Drivers/STM32G0xx_HAL_Driver/Src/stm32g0xx_hal_pcd.c ****   * @retval Data Size
1480:Drivers/STM32G0xx_HAL_Driver/Src/stm32g0xx_hal_pcd.c ****   */
1481:Drivers/STM32G0xx_HAL_Driver/Src/stm32g0xx_hal_pcd.c **** uint32_t HAL_PCD_EP_GetRxCount(PCD_HandleTypeDef *hpcd, uint8_t ep_addr)
1482:Drivers/STM32G0xx_HAL_Driver/Src/stm32g0xx_hal_pcd.c **** {
1483:Drivers/STM32G0xx_HAL_Driver/Src/stm32g0xx_hal_pcd.c ****   return hpcd->OUT_ep[ep_addr & EP_ADDR_MSK].xfer_count;
1484:Drivers/STM32G0xx_HAL_Driver/Src/stm32g0xx_hal_pcd.c **** }
1485:Drivers/STM32G0xx_HAL_Driver/Src/stm32g0xx_hal_pcd.c **** /**
1486:Drivers/STM32G0xx_HAL_Driver/Src/stm32g0xx_hal_pcd.c ****   * @brief  Send an amount of data
1487:Drivers/STM32G0xx_HAL_Driver/Src/stm32g0xx_hal_pcd.c ****   * @param  hpcd PCD handle
1488:Drivers/STM32G0xx_HAL_Driver/Src/stm32g0xx_hal_pcd.c ****   * @param  ep_addr endpoint address
1489:Drivers/STM32G0xx_HAL_Driver/Src/stm32g0xx_hal_pcd.c ****   * @param  pBuf pointer to the transmission buffer
1490:Drivers/STM32G0xx_HAL_Driver/Src/stm32g0xx_hal_pcd.c ****   * @param  len amount of data to be sent
1491:Drivers/STM32G0xx_HAL_Driver/Src/stm32g0xx_hal_pcd.c ****   * @retval HAL status
1492:Drivers/STM32G0xx_HAL_Driver/Src/stm32g0xx_hal_pcd.c ****   */
1493:Drivers/STM32G0xx_HAL_Driver/Src/stm32g0xx_hal_pcd.c **** HAL_StatusTypeDef HAL_PCD_EP_Transmit(PCD_HandleTypeDef *hpcd, uint8_t ep_addr, uint8_t *pBuf, uint
1494:Drivers/STM32G0xx_HAL_Driver/Src/stm32g0xx_hal_pcd.c **** {
1495:Drivers/STM32G0xx_HAL_Driver/Src/stm32g0xx_hal_pcd.c ****   PCD_EPTypeDef *ep;
1496:Drivers/STM32G0xx_HAL_Driver/Src/stm32g0xx_hal_pcd.c **** 
1497:Drivers/STM32G0xx_HAL_Driver/Src/stm32g0xx_hal_pcd.c ****   ep = &hpcd->IN_ep[ep_addr & EP_ADDR_MSK];
1498:Drivers/STM32G0xx_HAL_Driver/Src/stm32g0xx_hal_pcd.c **** 
1499:Drivers/STM32G0xx_HAL_Driver/Src/stm32g0xx_hal_pcd.c ****   /*setup and start the Xfer */
1500:Drivers/STM32G0xx_HAL_Driver/Src/stm32g0xx_hal_pcd.c ****   ep->xfer_buff = pBuf;
1501:Drivers/STM32G0xx_HAL_Driver/Src/stm32g0xx_hal_pcd.c ****   ep->xfer_len = len;
1502:Drivers/STM32G0xx_HAL_Driver/Src/stm32g0xx_hal_pcd.c ****   ep->xfer_fill_db = 1U;
1503:Drivers/STM32G0xx_HAL_Driver/Src/stm32g0xx_hal_pcd.c ****   ep->xfer_len_db = len;
1504:Drivers/STM32G0xx_HAL_Driver/Src/stm32g0xx_hal_pcd.c ****   ep->xfer_count = 0U;
1505:Drivers/STM32G0xx_HAL_Driver/Src/stm32g0xx_hal_pcd.c ****   ep->is_in = 1U;
1506:Drivers/STM32G0xx_HAL_Driver/Src/stm32g0xx_hal_pcd.c ****   ep->num = ep_addr & EP_ADDR_MSK;
1507:Drivers/STM32G0xx_HAL_Driver/Src/stm32g0xx_hal_pcd.c **** 
1508:Drivers/STM32G0xx_HAL_Driver/Src/stm32g0xx_hal_pcd.c ****   if ((ep_addr & EP_ADDR_MSK) == 0U)
1509:Drivers/STM32G0xx_HAL_Driver/Src/stm32g0xx_hal_pcd.c ****   {
1510:Drivers/STM32G0xx_HAL_Driver/Src/stm32g0xx_hal_pcd.c ****     (void)USB_EP0StartXfer(hpcd->Instance, ep);
1511:Drivers/STM32G0xx_HAL_Driver/Src/stm32g0xx_hal_pcd.c ****   }
1512:Drivers/STM32G0xx_HAL_Driver/Src/stm32g0xx_hal_pcd.c ****   else
1513:Drivers/STM32G0xx_HAL_Driver/Src/stm32g0xx_hal_pcd.c ****   {
1514:Drivers/STM32G0xx_HAL_Driver/Src/stm32g0xx_hal_pcd.c ****     (void)USB_EPStartXfer(hpcd->Instance, ep);
1515:Drivers/STM32G0xx_HAL_Driver/Src/stm32g0xx_hal_pcd.c ****   }
ARM GAS  /tmp/ccFvkBSI.s 			page 42


1516:Drivers/STM32G0xx_HAL_Driver/Src/stm32g0xx_hal_pcd.c **** 
1517:Drivers/STM32G0xx_HAL_Driver/Src/stm32g0xx_hal_pcd.c ****   return HAL_OK;
1518:Drivers/STM32G0xx_HAL_Driver/Src/stm32g0xx_hal_pcd.c **** }
1519:Drivers/STM32G0xx_HAL_Driver/Src/stm32g0xx_hal_pcd.c **** 
1520:Drivers/STM32G0xx_HAL_Driver/Src/stm32g0xx_hal_pcd.c **** /**
1521:Drivers/STM32G0xx_HAL_Driver/Src/stm32g0xx_hal_pcd.c ****   * @brief  Set a STALL condition over an endpoint
1522:Drivers/STM32G0xx_HAL_Driver/Src/stm32g0xx_hal_pcd.c ****   * @param  hpcd PCD handle
1523:Drivers/STM32G0xx_HAL_Driver/Src/stm32g0xx_hal_pcd.c ****   * @param  ep_addr endpoint address
1524:Drivers/STM32G0xx_HAL_Driver/Src/stm32g0xx_hal_pcd.c ****   * @retval HAL status
1525:Drivers/STM32G0xx_HAL_Driver/Src/stm32g0xx_hal_pcd.c ****   */
1526:Drivers/STM32G0xx_HAL_Driver/Src/stm32g0xx_hal_pcd.c **** HAL_StatusTypeDef HAL_PCD_EP_SetStall(PCD_HandleTypeDef *hpcd, uint8_t ep_addr)
1527:Drivers/STM32G0xx_HAL_Driver/Src/stm32g0xx_hal_pcd.c **** {
1528:Drivers/STM32G0xx_HAL_Driver/Src/stm32g0xx_hal_pcd.c ****   PCD_EPTypeDef *ep;
1529:Drivers/STM32G0xx_HAL_Driver/Src/stm32g0xx_hal_pcd.c **** 
1530:Drivers/STM32G0xx_HAL_Driver/Src/stm32g0xx_hal_pcd.c ****   if (((uint32_t)ep_addr & EP_ADDR_MSK) > hpcd->Init.dev_endpoints)
1531:Drivers/STM32G0xx_HAL_Driver/Src/stm32g0xx_hal_pcd.c ****   {
1532:Drivers/STM32G0xx_HAL_Driver/Src/stm32g0xx_hal_pcd.c ****     return HAL_ERROR;
1533:Drivers/STM32G0xx_HAL_Driver/Src/stm32g0xx_hal_pcd.c ****   }
1534:Drivers/STM32G0xx_HAL_Driver/Src/stm32g0xx_hal_pcd.c **** 
1535:Drivers/STM32G0xx_HAL_Driver/Src/stm32g0xx_hal_pcd.c ****   if ((0x80U & ep_addr) == 0x80U)
1536:Drivers/STM32G0xx_HAL_Driver/Src/stm32g0xx_hal_pcd.c ****   {
1537:Drivers/STM32G0xx_HAL_Driver/Src/stm32g0xx_hal_pcd.c ****     ep = &hpcd->IN_ep[ep_addr & EP_ADDR_MSK];
1538:Drivers/STM32G0xx_HAL_Driver/Src/stm32g0xx_hal_pcd.c ****     ep->is_in = 1U;
1539:Drivers/STM32G0xx_HAL_Driver/Src/stm32g0xx_hal_pcd.c ****   }
1540:Drivers/STM32G0xx_HAL_Driver/Src/stm32g0xx_hal_pcd.c ****   else
1541:Drivers/STM32G0xx_HAL_Driver/Src/stm32g0xx_hal_pcd.c ****   {
1542:Drivers/STM32G0xx_HAL_Driver/Src/stm32g0xx_hal_pcd.c ****     ep = &hpcd->OUT_ep[ep_addr];
1543:Drivers/STM32G0xx_HAL_Driver/Src/stm32g0xx_hal_pcd.c ****     ep->is_in = 0U;
1544:Drivers/STM32G0xx_HAL_Driver/Src/stm32g0xx_hal_pcd.c ****   }
1545:Drivers/STM32G0xx_HAL_Driver/Src/stm32g0xx_hal_pcd.c **** 
1546:Drivers/STM32G0xx_HAL_Driver/Src/stm32g0xx_hal_pcd.c ****   ep->is_stall = 1U;
1547:Drivers/STM32G0xx_HAL_Driver/Src/stm32g0xx_hal_pcd.c ****   ep->num = ep_addr & EP_ADDR_MSK;
1548:Drivers/STM32G0xx_HAL_Driver/Src/stm32g0xx_hal_pcd.c **** 
1549:Drivers/STM32G0xx_HAL_Driver/Src/stm32g0xx_hal_pcd.c ****   __HAL_LOCK(hpcd);
1550:Drivers/STM32G0xx_HAL_Driver/Src/stm32g0xx_hal_pcd.c **** 
1551:Drivers/STM32G0xx_HAL_Driver/Src/stm32g0xx_hal_pcd.c ****   (void)USB_EPSetStall(hpcd->Instance, ep);
1552:Drivers/STM32G0xx_HAL_Driver/Src/stm32g0xx_hal_pcd.c **** 
1553:Drivers/STM32G0xx_HAL_Driver/Src/stm32g0xx_hal_pcd.c ****   __HAL_UNLOCK(hpcd);
1554:Drivers/STM32G0xx_HAL_Driver/Src/stm32g0xx_hal_pcd.c **** 
1555:Drivers/STM32G0xx_HAL_Driver/Src/stm32g0xx_hal_pcd.c ****   return HAL_OK;
1556:Drivers/STM32G0xx_HAL_Driver/Src/stm32g0xx_hal_pcd.c **** }
1557:Drivers/STM32G0xx_HAL_Driver/Src/stm32g0xx_hal_pcd.c **** 
1558:Drivers/STM32G0xx_HAL_Driver/Src/stm32g0xx_hal_pcd.c **** /**
1559:Drivers/STM32G0xx_HAL_Driver/Src/stm32g0xx_hal_pcd.c ****   * @brief  Clear a STALL condition over in an endpoint
1560:Drivers/STM32G0xx_HAL_Driver/Src/stm32g0xx_hal_pcd.c ****   * @param  hpcd PCD handle
1561:Drivers/STM32G0xx_HAL_Driver/Src/stm32g0xx_hal_pcd.c ****   * @param  ep_addr endpoint address
1562:Drivers/STM32G0xx_HAL_Driver/Src/stm32g0xx_hal_pcd.c ****   * @retval HAL status
1563:Drivers/STM32G0xx_HAL_Driver/Src/stm32g0xx_hal_pcd.c ****   */
1564:Drivers/STM32G0xx_HAL_Driver/Src/stm32g0xx_hal_pcd.c **** HAL_StatusTypeDef HAL_PCD_EP_ClrStall(PCD_HandleTypeDef *hpcd, uint8_t ep_addr)
1565:Drivers/STM32G0xx_HAL_Driver/Src/stm32g0xx_hal_pcd.c **** {
1566:Drivers/STM32G0xx_HAL_Driver/Src/stm32g0xx_hal_pcd.c ****   PCD_EPTypeDef *ep;
1567:Drivers/STM32G0xx_HAL_Driver/Src/stm32g0xx_hal_pcd.c **** 
1568:Drivers/STM32G0xx_HAL_Driver/Src/stm32g0xx_hal_pcd.c ****   if (((uint32_t)ep_addr & 0x0FU) > hpcd->Init.dev_endpoints)
1569:Drivers/STM32G0xx_HAL_Driver/Src/stm32g0xx_hal_pcd.c ****   {
1570:Drivers/STM32G0xx_HAL_Driver/Src/stm32g0xx_hal_pcd.c ****     return HAL_ERROR;
1571:Drivers/STM32G0xx_HAL_Driver/Src/stm32g0xx_hal_pcd.c ****   }
1572:Drivers/STM32G0xx_HAL_Driver/Src/stm32g0xx_hal_pcd.c **** 
ARM GAS  /tmp/ccFvkBSI.s 			page 43


1573:Drivers/STM32G0xx_HAL_Driver/Src/stm32g0xx_hal_pcd.c ****   if ((0x80U & ep_addr) == 0x80U)
1574:Drivers/STM32G0xx_HAL_Driver/Src/stm32g0xx_hal_pcd.c ****   {
1575:Drivers/STM32G0xx_HAL_Driver/Src/stm32g0xx_hal_pcd.c ****     ep = &hpcd->IN_ep[ep_addr & EP_ADDR_MSK];
1576:Drivers/STM32G0xx_HAL_Driver/Src/stm32g0xx_hal_pcd.c ****     ep->is_in = 1U;
1577:Drivers/STM32G0xx_HAL_Driver/Src/stm32g0xx_hal_pcd.c ****   }
1578:Drivers/STM32G0xx_HAL_Driver/Src/stm32g0xx_hal_pcd.c ****   else
1579:Drivers/STM32G0xx_HAL_Driver/Src/stm32g0xx_hal_pcd.c ****   {
1580:Drivers/STM32G0xx_HAL_Driver/Src/stm32g0xx_hal_pcd.c ****     ep = &hpcd->OUT_ep[ep_addr & EP_ADDR_MSK];
1581:Drivers/STM32G0xx_HAL_Driver/Src/stm32g0xx_hal_pcd.c ****     ep->is_in = 0U;
1582:Drivers/STM32G0xx_HAL_Driver/Src/stm32g0xx_hal_pcd.c ****   }
1583:Drivers/STM32G0xx_HAL_Driver/Src/stm32g0xx_hal_pcd.c **** 
1584:Drivers/STM32G0xx_HAL_Driver/Src/stm32g0xx_hal_pcd.c ****   ep->is_stall = 0U;
1585:Drivers/STM32G0xx_HAL_Driver/Src/stm32g0xx_hal_pcd.c ****   ep->num = ep_addr & EP_ADDR_MSK;
1586:Drivers/STM32G0xx_HAL_Driver/Src/stm32g0xx_hal_pcd.c **** 
1587:Drivers/STM32G0xx_HAL_Driver/Src/stm32g0xx_hal_pcd.c ****   __HAL_LOCK(hpcd);
1588:Drivers/STM32G0xx_HAL_Driver/Src/stm32g0xx_hal_pcd.c ****   (void)USB_EPClearStall(hpcd->Instance, ep);
1589:Drivers/STM32G0xx_HAL_Driver/Src/stm32g0xx_hal_pcd.c ****   __HAL_UNLOCK(hpcd);
1590:Drivers/STM32G0xx_HAL_Driver/Src/stm32g0xx_hal_pcd.c **** 
1591:Drivers/STM32G0xx_HAL_Driver/Src/stm32g0xx_hal_pcd.c ****   return HAL_OK;
1592:Drivers/STM32G0xx_HAL_Driver/Src/stm32g0xx_hal_pcd.c **** }
1593:Drivers/STM32G0xx_HAL_Driver/Src/stm32g0xx_hal_pcd.c **** 
1594:Drivers/STM32G0xx_HAL_Driver/Src/stm32g0xx_hal_pcd.c **** /**
1595:Drivers/STM32G0xx_HAL_Driver/Src/stm32g0xx_hal_pcd.c ****   * @brief  Flush an endpoint
1596:Drivers/STM32G0xx_HAL_Driver/Src/stm32g0xx_hal_pcd.c ****   * @param  hpcd PCD handle
1597:Drivers/STM32G0xx_HAL_Driver/Src/stm32g0xx_hal_pcd.c ****   * @param  ep_addr endpoint address
1598:Drivers/STM32G0xx_HAL_Driver/Src/stm32g0xx_hal_pcd.c ****   * @retval HAL status
1599:Drivers/STM32G0xx_HAL_Driver/Src/stm32g0xx_hal_pcd.c ****   */
1600:Drivers/STM32G0xx_HAL_Driver/Src/stm32g0xx_hal_pcd.c **** HAL_StatusTypeDef HAL_PCD_EP_Flush(PCD_HandleTypeDef *hpcd, uint8_t ep_addr)
1601:Drivers/STM32G0xx_HAL_Driver/Src/stm32g0xx_hal_pcd.c **** {
1602:Drivers/STM32G0xx_HAL_Driver/Src/stm32g0xx_hal_pcd.c ****   /* Prevent unused argument(s) compilation warning */
1603:Drivers/STM32G0xx_HAL_Driver/Src/stm32g0xx_hal_pcd.c ****   UNUSED(hpcd);
1604:Drivers/STM32G0xx_HAL_Driver/Src/stm32g0xx_hal_pcd.c ****   UNUSED(ep_addr);
1605:Drivers/STM32G0xx_HAL_Driver/Src/stm32g0xx_hal_pcd.c **** 
1606:Drivers/STM32G0xx_HAL_Driver/Src/stm32g0xx_hal_pcd.c ****   return HAL_OK;
1607:Drivers/STM32G0xx_HAL_Driver/Src/stm32g0xx_hal_pcd.c **** }
1608:Drivers/STM32G0xx_HAL_Driver/Src/stm32g0xx_hal_pcd.c **** 
1609:Drivers/STM32G0xx_HAL_Driver/Src/stm32g0xx_hal_pcd.c **** /**
1610:Drivers/STM32G0xx_HAL_Driver/Src/stm32g0xx_hal_pcd.c ****   * @brief  Activate remote wakeup signalling
1611:Drivers/STM32G0xx_HAL_Driver/Src/stm32g0xx_hal_pcd.c ****   * @param  hpcd PCD handle
1612:Drivers/STM32G0xx_HAL_Driver/Src/stm32g0xx_hal_pcd.c ****   * @retval HAL status
1613:Drivers/STM32G0xx_HAL_Driver/Src/stm32g0xx_hal_pcd.c ****   */
1614:Drivers/STM32G0xx_HAL_Driver/Src/stm32g0xx_hal_pcd.c **** HAL_StatusTypeDef HAL_PCD_ActivateRemoteWakeup(PCD_HandleTypeDef *hpcd)
1615:Drivers/STM32G0xx_HAL_Driver/Src/stm32g0xx_hal_pcd.c **** {
1616:Drivers/STM32G0xx_HAL_Driver/Src/stm32g0xx_hal_pcd.c ****   return (USB_ActivateRemoteWakeup(hpcd->Instance));
1617:Drivers/STM32G0xx_HAL_Driver/Src/stm32g0xx_hal_pcd.c **** }
1618:Drivers/STM32G0xx_HAL_Driver/Src/stm32g0xx_hal_pcd.c **** 
1619:Drivers/STM32G0xx_HAL_Driver/Src/stm32g0xx_hal_pcd.c **** /**
1620:Drivers/STM32G0xx_HAL_Driver/Src/stm32g0xx_hal_pcd.c ****   * @brief  De-activate remote wakeup signalling.
1621:Drivers/STM32G0xx_HAL_Driver/Src/stm32g0xx_hal_pcd.c ****   * @param  hpcd PCD handle
1622:Drivers/STM32G0xx_HAL_Driver/Src/stm32g0xx_hal_pcd.c ****   * @retval HAL status
1623:Drivers/STM32G0xx_HAL_Driver/Src/stm32g0xx_hal_pcd.c ****   */
1624:Drivers/STM32G0xx_HAL_Driver/Src/stm32g0xx_hal_pcd.c **** HAL_StatusTypeDef HAL_PCD_DeActivateRemoteWakeup(PCD_HandleTypeDef *hpcd)
1625:Drivers/STM32G0xx_HAL_Driver/Src/stm32g0xx_hal_pcd.c **** {
1626:Drivers/STM32G0xx_HAL_Driver/Src/stm32g0xx_hal_pcd.c ****   return (USB_DeActivateRemoteWakeup(hpcd->Instance));
1627:Drivers/STM32G0xx_HAL_Driver/Src/stm32g0xx_hal_pcd.c **** }
1628:Drivers/STM32G0xx_HAL_Driver/Src/stm32g0xx_hal_pcd.c **** 
1629:Drivers/STM32G0xx_HAL_Driver/Src/stm32g0xx_hal_pcd.c **** /**
ARM GAS  /tmp/ccFvkBSI.s 			page 44


1630:Drivers/STM32G0xx_HAL_Driver/Src/stm32g0xx_hal_pcd.c ****   * @}
1631:Drivers/STM32G0xx_HAL_Driver/Src/stm32g0xx_hal_pcd.c ****   */
1632:Drivers/STM32G0xx_HAL_Driver/Src/stm32g0xx_hal_pcd.c **** 
1633:Drivers/STM32G0xx_HAL_Driver/Src/stm32g0xx_hal_pcd.c **** /** @defgroup PCD_Exported_Functions_Group4 Peripheral State functions
1634:Drivers/STM32G0xx_HAL_Driver/Src/stm32g0xx_hal_pcd.c ****   *  @brief   Peripheral State functions
1635:Drivers/STM32G0xx_HAL_Driver/Src/stm32g0xx_hal_pcd.c ****   *
1636:Drivers/STM32G0xx_HAL_Driver/Src/stm32g0xx_hal_pcd.c **** @verbatim
1637:Drivers/STM32G0xx_HAL_Driver/Src/stm32g0xx_hal_pcd.c ****  ===============================================================================
1638:Drivers/STM32G0xx_HAL_Driver/Src/stm32g0xx_hal_pcd.c ****                       ##### Peripheral State functions #####
1639:Drivers/STM32G0xx_HAL_Driver/Src/stm32g0xx_hal_pcd.c ****  ===============================================================================
1640:Drivers/STM32G0xx_HAL_Driver/Src/stm32g0xx_hal_pcd.c ****     [..]
1641:Drivers/STM32G0xx_HAL_Driver/Src/stm32g0xx_hal_pcd.c ****     This subsection permits to get in run-time the status of the peripheral
1642:Drivers/STM32G0xx_HAL_Driver/Src/stm32g0xx_hal_pcd.c ****     and the data flow.
1643:Drivers/STM32G0xx_HAL_Driver/Src/stm32g0xx_hal_pcd.c **** 
1644:Drivers/STM32G0xx_HAL_Driver/Src/stm32g0xx_hal_pcd.c **** @endverbatim
1645:Drivers/STM32G0xx_HAL_Driver/Src/stm32g0xx_hal_pcd.c ****   * @{
1646:Drivers/STM32G0xx_HAL_Driver/Src/stm32g0xx_hal_pcd.c ****   */
1647:Drivers/STM32G0xx_HAL_Driver/Src/stm32g0xx_hal_pcd.c **** 
1648:Drivers/STM32G0xx_HAL_Driver/Src/stm32g0xx_hal_pcd.c **** /**
1649:Drivers/STM32G0xx_HAL_Driver/Src/stm32g0xx_hal_pcd.c ****   * @brief  Return the PCD handle state.
1650:Drivers/STM32G0xx_HAL_Driver/Src/stm32g0xx_hal_pcd.c ****   * @param  hpcd PCD handle
1651:Drivers/STM32G0xx_HAL_Driver/Src/stm32g0xx_hal_pcd.c ****   * @retval HAL state
1652:Drivers/STM32G0xx_HAL_Driver/Src/stm32g0xx_hal_pcd.c ****   */
1653:Drivers/STM32G0xx_HAL_Driver/Src/stm32g0xx_hal_pcd.c **** PCD_StateTypeDef HAL_PCD_GetState(PCD_HandleTypeDef *hpcd)
1654:Drivers/STM32G0xx_HAL_Driver/Src/stm32g0xx_hal_pcd.c **** {
1655:Drivers/STM32G0xx_HAL_Driver/Src/stm32g0xx_hal_pcd.c ****   return hpcd->State;
1656:Drivers/STM32G0xx_HAL_Driver/Src/stm32g0xx_hal_pcd.c **** }
1657:Drivers/STM32G0xx_HAL_Driver/Src/stm32g0xx_hal_pcd.c **** 
1658:Drivers/STM32G0xx_HAL_Driver/Src/stm32g0xx_hal_pcd.c **** /**
1659:Drivers/STM32G0xx_HAL_Driver/Src/stm32g0xx_hal_pcd.c ****   * @}
1660:Drivers/STM32G0xx_HAL_Driver/Src/stm32g0xx_hal_pcd.c ****   */
1661:Drivers/STM32G0xx_HAL_Driver/Src/stm32g0xx_hal_pcd.c **** 
1662:Drivers/STM32G0xx_HAL_Driver/Src/stm32g0xx_hal_pcd.c **** /**
1663:Drivers/STM32G0xx_HAL_Driver/Src/stm32g0xx_hal_pcd.c ****   * @}
1664:Drivers/STM32G0xx_HAL_Driver/Src/stm32g0xx_hal_pcd.c ****   */
1665:Drivers/STM32G0xx_HAL_Driver/Src/stm32g0xx_hal_pcd.c **** 
1666:Drivers/STM32G0xx_HAL_Driver/Src/stm32g0xx_hal_pcd.c **** /* Private functions ---------------------------------------------------------*/
1667:Drivers/STM32G0xx_HAL_Driver/Src/stm32g0xx_hal_pcd.c **** /** @addtogroup PCD_Private_Functions
1668:Drivers/STM32G0xx_HAL_Driver/Src/stm32g0xx_hal_pcd.c ****   * @{
1669:Drivers/STM32G0xx_HAL_Driver/Src/stm32g0xx_hal_pcd.c ****   */
1670:Drivers/STM32G0xx_HAL_Driver/Src/stm32g0xx_hal_pcd.c **** 
1671:Drivers/STM32G0xx_HAL_Driver/Src/stm32g0xx_hal_pcd.c **** 
1672:Drivers/STM32G0xx_HAL_Driver/Src/stm32g0xx_hal_pcd.c **** /**
1673:Drivers/STM32G0xx_HAL_Driver/Src/stm32g0xx_hal_pcd.c ****   * @brief  This function handles PCD Endpoint interrupt request.
1674:Drivers/STM32G0xx_HAL_Driver/Src/stm32g0xx_hal_pcd.c ****   * @param  hpcd PCD handle
1675:Drivers/STM32G0xx_HAL_Driver/Src/stm32g0xx_hal_pcd.c ****   * @retval HAL status
1676:Drivers/STM32G0xx_HAL_Driver/Src/stm32g0xx_hal_pcd.c ****   */
1677:Drivers/STM32G0xx_HAL_Driver/Src/stm32g0xx_hal_pcd.c **** static HAL_StatusTypeDef PCD_EP_ISR_Handler(PCD_HandleTypeDef *hpcd)
1678:Drivers/STM32G0xx_HAL_Driver/Src/stm32g0xx_hal_pcd.c **** {
1679:Drivers/STM32G0xx_HAL_Driver/Src/stm32g0xx_hal_pcd.c ****   PCD_EPTypeDef *ep;
1680:Drivers/STM32G0xx_HAL_Driver/Src/stm32g0xx_hal_pcd.c ****   uint16_t count, wIstr, wEPVal, TxByteNbre;
1681:Drivers/STM32G0xx_HAL_Driver/Src/stm32g0xx_hal_pcd.c ****   uint8_t epindex;
1682:Drivers/STM32G0xx_HAL_Driver/Src/stm32g0xx_hal_pcd.c **** 
1683:Drivers/STM32G0xx_HAL_Driver/Src/stm32g0xx_hal_pcd.c ****   /* stay in loop while pending interrupts */
1684:Drivers/STM32G0xx_HAL_Driver/Src/stm32g0xx_hal_pcd.c ****   while ((hpcd->Instance->ISTR & USB_ISTR_CTR) != 0U)
1685:Drivers/STM32G0xx_HAL_Driver/Src/stm32g0xx_hal_pcd.c ****   {
1686:Drivers/STM32G0xx_HAL_Driver/Src/stm32g0xx_hal_pcd.c ****     wIstr = (uint16_t)hpcd->Instance->ISTR;
ARM GAS  /tmp/ccFvkBSI.s 			page 45


1687:Drivers/STM32G0xx_HAL_Driver/Src/stm32g0xx_hal_pcd.c **** 
1688:Drivers/STM32G0xx_HAL_Driver/Src/stm32g0xx_hal_pcd.c ****     /* extract highest priority endpoint number */
1689:Drivers/STM32G0xx_HAL_Driver/Src/stm32g0xx_hal_pcd.c ****     epindex = (uint8_t)(wIstr & USB_ISTR_IDN);
1690:Drivers/STM32G0xx_HAL_Driver/Src/stm32g0xx_hal_pcd.c **** 
1691:Drivers/STM32G0xx_HAL_Driver/Src/stm32g0xx_hal_pcd.c ****     if (epindex == 0U)
1692:Drivers/STM32G0xx_HAL_Driver/Src/stm32g0xx_hal_pcd.c ****     {
1693:Drivers/STM32G0xx_HAL_Driver/Src/stm32g0xx_hal_pcd.c ****       /* Decode and service control endpoint interrupt */
1694:Drivers/STM32G0xx_HAL_Driver/Src/stm32g0xx_hal_pcd.c **** 
1695:Drivers/STM32G0xx_HAL_Driver/Src/stm32g0xx_hal_pcd.c ****       /* DIR bit = origin of the interrupt */
1696:Drivers/STM32G0xx_HAL_Driver/Src/stm32g0xx_hal_pcd.c ****       if ((wIstr & USB_ISTR_DIR) == 0U)
1697:Drivers/STM32G0xx_HAL_Driver/Src/stm32g0xx_hal_pcd.c ****       {
1698:Drivers/STM32G0xx_HAL_Driver/Src/stm32g0xx_hal_pcd.c ****         /* DIR = 0 */
1699:Drivers/STM32G0xx_HAL_Driver/Src/stm32g0xx_hal_pcd.c **** 
1700:Drivers/STM32G0xx_HAL_Driver/Src/stm32g0xx_hal_pcd.c ****         /* DIR = 0 => IN  int */
1701:Drivers/STM32G0xx_HAL_Driver/Src/stm32g0xx_hal_pcd.c ****         /* DIR = 0 implies that (EP_CTR_TX = 1) always */
1702:Drivers/STM32G0xx_HAL_Driver/Src/stm32g0xx_hal_pcd.c ****         PCD_CLEAR_TX_EP_CTR(hpcd->Instance, PCD_ENDP0);
1703:Drivers/STM32G0xx_HAL_Driver/Src/stm32g0xx_hal_pcd.c ****         ep = &hpcd->IN_ep[0];
1704:Drivers/STM32G0xx_HAL_Driver/Src/stm32g0xx_hal_pcd.c **** 
1705:Drivers/STM32G0xx_HAL_Driver/Src/stm32g0xx_hal_pcd.c ****         ep->xfer_count = PCD_GET_EP_TX_CNT(hpcd->Instance, ep->num);
1706:Drivers/STM32G0xx_HAL_Driver/Src/stm32g0xx_hal_pcd.c ****         ep->xfer_buff += ep->xfer_count;
1707:Drivers/STM32G0xx_HAL_Driver/Src/stm32g0xx_hal_pcd.c **** 
1708:Drivers/STM32G0xx_HAL_Driver/Src/stm32g0xx_hal_pcd.c ****         /* TX COMPLETE */
1709:Drivers/STM32G0xx_HAL_Driver/Src/stm32g0xx_hal_pcd.c **** #if (USE_HAL_PCD_REGISTER_CALLBACKS == 1U)
1710:Drivers/STM32G0xx_HAL_Driver/Src/stm32g0xx_hal_pcd.c ****         hpcd->DataInStageCallback(hpcd, 0U);
1711:Drivers/STM32G0xx_HAL_Driver/Src/stm32g0xx_hal_pcd.c **** #else
1712:Drivers/STM32G0xx_HAL_Driver/Src/stm32g0xx_hal_pcd.c ****         HAL_PCD_DataInStageCallback(hpcd, 0U);
1713:Drivers/STM32G0xx_HAL_Driver/Src/stm32g0xx_hal_pcd.c **** #endif /* USE_HAL_PCD_REGISTER_CALLBACKS */
1714:Drivers/STM32G0xx_HAL_Driver/Src/stm32g0xx_hal_pcd.c **** 
1715:Drivers/STM32G0xx_HAL_Driver/Src/stm32g0xx_hal_pcd.c ****         if ((hpcd->USB_Address > 0U) && (ep->xfer_len == 0U))
1716:Drivers/STM32G0xx_HAL_Driver/Src/stm32g0xx_hal_pcd.c ****         {
1717:Drivers/STM32G0xx_HAL_Driver/Src/stm32g0xx_hal_pcd.c ****           hpcd->Instance->DADDR = ((uint16_t)hpcd->USB_Address | USB_DADDR_EF);
1718:Drivers/STM32G0xx_HAL_Driver/Src/stm32g0xx_hal_pcd.c ****           hpcd->USB_Address = 0U;
1719:Drivers/STM32G0xx_HAL_Driver/Src/stm32g0xx_hal_pcd.c ****         }
1720:Drivers/STM32G0xx_HAL_Driver/Src/stm32g0xx_hal_pcd.c ****       }
1721:Drivers/STM32G0xx_HAL_Driver/Src/stm32g0xx_hal_pcd.c ****       else
1722:Drivers/STM32G0xx_HAL_Driver/Src/stm32g0xx_hal_pcd.c ****       {
1723:Drivers/STM32G0xx_HAL_Driver/Src/stm32g0xx_hal_pcd.c ****         /* DIR = 1 */
1724:Drivers/STM32G0xx_HAL_Driver/Src/stm32g0xx_hal_pcd.c **** 
1725:Drivers/STM32G0xx_HAL_Driver/Src/stm32g0xx_hal_pcd.c ****         /* DIR = 1 & CTR_RX => SETUP or OUT int */
1726:Drivers/STM32G0xx_HAL_Driver/Src/stm32g0xx_hal_pcd.c ****         /* DIR = 1 & (CTR_TX | CTR_RX) => 2 int pending */
1727:Drivers/STM32G0xx_HAL_Driver/Src/stm32g0xx_hal_pcd.c ****         ep = &hpcd->OUT_ep[0];
1728:Drivers/STM32G0xx_HAL_Driver/Src/stm32g0xx_hal_pcd.c ****         wEPVal = (uint16_t)PCD_GET_ENDPOINT(hpcd->Instance, PCD_ENDP0);
1729:Drivers/STM32G0xx_HAL_Driver/Src/stm32g0xx_hal_pcd.c **** 
1730:Drivers/STM32G0xx_HAL_Driver/Src/stm32g0xx_hal_pcd.c ****         if ((wEPVal & USB_EP_SETUP) != 0U)
1731:Drivers/STM32G0xx_HAL_Driver/Src/stm32g0xx_hal_pcd.c ****         {
1732:Drivers/STM32G0xx_HAL_Driver/Src/stm32g0xx_hal_pcd.c ****           /* Get SETUP Packet */
1733:Drivers/STM32G0xx_HAL_Driver/Src/stm32g0xx_hal_pcd.c ****           ep->xfer_count = PCD_GET_EP_RX_CNT(hpcd->Instance, ep->num);
1734:Drivers/STM32G0xx_HAL_Driver/Src/stm32g0xx_hal_pcd.c **** 
1735:Drivers/STM32G0xx_HAL_Driver/Src/stm32g0xx_hal_pcd.c ****           USB_ReadPMA(hpcd->Instance, (uint8_t *)hpcd->Setup,
1736:Drivers/STM32G0xx_HAL_Driver/Src/stm32g0xx_hal_pcd.c ****                       ep->pmaadress, (uint16_t)ep->xfer_count);
1737:Drivers/STM32G0xx_HAL_Driver/Src/stm32g0xx_hal_pcd.c **** 
1738:Drivers/STM32G0xx_HAL_Driver/Src/stm32g0xx_hal_pcd.c ****           /* SETUP bit kept frozen while CTR_RX = 1 */
1739:Drivers/STM32G0xx_HAL_Driver/Src/stm32g0xx_hal_pcd.c ****           PCD_CLEAR_RX_EP_CTR(hpcd->Instance, PCD_ENDP0);
1740:Drivers/STM32G0xx_HAL_Driver/Src/stm32g0xx_hal_pcd.c **** 
1741:Drivers/STM32G0xx_HAL_Driver/Src/stm32g0xx_hal_pcd.c ****           /* Process SETUP Packet*/
1742:Drivers/STM32G0xx_HAL_Driver/Src/stm32g0xx_hal_pcd.c **** #if (USE_HAL_PCD_REGISTER_CALLBACKS == 1U)
1743:Drivers/STM32G0xx_HAL_Driver/Src/stm32g0xx_hal_pcd.c ****           hpcd->SetupStageCallback(hpcd);
ARM GAS  /tmp/ccFvkBSI.s 			page 46


1744:Drivers/STM32G0xx_HAL_Driver/Src/stm32g0xx_hal_pcd.c **** #else
1745:Drivers/STM32G0xx_HAL_Driver/Src/stm32g0xx_hal_pcd.c ****           HAL_PCD_SetupStageCallback(hpcd);
1746:Drivers/STM32G0xx_HAL_Driver/Src/stm32g0xx_hal_pcd.c **** #endif /* USE_HAL_PCD_REGISTER_CALLBACKS */
1747:Drivers/STM32G0xx_HAL_Driver/Src/stm32g0xx_hal_pcd.c ****         }
1748:Drivers/STM32G0xx_HAL_Driver/Src/stm32g0xx_hal_pcd.c ****         else if ((wEPVal & USB_EP_VTRX) != 0U)
1749:Drivers/STM32G0xx_HAL_Driver/Src/stm32g0xx_hal_pcd.c ****         {
1750:Drivers/STM32G0xx_HAL_Driver/Src/stm32g0xx_hal_pcd.c ****           PCD_CLEAR_RX_EP_CTR(hpcd->Instance, PCD_ENDP0);
1751:Drivers/STM32G0xx_HAL_Driver/Src/stm32g0xx_hal_pcd.c **** 
1752:Drivers/STM32G0xx_HAL_Driver/Src/stm32g0xx_hal_pcd.c ****           /* Get Control Data OUT Packet */
1753:Drivers/STM32G0xx_HAL_Driver/Src/stm32g0xx_hal_pcd.c ****           ep->xfer_count = PCD_GET_EP_RX_CNT(hpcd->Instance, ep->num);
1754:Drivers/STM32G0xx_HAL_Driver/Src/stm32g0xx_hal_pcd.c **** 
1755:Drivers/STM32G0xx_HAL_Driver/Src/stm32g0xx_hal_pcd.c ****           if ((ep->xfer_count != 0U) && (ep->xfer_buff != 0U))
1756:Drivers/STM32G0xx_HAL_Driver/Src/stm32g0xx_hal_pcd.c ****           {
1757:Drivers/STM32G0xx_HAL_Driver/Src/stm32g0xx_hal_pcd.c ****             USB_ReadPMA(hpcd->Instance, ep->xfer_buff,
1758:Drivers/STM32G0xx_HAL_Driver/Src/stm32g0xx_hal_pcd.c ****                         ep->pmaadress, (uint16_t)ep->xfer_count);
1759:Drivers/STM32G0xx_HAL_Driver/Src/stm32g0xx_hal_pcd.c **** 
1760:Drivers/STM32G0xx_HAL_Driver/Src/stm32g0xx_hal_pcd.c ****             ep->xfer_buff += ep->xfer_count;
1761:Drivers/STM32G0xx_HAL_Driver/Src/stm32g0xx_hal_pcd.c **** 
1762:Drivers/STM32G0xx_HAL_Driver/Src/stm32g0xx_hal_pcd.c ****             /* Process Control Data OUT Packet */
1763:Drivers/STM32G0xx_HAL_Driver/Src/stm32g0xx_hal_pcd.c **** #if (USE_HAL_PCD_REGISTER_CALLBACKS == 1U)
1764:Drivers/STM32G0xx_HAL_Driver/Src/stm32g0xx_hal_pcd.c ****             hpcd->DataOutStageCallback(hpcd, 0U);
1765:Drivers/STM32G0xx_HAL_Driver/Src/stm32g0xx_hal_pcd.c **** #else
1766:Drivers/STM32G0xx_HAL_Driver/Src/stm32g0xx_hal_pcd.c ****             HAL_PCD_DataOutStageCallback(hpcd, 0U);
1767:Drivers/STM32G0xx_HAL_Driver/Src/stm32g0xx_hal_pcd.c **** #endif /* USE_HAL_PCD_REGISTER_CALLBACKS */
1768:Drivers/STM32G0xx_HAL_Driver/Src/stm32g0xx_hal_pcd.c ****           }
1769:Drivers/STM32G0xx_HAL_Driver/Src/stm32g0xx_hal_pcd.c **** 
1770:Drivers/STM32G0xx_HAL_Driver/Src/stm32g0xx_hal_pcd.c ****           if ((PCD_GET_ENDPOINT(hpcd->Instance, PCD_ENDP0) & USB_EP_SETUP) == 0U)
1771:Drivers/STM32G0xx_HAL_Driver/Src/stm32g0xx_hal_pcd.c ****           {
1772:Drivers/STM32G0xx_HAL_Driver/Src/stm32g0xx_hal_pcd.c ****             PCD_SET_EP_RX_CNT(hpcd->Instance, PCD_ENDP0, ep->maxpacket);
1773:Drivers/STM32G0xx_HAL_Driver/Src/stm32g0xx_hal_pcd.c ****             PCD_SET_EP_RX_STATUS(hpcd->Instance, PCD_ENDP0, USB_EP_RX_VALID);
1774:Drivers/STM32G0xx_HAL_Driver/Src/stm32g0xx_hal_pcd.c ****           }
1775:Drivers/STM32G0xx_HAL_Driver/Src/stm32g0xx_hal_pcd.c ****         }
1776:Drivers/STM32G0xx_HAL_Driver/Src/stm32g0xx_hal_pcd.c ****       }
1777:Drivers/STM32G0xx_HAL_Driver/Src/stm32g0xx_hal_pcd.c ****     }
1778:Drivers/STM32G0xx_HAL_Driver/Src/stm32g0xx_hal_pcd.c ****     else
1779:Drivers/STM32G0xx_HAL_Driver/Src/stm32g0xx_hal_pcd.c ****     {
1780:Drivers/STM32G0xx_HAL_Driver/Src/stm32g0xx_hal_pcd.c ****       /* Decode and service non control endpoints interrupt */
1781:Drivers/STM32G0xx_HAL_Driver/Src/stm32g0xx_hal_pcd.c ****       /* process related endpoint register */
1782:Drivers/STM32G0xx_HAL_Driver/Src/stm32g0xx_hal_pcd.c ****       wEPVal = (uint16_t)PCD_GET_ENDPOINT(hpcd->Instance, epindex);
1783:Drivers/STM32G0xx_HAL_Driver/Src/stm32g0xx_hal_pcd.c **** 
1784:Drivers/STM32G0xx_HAL_Driver/Src/stm32g0xx_hal_pcd.c ****       if ((wEPVal & USB_EP_VTRX) != 0U)
1785:Drivers/STM32G0xx_HAL_Driver/Src/stm32g0xx_hal_pcd.c ****       {
1786:Drivers/STM32G0xx_HAL_Driver/Src/stm32g0xx_hal_pcd.c ****         /* clear int flag */
1787:Drivers/STM32G0xx_HAL_Driver/Src/stm32g0xx_hal_pcd.c ****         PCD_CLEAR_RX_EP_CTR(hpcd->Instance, epindex);
1788:Drivers/STM32G0xx_HAL_Driver/Src/stm32g0xx_hal_pcd.c ****         ep = &hpcd->OUT_ep[epindex];
1789:Drivers/STM32G0xx_HAL_Driver/Src/stm32g0xx_hal_pcd.c **** 
1790:Drivers/STM32G0xx_HAL_Driver/Src/stm32g0xx_hal_pcd.c ****         /* OUT Single Buffering */
1791:Drivers/STM32G0xx_HAL_Driver/Src/stm32g0xx_hal_pcd.c ****         if (ep->doublebuffer == 0U)
1792:Drivers/STM32G0xx_HAL_Driver/Src/stm32g0xx_hal_pcd.c ****         {
1793:Drivers/STM32G0xx_HAL_Driver/Src/stm32g0xx_hal_pcd.c ****           count = (uint16_t)PCD_GET_EP_RX_CNT(hpcd->Instance, ep->num);
1794:Drivers/STM32G0xx_HAL_Driver/Src/stm32g0xx_hal_pcd.c **** 
1795:Drivers/STM32G0xx_HAL_Driver/Src/stm32g0xx_hal_pcd.c ****           if (count != 0U)
1796:Drivers/STM32G0xx_HAL_Driver/Src/stm32g0xx_hal_pcd.c ****           {
1797:Drivers/STM32G0xx_HAL_Driver/Src/stm32g0xx_hal_pcd.c ****             USB_ReadPMA(hpcd->Instance, ep->xfer_buff, ep->pmaadress, count);
1798:Drivers/STM32G0xx_HAL_Driver/Src/stm32g0xx_hal_pcd.c ****           }
1799:Drivers/STM32G0xx_HAL_Driver/Src/stm32g0xx_hal_pcd.c ****         }
1800:Drivers/STM32G0xx_HAL_Driver/Src/stm32g0xx_hal_pcd.c ****         else
ARM GAS  /tmp/ccFvkBSI.s 			page 47


1801:Drivers/STM32G0xx_HAL_Driver/Src/stm32g0xx_hal_pcd.c ****         {
1802:Drivers/STM32G0xx_HAL_Driver/Src/stm32g0xx_hal_pcd.c ****           /* manage double buffer bulk out */
1803:Drivers/STM32G0xx_HAL_Driver/Src/stm32g0xx_hal_pcd.c ****           if (ep->type == EP_TYPE_BULK)
1804:Drivers/STM32G0xx_HAL_Driver/Src/stm32g0xx_hal_pcd.c ****           {
1805:Drivers/STM32G0xx_HAL_Driver/Src/stm32g0xx_hal_pcd.c ****             count = HAL_PCD_EP_DB_Receive(hpcd, ep, wEPVal);
1806:Drivers/STM32G0xx_HAL_Driver/Src/stm32g0xx_hal_pcd.c ****           }
1807:Drivers/STM32G0xx_HAL_Driver/Src/stm32g0xx_hal_pcd.c ****           else /* manage double buffer iso out */
1808:Drivers/STM32G0xx_HAL_Driver/Src/stm32g0xx_hal_pcd.c ****           {
1809:Drivers/STM32G0xx_HAL_Driver/Src/stm32g0xx_hal_pcd.c ****             /* free EP OUT Buffer */
1810:Drivers/STM32G0xx_HAL_Driver/Src/stm32g0xx_hal_pcd.c ****             PCD_FreeUserBuffer(hpcd->Instance, ep->num, 0U);
1811:Drivers/STM32G0xx_HAL_Driver/Src/stm32g0xx_hal_pcd.c **** 
1812:Drivers/STM32G0xx_HAL_Driver/Src/stm32g0xx_hal_pcd.c ****             if ((PCD_GET_ENDPOINT(hpcd->Instance, ep->num) & USB_EP_DTOG_RX) != 0U)
1813:Drivers/STM32G0xx_HAL_Driver/Src/stm32g0xx_hal_pcd.c ****             {
1814:Drivers/STM32G0xx_HAL_Driver/Src/stm32g0xx_hal_pcd.c ****               /* read from endpoint BUF0Addr buffer */
1815:Drivers/STM32G0xx_HAL_Driver/Src/stm32g0xx_hal_pcd.c ****               count = (uint16_t)PCD_GET_EP_DBUF0_CNT(hpcd->Instance, ep->num);
1816:Drivers/STM32G0xx_HAL_Driver/Src/stm32g0xx_hal_pcd.c **** 
1817:Drivers/STM32G0xx_HAL_Driver/Src/stm32g0xx_hal_pcd.c ****               if (count != 0U)
1818:Drivers/STM32G0xx_HAL_Driver/Src/stm32g0xx_hal_pcd.c ****               {
1819:Drivers/STM32G0xx_HAL_Driver/Src/stm32g0xx_hal_pcd.c ****                 USB_ReadPMA(hpcd->Instance, ep->xfer_buff, ep->pmaaddr0, count);
1820:Drivers/STM32G0xx_HAL_Driver/Src/stm32g0xx_hal_pcd.c ****               }
1821:Drivers/STM32G0xx_HAL_Driver/Src/stm32g0xx_hal_pcd.c ****             }
1822:Drivers/STM32G0xx_HAL_Driver/Src/stm32g0xx_hal_pcd.c ****             else
1823:Drivers/STM32G0xx_HAL_Driver/Src/stm32g0xx_hal_pcd.c ****             {
1824:Drivers/STM32G0xx_HAL_Driver/Src/stm32g0xx_hal_pcd.c ****               /* read from endpoint BUF1Addr buffer */
1825:Drivers/STM32G0xx_HAL_Driver/Src/stm32g0xx_hal_pcd.c ****               count = (uint16_t)PCD_GET_EP_DBUF1_CNT(hpcd->Instance, ep->num);
1826:Drivers/STM32G0xx_HAL_Driver/Src/stm32g0xx_hal_pcd.c **** 
1827:Drivers/STM32G0xx_HAL_Driver/Src/stm32g0xx_hal_pcd.c ****               if (count != 0U)
1828:Drivers/STM32G0xx_HAL_Driver/Src/stm32g0xx_hal_pcd.c ****               {
1829:Drivers/STM32G0xx_HAL_Driver/Src/stm32g0xx_hal_pcd.c ****                 USB_ReadPMA(hpcd->Instance, ep->xfer_buff, ep->pmaaddr1, count);
1830:Drivers/STM32G0xx_HAL_Driver/Src/stm32g0xx_hal_pcd.c ****               }
1831:Drivers/STM32G0xx_HAL_Driver/Src/stm32g0xx_hal_pcd.c ****             }
1832:Drivers/STM32G0xx_HAL_Driver/Src/stm32g0xx_hal_pcd.c ****           }
1833:Drivers/STM32G0xx_HAL_Driver/Src/stm32g0xx_hal_pcd.c ****         }
1834:Drivers/STM32G0xx_HAL_Driver/Src/stm32g0xx_hal_pcd.c ****         /* multi-packet on the NON control OUT endpoint */
1835:Drivers/STM32G0xx_HAL_Driver/Src/stm32g0xx_hal_pcd.c ****         ep->xfer_count += count;
1836:Drivers/STM32G0xx_HAL_Driver/Src/stm32g0xx_hal_pcd.c ****         ep->xfer_buff += count;
1837:Drivers/STM32G0xx_HAL_Driver/Src/stm32g0xx_hal_pcd.c **** 
1838:Drivers/STM32G0xx_HAL_Driver/Src/stm32g0xx_hal_pcd.c ****         if ((ep->xfer_len == 0U) || (count < ep->maxpacket))
1839:Drivers/STM32G0xx_HAL_Driver/Src/stm32g0xx_hal_pcd.c ****         {
1840:Drivers/STM32G0xx_HAL_Driver/Src/stm32g0xx_hal_pcd.c ****           /* RX COMPLETE */
1841:Drivers/STM32G0xx_HAL_Driver/Src/stm32g0xx_hal_pcd.c **** #if (USE_HAL_PCD_REGISTER_CALLBACKS == 1U)
1842:Drivers/STM32G0xx_HAL_Driver/Src/stm32g0xx_hal_pcd.c ****           hpcd->DataOutStageCallback(hpcd, ep->num);
1843:Drivers/STM32G0xx_HAL_Driver/Src/stm32g0xx_hal_pcd.c **** #else
1844:Drivers/STM32G0xx_HAL_Driver/Src/stm32g0xx_hal_pcd.c ****           HAL_PCD_DataOutStageCallback(hpcd, ep->num);
1845:Drivers/STM32G0xx_HAL_Driver/Src/stm32g0xx_hal_pcd.c **** #endif /* USE_HAL_PCD_REGISTER_CALLBACKS */
1846:Drivers/STM32G0xx_HAL_Driver/Src/stm32g0xx_hal_pcd.c ****         }
1847:Drivers/STM32G0xx_HAL_Driver/Src/stm32g0xx_hal_pcd.c ****         else
1848:Drivers/STM32G0xx_HAL_Driver/Src/stm32g0xx_hal_pcd.c ****         {
1849:Drivers/STM32G0xx_HAL_Driver/Src/stm32g0xx_hal_pcd.c ****           (void) USB_EPStartXfer(hpcd->Instance, ep);
1850:Drivers/STM32G0xx_HAL_Driver/Src/stm32g0xx_hal_pcd.c ****         }
1851:Drivers/STM32G0xx_HAL_Driver/Src/stm32g0xx_hal_pcd.c **** 
1852:Drivers/STM32G0xx_HAL_Driver/Src/stm32g0xx_hal_pcd.c ****       }
1853:Drivers/STM32G0xx_HAL_Driver/Src/stm32g0xx_hal_pcd.c **** 
1854:Drivers/STM32G0xx_HAL_Driver/Src/stm32g0xx_hal_pcd.c ****       if ((wEPVal & USB_EP_VTTX) != 0U)
1855:Drivers/STM32G0xx_HAL_Driver/Src/stm32g0xx_hal_pcd.c ****       {
1856:Drivers/STM32G0xx_HAL_Driver/Src/stm32g0xx_hal_pcd.c ****         ep = &hpcd->IN_ep[epindex];
1857:Drivers/STM32G0xx_HAL_Driver/Src/stm32g0xx_hal_pcd.c **** 
ARM GAS  /tmp/ccFvkBSI.s 			page 48


1858:Drivers/STM32G0xx_HAL_Driver/Src/stm32g0xx_hal_pcd.c ****         /* clear int flag */
1859:Drivers/STM32G0xx_HAL_Driver/Src/stm32g0xx_hal_pcd.c ****         PCD_CLEAR_TX_EP_CTR(hpcd->Instance, epindex);
1860:Drivers/STM32G0xx_HAL_Driver/Src/stm32g0xx_hal_pcd.c **** 
1861:Drivers/STM32G0xx_HAL_Driver/Src/stm32g0xx_hal_pcd.c ****         /* Manage all non bulk/isoc transaction Bulk Single Buffer Transaction */
1862:Drivers/STM32G0xx_HAL_Driver/Src/stm32g0xx_hal_pcd.c ****         if ((ep->type == EP_TYPE_INTR) || (ep->type == EP_TYPE_CTRL) ||
1863:Drivers/STM32G0xx_HAL_Driver/Src/stm32g0xx_hal_pcd.c ****            ((ep->type == EP_TYPE_BULK) && ((wEPVal & USB_EP_KIND) == 0U)))
1864:Drivers/STM32G0xx_HAL_Driver/Src/stm32g0xx_hal_pcd.c ****         {
1865:Drivers/STM32G0xx_HAL_Driver/Src/stm32g0xx_hal_pcd.c ****           /* multi-packet on the NON control IN endpoint */
1866:Drivers/STM32G0xx_HAL_Driver/Src/stm32g0xx_hal_pcd.c ****           TxByteNbre = (uint16_t)PCD_GET_EP_TX_CNT(hpcd->Instance, ep->num);
1867:Drivers/STM32G0xx_HAL_Driver/Src/stm32g0xx_hal_pcd.c **** 
1868:Drivers/STM32G0xx_HAL_Driver/Src/stm32g0xx_hal_pcd.c ****           if (ep->xfer_len > TxByteNbre)
1869:Drivers/STM32G0xx_HAL_Driver/Src/stm32g0xx_hal_pcd.c ****           {
1870:Drivers/STM32G0xx_HAL_Driver/Src/stm32g0xx_hal_pcd.c ****             ep->xfer_len -= TxByteNbre;
1871:Drivers/STM32G0xx_HAL_Driver/Src/stm32g0xx_hal_pcd.c ****           }
1872:Drivers/STM32G0xx_HAL_Driver/Src/stm32g0xx_hal_pcd.c ****           else
1873:Drivers/STM32G0xx_HAL_Driver/Src/stm32g0xx_hal_pcd.c ****           {
1874:Drivers/STM32G0xx_HAL_Driver/Src/stm32g0xx_hal_pcd.c ****             ep->xfer_len = 0U;
1875:Drivers/STM32G0xx_HAL_Driver/Src/stm32g0xx_hal_pcd.c ****           }
1876:Drivers/STM32G0xx_HAL_Driver/Src/stm32g0xx_hal_pcd.c **** 
1877:Drivers/STM32G0xx_HAL_Driver/Src/stm32g0xx_hal_pcd.c ****           /* Zero Length Packet? */
1878:Drivers/STM32G0xx_HAL_Driver/Src/stm32g0xx_hal_pcd.c ****           if (ep->xfer_len == 0U)
1879:Drivers/STM32G0xx_HAL_Driver/Src/stm32g0xx_hal_pcd.c ****           {
1880:Drivers/STM32G0xx_HAL_Driver/Src/stm32g0xx_hal_pcd.c ****             /* TX COMPLETE */
1881:Drivers/STM32G0xx_HAL_Driver/Src/stm32g0xx_hal_pcd.c **** #if (USE_HAL_PCD_REGISTER_CALLBACKS == 1U)
1882:Drivers/STM32G0xx_HAL_Driver/Src/stm32g0xx_hal_pcd.c ****             hpcd->DataInStageCallback(hpcd, ep->num);
1883:Drivers/STM32G0xx_HAL_Driver/Src/stm32g0xx_hal_pcd.c **** #else
1884:Drivers/STM32G0xx_HAL_Driver/Src/stm32g0xx_hal_pcd.c ****             HAL_PCD_DataInStageCallback(hpcd, ep->num);
1885:Drivers/STM32G0xx_HAL_Driver/Src/stm32g0xx_hal_pcd.c **** #endif /* USE_HAL_PCD_REGISTER_CALLBACKS */
1886:Drivers/STM32G0xx_HAL_Driver/Src/stm32g0xx_hal_pcd.c ****           }
1887:Drivers/STM32G0xx_HAL_Driver/Src/stm32g0xx_hal_pcd.c ****           else
1888:Drivers/STM32G0xx_HAL_Driver/Src/stm32g0xx_hal_pcd.c ****           {
1889:Drivers/STM32G0xx_HAL_Driver/Src/stm32g0xx_hal_pcd.c ****             /* Transfer is not yet Done */
1890:Drivers/STM32G0xx_HAL_Driver/Src/stm32g0xx_hal_pcd.c ****             ep->xfer_buff += TxByteNbre;
1891:Drivers/STM32G0xx_HAL_Driver/Src/stm32g0xx_hal_pcd.c ****             ep->xfer_count += TxByteNbre;
1892:Drivers/STM32G0xx_HAL_Driver/Src/stm32g0xx_hal_pcd.c ****             (void)USB_EPStartXfer(hpcd->Instance, ep);
1893:Drivers/STM32G0xx_HAL_Driver/Src/stm32g0xx_hal_pcd.c ****           }
1894:Drivers/STM32G0xx_HAL_Driver/Src/stm32g0xx_hal_pcd.c ****         }
1895:Drivers/STM32G0xx_HAL_Driver/Src/stm32g0xx_hal_pcd.c ****         /* Double Buffer Iso/bulk IN (bulk transfer Len > Ep_Mps) */
1896:Drivers/STM32G0xx_HAL_Driver/Src/stm32g0xx_hal_pcd.c ****         else
1897:Drivers/STM32G0xx_HAL_Driver/Src/stm32g0xx_hal_pcd.c ****         {
1898:Drivers/STM32G0xx_HAL_Driver/Src/stm32g0xx_hal_pcd.c ****           (void)HAL_PCD_EP_DB_Transmit(hpcd, ep, wEPVal);
1899:Drivers/STM32G0xx_HAL_Driver/Src/stm32g0xx_hal_pcd.c ****         }
1900:Drivers/STM32G0xx_HAL_Driver/Src/stm32g0xx_hal_pcd.c ****       }
1901:Drivers/STM32G0xx_HAL_Driver/Src/stm32g0xx_hal_pcd.c ****     }
1902:Drivers/STM32G0xx_HAL_Driver/Src/stm32g0xx_hal_pcd.c ****   }
1903:Drivers/STM32G0xx_HAL_Driver/Src/stm32g0xx_hal_pcd.c **** 
1904:Drivers/STM32G0xx_HAL_Driver/Src/stm32g0xx_hal_pcd.c ****   return HAL_OK;
1905:Drivers/STM32G0xx_HAL_Driver/Src/stm32g0xx_hal_pcd.c **** }
1906:Drivers/STM32G0xx_HAL_Driver/Src/stm32g0xx_hal_pcd.c **** 
1907:Drivers/STM32G0xx_HAL_Driver/Src/stm32g0xx_hal_pcd.c **** 
1908:Drivers/STM32G0xx_HAL_Driver/Src/stm32g0xx_hal_pcd.c **** /**
1909:Drivers/STM32G0xx_HAL_Driver/Src/stm32g0xx_hal_pcd.c ****   * @brief  Manage double buffer bulk out transaction from ISR
1910:Drivers/STM32G0xx_HAL_Driver/Src/stm32g0xx_hal_pcd.c ****   * @param  hpcd PCD handle
1911:Drivers/STM32G0xx_HAL_Driver/Src/stm32g0xx_hal_pcd.c ****   * @param  ep current endpoint handle
1912:Drivers/STM32G0xx_HAL_Driver/Src/stm32g0xx_hal_pcd.c ****   * @param  wEPVal Last snapshot of EPRx register value taken in ISR
1913:Drivers/STM32G0xx_HAL_Driver/Src/stm32g0xx_hal_pcd.c ****   * @retval HAL status
1914:Drivers/STM32G0xx_HAL_Driver/Src/stm32g0xx_hal_pcd.c ****   */
ARM GAS  /tmp/ccFvkBSI.s 			page 49


1915:Drivers/STM32G0xx_HAL_Driver/Src/stm32g0xx_hal_pcd.c **** static uint16_t HAL_PCD_EP_DB_Receive(PCD_HandleTypeDef *hpcd,
1916:Drivers/STM32G0xx_HAL_Driver/Src/stm32g0xx_hal_pcd.c ****                                       PCD_EPTypeDef *ep, uint16_t wEPVal)
1917:Drivers/STM32G0xx_HAL_Driver/Src/stm32g0xx_hal_pcd.c **** {
 211              		.loc 1 1917 1 is_stmt 1 view -0
 212              		.cfi_startproc
 213              		@ args = 0, pretend = 0, frame = 0
 214              		@ frame_needed = 0, uses_anonymous_args = 0
 215              		.loc 1 1917 1 is_stmt 0 view .LVU46
 216 0000 F8B5     		push	{r3, r4, r5, r6, r7, lr}
 217              	.LCFI3:
 218              		.cfi_def_cfa_offset 24
 219              		.cfi_offset 3, -24
 220              		.cfi_offset 4, -20
 221              		.cfi_offset 5, -16
 222              		.cfi_offset 6, -12
 223              		.cfi_offset 7, -8
 224              		.cfi_offset 14, -4
 225 0002 0700     		movs	r7, r0
 226 0004 0C00     		movs	r4, r1
 227 0006 1500     		movs	r5, r2
1918:Drivers/STM32G0xx_HAL_Driver/Src/stm32g0xx_hal_pcd.c ****   uint16_t count;
 228              		.loc 1 1918 3 is_stmt 1 view .LVU47
1919:Drivers/STM32G0xx_HAL_Driver/Src/stm32g0xx_hal_pcd.c **** 
1920:Drivers/STM32G0xx_HAL_Driver/Src/stm32g0xx_hal_pcd.c ****   /* Manage Buffer0 OUT */
1921:Drivers/STM32G0xx_HAL_Driver/Src/stm32g0xx_hal_pcd.c ****   if ((wEPVal & USB_EP_DTOG_RX) != 0U)
 229              		.loc 1 1921 3 view .LVU48
 230              		.loc 1 1921 6 is_stmt 0 view .LVU49
 231 0008 5304     		lsls	r3, r2, #17
 232 000a 33D5     		bpl	.L17
1922:Drivers/STM32G0xx_HAL_Driver/Src/stm32g0xx_hal_pcd.c ****   {
1923:Drivers/STM32G0xx_HAL_Driver/Src/stm32g0xx_hal_pcd.c ****     /* Get count of received Data on buffer0 */
1924:Drivers/STM32G0xx_HAL_Driver/Src/stm32g0xx_hal_pcd.c ****     count = (uint16_t)PCD_GET_EP_DBUF0_CNT(hpcd->Instance, ep->num);
 233              		.loc 1 1924 5 is_stmt 1 view .LVU50
 234              		.loc 1 1924 62 is_stmt 0 view .LVU51
 235 000c 0978     		ldrb	r1, [r1]
 236              	.LVL7:
 237              		.loc 1 1924 23 view .LVU52
 238 000e 0068     		ldr	r0, [r0]
 239              	.LVL8:
 240              		.loc 1 1924 23 view .LVU53
 241 0010 FFF7FEFF 		bl	PCD_GET_EP_DBUF0_CNT
 242              	.LVL9:
 243              		.loc 1 1924 23 view .LVU54
 244 0014 0300     		movs	r3, r0
 245 0016 0600     		movs	r6, r0
 246              	.LVL10:
1925:Drivers/STM32G0xx_HAL_Driver/Src/stm32g0xx_hal_pcd.c **** 
1926:Drivers/STM32G0xx_HAL_Driver/Src/stm32g0xx_hal_pcd.c ****     if (ep->xfer_len >= count)
 247              		.loc 1 1926 5 is_stmt 1 view .LVU55
 248              		.loc 1 1926 11 is_stmt 0 view .LVU56
 249 0018 A269     		ldr	r2, [r4, #24]
 250              		.loc 1 1926 8 view .LVU57
 251 001a 8242     		cmp	r2, r0
 252 001c 21D3     		bcc	.L18
1927:Drivers/STM32G0xx_HAL_Driver/Src/stm32g0xx_hal_pcd.c ****     {
1928:Drivers/STM32G0xx_HAL_Driver/Src/stm32g0xx_hal_pcd.c ****       ep->xfer_len -= count;
 253              		.loc 1 1928 7 is_stmt 1 view .LVU58
ARM GAS  /tmp/ccFvkBSI.s 			page 50


 254              		.loc 1 1928 20 is_stmt 0 view .LVU59
 255 001e 121A     		subs	r2, r2, r0
 256 0020 A261     		str	r2, [r4, #24]
 257              	.L19:
1929:Drivers/STM32G0xx_HAL_Driver/Src/stm32g0xx_hal_pcd.c ****     }
1930:Drivers/STM32G0xx_HAL_Driver/Src/stm32g0xx_hal_pcd.c ****     else
1931:Drivers/STM32G0xx_HAL_Driver/Src/stm32g0xx_hal_pcd.c ****     {
1932:Drivers/STM32G0xx_HAL_Driver/Src/stm32g0xx_hal_pcd.c ****       ep->xfer_len = 0U;
1933:Drivers/STM32G0xx_HAL_Driver/Src/stm32g0xx_hal_pcd.c ****     }
1934:Drivers/STM32G0xx_HAL_Driver/Src/stm32g0xx_hal_pcd.c **** 
1935:Drivers/STM32G0xx_HAL_Driver/Src/stm32g0xx_hal_pcd.c ****     if (ep->xfer_len == 0U)
 258              		.loc 1 1935 5 is_stmt 1 view .LVU60
 259              		.loc 1 1935 11 is_stmt 0 view .LVU61
 260 0022 A269     		ldr	r2, [r4, #24]
 261              		.loc 1 1935 8 view .LVU62
 262 0024 002A     		cmp	r2, #0
 263 0026 0CD1     		bne	.L20
1936:Drivers/STM32G0xx_HAL_Driver/Src/stm32g0xx_hal_pcd.c ****     {
1937:Drivers/STM32G0xx_HAL_Driver/Src/stm32g0xx_hal_pcd.c ****       /* set NAK to OUT endpoint since double buffer is enabled */
1938:Drivers/STM32G0xx_HAL_Driver/Src/stm32g0xx_hal_pcd.c ****       PCD_SET_EP_RX_STATUS(hpcd->Instance, ep->num, USB_EP_RX_NAK);
 264              		.loc 1 1938 7 is_stmt 1 view .LVU63
 265              	.LBB2:
 266              		.loc 1 1938 7 view .LVU64
 267              		.loc 1 1938 7 view .LVU65
 268 0028 3A68     		ldr	r2, [r7]
 269 002a 2178     		ldrb	r1, [r4]
 270 002c 8900     		lsls	r1, r1, #2
 271 002e 5218     		adds	r2, r2, r1
 272 0030 1168     		ldr	r1, [r2]
 273 0032 2948     		ldr	r0, .L30
 274              	.LVL11:
 275              		.loc 1 1938 7 is_stmt 0 view .LVU66
 276 0034 0140     		ands	r1, r0
 277              	.LVL12:
 278              		.loc 1 1938 7 is_stmt 1 view .LVU67
 279              		.loc 1 1938 7 view .LVU68
 280              		.loc 1 1938 7 view .LVU69
 281 0036 8020     		movs	r0, #128
 282 0038 8001     		lsls	r0, r0, #6
 283 003a 4840     		eors	r0, r1
 284              	.LVL13:
 285              		.loc 1 1938 7 view .LVU70
 286 003c 2749     		ldr	r1, .L30+4
 287 003e 0143     		orrs	r1, r0
 288 0040 1160     		str	r1, [r2]
 289              	.LVL14:
 290              	.L20:
 291              		.loc 1 1938 7 is_stmt 0 view .LVU71
 292              	.LBE2:
 293              		.loc 1 1938 7 is_stmt 1 discriminator 7 view .LVU72
1939:Drivers/STM32G0xx_HAL_Driver/Src/stm32g0xx_hal_pcd.c ****     }
1940:Drivers/STM32G0xx_HAL_Driver/Src/stm32g0xx_hal_pcd.c **** 
1941:Drivers/STM32G0xx_HAL_Driver/Src/stm32g0xx_hal_pcd.c ****     /* Check if Buffer1 is in blocked sate which requires to toggle */
1942:Drivers/STM32G0xx_HAL_Driver/Src/stm32g0xx_hal_pcd.c ****     if ((wEPVal & USB_EP_DTOG_TX) != 0U)
 294              		.loc 1 1942 5 discriminator 7 view .LVU73
 295              		.loc 1 1942 8 is_stmt 0 discriminator 7 view .LVU74
 296 0042 6D06     		lsls	r5, r5, #25
ARM GAS  /tmp/ccFvkBSI.s 			page 51


 297 0044 09D5     		bpl	.L21
1943:Drivers/STM32G0xx_HAL_Driver/Src/stm32g0xx_hal_pcd.c ****     {
1944:Drivers/STM32G0xx_HAL_Driver/Src/stm32g0xx_hal_pcd.c ****       PCD_FreeUserBuffer(hpcd->Instance, ep->num, 0U);
 298              		.loc 1 1944 7 is_stmt 1 discriminator 1 view .LVU75
 299              		.loc 1 1944 7 discriminator 1 view .LVU76
 300              		.loc 1 1944 7 discriminator 1 view .LVU77
 301              	.LBB3:
 302              		.loc 1 1944 7 discriminator 1 view .LVU78
 303              		.loc 1 1944 7 discriminator 1 view .LVU79
 304 0046 3A68     		ldr	r2, [r7]
 305 0048 2178     		ldrb	r1, [r4]
 306 004a 8900     		lsls	r1, r1, #2
 307 004c 5218     		adds	r2, r2, r1
 308 004e 1068     		ldr	r0, [r2]
 309 0050 2349     		ldr	r1, .L30+8
 310 0052 0840     		ands	r0, r1
 311              	.LVL15:
 312              		.loc 1 1944 7 discriminator 1 view .LVU80
 313 0054 2349     		ldr	r1, .L30+12
 314 0056 0143     		orrs	r1, r0
 315 0058 1160     		str	r1, [r2]
 316              	.LBE3:
 317              		.loc 1 1944 7 discriminator 1 view .LVU81
 318              	.LVL16:
 319              	.L21:
 320              		.loc 1 1944 7 discriminator 6 view .LVU82
 321              		.loc 1 1944 7 discriminator 6 view .LVU83
1945:Drivers/STM32G0xx_HAL_Driver/Src/stm32g0xx_hal_pcd.c ****     }
1946:Drivers/STM32G0xx_HAL_Driver/Src/stm32g0xx_hal_pcd.c **** 
1947:Drivers/STM32G0xx_HAL_Driver/Src/stm32g0xx_hal_pcd.c ****     if (count != 0U)
 322              		.loc 1 1947 5 discriminator 6 view .LVU84
 323              		.loc 1 1947 8 is_stmt 0 discriminator 6 view .LVU85
 324 005a 002E     		cmp	r6, #0
 325 005c 04D1     		bne	.L29
 326              	.LVL17:
 327              	.L22:
1948:Drivers/STM32G0xx_HAL_Driver/Src/stm32g0xx_hal_pcd.c ****     {
1949:Drivers/STM32G0xx_HAL_Driver/Src/stm32g0xx_hal_pcd.c ****       USB_ReadPMA(hpcd->Instance, ep->xfer_buff, ep->pmaaddr0, count);
1950:Drivers/STM32G0xx_HAL_Driver/Src/stm32g0xx_hal_pcd.c ****     }
1951:Drivers/STM32G0xx_HAL_Driver/Src/stm32g0xx_hal_pcd.c ****   }
1952:Drivers/STM32G0xx_HAL_Driver/Src/stm32g0xx_hal_pcd.c ****   /* Manage Buffer 1 DTOG_RX=0 */
1953:Drivers/STM32G0xx_HAL_Driver/Src/stm32g0xx_hal_pcd.c ****   else
1954:Drivers/STM32G0xx_HAL_Driver/Src/stm32g0xx_hal_pcd.c ****   {
1955:Drivers/STM32G0xx_HAL_Driver/Src/stm32g0xx_hal_pcd.c ****     /* Get count of received data */
1956:Drivers/STM32G0xx_HAL_Driver/Src/stm32g0xx_hal_pcd.c ****     count = (uint16_t)PCD_GET_EP_DBUF1_CNT(hpcd->Instance, ep->num);
1957:Drivers/STM32G0xx_HAL_Driver/Src/stm32g0xx_hal_pcd.c **** 
1958:Drivers/STM32G0xx_HAL_Driver/Src/stm32g0xx_hal_pcd.c ****     if (ep->xfer_len >= count)
