ARM GAS  /tmp/ccVI1jbG.s 			page 1


   1              		.cpu cortex-m0plus
   2              		.arch armv6s-m
   3              		.fpu softvfp
   4              		.eabi_attribute 20, 1
   5              		.eabi_attribute 21, 1
   6              		.eabi_attribute 23, 3
   7              		.eabi_attribute 24, 1
   8              		.eabi_attribute 25, 1
   9              		.eabi_attribute 26, 1
  10              		.eabi_attribute 30, 1
  11              		.eabi_attribute 34, 0
  12              		.eabi_attribute 18, 4
  13              		.file	"usbd_conf.c"
  14              		.text
  15              	.Ltext0:
  16              		.cfi_sections	.debug_frame
  17              		.file 1 "USB_Device/Target/usbd_conf.c"
  18              		.section	.text.USBD_Get_USB_Status,"ax",%progbits
  19              		.align	1
  20              		.syntax unified
  21              		.code	16
  22              		.thumb_func
  24              	USBD_Get_USB_Status:
  25              	.LVL0:
  26              	.LFB402:
   1:USB_Device/Target/usbd_conf.c **** /* USER CODE BEGIN Header */
   2:USB_Device/Target/usbd_conf.c **** /**
   3:USB_Device/Target/usbd_conf.c ****   ******************************************************************************
   4:USB_Device/Target/usbd_conf.c ****   * @file           : Target/usbd_conf.c
   5:USB_Device/Target/usbd_conf.c ****   * @version        : v3.0_Cube
   6:USB_Device/Target/usbd_conf.c ****   * @brief          : This file implements the board support package for the USB device library
   7:USB_Device/Target/usbd_conf.c ****   ******************************************************************************
   8:USB_Device/Target/usbd_conf.c ****   * @attention
   9:USB_Device/Target/usbd_conf.c ****   *
  10:USB_Device/Target/usbd_conf.c ****   * <h2><center>&copy; Copyright (c) 2022 STMicroelectronics.
  11:USB_Device/Target/usbd_conf.c ****   * All rights reserved.</center></h2>
  12:USB_Device/Target/usbd_conf.c ****   *
  13:USB_Device/Target/usbd_conf.c ****   * This software component is licensed by ST under Ultimate Liberty license
  14:USB_Device/Target/usbd_conf.c ****   * SLA0044, the "License"; You may not use this file except in compliance with
  15:USB_Device/Target/usbd_conf.c ****   * the License. You may obtain a copy of the License at:
  16:USB_Device/Target/usbd_conf.c ****   *                             www.st.com/SLA0044
  17:USB_Device/Target/usbd_conf.c ****   *
  18:USB_Device/Target/usbd_conf.c ****   ******************************************************************************
  19:USB_Device/Target/usbd_conf.c ****   */
  20:USB_Device/Target/usbd_conf.c **** /* USER CODE END Header */
  21:USB_Device/Target/usbd_conf.c **** 
  22:USB_Device/Target/usbd_conf.c **** /* Includes ------------------------------------------------------------------*/
  23:USB_Device/Target/usbd_conf.c **** #include "stm32g0xx.h"
  24:USB_Device/Target/usbd_conf.c **** #include "stm32g0xx_hal.h"
  25:USB_Device/Target/usbd_conf.c **** #include "usbd_def.h"
  26:USB_Device/Target/usbd_conf.c **** #include "usbd_core.h"
  27:USB_Device/Target/usbd_conf.c **** 
  28:USB_Device/Target/usbd_conf.c **** #include "usbd_hid.h"
  29:USB_Device/Target/usbd_conf.c **** 
  30:USB_Device/Target/usbd_conf.c **** /* USER CODE BEGIN Includes */
  31:USB_Device/Target/usbd_conf.c **** 
  32:USB_Device/Target/usbd_conf.c **** /* USER CODE END Includes */
ARM GAS  /tmp/ccVI1jbG.s 			page 2


  33:USB_Device/Target/usbd_conf.c **** 
  34:USB_Device/Target/usbd_conf.c **** /* Private typedef -----------------------------------------------------------*/
  35:USB_Device/Target/usbd_conf.c **** /* Private define ------------------------------------------------------------*/
  36:USB_Device/Target/usbd_conf.c **** /* Private macro -------------------------------------------------------------*/
  37:USB_Device/Target/usbd_conf.c **** 
  38:USB_Device/Target/usbd_conf.c **** /* Private variables ---------------------------------------------------------*/
  39:USB_Device/Target/usbd_conf.c **** /* USER CODE BEGIN PV */
  40:USB_Device/Target/usbd_conf.c **** 
  41:USB_Device/Target/usbd_conf.c **** /* USER CODE END PV */
  42:USB_Device/Target/usbd_conf.c **** 
  43:USB_Device/Target/usbd_conf.c **** PCD_HandleTypeDef hpcd_USB_DRD_FS;
  44:USB_Device/Target/usbd_conf.c **** void Error_Handler(void);
  45:USB_Device/Target/usbd_conf.c **** 
  46:USB_Device/Target/usbd_conf.c **** /* USER CODE BEGIN 0 */
  47:USB_Device/Target/usbd_conf.c **** 
  48:USB_Device/Target/usbd_conf.c **** /* USER CODE END 0 */
  49:USB_Device/Target/usbd_conf.c **** 
  50:USB_Device/Target/usbd_conf.c **** /* Exported function prototypes ----------------------------------------------*/
  51:USB_Device/Target/usbd_conf.c **** 
  52:USB_Device/Target/usbd_conf.c **** /* USER CODE BEGIN PFP */
  53:USB_Device/Target/usbd_conf.c **** /* Private function prototypes -----------------------------------------------*/
  54:USB_Device/Target/usbd_conf.c **** 
  55:USB_Device/Target/usbd_conf.c **** /* USER CODE END PFP */
  56:USB_Device/Target/usbd_conf.c **** 
  57:USB_Device/Target/usbd_conf.c **** /* Private functions ---------------------------------------------------------*/
  58:USB_Device/Target/usbd_conf.c **** static USBD_StatusTypeDef USBD_Get_USB_Status(HAL_StatusTypeDef hal_status);
  59:USB_Device/Target/usbd_conf.c **** /* USER CODE BEGIN 1 */
  60:USB_Device/Target/usbd_conf.c **** static void SystemClockConfig_Resume(void);
  61:USB_Device/Target/usbd_conf.c **** 
  62:USB_Device/Target/usbd_conf.c **** /* USER CODE END 1 */
  63:USB_Device/Target/usbd_conf.c **** extern void SystemClock_Config(void);
  64:USB_Device/Target/usbd_conf.c **** 
  65:USB_Device/Target/usbd_conf.c **** /*******************************************************************************
  66:USB_Device/Target/usbd_conf.c ****                        LL Driver Callbacks (PCD -> USB Device Library)
  67:USB_Device/Target/usbd_conf.c **** *******************************************************************************/
  68:USB_Device/Target/usbd_conf.c **** /* MSP Init */
  69:USB_Device/Target/usbd_conf.c **** 
  70:USB_Device/Target/usbd_conf.c **** void HAL_PCD_MspInit(PCD_HandleTypeDef* pcdHandle)
  71:USB_Device/Target/usbd_conf.c **** {
  72:USB_Device/Target/usbd_conf.c ****   if(pcdHandle->Instance==USB_DRD_FS)
  73:USB_Device/Target/usbd_conf.c ****   {
  74:USB_Device/Target/usbd_conf.c ****   /* USER CODE BEGIN USB_DRD_FS_MspInit 0 */
  75:USB_Device/Target/usbd_conf.c **** 
  76:USB_Device/Target/usbd_conf.c ****   /* USER CODE END USB_DRD_FS_MspInit 0 */
  77:USB_Device/Target/usbd_conf.c ****     /* Peripheral clock enable */
  78:USB_Device/Target/usbd_conf.c ****     __HAL_RCC_USB_CLK_ENABLE();
  79:USB_Device/Target/usbd_conf.c **** 
  80:USB_Device/Target/usbd_conf.c ****     /* Enable VDDUSB */
  81:USB_Device/Target/usbd_conf.c ****     if(__HAL_RCC_PWR_IS_CLK_DISABLED())
  82:USB_Device/Target/usbd_conf.c ****     {
  83:USB_Device/Target/usbd_conf.c ****       __HAL_RCC_PWR_CLK_ENABLE();
  84:USB_Device/Target/usbd_conf.c ****       HAL_PWREx_EnableVddUSB();
  85:USB_Device/Target/usbd_conf.c ****       __HAL_RCC_PWR_CLK_DISABLE();
  86:USB_Device/Target/usbd_conf.c ****     }
  87:USB_Device/Target/usbd_conf.c ****     else
  88:USB_Device/Target/usbd_conf.c ****     {
  89:USB_Device/Target/usbd_conf.c ****       HAL_PWREx_EnableVddUSB();
ARM GAS  /tmp/ccVI1jbG.s 			page 3


  90:USB_Device/Target/usbd_conf.c ****     }
  91:USB_Device/Target/usbd_conf.c **** 
  92:USB_Device/Target/usbd_conf.c ****     /* Peripheral interrupt init */
  93:USB_Device/Target/usbd_conf.c ****     HAL_NVIC_SetPriority(USB_UCPD1_2_IRQn, 0, 0);
  94:USB_Device/Target/usbd_conf.c ****     HAL_NVIC_EnableIRQ(USB_UCPD1_2_IRQn);
  95:USB_Device/Target/usbd_conf.c ****   /* USER CODE BEGIN USB_DRD_FS_MspInit 1 */
  96:USB_Device/Target/usbd_conf.c **** 
  97:USB_Device/Target/usbd_conf.c ****   /* USER CODE END USB_DRD_FS_MspInit 1 */
  98:USB_Device/Target/usbd_conf.c ****   }
  99:USB_Device/Target/usbd_conf.c **** }
 100:USB_Device/Target/usbd_conf.c **** 
 101:USB_Device/Target/usbd_conf.c **** void HAL_PCD_MspDeInit(PCD_HandleTypeDef* pcdHandle)
 102:USB_Device/Target/usbd_conf.c **** {
 103:USB_Device/Target/usbd_conf.c ****   if(pcdHandle->Instance==USB_DRD_FS)
 104:USB_Device/Target/usbd_conf.c ****   {
 105:USB_Device/Target/usbd_conf.c ****   /* USER CODE BEGIN USB_DRD_FS_MspDeInit 0 */
 106:USB_Device/Target/usbd_conf.c **** 
 107:USB_Device/Target/usbd_conf.c ****   /* USER CODE END USB_DRD_FS_MspDeInit 0 */
 108:USB_Device/Target/usbd_conf.c ****     /* Disable Peripheral clock */
 109:USB_Device/Target/usbd_conf.c ****     __HAL_RCC_USB_CLK_DISABLE();
 110:USB_Device/Target/usbd_conf.c **** 
 111:USB_Device/Target/usbd_conf.c ****     /* Peripheral interrupt Deinit*/
 112:USB_Device/Target/usbd_conf.c ****     HAL_NVIC_DisableIRQ(USB_UCPD1_2_IRQn);
 113:USB_Device/Target/usbd_conf.c **** 
 114:USB_Device/Target/usbd_conf.c ****   /* USER CODE BEGIN USB_DRD_FS_MspDeInit 1 */
 115:USB_Device/Target/usbd_conf.c **** 
 116:USB_Device/Target/usbd_conf.c ****   /* USER CODE END USB_DRD_FS_MspDeInit 1 */
 117:USB_Device/Target/usbd_conf.c ****   }
 118:USB_Device/Target/usbd_conf.c **** }
 119:USB_Device/Target/usbd_conf.c **** 
 120:USB_Device/Target/usbd_conf.c **** /**
 121:USB_Device/Target/usbd_conf.c ****   * @brief  Setup stage callback
 122:USB_Device/Target/usbd_conf.c ****   * @param  hpcd: PCD handle
 123:USB_Device/Target/usbd_conf.c ****   * @retval None
 124:USB_Device/Target/usbd_conf.c ****   */
 125:USB_Device/Target/usbd_conf.c **** #if (USE_HAL_PCD_REGISTER_CALLBACKS == 1U)
 126:USB_Device/Target/usbd_conf.c **** static void PCD_SetupStageCallback(PCD_HandleTypeDef *hpcd)
 127:USB_Device/Target/usbd_conf.c **** #else
 128:USB_Device/Target/usbd_conf.c **** void HAL_PCD_SetupStageCallback(PCD_HandleTypeDef *hpcd)
 129:USB_Device/Target/usbd_conf.c **** #endif /* USE_HAL_PCD_REGISTER_CALLBACKS */
 130:USB_Device/Target/usbd_conf.c **** {
 131:USB_Device/Target/usbd_conf.c ****   /* USER CODE BEGIN HAL_PCD_SetupStageCallback_PreTreatment */
 132:USB_Device/Target/usbd_conf.c **** 
 133:USB_Device/Target/usbd_conf.c ****   /* USER CODE END  HAL_PCD_SetupStageCallback_PreTreatment */
 134:USB_Device/Target/usbd_conf.c ****   USBD_LL_SetupStage((USBD_HandleTypeDef*)hpcd->pData, (uint8_t *)hpcd->Setup);
 135:USB_Device/Target/usbd_conf.c ****   /* USER CODE BEGIN HAL_PCD_SetupStageCallback_PostTreatment */
 136:USB_Device/Target/usbd_conf.c **** 
 137:USB_Device/Target/usbd_conf.c ****   /* USER CODE END  HAL_PCD_SetupStageCallback_PostTreatment */
 138:USB_Device/Target/usbd_conf.c **** }
 139:USB_Device/Target/usbd_conf.c **** 
 140:USB_Device/Target/usbd_conf.c **** /**
 141:USB_Device/Target/usbd_conf.c ****   * @brief  Data Out stage callback.
 142:USB_Device/Target/usbd_conf.c ****   * @param  hpcd: PCD handle
 143:USB_Device/Target/usbd_conf.c ****   * @param  epnum: Endpoint number
 144:USB_Device/Target/usbd_conf.c ****   * @retval None
 145:USB_Device/Target/usbd_conf.c ****   */
 146:USB_Device/Target/usbd_conf.c **** #if (USE_HAL_PCD_REGISTER_CALLBACKS == 1U)
ARM GAS  /tmp/ccVI1jbG.s 			page 4


 147:USB_Device/Target/usbd_conf.c **** static void PCD_DataOutStageCallback(PCD_HandleTypeDef *hpcd, uint8_t epnum)
 148:USB_Device/Target/usbd_conf.c **** #else
 149:USB_Device/Target/usbd_conf.c **** void HAL_PCD_DataOutStageCallback(PCD_HandleTypeDef *hpcd, uint8_t epnum)
 150:USB_Device/Target/usbd_conf.c **** #endif /* USE_HAL_PCD_REGISTER_CALLBACKS */
 151:USB_Device/Target/usbd_conf.c **** {
 152:USB_Device/Target/usbd_conf.c ****   /* USER CODE BEGIN HAL_PCD_DataOutStageCallback_PreTreatment */
 153:USB_Device/Target/usbd_conf.c **** 
 154:USB_Device/Target/usbd_conf.c ****   /* USER CODE END HAL_PCD_DataOutStageCallback_PreTreatment */
 155:USB_Device/Target/usbd_conf.c ****   USBD_LL_DataOutStage((USBD_HandleTypeDef*)hpcd->pData, epnum, hpcd->OUT_ep[epnum].xfer_buff);
 156:USB_Device/Target/usbd_conf.c ****   /* USER CODE BEGIN HAL_PCD_DataOutStageCallback_PostTreatment */
 157:USB_Device/Target/usbd_conf.c **** 
 158:USB_Device/Target/usbd_conf.c ****   /* USER CODE END HAL_PCD_DataOutStageCallback_PostTreatment */
 159:USB_Device/Target/usbd_conf.c **** }
 160:USB_Device/Target/usbd_conf.c **** 
 161:USB_Device/Target/usbd_conf.c **** /**
 162:USB_Device/Target/usbd_conf.c ****   * @brief  Data In stage callback.
 163:USB_Device/Target/usbd_conf.c ****   * @param  hpcd: PCD handle
 164:USB_Device/Target/usbd_conf.c ****   * @param  epnum: Endpoint number
 165:USB_Device/Target/usbd_conf.c ****   * @retval None
 166:USB_Device/Target/usbd_conf.c ****   */
 167:USB_Device/Target/usbd_conf.c **** #if (USE_HAL_PCD_REGISTER_CALLBACKS == 1U)
 168:USB_Device/Target/usbd_conf.c **** static void PCD_DataInStageCallback(PCD_HandleTypeDef *hpcd, uint8_t epnum)
 169:USB_Device/Target/usbd_conf.c **** #else
 170:USB_Device/Target/usbd_conf.c **** void HAL_PCD_DataInStageCallback(PCD_HandleTypeDef *hpcd, uint8_t epnum)
 171:USB_Device/Target/usbd_conf.c **** #endif /* USE_HAL_PCD_REGISTER_CALLBACKS */
 172:USB_Device/Target/usbd_conf.c **** {
 173:USB_Device/Target/usbd_conf.c ****   /* USER CODE BEGIN HAL_PCD_DataInStageCallback_PreTreatment */
 174:USB_Device/Target/usbd_conf.c **** 
 175:USB_Device/Target/usbd_conf.c ****   /* USER CODE END HAL_PCD_DataInStageCallback_PreTreatment */
 176:USB_Device/Target/usbd_conf.c ****   USBD_LL_DataInStage((USBD_HandleTypeDef*)hpcd->pData, epnum, hpcd->IN_ep[epnum].xfer_buff);
 177:USB_Device/Target/usbd_conf.c ****   /* USER CODE BEGIN HAL_PCD_DataInStageCallback_PostTreatment  */
 178:USB_Device/Target/usbd_conf.c **** 
 179:USB_Device/Target/usbd_conf.c ****   /* USER CODE END HAL_PCD_DataInStageCallback_PostTreatment */
 180:USB_Device/Target/usbd_conf.c **** }
 181:USB_Device/Target/usbd_conf.c **** 
 182:USB_Device/Target/usbd_conf.c **** /**
 183:USB_Device/Target/usbd_conf.c ****   * @brief  SOF callback.
 184:USB_Device/Target/usbd_conf.c ****   * @param  hpcd: PCD handle
 185:USB_Device/Target/usbd_conf.c ****   * @retval None
 186:USB_Device/Target/usbd_conf.c ****   */
 187:USB_Device/Target/usbd_conf.c **** #if (USE_HAL_PCD_REGISTER_CALLBACKS == 1U)
 188:USB_Device/Target/usbd_conf.c **** static void PCD_SOFCallback(PCD_HandleTypeDef *hpcd)
 189:USB_Device/Target/usbd_conf.c **** #else
 190:USB_Device/Target/usbd_conf.c **** void HAL_PCD_SOFCallback(PCD_HandleTypeDef *hpcd)
 191:USB_Device/Target/usbd_conf.c **** #endif /* USE_HAL_PCD_REGISTER_CALLBACKS */
 192:USB_Device/Target/usbd_conf.c **** {
 193:USB_Device/Target/usbd_conf.c ****   /* USER CODE BEGIN HAL_PCD_SOFCallback_PreTreatment */
 194:USB_Device/Target/usbd_conf.c **** 
 195:USB_Device/Target/usbd_conf.c ****   /* USER CODE END HAL_PCD_SOFCallback_PreTreatment */
 196:USB_Device/Target/usbd_conf.c ****   USBD_LL_SOF((USBD_HandleTypeDef*)hpcd->pData);
 197:USB_Device/Target/usbd_conf.c ****   /* USER CODE BEGIN HAL_PCD_SOFCallback_PostTreatment */
 198:USB_Device/Target/usbd_conf.c **** 
 199:USB_Device/Target/usbd_conf.c ****   /* USER CODE END HAL_PCD_SOFCallback_PostTreatment */
 200:USB_Device/Target/usbd_conf.c **** }
 201:USB_Device/Target/usbd_conf.c **** 
 202:USB_Device/Target/usbd_conf.c **** /**
 203:USB_Device/Target/usbd_conf.c ****   * @brief  Reset callback.
ARM GAS  /tmp/ccVI1jbG.s 			page 5


 204:USB_Device/Target/usbd_conf.c ****   * @param  hpcd: PCD handle
 205:USB_Device/Target/usbd_conf.c ****   * @retval None
 206:USB_Device/Target/usbd_conf.c ****   */
 207:USB_Device/Target/usbd_conf.c **** #if (USE_HAL_PCD_REGISTER_CALLBACKS == 1U)
 208:USB_Device/Target/usbd_conf.c **** static void PCD_ResetCallback(PCD_HandleTypeDef *hpcd)
 209:USB_Device/Target/usbd_conf.c **** #else
 210:USB_Device/Target/usbd_conf.c **** void HAL_PCD_ResetCallback(PCD_HandleTypeDef *hpcd)
 211:USB_Device/Target/usbd_conf.c **** #endif /* USE_HAL_PCD_REGISTER_CALLBACKS */
 212:USB_Device/Target/usbd_conf.c **** {
 213:USB_Device/Target/usbd_conf.c ****   /* USER CODE BEGIN HAL_PCD_ResetCallback_PreTreatment */
 214:USB_Device/Target/usbd_conf.c **** 
 215:USB_Device/Target/usbd_conf.c ****   /* USER CODE END HAL_PCD_ResetCallback_PreTreatment */
 216:USB_Device/Target/usbd_conf.c ****   USBD_SpeedTypeDef speed = USBD_SPEED_FULL;
 217:USB_Device/Target/usbd_conf.c ****   if (hpcd->Init.speed != USBD_FS_SPEED)
 218:USB_Device/Target/usbd_conf.c ****   {
 219:USB_Device/Target/usbd_conf.c ****     Error_Handler();
 220:USB_Device/Target/usbd_conf.c ****   }
 221:USB_Device/Target/usbd_conf.c ****     /* Set Speed. */
 222:USB_Device/Target/usbd_conf.c ****   USBD_LL_SetSpeed((USBD_HandleTypeDef*)hpcd->pData, speed);
 223:USB_Device/Target/usbd_conf.c **** 
 224:USB_Device/Target/usbd_conf.c ****   /* Reset Device. */
 225:USB_Device/Target/usbd_conf.c ****   USBD_LL_Reset((USBD_HandleTypeDef*)hpcd->pData);
 226:USB_Device/Target/usbd_conf.c ****   /* USER CODE BEGIN HAL_PCD_ResetCallback_PostTreatment */
 227:USB_Device/Target/usbd_conf.c **** 
 228:USB_Device/Target/usbd_conf.c ****   /* USER CODE END HAL_PCD_ResetCallback_PostTreatment */
 229:USB_Device/Target/usbd_conf.c **** }
 230:USB_Device/Target/usbd_conf.c **** 
 231:USB_Device/Target/usbd_conf.c **** /**
 232:USB_Device/Target/usbd_conf.c ****   * @brief  Suspend callback.
 233:USB_Device/Target/usbd_conf.c ****   * When Low power mode is enabled the debug cannot be used (IAR, Keil doesn't support it)
 234:USB_Device/Target/usbd_conf.c ****   * @param  hpcd: PCD handle
 235:USB_Device/Target/usbd_conf.c ****   * @retval None
 236:USB_Device/Target/usbd_conf.c ****   */
 237:USB_Device/Target/usbd_conf.c **** #if (USE_HAL_PCD_REGISTER_CALLBACKS == 1U)
 238:USB_Device/Target/usbd_conf.c **** static void PCD_SuspendCallback(PCD_HandleTypeDef *hpcd)
 239:USB_Device/Target/usbd_conf.c **** #else
 240:USB_Device/Target/usbd_conf.c **** void HAL_PCD_SuspendCallback(PCD_HandleTypeDef *hpcd)
 241:USB_Device/Target/usbd_conf.c **** #endif /* USE_HAL_PCD_REGISTER_CALLBACKS */
 242:USB_Device/Target/usbd_conf.c **** {
 243:USB_Device/Target/usbd_conf.c ****   /* USER CODE BEGIN HAL_PCD_SuspendCallback_PreTreatment */
 244:USB_Device/Target/usbd_conf.c **** 
 245:USB_Device/Target/usbd_conf.c ****   /* USER CODE END HAL_PCD_SuspendCallback_PreTreatment */
 246:USB_Device/Target/usbd_conf.c ****  /* __HAL_PCD_GATE_PHYCLOCK(hpcd);*/
 247:USB_Device/Target/usbd_conf.c ****   /* Inform USB library that core enters in suspend Mode. */
 248:USB_Device/Target/usbd_conf.c ****   USBD_LL_Suspend((USBD_HandleTypeDef*)hpcd->pData);
 249:USB_Device/Target/usbd_conf.c ****   /* Enter in STOP mode. */
 250:USB_Device/Target/usbd_conf.c ****   /* USER CODE BEGIN 2 */
 251:USB_Device/Target/usbd_conf.c ****   if (hpcd->Init.low_power_enable)
 252:USB_Device/Target/usbd_conf.c ****   {
 253:USB_Device/Target/usbd_conf.c ****     /* Set SLEEPDEEP bit and SleepOnExit of Cortex System Control Register. */
 254:USB_Device/Target/usbd_conf.c ****     SCB->SCR |= (uint32_t)((uint32_t)(SCB_SCR_SLEEPDEEP_Msk | SCB_SCR_SLEEPONEXIT_Msk));
 255:USB_Device/Target/usbd_conf.c ****   }
 256:USB_Device/Target/usbd_conf.c ****   /* USER CODE END 2 */
 257:USB_Device/Target/usbd_conf.c ****   /* USER CODE BEGIN HAL_PCD_SuspendCallback_PostTreatment */
 258:USB_Device/Target/usbd_conf.c **** 
 259:USB_Device/Target/usbd_conf.c ****   /* USER CODE END HAL_PCD_SuspendCallback_PostTreatment */
 260:USB_Device/Target/usbd_conf.c **** }
ARM GAS  /tmp/ccVI1jbG.s 			page 6


 261:USB_Device/Target/usbd_conf.c **** 
 262:USB_Device/Target/usbd_conf.c **** /**
 263:USB_Device/Target/usbd_conf.c ****   * @brief  Resume callback.
 264:USB_Device/Target/usbd_conf.c ****   * When Low power mode is enabled the debug cannot be used (IAR, Keil doesn't support it)
 265:USB_Device/Target/usbd_conf.c ****   * @param  hpcd: PCD handle
 266:USB_Device/Target/usbd_conf.c ****   * @retval None
 267:USB_Device/Target/usbd_conf.c ****   */
 268:USB_Device/Target/usbd_conf.c **** #if (USE_HAL_PCD_REGISTER_CALLBACKS == 1U)
 269:USB_Device/Target/usbd_conf.c **** static void PCD_ResumeCallback(PCD_HandleTypeDef *hpcd)
 270:USB_Device/Target/usbd_conf.c **** #else
 271:USB_Device/Target/usbd_conf.c **** void HAL_PCD_ResumeCallback(PCD_HandleTypeDef *hpcd)
 272:USB_Device/Target/usbd_conf.c **** #endif /* USE_HAL_PCD_REGISTER_CALLBACKS */
 273:USB_Device/Target/usbd_conf.c **** {
 274:USB_Device/Target/usbd_conf.c ****   /* USER CODE BEGIN HAL_PCD_ResumeCallback_PreTreatment */
 275:USB_Device/Target/usbd_conf.c **** 
 276:USB_Device/Target/usbd_conf.c ****   /* USER CODE END HAL_PCD_ResumeCallback_PreTreatment */
 277:USB_Device/Target/usbd_conf.c ****  /* __HAL_PCD_UNGATE_PHYCLOCK(hpcd);*/
 278:USB_Device/Target/usbd_conf.c **** 
 279:USB_Device/Target/usbd_conf.c ****   /* USER CODE BEGIN 3 */
 280:USB_Device/Target/usbd_conf.c ****   if (hpcd->Init.low_power_enable)
 281:USB_Device/Target/usbd_conf.c ****   {
 282:USB_Device/Target/usbd_conf.c ****     /* Reset SLEEPDEEP bit of Cortex System Control Register. */
 283:USB_Device/Target/usbd_conf.c ****     SCB->SCR &= (uint32_t)~((uint32_t)(SCB_SCR_SLEEPDEEP_Msk | SCB_SCR_SLEEPONEXIT_Msk));
 284:USB_Device/Target/usbd_conf.c ****     SystemClockConfig_Resume();
 285:USB_Device/Target/usbd_conf.c ****   }
 286:USB_Device/Target/usbd_conf.c ****   /* USER CODE END 3 */
 287:USB_Device/Target/usbd_conf.c **** 
 288:USB_Device/Target/usbd_conf.c ****   USBD_LL_Resume((USBD_HandleTypeDef*)hpcd->pData);
 289:USB_Device/Target/usbd_conf.c ****   /* USER CODE BEGIN HAL_PCD_ResumeCallback_PostTreatment */
 290:USB_Device/Target/usbd_conf.c **** 
 291:USB_Device/Target/usbd_conf.c ****   /* USER CODE END HAL_PCD_ResumeCallback_PostTreatment */
 292:USB_Device/Target/usbd_conf.c **** }
 293:USB_Device/Target/usbd_conf.c **** 
 294:USB_Device/Target/usbd_conf.c **** /**
 295:USB_Device/Target/usbd_conf.c ****   * @brief  ISOOUTIncomplete callback.
 296:USB_Device/Target/usbd_conf.c ****   * @param  hpcd: PCD handle
 297:USB_Device/Target/usbd_conf.c ****   * @param  epnum: Endpoint number
 298:USB_Device/Target/usbd_conf.c ****   * @retval None
 299:USB_Device/Target/usbd_conf.c ****   */
 300:USB_Device/Target/usbd_conf.c **** #if (USE_HAL_PCD_REGISTER_CALLBACKS == 1U)
 301:USB_Device/Target/usbd_conf.c **** static void PCD_ISOOUTIncompleteCallback(PCD_HandleTypeDef *hpcd, uint8_t epnum)
 302:USB_Device/Target/usbd_conf.c **** #else
 303:USB_Device/Target/usbd_conf.c **** void HAL_PCD_ISOOUTIncompleteCallback(PCD_HandleTypeDef *hpcd, uint8_t epnum)
 304:USB_Device/Target/usbd_conf.c **** #endif /* USE_HAL_PCD_REGISTER_CALLBACKS */
 305:USB_Device/Target/usbd_conf.c **** {
 306:USB_Device/Target/usbd_conf.c ****   /* USER CODE BEGIN HAL_PCD_ISOOUTIncompleteCallback_PreTreatment */
 307:USB_Device/Target/usbd_conf.c **** 
 308:USB_Device/Target/usbd_conf.c ****   /* USER CODE END HAL_PCD_ISOOUTIncompleteCallback_PreTreatment */
 309:USB_Device/Target/usbd_conf.c ****   USBD_LL_IsoOUTIncomplete((USBD_HandleTypeDef*)hpcd->pData, epnum);
 310:USB_Device/Target/usbd_conf.c ****   /* USER CODE BEGIN HAL_PCD_ISOOUTIncompleteCallback_PostTreatment */
 311:USB_Device/Target/usbd_conf.c **** 
 312:USB_Device/Target/usbd_conf.c ****   /* USER CODE END HAL_PCD_ISOOUTIncompleteCallback_PostTreatment */
 313:USB_Device/Target/usbd_conf.c **** }
 314:USB_Device/Target/usbd_conf.c **** 
 315:USB_Device/Target/usbd_conf.c **** /**
 316:USB_Device/Target/usbd_conf.c ****   * @brief  ISOINIncomplete callback.
 317:USB_Device/Target/usbd_conf.c ****   * @param  hpcd: PCD handle
ARM GAS  /tmp/ccVI1jbG.s 			page 7


 318:USB_Device/Target/usbd_conf.c ****   * @param  epnum: Endpoint number
 319:USB_Device/Target/usbd_conf.c ****   * @retval None
 320:USB_Device/Target/usbd_conf.c ****   */
 321:USB_Device/Target/usbd_conf.c **** #if (USE_HAL_PCD_REGISTER_CALLBACKS == 1U)
 322:USB_Device/Target/usbd_conf.c **** static void PCD_ISOINIncompleteCallback(PCD_HandleTypeDef *hpcd, uint8_t epnum)
 323:USB_Device/Target/usbd_conf.c **** #else
 324:USB_Device/Target/usbd_conf.c **** void HAL_PCD_ISOINIncompleteCallback(PCD_HandleTypeDef *hpcd, uint8_t epnum)
 325:USB_Device/Target/usbd_conf.c **** #endif /* USE_HAL_PCD_REGISTER_CALLBACKS */
 326:USB_Device/Target/usbd_conf.c **** {
 327:USB_Device/Target/usbd_conf.c ****   /* USER CODE BEGIN HAL_PCD_ISOINIncompleteCallback_PreTreatment */
 328:USB_Device/Target/usbd_conf.c **** 
 329:USB_Device/Target/usbd_conf.c ****   /* USER CODE END HAL_PCD_ISOINIncompleteCallback_PreTreatment */
 330:USB_Device/Target/usbd_conf.c ****   USBD_LL_IsoINIncomplete((USBD_HandleTypeDef*)hpcd->pData, epnum);
 331:USB_Device/Target/usbd_conf.c ****   /* USER CODE BEGIN HAL_PCD_ISOINIncompleteCallback_PostTreatment */
 332:USB_Device/Target/usbd_conf.c **** 
 333:USB_Device/Target/usbd_conf.c ****   /* USER CODE END HAL_PCD_ISOINIncompleteCallback_PostTreatment */
 334:USB_Device/Target/usbd_conf.c **** }
 335:USB_Device/Target/usbd_conf.c **** 
 336:USB_Device/Target/usbd_conf.c **** /**
 337:USB_Device/Target/usbd_conf.c ****   * @brief  Connect callback.
 338:USB_Device/Target/usbd_conf.c ****   * @param  hpcd: PCD handle
 339:USB_Device/Target/usbd_conf.c ****   * @retval None
 340:USB_Device/Target/usbd_conf.c ****   */
 341:USB_Device/Target/usbd_conf.c **** #if (USE_HAL_PCD_REGISTER_CALLBACKS == 1U)
 342:USB_Device/Target/usbd_conf.c **** static void PCD_ConnectCallback(PCD_HandleTypeDef *hpcd)
 343:USB_Device/Target/usbd_conf.c **** #else
 344:USB_Device/Target/usbd_conf.c **** void HAL_PCD_ConnectCallback(PCD_HandleTypeDef *hpcd)
 345:USB_Device/Target/usbd_conf.c **** #endif /* USE_HAL_PCD_REGISTER_CALLBACKS */
 346:USB_Device/Target/usbd_conf.c **** {
 347:USB_Device/Target/usbd_conf.c ****   /* USER CODE BEGIN HAL_PCD_ConnectCallback_PreTreatment */
 348:USB_Device/Target/usbd_conf.c **** 
 349:USB_Device/Target/usbd_conf.c ****   /* USER CODE END HAL_PCD_ConnectCallback_PreTreatment */
 350:USB_Device/Target/usbd_conf.c ****   USBD_LL_DevConnected((USBD_HandleTypeDef*)hpcd->pData);
 351:USB_Device/Target/usbd_conf.c ****   /* USER CODE BEGIN HAL_PCD_ConnectCallback_PostTreatment */
 352:USB_Device/Target/usbd_conf.c **** 
 353:USB_Device/Target/usbd_conf.c ****   /* USER CODE END HAL_PCD_ConnectCallback_PostTreatment */
 354:USB_Device/Target/usbd_conf.c **** }
 355:USB_Device/Target/usbd_conf.c **** 
 356:USB_Device/Target/usbd_conf.c **** /**
 357:USB_Device/Target/usbd_conf.c ****   * @brief  Disconnect callback.
 358:USB_Device/Target/usbd_conf.c ****   * @param  hpcd: PCD handle
 359:USB_Device/Target/usbd_conf.c ****   * @retval None
 360:USB_Device/Target/usbd_conf.c ****   */
 361:USB_Device/Target/usbd_conf.c **** #if (USE_HAL_PCD_REGISTER_CALLBACKS == 1U)
 362:USB_Device/Target/usbd_conf.c **** static void PCD_DisconnectCallback(PCD_HandleTypeDef *hpcd)
 363:USB_Device/Target/usbd_conf.c **** #else
 364:USB_Device/Target/usbd_conf.c **** void HAL_PCD_DisconnectCallback(PCD_HandleTypeDef *hpcd)
 365:USB_Device/Target/usbd_conf.c **** #endif /* USE_HAL_PCD_REGISTER_CALLBACKS */
 366:USB_Device/Target/usbd_conf.c **** {
 367:USB_Device/Target/usbd_conf.c ****   /* USER CODE BEGIN HAL_PCD_DisconnectCallback_PreTreatment */
 368:USB_Device/Target/usbd_conf.c **** 
 369:USB_Device/Target/usbd_conf.c ****   /* USER CODE END HAL_PCD_DisconnectCallback_PreTreatment */
 370:USB_Device/Target/usbd_conf.c ****   USBD_LL_DevDisconnected((USBD_HandleTypeDef*)hpcd->pData);
 371:USB_Device/Target/usbd_conf.c ****   /* USER CODE BEGIN HAL_PCD_DisconnectCallback_PostTreatment */
 372:USB_Device/Target/usbd_conf.c **** 
 373:USB_Device/Target/usbd_conf.c ****   /* USER CODE END HAL_PCD_DisconnectCallback_PostTreatment */
 374:USB_Device/Target/usbd_conf.c **** }
ARM GAS  /tmp/ccVI1jbG.s 			page 8


 375:USB_Device/Target/usbd_conf.c **** 
 376:USB_Device/Target/usbd_conf.c ****   /* USER CODE BEGIN LowLevelInterface */
 377:USB_Device/Target/usbd_conf.c **** 
 378:USB_Device/Target/usbd_conf.c ****   /* USER CODE END LowLevelInterface */
 379:USB_Device/Target/usbd_conf.c **** 
 380:USB_Device/Target/usbd_conf.c **** /*******************************************************************************
 381:USB_Device/Target/usbd_conf.c ****                        LL Driver Interface (USB Device Library --> PCD)
 382:USB_Device/Target/usbd_conf.c **** *******************************************************************************/
 383:USB_Device/Target/usbd_conf.c **** 
 384:USB_Device/Target/usbd_conf.c **** /**
 385:USB_Device/Target/usbd_conf.c ****   * @brief  Initializes the low level portion of the device driver.
 386:USB_Device/Target/usbd_conf.c ****   * @param  pdev: Device handle
 387:USB_Device/Target/usbd_conf.c ****   * @retval USBD status
 388:USB_Device/Target/usbd_conf.c ****   */
 389:USB_Device/Target/usbd_conf.c **** USBD_StatusTypeDef USBD_LL_Init(USBD_HandleTypeDef *pdev)
 390:USB_Device/Target/usbd_conf.c **** {
 391:USB_Device/Target/usbd_conf.c ****   /* Init USB Ip. */
 392:USB_Device/Target/usbd_conf.c ****   hpcd_USB_DRD_FS.pData = pdev;
 393:USB_Device/Target/usbd_conf.c ****   /* Link the driver to the stack. */
 394:USB_Device/Target/usbd_conf.c ****   pdev->pData = &hpcd_USB_DRD_FS;
 395:USB_Device/Target/usbd_conf.c **** 
 396:USB_Device/Target/usbd_conf.c ****   hpcd_USB_DRD_FS.Instance = USB_DRD_FS;
 397:USB_Device/Target/usbd_conf.c ****   hpcd_USB_DRD_FS.Init.dev_endpoints = 8;
 398:USB_Device/Target/usbd_conf.c ****   hpcd_USB_DRD_FS.Init.Host_channels = 8;
 399:USB_Device/Target/usbd_conf.c ****   hpcd_USB_DRD_FS.Init.speed = USBD_FS_SPEED;
 400:USB_Device/Target/usbd_conf.c ****   hpcd_USB_DRD_FS.Init.phy_itface = PCD_PHY_EMBEDDED;
 401:USB_Device/Target/usbd_conf.c ****   hpcd_USB_DRD_FS.Init.Sof_enable = DISABLE;
 402:USB_Device/Target/usbd_conf.c ****   hpcd_USB_DRD_FS.Init.low_power_enable = DISABLE;
 403:USB_Device/Target/usbd_conf.c ****   hpcd_USB_DRD_FS.Init.lpm_enable = DISABLE;
 404:USB_Device/Target/usbd_conf.c ****   hpcd_USB_DRD_FS.Init.battery_charging_enable = DISABLE;
 405:USB_Device/Target/usbd_conf.c ****   hpcd_USB_DRD_FS.Init.vbus_sensing_enable = DISABLE;
 406:USB_Device/Target/usbd_conf.c ****   hpcd_USB_DRD_FS.Init.bulk_doublebuffer_enable = DISABLE;
 407:USB_Device/Target/usbd_conf.c ****   hpcd_USB_DRD_FS.Init.iso_singlebuffer_enable = DISABLE;
 408:USB_Device/Target/usbd_conf.c ****   if (HAL_PCD_Init(&hpcd_USB_DRD_FS) != HAL_OK)
 409:USB_Device/Target/usbd_conf.c ****   {
 410:USB_Device/Target/usbd_conf.c ****     Error_Handler( );
 411:USB_Device/Target/usbd_conf.c ****   }
 412:USB_Device/Target/usbd_conf.c **** 
 413:USB_Device/Target/usbd_conf.c **** #if (USE_HAL_PCD_REGISTER_CALLBACKS == 1U)
 414:USB_Device/Target/usbd_conf.c ****   /* Register USB PCD CallBacks */
 415:USB_Device/Target/usbd_conf.c ****   HAL_PCD_RegisterCallback(&hpcd_USB_DRD_FS, HAL_PCD_SOF_CB_ID, PCD_SOFCallback);
 416:USB_Device/Target/usbd_conf.c ****   HAL_PCD_RegisterCallback(&hpcd_USB_DRD_FS, HAL_PCD_SETUPSTAGE_CB_ID, PCD_SetupStageCallback);
 417:USB_Device/Target/usbd_conf.c ****   HAL_PCD_RegisterCallback(&hpcd_USB_DRD_FS, HAL_PCD_RESET_CB_ID, PCD_ResetCallback);
 418:USB_Device/Target/usbd_conf.c ****   HAL_PCD_RegisterCallback(&hpcd_USB_DRD_FS, HAL_PCD_SUSPEND_CB_ID, PCD_SuspendCallback);
 419:USB_Device/Target/usbd_conf.c ****   HAL_PCD_RegisterCallback(&hpcd_USB_DRD_FS, HAL_PCD_RESUME_CB_ID, PCD_ResumeCallback);
 420:USB_Device/Target/usbd_conf.c ****   HAL_PCD_RegisterCallback(&hpcd_USB_DRD_FS, HAL_PCD_CONNECT_CB_ID, PCD_ConnectCallback);
 421:USB_Device/Target/usbd_conf.c ****   HAL_PCD_RegisterCallback(&hpcd_USB_DRD_FS, HAL_PCD_DISCONNECT_CB_ID, PCD_DisconnectCallback);
 422:USB_Device/Target/usbd_conf.c ****   /* USER CODE BEGIN RegisterCallBackFirstPart */
 423:USB_Device/Target/usbd_conf.c **** 
 424:USB_Device/Target/usbd_conf.c ****   /* USER CODE END RegisterCallBackFirstPart */
 425:USB_Device/Target/usbd_conf.c ****   HAL_PCD_RegisterLpmCallback(&hpcd_USB_DRD_FS, PCDEx_LPM_Callback);
 426:USB_Device/Target/usbd_conf.c ****   HAL_PCD_RegisterDataOutStageCallback(&hpcd_USB_DRD_FS, PCD_DataOutStageCallback);
 427:USB_Device/Target/usbd_conf.c ****   HAL_PCD_RegisterDataInStageCallback(&hpcd_USB_DRD_FS, PCD_DataInStageCallback);
 428:USB_Device/Target/usbd_conf.c ****   HAL_PCD_RegisterIsoOutIncpltCallback(&hpcd_USB_DRD_FS, PCD_ISOOUTIncompleteCallback);
 429:USB_Device/Target/usbd_conf.c ****   HAL_PCD_RegisterIsoInIncpltCallback(&hpcd_USB_DRD_FS, PCD_ISOINIncompleteCallback);
 430:USB_Device/Target/usbd_conf.c ****   /* USER CODE BEGIN RegisterCallBackSecondPart */
 431:USB_Device/Target/usbd_conf.c **** 
ARM GAS  /tmp/ccVI1jbG.s 			page 9


 432:USB_Device/Target/usbd_conf.c ****   /* USER CODE END RegisterCallBackSecondPart */
 433:USB_Device/Target/usbd_conf.c **** #endif /* USE_HAL_PCD_REGISTER_CALLBACKS */
 434:USB_Device/Target/usbd_conf.c ****   /* USER CODE BEGIN EndPoint_Configuration */
 435:USB_Device/Target/usbd_conf.c ****   HAL_PCDEx_PMAConfig((PCD_HandleTypeDef*)pdev->pData , 0x00 , PCD_SNG_BUF, 0x18);
 436:USB_Device/Target/usbd_conf.c ****   HAL_PCDEx_PMAConfig((PCD_HandleTypeDef*)pdev->pData , 0x80 , PCD_SNG_BUF, 0x58);
 437:USB_Device/Target/usbd_conf.c ****   /* USER CODE END EndPoint_Configuration */
 438:USB_Device/Target/usbd_conf.c ****   /* USER CODE BEGIN EndPoint_Configuration_HID */
 439:USB_Device/Target/usbd_conf.c ****   HAL_PCDEx_PMAConfig((PCD_HandleTypeDef*)pdev->pData , 0x81 , PCD_SNG_BUF, 0x100);
 440:USB_Device/Target/usbd_conf.c ****   /* USER CODE END EndPoint_Configuration_HID */
 441:USB_Device/Target/usbd_conf.c **** 
 442:USB_Device/Target/usbd_conf.c ****   return USBD_OK;
 443:USB_Device/Target/usbd_conf.c **** }
 444:USB_Device/Target/usbd_conf.c **** 
 445:USB_Device/Target/usbd_conf.c **** /**
 446:USB_Device/Target/usbd_conf.c ****   * @brief  De-Initializes the low level portion of the device driver.
 447:USB_Device/Target/usbd_conf.c ****   * @param  pdev: Device handle
 448:USB_Device/Target/usbd_conf.c ****   * @retval USBD status
 449:USB_Device/Target/usbd_conf.c ****   */
 450:USB_Device/Target/usbd_conf.c **** USBD_StatusTypeDef USBD_LL_DeInit(USBD_HandleTypeDef *pdev)
 451:USB_Device/Target/usbd_conf.c **** {
 452:USB_Device/Target/usbd_conf.c ****   HAL_StatusTypeDef hal_status = HAL_OK;
 453:USB_Device/Target/usbd_conf.c ****   USBD_StatusTypeDef usb_status = USBD_OK;
 454:USB_Device/Target/usbd_conf.c **** 
 455:USB_Device/Target/usbd_conf.c ****   hal_status = HAL_PCD_DeInit(pdev->pData);
 456:USB_Device/Target/usbd_conf.c **** 
 457:USB_Device/Target/usbd_conf.c ****   usb_status =  USBD_Get_USB_Status(hal_status);
 458:USB_Device/Target/usbd_conf.c **** 
 459:USB_Device/Target/usbd_conf.c ****   return usb_status;
 460:USB_Device/Target/usbd_conf.c **** }
 461:USB_Device/Target/usbd_conf.c **** 
 462:USB_Device/Target/usbd_conf.c **** /**
 463:USB_Device/Target/usbd_conf.c ****   * @brief  Starts the low level portion of the device driver.
 464:USB_Device/Target/usbd_conf.c ****   * @param  pdev: Device handle
 465:USB_Device/Target/usbd_conf.c ****   * @retval USBD status
 466:USB_Device/Target/usbd_conf.c ****   */
 467:USB_Device/Target/usbd_conf.c **** USBD_StatusTypeDef USBD_LL_Start(USBD_HandleTypeDef *pdev)
 468:USB_Device/Target/usbd_conf.c **** {
 469:USB_Device/Target/usbd_conf.c ****   HAL_StatusTypeDef hal_status = HAL_OK;
 470:USB_Device/Target/usbd_conf.c ****   USBD_StatusTypeDef usb_status = USBD_OK;
 471:USB_Device/Target/usbd_conf.c **** 
 472:USB_Device/Target/usbd_conf.c ****   hal_status = HAL_PCD_Start(pdev->pData);
 473:USB_Device/Target/usbd_conf.c **** 
 474:USB_Device/Target/usbd_conf.c ****   usb_status =  USBD_Get_USB_Status(hal_status);
 475:USB_Device/Target/usbd_conf.c **** 
 476:USB_Device/Target/usbd_conf.c ****   return usb_status;
 477:USB_Device/Target/usbd_conf.c **** }
 478:USB_Device/Target/usbd_conf.c **** 
 479:USB_Device/Target/usbd_conf.c **** /**
 480:USB_Device/Target/usbd_conf.c ****   * @brief  Stops the low level portion of the device driver.
 481:USB_Device/Target/usbd_conf.c ****   * @param  pdev: Device handle
 482:USB_Device/Target/usbd_conf.c ****   * @retval USBD status
 483:USB_Device/Target/usbd_conf.c ****   */
 484:USB_Device/Target/usbd_conf.c **** USBD_StatusTypeDef USBD_LL_Stop(USBD_HandleTypeDef *pdev)
 485:USB_Device/Target/usbd_conf.c **** {
 486:USB_Device/Target/usbd_conf.c ****   HAL_StatusTypeDef hal_status = HAL_OK;
 487:USB_Device/Target/usbd_conf.c ****   USBD_StatusTypeDef usb_status = USBD_OK;
 488:USB_Device/Target/usbd_conf.c **** 
ARM GAS  /tmp/ccVI1jbG.s 			page 10


 489:USB_Device/Target/usbd_conf.c ****   hal_status = HAL_PCD_Stop(pdev->pData);
 490:USB_Device/Target/usbd_conf.c **** 
 491:USB_Device/Target/usbd_conf.c ****   usb_status =  USBD_Get_USB_Status(hal_status);
 492:USB_Device/Target/usbd_conf.c **** 
 493:USB_Device/Target/usbd_conf.c ****   return usb_status;
 494:USB_Device/Target/usbd_conf.c **** }
 495:USB_Device/Target/usbd_conf.c **** 
 496:USB_Device/Target/usbd_conf.c **** /**
 497:USB_Device/Target/usbd_conf.c ****   * @brief  Opens an endpoint of the low level driver.
 498:USB_Device/Target/usbd_conf.c ****   * @param  pdev: Device handle
 499:USB_Device/Target/usbd_conf.c ****   * @param  ep_addr: Endpoint number
 500:USB_Device/Target/usbd_conf.c ****   * @param  ep_type: Endpoint type
 501:USB_Device/Target/usbd_conf.c ****   * @param  ep_mps: Endpoint max packet size
 502:USB_Device/Target/usbd_conf.c ****   * @retval USBD status
 503:USB_Device/Target/usbd_conf.c ****   */
 504:USB_Device/Target/usbd_conf.c **** USBD_StatusTypeDef USBD_LL_OpenEP(USBD_HandleTypeDef *pdev, uint8_t ep_addr, uint8_t ep_type, uint1
 505:USB_Device/Target/usbd_conf.c **** {
 506:USB_Device/Target/usbd_conf.c ****   HAL_StatusTypeDef hal_status = HAL_OK;
 507:USB_Device/Target/usbd_conf.c ****   USBD_StatusTypeDef usb_status = USBD_OK;
 508:USB_Device/Target/usbd_conf.c **** 
 509:USB_Device/Target/usbd_conf.c ****   hal_status = HAL_PCD_EP_Open(pdev->pData, ep_addr, ep_mps, ep_type);
 510:USB_Device/Target/usbd_conf.c **** 
 511:USB_Device/Target/usbd_conf.c ****   usb_status =  USBD_Get_USB_Status(hal_status);
 512:USB_Device/Target/usbd_conf.c **** 
 513:USB_Device/Target/usbd_conf.c ****   return usb_status;
 514:USB_Device/Target/usbd_conf.c **** }
 515:USB_Device/Target/usbd_conf.c **** 
 516:USB_Device/Target/usbd_conf.c **** /**
 517:USB_Device/Target/usbd_conf.c ****   * @brief  Closes an endpoint of the low level driver.
 518:USB_Device/Target/usbd_conf.c ****   * @param  pdev: Device handle
 519:USB_Device/Target/usbd_conf.c ****   * @param  ep_addr: Endpoint number
 520:USB_Device/Target/usbd_conf.c ****   * @retval USBD status
 521:USB_Device/Target/usbd_conf.c ****   */
 522:USB_Device/Target/usbd_conf.c **** USBD_StatusTypeDef USBD_LL_CloseEP(USBD_HandleTypeDef *pdev, uint8_t ep_addr)
 523:USB_Device/Target/usbd_conf.c **** {
 524:USB_Device/Target/usbd_conf.c ****   HAL_StatusTypeDef hal_status = HAL_OK;
 525:USB_Device/Target/usbd_conf.c ****   USBD_StatusTypeDef usb_status = USBD_OK;
 526:USB_Device/Target/usbd_conf.c **** 
 527:USB_Device/Target/usbd_conf.c ****   hal_status = HAL_PCD_EP_Close(pdev->pData, ep_addr);
 528:USB_Device/Target/usbd_conf.c **** 
 529:USB_Device/Target/usbd_conf.c ****   usb_status =  USBD_Get_USB_Status(hal_status);
 530:USB_Device/Target/usbd_conf.c **** 
 531:USB_Device/Target/usbd_conf.c ****   return usb_status;
 532:USB_Device/Target/usbd_conf.c **** }
 533:USB_Device/Target/usbd_conf.c **** 
 534:USB_Device/Target/usbd_conf.c **** /**
 535:USB_Device/Target/usbd_conf.c ****   * @brief  Flushes an endpoint of the Low Level Driver.
 536:USB_Device/Target/usbd_conf.c ****   * @param  pdev: Device handle
 537:USB_Device/Target/usbd_conf.c ****   * @param  ep_addr: Endpoint number
 538:USB_Device/Target/usbd_conf.c ****   * @retval USBD status
 539:USB_Device/Target/usbd_conf.c ****   */
 540:USB_Device/Target/usbd_conf.c **** USBD_StatusTypeDef USBD_LL_FlushEP(USBD_HandleTypeDef *pdev, uint8_t ep_addr)
 541:USB_Device/Target/usbd_conf.c **** {
 542:USB_Device/Target/usbd_conf.c ****   HAL_StatusTypeDef hal_status = HAL_OK;
 543:USB_Device/Target/usbd_conf.c ****   USBD_StatusTypeDef usb_status = USBD_OK;
 544:USB_Device/Target/usbd_conf.c **** 
 545:USB_Device/Target/usbd_conf.c ****   hal_status = HAL_PCD_EP_Flush(pdev->pData, ep_addr);
ARM GAS  /tmp/ccVI1jbG.s 			page 11


 546:USB_Device/Target/usbd_conf.c **** 
 547:USB_Device/Target/usbd_conf.c ****   usb_status =  USBD_Get_USB_Status(hal_status);
 548:USB_Device/Target/usbd_conf.c **** 
 549:USB_Device/Target/usbd_conf.c ****   return usb_status;
 550:USB_Device/Target/usbd_conf.c **** }
 551:USB_Device/Target/usbd_conf.c **** 
 552:USB_Device/Target/usbd_conf.c **** /**
 553:USB_Device/Target/usbd_conf.c ****   * @brief  Sets a Stall condition on an endpoint of the Low Level Driver.
 554:USB_Device/Target/usbd_conf.c ****   * @param  pdev: Device handle
 555:USB_Device/Target/usbd_conf.c ****   * @param  ep_addr: Endpoint number
 556:USB_Device/Target/usbd_conf.c ****   * @retval USBD status
 557:USB_Device/Target/usbd_conf.c ****   */
 558:USB_Device/Target/usbd_conf.c **** USBD_StatusTypeDef USBD_LL_StallEP(USBD_HandleTypeDef *pdev, uint8_t ep_addr)
 559:USB_Device/Target/usbd_conf.c **** {
 560:USB_Device/Target/usbd_conf.c ****   HAL_StatusTypeDef hal_status = HAL_OK;
 561:USB_Device/Target/usbd_conf.c ****   USBD_StatusTypeDef usb_status = USBD_OK;
 562:USB_Device/Target/usbd_conf.c **** 
 563:USB_Device/Target/usbd_conf.c ****   hal_status = HAL_PCD_EP_SetStall(pdev->pData, ep_addr);
 564:USB_Device/Target/usbd_conf.c **** 
 565:USB_Device/Target/usbd_conf.c ****   usb_status =  USBD_Get_USB_Status(hal_status);
 566:USB_Device/Target/usbd_conf.c **** 
 567:USB_Device/Target/usbd_conf.c ****   return usb_status;
 568:USB_Device/Target/usbd_conf.c **** }
 569:USB_Device/Target/usbd_conf.c **** 
 570:USB_Device/Target/usbd_conf.c **** /**
 571:USB_Device/Target/usbd_conf.c ****   * @brief  Clears a Stall condition on an endpoint of the Low Level Driver.
 572:USB_Device/Target/usbd_conf.c ****   * @param  pdev: Device handle
 573:USB_Device/Target/usbd_conf.c ****   * @param  ep_addr: Endpoint number
 574:USB_Device/Target/usbd_conf.c ****   * @retval USBD status
 575:USB_Device/Target/usbd_conf.c ****   */
 576:USB_Device/Target/usbd_conf.c **** USBD_StatusTypeDef USBD_LL_ClearStallEP(USBD_HandleTypeDef *pdev, uint8_t ep_addr)
 577:USB_Device/Target/usbd_conf.c **** {
 578:USB_Device/Target/usbd_conf.c ****   HAL_StatusTypeDef hal_status = HAL_OK;
 579:USB_Device/Target/usbd_conf.c ****   USBD_StatusTypeDef usb_status = USBD_OK;
 580:USB_Device/Target/usbd_conf.c **** 
 581:USB_Device/Target/usbd_conf.c ****   hal_status = HAL_PCD_EP_ClrStall(pdev->pData, ep_addr);
 582:USB_Device/Target/usbd_conf.c **** 
 583:USB_Device/Target/usbd_conf.c ****   usb_status =  USBD_Get_USB_Status(hal_status);
 584:USB_Device/Target/usbd_conf.c **** 
 585:USB_Device/Target/usbd_conf.c ****   return usb_status;
 586:USB_Device/Target/usbd_conf.c **** }
 587:USB_Device/Target/usbd_conf.c **** 
 588:USB_Device/Target/usbd_conf.c **** /**
 589:USB_Device/Target/usbd_conf.c ****   * @brief  Returns Stall condition.
 590:USB_Device/Target/usbd_conf.c ****   * @param  pdev: Device handle
 591:USB_Device/Target/usbd_conf.c ****   * @param  ep_addr: Endpoint number
 592:USB_Device/Target/usbd_conf.c ****   * @retval Stall (1: Yes, 0: No)
 593:USB_Device/Target/usbd_conf.c ****   */
 594:USB_Device/Target/usbd_conf.c **** uint8_t USBD_LL_IsStallEP(USBD_HandleTypeDef *pdev, uint8_t ep_addr)
 595:USB_Device/Target/usbd_conf.c **** {
 596:USB_Device/Target/usbd_conf.c ****   PCD_HandleTypeDef *hpcd = (PCD_HandleTypeDef*) pdev->pData;
 597:USB_Device/Target/usbd_conf.c **** 
 598:USB_Device/Target/usbd_conf.c ****   if((ep_addr & 0x80) == 0x80)
 599:USB_Device/Target/usbd_conf.c ****   {
 600:USB_Device/Target/usbd_conf.c ****     return hpcd->IN_ep[ep_addr & 0x7F].is_stall;
 601:USB_Device/Target/usbd_conf.c ****   }
 602:USB_Device/Target/usbd_conf.c ****   else
ARM GAS  /tmp/ccVI1jbG.s 			page 12


 603:USB_Device/Target/usbd_conf.c ****   {
 604:USB_Device/Target/usbd_conf.c ****     return hpcd->OUT_ep[ep_addr & 0x7F].is_stall;
 605:USB_Device/Target/usbd_conf.c ****   }
 606:USB_Device/Target/usbd_conf.c **** }
 607:USB_Device/Target/usbd_conf.c **** 
 608:USB_Device/Target/usbd_conf.c **** /**
 609:USB_Device/Target/usbd_conf.c ****   * @brief  Assigns a USB address to the device.
 610:USB_Device/Target/usbd_conf.c ****   * @param  pdev: Device handle
 611:USB_Device/Target/usbd_conf.c ****   * @param  dev_addr: Device address
 612:USB_Device/Target/usbd_conf.c ****   * @retval USBD status
 613:USB_Device/Target/usbd_conf.c ****   */
 614:USB_Device/Target/usbd_conf.c **** USBD_StatusTypeDef USBD_LL_SetUSBAddress(USBD_HandleTypeDef *pdev, uint8_t dev_addr)
 615:USB_Device/Target/usbd_conf.c **** {
 616:USB_Device/Target/usbd_conf.c ****   HAL_StatusTypeDef hal_status = HAL_OK;
 617:USB_Device/Target/usbd_conf.c ****   USBD_StatusTypeDef usb_status = USBD_OK;
 618:USB_Device/Target/usbd_conf.c **** 
 619:USB_Device/Target/usbd_conf.c ****   hal_status = HAL_PCD_SetAddress(pdev->pData, dev_addr);
 620:USB_Device/Target/usbd_conf.c **** 
 621:USB_Device/Target/usbd_conf.c ****   usb_status =  USBD_Get_USB_Status(hal_status);
 622:USB_Device/Target/usbd_conf.c **** 
 623:USB_Device/Target/usbd_conf.c ****   return usb_status;
 624:USB_Device/Target/usbd_conf.c **** }
 625:USB_Device/Target/usbd_conf.c **** 
 626:USB_Device/Target/usbd_conf.c **** /**
 627:USB_Device/Target/usbd_conf.c ****   * @brief  Transmits data over an endpoint.
 628:USB_Device/Target/usbd_conf.c ****   * @param  pdev: Device handle
 629:USB_Device/Target/usbd_conf.c ****   * @param  ep_addr: Endpoint number
 630:USB_Device/Target/usbd_conf.c ****   * @param  pbuf: Pointer to data to be sent
 631:USB_Device/Target/usbd_conf.c ****   * @param  size: Data size
 632:USB_Device/Target/usbd_conf.c ****   * @retval USBD status
 633:USB_Device/Target/usbd_conf.c ****   */
 634:USB_Device/Target/usbd_conf.c **** USBD_StatusTypeDef USBD_LL_Transmit(USBD_HandleTypeDef *pdev, uint8_t ep_addr, uint8_t *pbuf, uint3
 635:USB_Device/Target/usbd_conf.c **** {
 636:USB_Device/Target/usbd_conf.c ****   HAL_StatusTypeDef hal_status = HAL_OK;
 637:USB_Device/Target/usbd_conf.c ****   USBD_StatusTypeDef usb_status = USBD_OK;
 638:USB_Device/Target/usbd_conf.c **** 
 639:USB_Device/Target/usbd_conf.c ****   hal_status = HAL_PCD_EP_Transmit(pdev->pData, ep_addr, pbuf, size);
 640:USB_Device/Target/usbd_conf.c **** 
 641:USB_Device/Target/usbd_conf.c ****   usb_status =  USBD_Get_USB_Status(hal_status);
 642:USB_Device/Target/usbd_conf.c **** 
 643:USB_Device/Target/usbd_conf.c ****   return usb_status;
 644:USB_Device/Target/usbd_conf.c **** }
 645:USB_Device/Target/usbd_conf.c **** 
 646:USB_Device/Target/usbd_conf.c **** /**
 647:USB_Device/Target/usbd_conf.c ****   * @brief  Prepares an endpoint for reception.
 648:USB_Device/Target/usbd_conf.c ****   * @param  pdev: Device handle
 649:USB_Device/Target/usbd_conf.c ****   * @param  ep_addr: Endpoint number
 650:USB_Device/Target/usbd_conf.c ****   * @param  pbuf: Pointer to data to be received
 651:USB_Device/Target/usbd_conf.c ****   * @param  size: Data size
 652:USB_Device/Target/usbd_conf.c ****   * @retval USBD status
 653:USB_Device/Target/usbd_conf.c ****   */
 654:USB_Device/Target/usbd_conf.c **** USBD_StatusTypeDef USBD_LL_PrepareReceive(USBD_HandleTypeDef *pdev, uint8_t ep_addr, uint8_t *pbuf,
 655:USB_Device/Target/usbd_conf.c **** {
 656:USB_Device/Target/usbd_conf.c ****   HAL_StatusTypeDef hal_status = HAL_OK;
 657:USB_Device/Target/usbd_conf.c ****   USBD_StatusTypeDef usb_status = USBD_OK;
 658:USB_Device/Target/usbd_conf.c **** 
 659:USB_Device/Target/usbd_conf.c ****   hal_status = HAL_PCD_EP_Receive(pdev->pData, ep_addr, pbuf, size);
ARM GAS  /tmp/ccVI1jbG.s 			page 13


 660:USB_Device/Target/usbd_conf.c **** 
 661:USB_Device/Target/usbd_conf.c ****   usb_status =  USBD_Get_USB_Status(hal_status);
 662:USB_Device/Target/usbd_conf.c **** 
 663:USB_Device/Target/usbd_conf.c ****   return usb_status;
 664:USB_Device/Target/usbd_conf.c **** }
 665:USB_Device/Target/usbd_conf.c **** 
 666:USB_Device/Target/usbd_conf.c **** /**
 667:USB_Device/Target/usbd_conf.c ****   * @brief  Returns the last transferred packet size.
 668:USB_Device/Target/usbd_conf.c ****   * @param  pdev: Device handle
 669:USB_Device/Target/usbd_conf.c ****   * @param  ep_addr: Endpoint number
 670:USB_Device/Target/usbd_conf.c ****   * @retval Received Data Size
 671:USB_Device/Target/usbd_conf.c ****   */
 672:USB_Device/Target/usbd_conf.c **** uint32_t USBD_LL_GetRxDataSize(USBD_HandleTypeDef *pdev, uint8_t ep_addr)
 673:USB_Device/Target/usbd_conf.c **** {
 674:USB_Device/Target/usbd_conf.c ****   return HAL_PCD_EP_GetRxCount((PCD_HandleTypeDef*) pdev->pData, ep_addr);
 675:USB_Device/Target/usbd_conf.c **** }
 676:USB_Device/Target/usbd_conf.c **** 
 677:USB_Device/Target/usbd_conf.c **** /**
 678:USB_Device/Target/usbd_conf.c ****   * @brief  Send LPM message to user layer
 679:USB_Device/Target/usbd_conf.c ****   * @param  hpcd: PCD handle
 680:USB_Device/Target/usbd_conf.c ****   * @param  msg: LPM message
 681:USB_Device/Target/usbd_conf.c ****   * @retval None
 682:USB_Device/Target/usbd_conf.c ****   */
 683:USB_Device/Target/usbd_conf.c **** #if (USE_HAL_PCD_REGISTER_CALLBACKS == 1U)
 684:USB_Device/Target/usbd_conf.c **** static void PCDEx_LPM_Callback(PCD_HandleTypeDef *hpcd, PCD_LPM_MsgTypeDef msg)
 685:USB_Device/Target/usbd_conf.c **** #else
 686:USB_Device/Target/usbd_conf.c **** void HAL_PCDEx_LPM_Callback(PCD_HandleTypeDef *hpcd, PCD_LPM_MsgTypeDef msg)
 687:USB_Device/Target/usbd_conf.c **** #endif /* USE_HAL_PCD_REGISTER_CALLBACKS */
 688:USB_Device/Target/usbd_conf.c **** {
 689:USB_Device/Target/usbd_conf.c ****   /* USER CODE BEGIN LPM_Callback */
 690:USB_Device/Target/usbd_conf.c ****   switch (msg)
 691:USB_Device/Target/usbd_conf.c ****   {
 692:USB_Device/Target/usbd_conf.c ****   case PCD_LPM_L0_ACTIVE:
 693:USB_Device/Target/usbd_conf.c ****     if (hpcd->Init.low_power_enable)
 694:USB_Device/Target/usbd_conf.c ****     {
 695:USB_Device/Target/usbd_conf.c ****       SystemClockConfig_Resume();
 696:USB_Device/Target/usbd_conf.c **** 
 697:USB_Device/Target/usbd_conf.c ****       /* Reset SLEEPDEEP bit of Cortex System Control Register. */
 698:USB_Device/Target/usbd_conf.c ****       SCB->SCR &= (uint32_t)~((uint32_t)(SCB_SCR_SLEEPDEEP_Msk | SCB_SCR_SLEEPONEXIT_Msk));
 699:USB_Device/Target/usbd_conf.c ****     }
 700:USB_Device/Target/usbd_conf.c ****     /*__HAL_PCD_UNGATE_PHYCLOCK(hpcd);*/
 701:USB_Device/Target/usbd_conf.c ****     USBD_LL_Resume(hpcd->pData);
 702:USB_Device/Target/usbd_conf.c ****     break;
 703:USB_Device/Target/usbd_conf.c **** 
 704:USB_Device/Target/usbd_conf.c ****   case PCD_LPM_L1_ACTIVE:
 705:USB_Device/Target/usbd_conf.c ****     /*__HAL_PCD_GATE_PHYCLOCK(hpcd);*/
 706:USB_Device/Target/usbd_conf.c ****     USBD_LL_Suspend(hpcd->pData);
 707:USB_Device/Target/usbd_conf.c **** 
 708:USB_Device/Target/usbd_conf.c ****     /* Enter in STOP mode. */
 709:USB_Device/Target/usbd_conf.c ****     if (hpcd->Init.low_power_enable)
 710:USB_Device/Target/usbd_conf.c ****     {
 711:USB_Device/Target/usbd_conf.c ****       /* Set SLEEPDEEP bit and SleepOnExit of Cortex System Control Register. */
 712:USB_Device/Target/usbd_conf.c ****       SCB->SCR |= (uint32_t)((uint32_t)(SCB_SCR_SLEEPDEEP_Msk | SCB_SCR_SLEEPONEXIT_Msk));
 713:USB_Device/Target/usbd_conf.c ****     }
 714:USB_Device/Target/usbd_conf.c ****     break;
 715:USB_Device/Target/usbd_conf.c ****   }
 716:USB_Device/Target/usbd_conf.c ****   /* USER CODE END LPM_Callback */
ARM GAS  /tmp/ccVI1jbG.s 			page 14


 717:USB_Device/Target/usbd_conf.c **** }
 718:USB_Device/Target/usbd_conf.c **** 
 719:USB_Device/Target/usbd_conf.c **** /**
 720:USB_Device/Target/usbd_conf.c ****   * @brief  Static single allocation.
 721:USB_Device/Target/usbd_conf.c ****   * @param  size: Size of allocated memory
 722:USB_Device/Target/usbd_conf.c ****   * @retval None
 723:USB_Device/Target/usbd_conf.c ****   */
 724:USB_Device/Target/usbd_conf.c **** void *USBD_static_malloc(uint32_t size)
 725:USB_Device/Target/usbd_conf.c **** {
 726:USB_Device/Target/usbd_conf.c ****   static uint32_t mem[(sizeof(USBD_HID_HandleTypeDef)/4)+1];/* On 32-bit boundary */
 727:USB_Device/Target/usbd_conf.c ****   return mem;
 728:USB_Device/Target/usbd_conf.c **** }
 729:USB_Device/Target/usbd_conf.c **** 
 730:USB_Device/Target/usbd_conf.c **** /**
 731:USB_Device/Target/usbd_conf.c ****   * @brief  Dummy memory free
 732:USB_Device/Target/usbd_conf.c ****   * @param  p: Pointer to allocated  memory address
 733:USB_Device/Target/usbd_conf.c ****   * @retval None
 734:USB_Device/Target/usbd_conf.c ****   */
 735:USB_Device/Target/usbd_conf.c **** void USBD_static_free(void *p)
 736:USB_Device/Target/usbd_conf.c **** {
 737:USB_Device/Target/usbd_conf.c **** 
 738:USB_Device/Target/usbd_conf.c **** }
 739:USB_Device/Target/usbd_conf.c **** 
 740:USB_Device/Target/usbd_conf.c **** /**
 741:USB_Device/Target/usbd_conf.c ****   * @brief  Delays routine for the USB Device Library.
 742:USB_Device/Target/usbd_conf.c ****   * @param  Delay: Delay in ms
 743:USB_Device/Target/usbd_conf.c ****   * @retval None
 744:USB_Device/Target/usbd_conf.c ****   */
 745:USB_Device/Target/usbd_conf.c **** void USBD_LL_Delay(uint32_t Delay)
 746:USB_Device/Target/usbd_conf.c **** {
 747:USB_Device/Target/usbd_conf.c ****   HAL_Delay(Delay);
 748:USB_Device/Target/usbd_conf.c **** }
 749:USB_Device/Target/usbd_conf.c **** 
 750:USB_Device/Target/usbd_conf.c **** /* USER CODE BEGIN 5 */
 751:USB_Device/Target/usbd_conf.c **** /**
 752:USB_Device/Target/usbd_conf.c ****   * @brief  Configures system clock after wake-up from USB resume callBack:
 753:USB_Device/Target/usbd_conf.c ****   *         enable HSI, PLL and select PLL as system clock source.
 754:USB_Device/Target/usbd_conf.c ****   * @retval None
 755:USB_Device/Target/usbd_conf.c ****   */
 756:USB_Device/Target/usbd_conf.c **** static void SystemClockConfig_Resume(void)
 757:USB_Device/Target/usbd_conf.c **** {
 758:USB_Device/Target/usbd_conf.c ****   SystemClock_Config();
 759:USB_Device/Target/usbd_conf.c **** }
 760:USB_Device/Target/usbd_conf.c **** /* USER CODE END 5 */
 761:USB_Device/Target/usbd_conf.c **** 
 762:USB_Device/Target/usbd_conf.c **** /**
 763:USB_Device/Target/usbd_conf.c ****   * @brief  Returns the USB status depending on the HAL status:
 764:USB_Device/Target/usbd_conf.c ****   * @param  hal_status: HAL status
 765:USB_Device/Target/usbd_conf.c ****   * @retval USB status
 766:USB_Device/Target/usbd_conf.c ****   */
 767:USB_Device/Target/usbd_conf.c **** USBD_StatusTypeDef USBD_Get_USB_Status(HAL_StatusTypeDef hal_status)
 768:USB_Device/Target/usbd_conf.c **** {
  27              		.loc 1 768 1 view -0
  28              		.cfi_startproc
  29              		@ args = 0, pretend = 0, frame = 0
  30              		@ frame_needed = 0, uses_anonymous_args = 0
  31              		@ link register save eliminated.
ARM GAS  /tmp/ccVI1jbG.s 			page 15


 769:USB_Device/Target/usbd_conf.c ****   USBD_StatusTypeDef usb_status = USBD_OK;
  32              		.loc 1 769 3 view .LVU1
 770:USB_Device/Target/usbd_conf.c **** 
 771:USB_Device/Target/usbd_conf.c ****   switch (hal_status)
  33              		.loc 1 771 3 view .LVU2
  34 0000 0228     		cmp	r0, #2
  35 0002 04D0     		beq	.L3
  36 0004 05D8     		bhi	.L4
  37 0006 0028     		cmp	r0, #0
  38 0008 00D0     		beq	.L2
 772:USB_Device/Target/usbd_conf.c ****   {
 773:USB_Device/Target/usbd_conf.c ****     case HAL_OK :
 774:USB_Device/Target/usbd_conf.c ****       usb_status = USBD_OK;
 775:USB_Device/Target/usbd_conf.c ****     break;
 776:USB_Device/Target/usbd_conf.c ****     case HAL_ERROR :
 777:USB_Device/Target/usbd_conf.c ****       usb_status = USBD_FAIL;
  39              		.loc 1 777 18 is_stmt 0 view .LVU3
  40 000a 0320     		movs	r0, #3
  41              	.LVL1:
  42              	.L2:
 778:USB_Device/Target/usbd_conf.c ****     break;
 779:USB_Device/Target/usbd_conf.c ****     case HAL_BUSY :
 780:USB_Device/Target/usbd_conf.c ****       usb_status = USBD_BUSY;
 781:USB_Device/Target/usbd_conf.c ****     break;
 782:USB_Device/Target/usbd_conf.c ****     case HAL_TIMEOUT :
 783:USB_Device/Target/usbd_conf.c ****       usb_status = USBD_FAIL;
 784:USB_Device/Target/usbd_conf.c ****     break;
 785:USB_Device/Target/usbd_conf.c ****     default :
 786:USB_Device/Target/usbd_conf.c ****       usb_status = USBD_FAIL;
 787:USB_Device/Target/usbd_conf.c ****     break;
 788:USB_Device/Target/usbd_conf.c ****   }
 789:USB_Device/Target/usbd_conf.c ****   return usb_status;
  43              		.loc 1 789 3 is_stmt 1 view .LVU4
 790:USB_Device/Target/usbd_conf.c **** }
  44              		.loc 1 790 1 is_stmt 0 view .LVU5
  45              		@ sp needed
  46 000c 7047     		bx	lr
  47              	.LVL2:
  48              	.L3:
 780:USB_Device/Target/usbd_conf.c ****     break;
  49              		.loc 1 780 18 view .LVU6
  50 000e 0120     		movs	r0, #1
  51              	.LVL3:
 780:USB_Device/Target/usbd_conf.c ****     break;
  52              		.loc 1 780 18 view .LVU7
  53 0010 FCE7     		b	.L2
  54              	.LVL4:
  55              	.L4:
 783:USB_Device/Target/usbd_conf.c ****     break;
  56              		.loc 1 783 18 view .LVU8
  57 0012 0320     		movs	r0, #3
  58              	.LVL5:
 783:USB_Device/Target/usbd_conf.c ****     break;
  59              		.loc 1 783 18 view .LVU9
  60 0014 FAE7     		b	.L2
  61              		.cfi_endproc
  62              	.LFE402:
ARM GAS  /tmp/ccVI1jbG.s 			page 16


  64              		.section	.text.SystemClockConfig_Resume,"ax",%progbits
  65              		.align	1
  66              		.syntax unified
  67              		.code	16
  68              		.thumb_func
  70              	SystemClockConfig_Resume:
  71              	.LFB401:
 757:USB_Device/Target/usbd_conf.c ****   SystemClock_Config();
  72              		.loc 1 757 1 is_stmt 1 view -0
  73              		.cfi_startproc
  74              		@ args = 0, pretend = 0, frame = 0
  75              		@ frame_needed = 0, uses_anonymous_args = 0
  76 0000 10B5     		push	{r4, lr}
  77              	.LCFI0:
  78              		.cfi_def_cfa_offset 8
  79              		.cfi_offset 4, -8
  80              		.cfi_offset 14, -4
 758:USB_Device/Target/usbd_conf.c **** }
  81              		.loc 1 758 3 view .LVU11
  82 0002 FFF7FEFF 		bl	SystemClock_Config
  83              	.LVL6:
 759:USB_Device/Target/usbd_conf.c **** /* USER CODE END 5 */
  84              		.loc 1 759 1 is_stmt 0 view .LVU12
  85              		@ sp needed
  86 0006 10BD     		pop	{r4, pc}
  87              		.cfi_endproc
  88              	.LFE401:
  90              		.section	.text.HAL_PCD_MspInit,"ax",%progbits
  91              		.align	1
  92              		.global	HAL_PCD_MspInit
  93              		.syntax unified
  94              		.code	16
  95              		.thumb_func
  97              	HAL_PCD_MspInit:
  98              	.LVL7:
  99              	.LFB370:
  71:USB_Device/Target/usbd_conf.c ****   if(pcdHandle->Instance==USB_DRD_FS)
 100              		.loc 1 71 1 is_stmt 1 view -0
 101              		.cfi_startproc
 102              		@ args = 0, pretend = 0, frame = 8
 103              		@ frame_needed = 0, uses_anonymous_args = 0
  71:USB_Device/Target/usbd_conf.c ****   if(pcdHandle->Instance==USB_DRD_FS)
 104              		.loc 1 71 1 is_stmt 0 view .LVU14
 105 0000 10B5     		push	{r4, lr}
 106              	.LCFI1:
 107              		.cfi_def_cfa_offset 8
 108              		.cfi_offset 4, -8
 109              		.cfi_offset 14, -4
 110 0002 82B0     		sub	sp, sp, #8
 111              	.LCFI2:
 112              		.cfi_def_cfa_offset 16
  72:USB_Device/Target/usbd_conf.c ****   {
 113              		.loc 1 72 3 is_stmt 1 view .LVU15
  72:USB_Device/Target/usbd_conf.c ****   {
 114              		.loc 1 72 15 is_stmt 0 view .LVU16
 115 0004 0268     		ldr	r2, [r0]
  72:USB_Device/Target/usbd_conf.c ****   {
ARM GAS  /tmp/ccVI1jbG.s 			page 17


 116              		.loc 1 72 5 view .LVU17
 117 0006 174B     		ldr	r3, .L12
 118 0008 9A42     		cmp	r2, r3
 119 000a 01D0     		beq	.L11
 120              	.LVL8:
 121              	.L7:
  99:USB_Device/Target/usbd_conf.c **** 
 122              		.loc 1 99 1 view .LVU18
 123 000c 02B0     		add	sp, sp, #8
 124              		@ sp needed
 125 000e 10BD     		pop	{r4, pc}
 126              	.LVL9:
 127              	.L11:
  78:USB_Device/Target/usbd_conf.c **** 
 128              		.loc 1 78 5 is_stmt 1 view .LVU19
 129              	.LBB2:
  78:USB_Device/Target/usbd_conf.c **** 
 130              		.loc 1 78 5 view .LVU20
  78:USB_Device/Target/usbd_conf.c **** 
 131              		.loc 1 78 5 view .LVU21
 132 0010 154B     		ldr	r3, .L12+4
 133 0012 DA6B     		ldr	r2, [r3, #60]
 134 0014 8021     		movs	r1, #128
 135 0016 8901     		lsls	r1, r1, #6
 136 0018 0A43     		orrs	r2, r1
 137 001a DA63     		str	r2, [r3, #60]
  78:USB_Device/Target/usbd_conf.c **** 
 138              		.loc 1 78 5 view .LVU22
 139 001c DA6B     		ldr	r2, [r3, #60]
 140 001e 0A40     		ands	r2, r1
 141 0020 0092     		str	r2, [sp]
  78:USB_Device/Target/usbd_conf.c **** 
 142              		.loc 1 78 5 view .LVU23
 143 0022 009A     		ldr	r2, [sp]
 144              	.LBE2:
  78:USB_Device/Target/usbd_conf.c **** 
 145              		.loc 1 78 5 view .LVU24
  81:USB_Device/Target/usbd_conf.c ****     {
 146              		.loc 1 81 5 view .LVU25
  81:USB_Device/Target/usbd_conf.c ****     {
 147              		.loc 1 81 8 is_stmt 0 view .LVU26
 148 0024 DB6B     		ldr	r3, [r3, #60]
  81:USB_Device/Target/usbd_conf.c ****     {
 149              		.loc 1 81 7 view .LVU27
 150 0026 DB00     		lsls	r3, r3, #3
 151 0028 18D4     		bmi	.L9
  83:USB_Device/Target/usbd_conf.c ****       HAL_PWREx_EnableVddUSB();
 152              		.loc 1 83 7 is_stmt 1 view .LVU28
 153              	.LBB3:
  83:USB_Device/Target/usbd_conf.c ****       HAL_PWREx_EnableVddUSB();
 154              		.loc 1 83 7 view .LVU29
  83:USB_Device/Target/usbd_conf.c ****       HAL_PWREx_EnableVddUSB();
 155              		.loc 1 83 7 view .LVU30
 156 002a 0F4C     		ldr	r4, .L12+4
 157 002c E36B     		ldr	r3, [r4, #60]
 158 002e 8022     		movs	r2, #128
 159 0030 5205     		lsls	r2, r2, #21
ARM GAS  /tmp/ccVI1jbG.s 			page 18


 160 0032 1343     		orrs	r3, r2
 161 0034 E363     		str	r3, [r4, #60]
  83:USB_Device/Target/usbd_conf.c ****       HAL_PWREx_EnableVddUSB();
 162              		.loc 1 83 7 view .LVU31
 163 0036 E36B     		ldr	r3, [r4, #60]
 164 0038 1340     		ands	r3, r2
 165 003a 0193     		str	r3, [sp, #4]
  83:USB_Device/Target/usbd_conf.c ****       HAL_PWREx_EnableVddUSB();
 166              		.loc 1 83 7 view .LVU32
 167 003c 019B     		ldr	r3, [sp, #4]
 168              	.LBE3:
  83:USB_Device/Target/usbd_conf.c ****       HAL_PWREx_EnableVddUSB();
 169              		.loc 1 83 7 view .LVU33
  84:USB_Device/Target/usbd_conf.c ****       __HAL_RCC_PWR_CLK_DISABLE();
 170              		.loc 1 84 7 view .LVU34
 171 003e FFF7FEFF 		bl	HAL_PWREx_EnableVddUSB
 172              	.LVL10:
  85:USB_Device/Target/usbd_conf.c ****     }
 173              		.loc 1 85 7 view .LVU35
 174 0042 E36B     		ldr	r3, [r4, #60]
 175 0044 094A     		ldr	r2, .L12+8
 176 0046 1340     		ands	r3, r2
 177 0048 E363     		str	r3, [r4, #60]
 178              	.L10:
  93:USB_Device/Target/usbd_conf.c ****     HAL_NVIC_EnableIRQ(USB_UCPD1_2_IRQn);
 179              		.loc 1 93 5 view .LVU36
 180 004a 0022     		movs	r2, #0
 181 004c 0021     		movs	r1, #0
 182 004e 0820     		movs	r0, #8
 183 0050 FFF7FEFF 		bl	HAL_NVIC_SetPriority
 184              	.LVL11:
  94:USB_Device/Target/usbd_conf.c ****   /* USER CODE BEGIN USB_DRD_FS_MspInit 1 */
 185              		.loc 1 94 5 view .LVU37
 186 0054 0820     		movs	r0, #8
 187 0056 FFF7FEFF 		bl	HAL_NVIC_EnableIRQ
 188              	.LVL12:
  99:USB_Device/Target/usbd_conf.c **** 
 189              		.loc 1 99 1 is_stmt 0 view .LVU38
 190 005a D7E7     		b	.L7
 191              	.LVL13:
 192              	.L9:
  89:USB_Device/Target/usbd_conf.c ****     }
 193              		.loc 1 89 7 is_stmt 1 view .LVU39
 194 005c FFF7FEFF 		bl	HAL_PWREx_EnableVddUSB
 195              	.LVL14:
  89:USB_Device/Target/usbd_conf.c ****     }
 196              		.loc 1 89 7 is_stmt 0 view .LVU40
 197 0060 F3E7     		b	.L10
 198              	.L13:
 199 0062 C046     		.align	2
 200              	.L12:
 201 0064 005C0040 		.word	1073765376
 202 0068 00100240 		.word	1073876992
 203 006c FFFFFFEF 		.word	-268435457
 204              		.cfi_endproc
 205              	.LFE370:
 207              		.section	.text.HAL_PCD_MspDeInit,"ax",%progbits
ARM GAS  /tmp/ccVI1jbG.s 			page 19


 208              		.align	1
 209              		.global	HAL_PCD_MspDeInit
 210              		.syntax unified
 211              		.code	16
 212              		.thumb_func
 214              	HAL_PCD_MspDeInit:
 215              	.LVL15:
 216              	.LFB371:
 102:USB_Device/Target/usbd_conf.c ****   if(pcdHandle->Instance==USB_DRD_FS)
 217              		.loc 1 102 1 is_stmt 1 view -0
 218              		.cfi_startproc
 219              		@ args = 0, pretend = 0, frame = 0
 220              		@ frame_needed = 0, uses_anonymous_args = 0
 102:USB_Device/Target/usbd_conf.c ****   if(pcdHandle->Instance==USB_DRD_FS)
 221              		.loc 1 102 1 is_stmt 0 view .LVU42
 222 0000 10B5     		push	{r4, lr}
 223              	.LCFI3:
 224              		.cfi_def_cfa_offset 8
 225              		.cfi_offset 4, -8
 226              		.cfi_offset 14, -4
 103:USB_Device/Target/usbd_conf.c ****   {
 227              		.loc 1 103 3 is_stmt 1 view .LVU43
 103:USB_Device/Target/usbd_conf.c ****   {
 228              		.loc 1 103 15 is_stmt 0 view .LVU44
 229 0002 0268     		ldr	r2, [r0]
 103:USB_Device/Target/usbd_conf.c ****   {
 230              		.loc 1 103 5 view .LVU45
 231 0004 064B     		ldr	r3, .L17
 232 0006 9A42     		cmp	r2, r3
 233 0008 00D0     		beq	.L16
 234              	.LVL16:
 235              	.L14:
 118:USB_Device/Target/usbd_conf.c **** 
 236              		.loc 1 118 1 view .LVU46
 237              		@ sp needed
 238 000a 10BD     		pop	{r4, pc}
 239              	.LVL17:
 240              	.L16:
 109:USB_Device/Target/usbd_conf.c **** 
 241              		.loc 1 109 5 is_stmt 1 view .LVU47
 242 000c 054A     		ldr	r2, .L17+4
 243 000e D36B     		ldr	r3, [r2, #60]
 244 0010 0549     		ldr	r1, .L17+8
 245 0012 0B40     		ands	r3, r1
 246 0014 D363     		str	r3, [r2, #60]
 112:USB_Device/Target/usbd_conf.c **** 
 247              		.loc 1 112 5 view .LVU48
 248 0016 0820     		movs	r0, #8
 249              	.LVL18:
 112:USB_Device/Target/usbd_conf.c **** 
 250              		.loc 1 112 5 is_stmt 0 view .LVU49
 251 0018 FFF7FEFF 		bl	HAL_NVIC_DisableIRQ
 252              	.LVL19:
 118:USB_Device/Target/usbd_conf.c **** 
 253              		.loc 1 118 1 view .LVU50
 254 001c F5E7     		b	.L14
 255              	.L18:
ARM GAS  /tmp/ccVI1jbG.s 			page 20


 256 001e C046     		.align	2
 257              	.L17:
 258 0020 005C0040 		.word	1073765376
 259 0024 00100240 		.word	1073876992
 260 0028 FFDFFFFF 		.word	-8193
 261              		.cfi_endproc
 262              	.LFE371:
 264              		.section	.text.HAL_PCD_SetupStageCallback,"ax",%progbits
 265              		.align	1
 266              		.global	HAL_PCD_SetupStageCallback
 267              		.syntax unified
 268              		.code	16
 269              		.thumb_func
 271              	HAL_PCD_SetupStageCallback:
 272              	.LVL20:
 273              	.LFB372:
 130:USB_Device/Target/usbd_conf.c ****   /* USER CODE BEGIN HAL_PCD_SetupStageCallback_PreTreatment */
 274              		.loc 1 130 1 is_stmt 1 view -0
 275              		.cfi_startproc
 276              		@ args = 0, pretend = 0, frame = 0
 277              		@ frame_needed = 0, uses_anonymous_args = 0
 130:USB_Device/Target/usbd_conf.c ****   /* USER CODE BEGIN HAL_PCD_SetupStageCallback_PreTreatment */
 278              		.loc 1 130 1 is_stmt 0 view .LVU52
 279 0000 10B5     		push	{r4, lr}
 280              	.LCFI4:
 281              		.cfi_def_cfa_offset 8
 282              		.cfi_offset 4, -8
 283              		.cfi_offset 14, -4
 284 0002 0100     		movs	r1, r0
 134:USB_Device/Target/usbd_conf.c ****   /* USER CODE BEGIN HAL_PCD_SetupStageCallback_PostTreatment */
 285              		.loc 1 134 3 is_stmt 1 view .LVU53
 134:USB_Device/Target/usbd_conf.c ****   /* USER CODE BEGIN HAL_PCD_SetupStageCallback_PostTreatment */
 286              		.loc 1 134 47 is_stmt 0 view .LVU54
 287 0004 C123     		movs	r3, #193
 288 0006 9B00     		lsls	r3, r3, #2
 289 0008 C058     		ldr	r0, [r0, r3]
 290              	.LVL21:
 134:USB_Device/Target/usbd_conf.c ****   /* USER CODE BEGIN HAL_PCD_SetupStageCallback_PostTreatment */
 291              		.loc 1 134 67 view .LVU55
 292 000a 403B     		subs	r3, r3, #64
 293 000c 9C46     		mov	ip, r3
 294 000e 6144     		add	r1, r1, ip
 295              	.LVL22:
 134:USB_Device/Target/usbd_conf.c ****   /* USER CODE BEGIN HAL_PCD_SetupStageCallback_PostTreatment */
 296              		.loc 1 134 3 view .LVU56
 297 0010 FFF7FEFF 		bl	USBD_LL_SetupStage
 298              	.LVL23:
 138:USB_Device/Target/usbd_conf.c **** 
 299              		.loc 1 138 1 view .LVU57
 300              		@ sp needed
 301 0014 10BD     		pop	{r4, pc}
 302              		.cfi_endproc
 303              	.LFE372:
 305              		.section	.text.HAL_PCD_DataOutStageCallback,"ax",%progbits
 306              		.align	1
 307              		.global	HAL_PCD_DataOutStageCallback
 308              		.syntax unified
ARM GAS  /tmp/ccVI1jbG.s 			page 21


 309              		.code	16
 310              		.thumb_func
 312              	HAL_PCD_DataOutStageCallback:
 313              	.LVL24:
 314              	.LFB373:
 151:USB_Device/Target/usbd_conf.c ****   /* USER CODE BEGIN HAL_PCD_DataOutStageCallback_PreTreatment */
 315              		.loc 1 151 1 is_stmt 1 view -0
 316              		.cfi_startproc
 317              		@ args = 0, pretend = 0, frame = 0
 318              		@ frame_needed = 0, uses_anonymous_args = 0
 151:USB_Device/Target/usbd_conf.c ****   /* USER CODE BEGIN HAL_PCD_DataOutStageCallback_PreTreatment */
 319              		.loc 1 151 1 is_stmt 0 view .LVU59
 320 0000 10B5     		push	{r4, lr}
 321              	.LCFI5:
 322              		.cfi_def_cfa_offset 8
 323              		.cfi_offset 4, -8
 324              		.cfi_offset 14, -4
 325 0002 0300     		movs	r3, r0
 155:USB_Device/Target/usbd_conf.c ****   /* USER CODE BEGIN HAL_PCD_DataOutStageCallback_PostTreatment */
 326              		.loc 1 155 3 is_stmt 1 view .LVU60
 155:USB_Device/Target/usbd_conf.c ****   /* USER CODE BEGIN HAL_PCD_DataOutStageCallback_PostTreatment */
 327              		.loc 1 155 49 is_stmt 0 view .LVU61
 328 0004 C122     		movs	r2, #193
 329 0006 9200     		lsls	r2, r2, #2
 330 0008 8058     		ldr	r0, [r0, r2]
 331              	.LVL25:
 155:USB_Device/Target/usbd_conf.c ****   /* USER CODE BEGIN HAL_PCD_DataOutStageCallback_PostTreatment */
 332              		.loc 1 155 3 view .LVU62
 333 000a 8A00     		lsls	r2, r1, #2
 334 000c 5218     		adds	r2, r2, r1
 335 000e D200     		lsls	r2, r2, #3
 336 0010 9B18     		adds	r3, r3, r2
 337              	.LVL26:
 155:USB_Device/Target/usbd_conf.c ****   /* USER CODE BEGIN HAL_PCD_DataOutStageCallback_PostTreatment */
 338              		.loc 1 155 3 view .LVU63
 339 0012 9133     		adds	r3, r3, #145
 340 0014 FF33     		adds	r3, r3, #255
 341 0016 1A68     		ldr	r2, [r3]
 342 0018 FFF7FEFF 		bl	USBD_LL_DataOutStage
 343              	.LVL27:
 159:USB_Device/Target/usbd_conf.c **** 
 344              		.loc 1 159 1 view .LVU64
 345              		@ sp needed
 346 001c 10BD     		pop	{r4, pc}
 347              		.cfi_endproc
 348              	.LFE373:
 350              		.section	.text.HAL_PCD_DataInStageCallback,"ax",%progbits
 351              		.align	1
 352              		.global	HAL_PCD_DataInStageCallback
 353              		.syntax unified
 354              		.code	16
 355              		.thumb_func
 357              	HAL_PCD_DataInStageCallback:
 358              	.LVL28:
 359              	.LFB374:
 172:USB_Device/Target/usbd_conf.c ****   /* USER CODE BEGIN HAL_PCD_DataInStageCallback_PreTreatment */
 360              		.loc 1 172 1 is_stmt 1 view -0
ARM GAS  /tmp/ccVI1jbG.s 			page 22


 361              		.cfi_startproc
 362              		@ args = 0, pretend = 0, frame = 0
 363              		@ frame_needed = 0, uses_anonymous_args = 0
 172:USB_Device/Target/usbd_conf.c ****   /* USER CODE BEGIN HAL_PCD_DataInStageCallback_PreTreatment */
 364              		.loc 1 172 1 is_stmt 0 view .LVU66
 365 0000 10B5     		push	{r4, lr}
 366              	.LCFI6:
 367              		.cfi_def_cfa_offset 8
 368              		.cfi_offset 4, -8
 369              		.cfi_offset 14, -4
 370 0002 0300     		movs	r3, r0
 176:USB_Device/Target/usbd_conf.c ****   /* USER CODE BEGIN HAL_PCD_DataInStageCallback_PostTreatment  */
 371              		.loc 1 176 3 is_stmt 1 view .LVU67
 176:USB_Device/Target/usbd_conf.c ****   /* USER CODE BEGIN HAL_PCD_DataInStageCallback_PostTreatment  */
 372              		.loc 1 176 48 is_stmt 0 view .LVU68
 373 0004 C122     		movs	r2, #193
 374 0006 9200     		lsls	r2, r2, #2
 375 0008 8058     		ldr	r0, [r0, r2]
 376              	.LVL29:
 176:USB_Device/Target/usbd_conf.c ****   /* USER CODE BEGIN HAL_PCD_DataInStageCallback_PostTreatment  */
 377              		.loc 1 176 3 view .LVU69
 378 000a 8A00     		lsls	r2, r1, #2
 379 000c 5218     		adds	r2, r2, r1
 380 000e D200     		lsls	r2, r2, #3
 381 0010 9B18     		adds	r3, r3, r2
 382              	.LVL30:
 176:USB_Device/Target/usbd_conf.c ****   /* USER CODE BEGIN HAL_PCD_DataInStageCallback_PostTreatment  */
 383              		.loc 1 176 3 view .LVU70
 384 0012 1A6D     		ldr	r2, [r3, #80]
 385 0014 FFF7FEFF 		bl	USBD_LL_DataInStage
 386              	.LVL31:
 180:USB_Device/Target/usbd_conf.c **** 
 387              		.loc 1 180 1 view .LVU71
 388              		@ sp needed
 389 0018 10BD     		pop	{r4, pc}
 390              		.cfi_endproc
 391              	.LFE374:
 393              		.section	.text.HAL_PCD_SOFCallback,"ax",%progbits
 394              		.align	1
 395              		.global	HAL_PCD_SOFCallback
 396              		.syntax unified
 397              		.code	16
 398              		.thumb_func
 400              	HAL_PCD_SOFCallback:
 401              	.LVL32:
 402              	.LFB375:
 192:USB_Device/Target/usbd_conf.c ****   /* USER CODE BEGIN HAL_PCD_SOFCallback_PreTreatment */
 403              		.loc 1 192 1 is_stmt 1 view -0
 404              		.cfi_startproc
 405              		@ args = 0, pretend = 0, frame = 0
 406              		@ frame_needed = 0, uses_anonymous_args = 0
 192:USB_Device/Target/usbd_conf.c ****   /* USER CODE BEGIN HAL_PCD_SOFCallback_PreTreatment */
 407              		.loc 1 192 1 is_stmt 0 view .LVU73
 408 0000 10B5     		push	{r4, lr}
 409              	.LCFI7:
 410              		.cfi_def_cfa_offset 8
 411              		.cfi_offset 4, -8
ARM GAS  /tmp/ccVI1jbG.s 			page 23


 412              		.cfi_offset 14, -4
 196:USB_Device/Target/usbd_conf.c ****   /* USER CODE BEGIN HAL_PCD_SOFCallback_PostTreatment */
 413              		.loc 1 196 3 is_stmt 1 view .LVU74
 196:USB_Device/Target/usbd_conf.c ****   /* USER CODE BEGIN HAL_PCD_SOFCallback_PostTreatment */
 414              		.loc 1 196 40 is_stmt 0 view .LVU75
 415 0002 C123     		movs	r3, #193
 416 0004 9B00     		lsls	r3, r3, #2
 417 0006 C058     		ldr	r0, [r0, r3]
 418              	.LVL33:
 196:USB_Device/Target/usbd_conf.c ****   /* USER CODE BEGIN HAL_PCD_SOFCallback_PostTreatment */
 419              		.loc 1 196 3 view .LVU76
 420 0008 FFF7FEFF 		bl	USBD_LL_SOF
 421              	.LVL34:
 200:USB_Device/Target/usbd_conf.c **** 
 422              		.loc 1 200 1 view .LVU77
 423              		@ sp needed
 424 000c 10BD     		pop	{r4, pc}
 425              		.cfi_endproc
 426              	.LFE375:
 428              		.section	.text.HAL_PCD_ResetCallback,"ax",%progbits
 429              		.align	1
 430              		.global	HAL_PCD_ResetCallback
 431              		.syntax unified
 432              		.code	16
 433              		.thumb_func
 435              	HAL_PCD_ResetCallback:
 436              	.LVL35:
 437              	.LFB376:
 212:USB_Device/Target/usbd_conf.c ****   /* USER CODE BEGIN HAL_PCD_ResetCallback_PreTreatment */
 438              		.loc 1 212 1 is_stmt 1 view -0
 439              		.cfi_startproc
 440              		@ args = 0, pretend = 0, frame = 0
 441              		@ frame_needed = 0, uses_anonymous_args = 0
 212:USB_Device/Target/usbd_conf.c ****   /* USER CODE BEGIN HAL_PCD_ResetCallback_PreTreatment */
 442              		.loc 1 212 1 is_stmt 0 view .LVU79
 443 0000 70B5     		push	{r4, r5, r6, lr}
 444              	.LCFI8:
 445              		.cfi_def_cfa_offset 16
 446              		.cfi_offset 4, -16
 447              		.cfi_offset 5, -12
 448              		.cfi_offset 6, -8
 449              		.cfi_offset 14, -4
 450 0002 0400     		movs	r4, r0
 216:USB_Device/Target/usbd_conf.c ****   if (hpcd->Init.speed != USBD_FS_SPEED)
 451              		.loc 1 216 3 is_stmt 1 view .LVU80
 452              	.LVL36:
 217:USB_Device/Target/usbd_conf.c ****   {
 453              		.loc 1 217 3 view .LVU81
 217:USB_Device/Target/usbd_conf.c ****   {
 454              		.loc 1 217 17 is_stmt 0 view .LVU82
 455 0004 C368     		ldr	r3, [r0, #12]
 217:USB_Device/Target/usbd_conf.c ****   {
 456              		.loc 1 217 6 view .LVU83
 457 0006 022B     		cmp	r3, #2
 458 0008 09D1     		bne	.L25
 459              	.LVL37:
 460              	.L24:
ARM GAS  /tmp/ccVI1jbG.s 			page 24


 222:USB_Device/Target/usbd_conf.c **** 
 461              		.loc 1 222 3 is_stmt 1 view .LVU84
 222:USB_Device/Target/usbd_conf.c **** 
 462              		.loc 1 222 45 is_stmt 0 view .LVU85
 463 000a C125     		movs	r5, #193
 464 000c AD00     		lsls	r5, r5, #2
 465 000e 6059     		ldr	r0, [r4, r5]
 222:USB_Device/Target/usbd_conf.c **** 
 466              		.loc 1 222 3 view .LVU86
 467 0010 0121     		movs	r1, #1
 468 0012 FFF7FEFF 		bl	USBD_LL_SetSpeed
 469              	.LVL38:
 225:USB_Device/Target/usbd_conf.c ****   /* USER CODE BEGIN HAL_PCD_ResetCallback_PostTreatment */
 470              		.loc 1 225 3 is_stmt 1 view .LVU87
 225:USB_Device/Target/usbd_conf.c ****   /* USER CODE BEGIN HAL_PCD_ResetCallback_PostTreatment */
 471              		.loc 1 225 42 is_stmt 0 view .LVU88
 472 0016 6059     		ldr	r0, [r4, r5]
 225:USB_Device/Target/usbd_conf.c ****   /* USER CODE BEGIN HAL_PCD_ResetCallback_PostTreatment */
 473              		.loc 1 225 3 view .LVU89
 474 0018 FFF7FEFF 		bl	USBD_LL_Reset
 475              	.LVL39:
 229:USB_Device/Target/usbd_conf.c **** 
 476              		.loc 1 229 1 view .LVU90
 477              		@ sp needed
 478              	.LVL40:
 229:USB_Device/Target/usbd_conf.c **** 
 479              		.loc 1 229 1 view .LVU91
 480 001c 70BD     		pop	{r4, r5, r6, pc}
 481              	.LVL41:
 482              	.L25:
 219:USB_Device/Target/usbd_conf.c ****   }
 483              		.loc 1 219 5 is_stmt 1 view .LVU92
 484 001e FFF7FEFF 		bl	Error_Handler
 485              	.LVL42:
 219:USB_Device/Target/usbd_conf.c ****   }
 486              		.loc 1 219 5 is_stmt 0 view .LVU93
 487 0022 F2E7     		b	.L24
 488              		.cfi_endproc
 489              	.LFE376:
 491              		.section	.text.HAL_PCD_SuspendCallback,"ax",%progbits
 492              		.align	1
 493              		.global	HAL_PCD_SuspendCallback
 494              		.syntax unified
 495              		.code	16
 496              		.thumb_func
 498              	HAL_PCD_SuspendCallback:
 499              	.LVL43:
 500              	.LFB377:
 242:USB_Device/Target/usbd_conf.c ****   /* USER CODE BEGIN HAL_PCD_SuspendCallback_PreTreatment */
 501              		.loc 1 242 1 is_stmt 1 view -0
 502              		.cfi_startproc
 503              		@ args = 0, pretend = 0, frame = 0
 504              		@ frame_needed = 0, uses_anonymous_args = 0
 242:USB_Device/Target/usbd_conf.c ****   /* USER CODE BEGIN HAL_PCD_SuspendCallback_PreTreatment */
 505              		.loc 1 242 1 is_stmt 0 view .LVU95
 506 0000 10B5     		push	{r4, lr}
 507              	.LCFI9:
ARM GAS  /tmp/ccVI1jbG.s 			page 25


 508              		.cfi_def_cfa_offset 8
 509              		.cfi_offset 4, -8
 510              		.cfi_offset 14, -4
 511 0002 0400     		movs	r4, r0
 248:USB_Device/Target/usbd_conf.c ****   /* Enter in STOP mode. */
 512              		.loc 1 248 3 is_stmt 1 view .LVU96
 248:USB_Device/Target/usbd_conf.c ****   /* Enter in STOP mode. */
 513              		.loc 1 248 44 is_stmt 0 view .LVU97
 514 0004 C123     		movs	r3, #193
 515 0006 9B00     		lsls	r3, r3, #2
 516 0008 C058     		ldr	r0, [r0, r3]
 517              	.LVL44:
 248:USB_Device/Target/usbd_conf.c ****   /* Enter in STOP mode. */
 518              		.loc 1 248 3 view .LVU98
 519 000a FFF7FEFF 		bl	USBD_LL_Suspend
 520              	.LVL45:
 251:USB_Device/Target/usbd_conf.c ****   {
 521              		.loc 1 251 3 is_stmt 1 view .LVU99
 251:USB_Device/Target/usbd_conf.c ****   {
 522              		.loc 1 251 17 is_stmt 0 view .LVU100
 523 000e 236A     		ldr	r3, [r4, #32]
 251:USB_Device/Target/usbd_conf.c ****   {
 524              		.loc 1 251 6 view .LVU101
 525 0010 002B     		cmp	r3, #0
 526 0012 04D0     		beq	.L26
 254:USB_Device/Target/usbd_conf.c ****   }
 527              		.loc 1 254 5 is_stmt 1 view .LVU102
 254:USB_Device/Target/usbd_conf.c ****   }
 528              		.loc 1 254 8 is_stmt 0 view .LVU103
 529 0014 024A     		ldr	r2, .L28
 530 0016 1369     		ldr	r3, [r2, #16]
 254:USB_Device/Target/usbd_conf.c ****   }
 531              		.loc 1 254 14 view .LVU104
 532 0018 0621     		movs	r1, #6
 533 001a 0B43     		orrs	r3, r1
 534 001c 1361     		str	r3, [r2, #16]
 535              	.L26:
 260:USB_Device/Target/usbd_conf.c **** 
 536              		.loc 1 260 1 view .LVU105
 537              		@ sp needed
 538              	.LVL46:
 260:USB_Device/Target/usbd_conf.c **** 
 539              		.loc 1 260 1 view .LVU106
 540 001e 10BD     		pop	{r4, pc}
 541              	.L29:
 542              		.align	2
 543              	.L28:
 544 0020 00ED00E0 		.word	-536810240
 545              		.cfi_endproc
 546              	.LFE377:
 548              		.section	.text.HAL_PCD_ResumeCallback,"ax",%progbits
 549              		.align	1
 550              		.global	HAL_PCD_ResumeCallback
 551              		.syntax unified
 552              		.code	16
 553              		.thumb_func
 555              	HAL_PCD_ResumeCallback:
ARM GAS  /tmp/ccVI1jbG.s 			page 26


 556              	.LVL47:
 557              	.LFB378:
 273:USB_Device/Target/usbd_conf.c ****   /* USER CODE BEGIN HAL_PCD_ResumeCallback_PreTreatment */
 558              		.loc 1 273 1 is_stmt 1 view -0
 559              		.cfi_startproc
 560              		@ args = 0, pretend = 0, frame = 0
 561              		@ frame_needed = 0, uses_anonymous_args = 0
 273:USB_Device/Target/usbd_conf.c ****   /* USER CODE BEGIN HAL_PCD_ResumeCallback_PreTreatment */
 562              		.loc 1 273 1 is_stmt 0 view .LVU108
 563 0000 10B5     		push	{r4, lr}
 564              	.LCFI10:
 565              		.cfi_def_cfa_offset 8
 566              		.cfi_offset 4, -8
 567              		.cfi_offset 14, -4
 568 0002 0400     		movs	r4, r0
 280:USB_Device/Target/usbd_conf.c ****   {
 569              		.loc 1 280 3 is_stmt 1 view .LVU109
 280:USB_Device/Target/usbd_conf.c ****   {
 570              		.loc 1 280 17 is_stmt 0 view .LVU110
 571 0004 036A     		ldr	r3, [r0, #32]
 280:USB_Device/Target/usbd_conf.c ****   {
 572              		.loc 1 280 6 view .LVU111
 573 0006 002B     		cmp	r3, #0
 574 0008 05D1     		bne	.L32
 575              	.LVL48:
 576              	.L31:
 288:USB_Device/Target/usbd_conf.c ****   /* USER CODE BEGIN HAL_PCD_ResumeCallback_PostTreatment */
 577              		.loc 1 288 3 is_stmt 1 view .LVU112
 288:USB_Device/Target/usbd_conf.c ****   /* USER CODE BEGIN HAL_PCD_ResumeCallback_PostTreatment */
 578              		.loc 1 288 43 is_stmt 0 view .LVU113
 579 000a C123     		movs	r3, #193
 580 000c 9B00     		lsls	r3, r3, #2
 581 000e E058     		ldr	r0, [r4, r3]
 288:USB_Device/Target/usbd_conf.c ****   /* USER CODE BEGIN HAL_PCD_ResumeCallback_PostTreatment */
 582              		.loc 1 288 3 view .LVU114
 583 0010 FFF7FEFF 		bl	USBD_LL_Resume
 584              	.LVL49:
 292:USB_Device/Target/usbd_conf.c **** 
 585              		.loc 1 292 1 view .LVU115
 586              		@ sp needed
 587              	.LVL50:
 292:USB_Device/Target/usbd_conf.c **** 
 588              		.loc 1 292 1 view .LVU116
 589 0014 10BD     		pop	{r4, pc}
 590              	.LVL51:
 591              	.L32:
 283:USB_Device/Target/usbd_conf.c ****     SystemClockConfig_Resume();
 592              		.loc 1 283 5 is_stmt 1 view .LVU117
 283:USB_Device/Target/usbd_conf.c ****     SystemClockConfig_Resume();
 593              		.loc 1 283 8 is_stmt 0 view .LVU118
 594 0016 044A     		ldr	r2, .L33
 595 0018 1369     		ldr	r3, [r2, #16]
 283:USB_Device/Target/usbd_conf.c ****     SystemClockConfig_Resume();
 596              		.loc 1 283 14 view .LVU119
 597 001a 0621     		movs	r1, #6
 598 001c 8B43     		bics	r3, r1
 599 001e 1361     		str	r3, [r2, #16]
ARM GAS  /tmp/ccVI1jbG.s 			page 27


 284:USB_Device/Target/usbd_conf.c ****   }
 600              		.loc 1 284 5 is_stmt 1 view .LVU120
 601 0020 FFF7FEFF 		bl	SystemClockConfig_Resume
 602              	.LVL52:
 284:USB_Device/Target/usbd_conf.c ****   }
 603              		.loc 1 284 5 is_stmt 0 view .LVU121
 604 0024 F1E7     		b	.L31
 605              	.L34:
 606 0026 C046     		.align	2
 607              	.L33:
 608 0028 00ED00E0 		.word	-536810240
 609              		.cfi_endproc
 610              	.LFE378:
 612              		.section	.text.HAL_PCD_ISOOUTIncompleteCallback,"ax",%progbits
 613              		.align	1
 614              		.global	HAL_PCD_ISOOUTIncompleteCallback
 615              		.syntax unified
 616              		.code	16
 617              		.thumb_func
 619              	HAL_PCD_ISOOUTIncompleteCallback:
 620              	.LVL53:
 621              	.LFB379:
 305:USB_Device/Target/usbd_conf.c ****   /* USER CODE BEGIN HAL_PCD_ISOOUTIncompleteCallback_PreTreatment */
 622              		.loc 1 305 1 is_stmt 1 view -0
 623              		.cfi_startproc
 624              		@ args = 0, pretend = 0, frame = 0
 625              		@ frame_needed = 0, uses_anonymous_args = 0
 305:USB_Device/Target/usbd_conf.c ****   /* USER CODE BEGIN HAL_PCD_ISOOUTIncompleteCallback_PreTreatment */
 626              		.loc 1 305 1 is_stmt 0 view .LVU123
 627 0000 10B5     		push	{r4, lr}
 628              	.LCFI11:
 629              		.cfi_def_cfa_offset 8
 630              		.cfi_offset 4, -8
 631              		.cfi_offset 14, -4
 309:USB_Device/Target/usbd_conf.c ****   /* USER CODE BEGIN HAL_PCD_ISOOUTIncompleteCallback_PostTreatment */
 632              		.loc 1 309 3 is_stmt 1 view .LVU124
 309:USB_Device/Target/usbd_conf.c ****   /* USER CODE BEGIN HAL_PCD_ISOOUTIncompleteCallback_PostTreatment */
 633              		.loc 1 309 53 is_stmt 0 view .LVU125
 634 0002 C123     		movs	r3, #193
 635 0004 9B00     		lsls	r3, r3, #2
 636 0006 C058     		ldr	r0, [r0, r3]
 637              	.LVL54:
 309:USB_Device/Target/usbd_conf.c ****   /* USER CODE BEGIN HAL_PCD_ISOOUTIncompleteCallback_PostTreatment */
 638              		.loc 1 309 3 view .LVU126
 639 0008 FFF7FEFF 		bl	USBD_LL_IsoOUTIncomplete
 640              	.LVL55:
 313:USB_Device/Target/usbd_conf.c **** 
 641              		.loc 1 313 1 view .LVU127
 642              		@ sp needed
 643 000c 10BD     		pop	{r4, pc}
 644              		.cfi_endproc
 645              	.LFE379:
 647              		.section	.text.HAL_PCD_ISOINIncompleteCallback,"ax",%progbits
 648              		.align	1
 649              		.global	HAL_PCD_ISOINIncompleteCallback
 650              		.syntax unified
 651              		.code	16
ARM GAS  /tmp/ccVI1jbG.s 			page 28


 652              		.thumb_func
 654              	HAL_PCD_ISOINIncompleteCallback:
 655              	.LVL56:
 656              	.LFB380:
 326:USB_Device/Target/usbd_conf.c ****   /* USER CODE BEGIN HAL_PCD_ISOINIncompleteCallback_PreTreatment */
 657              		.loc 1 326 1 is_stmt 1 view -0
 658              		.cfi_startproc
 659              		@ args = 0, pretend = 0, frame = 0
 660              		@ frame_needed = 0, uses_anonymous_args = 0
 326:USB_Device/Target/usbd_conf.c ****   /* USER CODE BEGIN HAL_PCD_ISOINIncompleteCallback_PreTreatment */
 661              		.loc 1 326 1 is_stmt 0 view .LVU129
 662 0000 10B5     		push	{r4, lr}
 663              	.LCFI12:
 664              		.cfi_def_cfa_offset 8
 665              		.cfi_offset 4, -8
 666              		.cfi_offset 14, -4
 330:USB_Device/Target/usbd_conf.c ****   /* USER CODE BEGIN HAL_PCD_ISOINIncompleteCallback_PostTreatment */
 667              		.loc 1 330 3 is_stmt 1 view .LVU130
 330:USB_Device/Target/usbd_conf.c ****   /* USER CODE BEGIN HAL_PCD_ISOINIncompleteCallback_PostTreatment */
 668              		.loc 1 330 52 is_stmt 0 view .LVU131
 669 0002 C123     		movs	r3, #193
 670 0004 9B00     		lsls	r3, r3, #2
 671 0006 C058     		ldr	r0, [r0, r3]
 672              	.LVL57:
 330:USB_Device/Target/usbd_conf.c ****   /* USER CODE BEGIN HAL_PCD_ISOINIncompleteCallback_PostTreatment */
 673              		.loc 1 330 3 view .LVU132
 674 0008 FFF7FEFF 		bl	USBD_LL_IsoINIncomplete
 675              	.LVL58:
 334:USB_Device/Target/usbd_conf.c **** 
 676              		.loc 1 334 1 view .LVU133
 677              		@ sp needed
 678 000c 10BD     		pop	{r4, pc}
 679              		.cfi_endproc
 680              	.LFE380:
 682              		.section	.text.HAL_PCD_ConnectCallback,"ax",%progbits
 683              		.align	1
 684              		.global	HAL_PCD_ConnectCallback
 685              		.syntax unified
 686              		.code	16
 687              		.thumb_func
 689              	HAL_PCD_ConnectCallback:
 690              	.LVL59:
 691              	.LFB381:
 346:USB_Device/Target/usbd_conf.c ****   /* USER CODE BEGIN HAL_PCD_ConnectCallback_PreTreatment */
 692              		.loc 1 346 1 is_stmt 1 view -0
 693              		.cfi_startproc
 694              		@ args = 0, pretend = 0, frame = 0
 695              		@ frame_needed = 0, uses_anonymous_args = 0
 346:USB_Device/Target/usbd_conf.c ****   /* USER CODE BEGIN HAL_PCD_ConnectCallback_PreTreatment */
 696              		.loc 1 346 1 is_stmt 0 view .LVU135
 697 0000 10B5     		push	{r4, lr}
 698              	.LCFI13:
 699              		.cfi_def_cfa_offset 8
 700              		.cfi_offset 4, -8
 701              		.cfi_offset 14, -4
 350:USB_Device/Target/usbd_conf.c ****   /* USER CODE BEGIN HAL_PCD_ConnectCallback_PostTreatment */
 702              		.loc 1 350 3 is_stmt 1 view .LVU136
ARM GAS  /tmp/ccVI1jbG.s 			page 29


 350:USB_Device/Target/usbd_conf.c ****   /* USER CODE BEGIN HAL_PCD_ConnectCallback_PostTreatment */
 703              		.loc 1 350 49 is_stmt 0 view .LVU137
 704 0002 C123     		movs	r3, #193
 705 0004 9B00     		lsls	r3, r3, #2
 706 0006 C058     		ldr	r0, [r0, r3]
 707              	.LVL60:
 350:USB_Device/Target/usbd_conf.c ****   /* USER CODE BEGIN HAL_PCD_ConnectCallback_PostTreatment */
 708              		.loc 1 350 3 view .LVU138
 709 0008 FFF7FEFF 		bl	USBD_LL_DevConnected
 710              	.LVL61:
 354:USB_Device/Target/usbd_conf.c **** 
 711              		.loc 1 354 1 view .LVU139
 712              		@ sp needed
 713 000c 10BD     		pop	{r4, pc}
 714              		.cfi_endproc
 715              	.LFE381:
 717              		.section	.text.HAL_PCD_DisconnectCallback,"ax",%progbits
 718              		.align	1
 719              		.global	HAL_PCD_DisconnectCallback
 720              		.syntax unified
 721              		.code	16
 722              		.thumb_func
 724              	HAL_PCD_DisconnectCallback:
 725              	.LVL62:
 726              	.LFB382:
 366:USB_Device/Target/usbd_conf.c ****   /* USER CODE BEGIN HAL_PCD_DisconnectCallback_PreTreatment */
 727              		.loc 1 366 1 is_stmt 1 view -0
 728              		.cfi_startproc
 729              		@ args = 0, pretend = 0, frame = 0
 730              		@ frame_needed = 0, uses_anonymous_args = 0
 366:USB_Device/Target/usbd_conf.c ****   /* USER CODE BEGIN HAL_PCD_DisconnectCallback_PreTreatment */
 731              		.loc 1 366 1 is_stmt 0 view .LVU141
 732 0000 10B5     		push	{r4, lr}
 733              	.LCFI14:
 734              		.cfi_def_cfa_offset 8
 735              		.cfi_offset 4, -8
 736              		.cfi_offset 14, -4
 370:USB_Device/Target/usbd_conf.c ****   /* USER CODE BEGIN HAL_PCD_DisconnectCallback_PostTreatment */
 737              		.loc 1 370 3 is_stmt 1 view .LVU142
 370:USB_Device/Target/usbd_conf.c ****   /* USER CODE BEGIN HAL_PCD_DisconnectCallback_PostTreatment */
 738              		.loc 1 370 52 is_stmt 0 view .LVU143
 739 0002 C123     		movs	r3, #193
 740 0004 9B00     		lsls	r3, r3, #2
 741 0006 C058     		ldr	r0, [r0, r3]
 742              	.LVL63:
 370:USB_Device/Target/usbd_conf.c ****   /* USER CODE BEGIN HAL_PCD_DisconnectCallback_PostTreatment */
 743              		.loc 1 370 3 view .LVU144
 744 0008 FFF7FEFF 		bl	USBD_LL_DevDisconnected
 745              	.LVL64:
 374:USB_Device/Target/usbd_conf.c **** 
 746              		.loc 1 374 1 view .LVU145
 747              		@ sp needed
 748 000c 10BD     		pop	{r4, pc}
 749              		.cfi_endproc
 750              	.LFE382:
 752              		.section	.text.USBD_LL_Init,"ax",%progbits
 753              		.align	1
ARM GAS  /tmp/ccVI1jbG.s 			page 30


 754              		.global	USBD_LL_Init
 755              		.syntax unified
 756              		.code	16
 757              		.thumb_func
 759              	USBD_LL_Init:
 760              	.LVL65:
 761              	.LFB383:
 390:USB_Device/Target/usbd_conf.c ****   /* Init USB Ip. */
 762              		.loc 1 390 1 is_stmt 1 view -0
 763              		.cfi_startproc
 764              		@ args = 0, pretend = 0, frame = 0
 765              		@ frame_needed = 0, uses_anonymous_args = 0
 390:USB_Device/Target/usbd_conf.c ****   /* Init USB Ip. */
 766              		.loc 1 390 1 is_stmt 0 view .LVU147
 767 0000 70B5     		push	{r4, r5, r6, lr}
 768              	.LCFI15:
 769              		.cfi_def_cfa_offset 16
 770              		.cfi_offset 4, -16
 771              		.cfi_offset 5, -12
 772              		.cfi_offset 6, -8
 773              		.cfi_offset 14, -4
 774 0002 0400     		movs	r4, r0
 392:USB_Device/Target/usbd_conf.c ****   /* Link the driver to the stack. */
 775              		.loc 1 392 3 is_stmt 1 view .LVU148
 392:USB_Device/Target/usbd_conf.c ****   /* Link the driver to the stack. */
 776              		.loc 1 392 25 is_stmt 0 view .LVU149
 777 0004 1948     		ldr	r0, .L42
 778              	.LVL66:
 392:USB_Device/Target/usbd_conf.c ****   /* Link the driver to the stack. */
 779              		.loc 1 392 25 view .LVU150
 780 0006 C123     		movs	r3, #193
 781 0008 9B00     		lsls	r3, r3, #2
 782 000a C450     		str	r4, [r0, r3]
 394:USB_Device/Target/usbd_conf.c **** 
 783              		.loc 1 394 3 is_stmt 1 view .LVU151
 394:USB_Device/Target/usbd_conf.c **** 
 784              		.loc 1 394 15 is_stmt 0 view .LVU152
 785 000c 403B     		subs	r3, r3, #64
 786 000e E050     		str	r0, [r4, r3]
 396:USB_Device/Target/usbd_conf.c ****   hpcd_USB_DRD_FS.Init.dev_endpoints = 8;
 787              		.loc 1 396 3 is_stmt 1 view .LVU153
 396:USB_Device/Target/usbd_conf.c ****   hpcd_USB_DRD_FS.Init.dev_endpoints = 8;
 788              		.loc 1 396 28 is_stmt 0 view .LVU154
 789 0010 174B     		ldr	r3, .L42+4
 790 0012 0360     		str	r3, [r0]
 397:USB_Device/Target/usbd_conf.c ****   hpcd_USB_DRD_FS.Init.Host_channels = 8;
 791              		.loc 1 397 3 is_stmt 1 view .LVU155
 397:USB_Device/Target/usbd_conf.c ****   hpcd_USB_DRD_FS.Init.Host_channels = 8;
 792              		.loc 1 397 38 is_stmt 0 view .LVU156
 793 0014 0823     		movs	r3, #8
 794 0016 4360     		str	r3, [r0, #4]
 398:USB_Device/Target/usbd_conf.c ****   hpcd_USB_DRD_FS.Init.speed = USBD_FS_SPEED;
 795              		.loc 1 398 3 is_stmt 1 view .LVU157
 398:USB_Device/Target/usbd_conf.c ****   hpcd_USB_DRD_FS.Init.speed = USBD_FS_SPEED;
 796              		.loc 1 398 38 is_stmt 0 view .LVU158
 797 0018 8360     		str	r3, [r0, #8]
 399:USB_Device/Target/usbd_conf.c ****   hpcd_USB_DRD_FS.Init.phy_itface = PCD_PHY_EMBEDDED;
ARM GAS  /tmp/ccVI1jbG.s 			page 31


 798              		.loc 1 399 3 is_stmt 1 view .LVU159
 399:USB_Device/Target/usbd_conf.c ****   hpcd_USB_DRD_FS.Init.phy_itface = PCD_PHY_EMBEDDED;
 799              		.loc 1 399 30 is_stmt 0 view .LVU160
 800 001a 063B     		subs	r3, r3, #6
 801 001c C360     		str	r3, [r0, #12]
 400:USB_Device/Target/usbd_conf.c ****   hpcd_USB_DRD_FS.Init.Sof_enable = DISABLE;
 802              		.loc 1 400 3 is_stmt 1 view .LVU161
 400:USB_Device/Target/usbd_conf.c ****   hpcd_USB_DRD_FS.Init.Sof_enable = DISABLE;
 803              		.loc 1 400 35 is_stmt 0 view .LVU162
 804 001e 8361     		str	r3, [r0, #24]
 401:USB_Device/Target/usbd_conf.c ****   hpcd_USB_DRD_FS.Init.low_power_enable = DISABLE;
 805              		.loc 1 401 3 is_stmt 1 view .LVU163
 401:USB_Device/Target/usbd_conf.c ****   hpcd_USB_DRD_FS.Init.low_power_enable = DISABLE;
 806              		.loc 1 401 35 is_stmt 0 view .LVU164
 807 0020 0023     		movs	r3, #0
 808 0022 C361     		str	r3, [r0, #28]
 402:USB_Device/Target/usbd_conf.c ****   hpcd_USB_DRD_FS.Init.lpm_enable = DISABLE;
 809              		.loc 1 402 3 is_stmt 1 view .LVU165
 402:USB_Device/Target/usbd_conf.c ****   hpcd_USB_DRD_FS.Init.lpm_enable = DISABLE;
 810              		.loc 1 402 41 is_stmt 0 view .LVU166
 811 0024 0362     		str	r3, [r0, #32]
 403:USB_Device/Target/usbd_conf.c ****   hpcd_USB_DRD_FS.Init.battery_charging_enable = DISABLE;
 812              		.loc 1 403 3 is_stmt 1 view .LVU167
 403:USB_Device/Target/usbd_conf.c ****   hpcd_USB_DRD_FS.Init.battery_charging_enable = DISABLE;
 813              		.loc 1 403 35 is_stmt 0 view .LVU168
 814 0026 4362     		str	r3, [r0, #36]
 404:USB_Device/Target/usbd_conf.c ****   hpcd_USB_DRD_FS.Init.vbus_sensing_enable = DISABLE;
 815              		.loc 1 404 3 is_stmt 1 view .LVU169
 404:USB_Device/Target/usbd_conf.c ****   hpcd_USB_DRD_FS.Init.vbus_sensing_enable = DISABLE;
 816              		.loc 1 404 48 is_stmt 0 view .LVU170
 817 0028 8362     		str	r3, [r0, #40]
 405:USB_Device/Target/usbd_conf.c ****   hpcd_USB_DRD_FS.Init.bulk_doublebuffer_enable = DISABLE;
 818              		.loc 1 405 3 is_stmt 1 view .LVU171
 405:USB_Device/Target/usbd_conf.c ****   hpcd_USB_DRD_FS.Init.bulk_doublebuffer_enable = DISABLE;
 819              		.loc 1 405 44 is_stmt 0 view .LVU172
 820 002a C362     		str	r3, [r0, #44]
 406:USB_Device/Target/usbd_conf.c ****   hpcd_USB_DRD_FS.Init.iso_singlebuffer_enable = DISABLE;
 821              		.loc 1 406 3 is_stmt 1 view .LVU173
 406:USB_Device/Target/usbd_conf.c ****   hpcd_USB_DRD_FS.Init.iso_singlebuffer_enable = DISABLE;
 822              		.loc 1 406 49 is_stmt 0 view .LVU174
 823 002c 0363     		str	r3, [r0, #48]
 407:USB_Device/Target/usbd_conf.c ****   if (HAL_PCD_Init(&hpcd_USB_DRD_FS) != HAL_OK)
 824              		.loc 1 407 3 is_stmt 1 view .LVU175
 407:USB_Device/Target/usbd_conf.c ****   if (HAL_PCD_Init(&hpcd_USB_DRD_FS) != HAL_OK)
 825              		.loc 1 407 48 is_stmt 0 view .LVU176
 826 002e 4363     		str	r3, [r0, #52]
 408:USB_Device/Target/usbd_conf.c ****   {
 827              		.loc 1 408 3 is_stmt 1 view .LVU177
 408:USB_Device/Target/usbd_conf.c ****   {
 828              		.loc 1 408 7 is_stmt 0 view .LVU178
 829 0030 FFF7FEFF 		bl	HAL_PCD_Init
 830              	.LVL67:
 408:USB_Device/Target/usbd_conf.c ****   {
 831              		.loc 1 408 6 view .LVU179
 832 0034 0028     		cmp	r0, #0
 833 0036 16D1     		bne	.L41
 834              	.L40:
ARM GAS  /tmp/ccVI1jbG.s 			page 32


 435:USB_Device/Target/usbd_conf.c ****   HAL_PCDEx_PMAConfig((PCD_HandleTypeDef*)pdev->pData , 0x80 , PCD_SNG_BUF, 0x58);
 835              		.loc 1 435 3 is_stmt 1 view .LVU180
 435:USB_Device/Target/usbd_conf.c ****   HAL_PCDEx_PMAConfig((PCD_HandleTypeDef*)pdev->pData , 0x80 , PCD_SNG_BUF, 0x58);
 836              		.loc 1 435 47 is_stmt 0 view .LVU181
 837 0038 B125     		movs	r5, #177
 838 003a AD00     		lsls	r5, r5, #2
 839 003c 6059     		ldr	r0, [r4, r5]
 435:USB_Device/Target/usbd_conf.c ****   HAL_PCDEx_PMAConfig((PCD_HandleTypeDef*)pdev->pData , 0x80 , PCD_SNG_BUF, 0x58);
 840              		.loc 1 435 3 view .LVU182
 841 003e 1823     		movs	r3, #24
 842 0040 0022     		movs	r2, #0
 843 0042 0021     		movs	r1, #0
 844 0044 FFF7FEFF 		bl	HAL_PCDEx_PMAConfig
 845              	.LVL68:
 436:USB_Device/Target/usbd_conf.c ****   /* USER CODE END EndPoint_Configuration */
 846              		.loc 1 436 3 is_stmt 1 view .LVU183
 436:USB_Device/Target/usbd_conf.c ****   /* USER CODE END EndPoint_Configuration */
 847              		.loc 1 436 47 is_stmt 0 view .LVU184
 848 0048 6059     		ldr	r0, [r4, r5]
 436:USB_Device/Target/usbd_conf.c ****   /* USER CODE END EndPoint_Configuration */
 849              		.loc 1 436 3 view .LVU185
 850 004a 5823     		movs	r3, #88
 851 004c 0022     		movs	r2, #0
 852 004e 8021     		movs	r1, #128
 853 0050 FFF7FEFF 		bl	HAL_PCDEx_PMAConfig
 854              	.LVL69:
 439:USB_Device/Target/usbd_conf.c ****   /* USER CODE END EndPoint_Configuration_HID */
 855              		.loc 1 439 3 is_stmt 1 view .LVU186
 439:USB_Device/Target/usbd_conf.c ****   /* USER CODE END EndPoint_Configuration_HID */
 856              		.loc 1 439 47 is_stmt 0 view .LVU187
 857 0054 6059     		ldr	r0, [r4, r5]
 439:USB_Device/Target/usbd_conf.c ****   /* USER CODE END EndPoint_Configuration_HID */
 858              		.loc 1 439 3 view .LVU188
 859 0056 8023     		movs	r3, #128
 860 0058 5B00     		lsls	r3, r3, #1
 861 005a 0022     		movs	r2, #0
 862 005c 8121     		movs	r1, #129
 863 005e FFF7FEFF 		bl	HAL_PCDEx_PMAConfig
 864              	.LVL70:
 442:USB_Device/Target/usbd_conf.c **** }
 865              		.loc 1 442 3 is_stmt 1 view .LVU189
 443:USB_Device/Target/usbd_conf.c **** 
 866              		.loc 1 443 1 is_stmt 0 view .LVU190
 867 0062 0020     		movs	r0, #0
 868              		@ sp needed
 869              	.LVL71:
 443:USB_Device/Target/usbd_conf.c **** 
 870              		.loc 1 443 1 view .LVU191
 871 0064 70BD     		pop	{r4, r5, r6, pc}
 872              	.LVL72:
 873              	.L41:
 410:USB_Device/Target/usbd_conf.c ****   }
 874              		.loc 1 410 5 is_stmt 1 view .LVU192
 875 0066 FFF7FEFF 		bl	Error_Handler
 876              	.LVL73:
 877 006a E5E7     		b	.L40
 878              	.L43:
ARM GAS  /tmp/ccVI1jbG.s 			page 33


 879              		.align	2
 880              	.L42:
 881 006c 00000000 		.word	hpcd_USB_DRD_FS
 882 0070 005C0040 		.word	1073765376
 883              		.cfi_endproc
 884              	.LFE383:
 886              		.section	.text.USBD_LL_DeInit,"ax",%progbits
 887              		.align	1
 888              		.global	USBD_LL_DeInit
 889              		.syntax unified
 890              		.code	16
 891              		.thumb_func
 893              	USBD_LL_DeInit:
 894              	.LVL74:
 895              	.LFB384:
 451:USB_Device/Target/usbd_conf.c ****   HAL_StatusTypeDef hal_status = HAL_OK;
 896              		.loc 1 451 1 view -0
 897              		.cfi_startproc
 898              		@ args = 0, pretend = 0, frame = 0
 899              		@ frame_needed = 0, uses_anonymous_args = 0
 451:USB_Device/Target/usbd_conf.c ****   HAL_StatusTypeDef hal_status = HAL_OK;
 900              		.loc 1 451 1 is_stmt 0 view .LVU194
 901 0000 10B5     		push	{r4, lr}
 902              	.LCFI16:
 903              		.cfi_def_cfa_offset 8
 904              		.cfi_offset 4, -8
 905              		.cfi_offset 14, -4
 452:USB_Device/Target/usbd_conf.c ****   USBD_StatusTypeDef usb_status = USBD_OK;
 906              		.loc 1 452 3 is_stmt 1 view .LVU195
 907              	.LVL75:
 453:USB_Device/Target/usbd_conf.c **** 
 908              		.loc 1 453 3 view .LVU196
 455:USB_Device/Target/usbd_conf.c **** 
 909              		.loc 1 455 3 view .LVU197
 455:USB_Device/Target/usbd_conf.c **** 
 910              		.loc 1 455 35 is_stmt 0 view .LVU198
 911 0002 B123     		movs	r3, #177
 912 0004 9B00     		lsls	r3, r3, #2
 913 0006 C058     		ldr	r0, [r0, r3]
 914              	.LVL76:
 455:USB_Device/Target/usbd_conf.c **** 
 915              		.loc 1 455 16 view .LVU199
 916 0008 FFF7FEFF 		bl	HAL_PCD_DeInit
 917              	.LVL77:
 457:USB_Device/Target/usbd_conf.c **** 
 918              		.loc 1 457 3 is_stmt 1 view .LVU200
 457:USB_Device/Target/usbd_conf.c **** 
 919              		.loc 1 457 17 is_stmt 0 view .LVU201
 920 000c FFF7FEFF 		bl	USBD_Get_USB_Status
 921              	.LVL78:
 459:USB_Device/Target/usbd_conf.c **** }
 922              		.loc 1 459 3 is_stmt 1 view .LVU202
 460:USB_Device/Target/usbd_conf.c **** 
 923              		.loc 1 460 1 is_stmt 0 view .LVU203
 924              		@ sp needed
 925 0010 10BD     		pop	{r4, pc}
 926              		.cfi_endproc
ARM GAS  /tmp/ccVI1jbG.s 			page 34


 927              	.LFE384:
 929              		.section	.text.USBD_LL_Start,"ax",%progbits
 930              		.align	1
 931              		.global	USBD_LL_Start
 932              		.syntax unified
 933              		.code	16
 934              		.thumb_func
 936              	USBD_LL_Start:
 937              	.LVL79:
 938              	.LFB385:
 468:USB_Device/Target/usbd_conf.c ****   HAL_StatusTypeDef hal_status = HAL_OK;
 939              		.loc 1 468 1 is_stmt 1 view -0
 940              		.cfi_startproc
 941              		@ args = 0, pretend = 0, frame = 0
 942              		@ frame_needed = 0, uses_anonymous_args = 0
 468:USB_Device/Target/usbd_conf.c ****   HAL_StatusTypeDef hal_status = HAL_OK;
 943              		.loc 1 468 1 is_stmt 0 view .LVU205
 944 0000 10B5     		push	{r4, lr}
 945              	.LCFI17:
 946              		.cfi_def_cfa_offset 8
 947              		.cfi_offset 4, -8
 948              		.cfi_offset 14, -4
 469:USB_Device/Target/usbd_conf.c ****   USBD_StatusTypeDef usb_status = USBD_OK;
 949              		.loc 1 469 3 is_stmt 1 view .LVU206
 950              	.LVL80:
 470:USB_Device/Target/usbd_conf.c **** 
 951              		.loc 1 470 3 view .LVU207
 472:USB_Device/Target/usbd_conf.c **** 
 952              		.loc 1 472 3 view .LVU208
 472:USB_Device/Target/usbd_conf.c **** 
 953              		.loc 1 472 34 is_stmt 0 view .LVU209
 954 0002 B123     		movs	r3, #177
 955 0004 9B00     		lsls	r3, r3, #2
 956 0006 C058     		ldr	r0, [r0, r3]
 957              	.LVL81:
 472:USB_Device/Target/usbd_conf.c **** 
 958              		.loc 1 472 16 view .LVU210
 959 0008 FFF7FEFF 		bl	HAL_PCD_Start
 960              	.LVL82:
 474:USB_Device/Target/usbd_conf.c **** 
 961              		.loc 1 474 3 is_stmt 1 view .LVU211
 474:USB_Device/Target/usbd_conf.c **** 
 962              		.loc 1 474 17 is_stmt 0 view .LVU212
 963 000c FFF7FEFF 		bl	USBD_Get_USB_Status
 964              	.LVL83:
 476:USB_Device/Target/usbd_conf.c **** }
 965              		.loc 1 476 3 is_stmt 1 view .LVU213
 477:USB_Device/Target/usbd_conf.c **** 
 966              		.loc 1 477 1 is_stmt 0 view .LVU214
 967              		@ sp needed
 968 0010 10BD     		pop	{r4, pc}
 969              		.cfi_endproc
 970              	.LFE385:
 972              		.section	.text.USBD_LL_Stop,"ax",%progbits
 973              		.align	1
 974              		.global	USBD_LL_Stop
 975              		.syntax unified
ARM GAS  /tmp/ccVI1jbG.s 			page 35


 976              		.code	16
 977              		.thumb_func
 979              	USBD_LL_Stop:
 980              	.LVL84:
 981              	.LFB386:
 485:USB_Device/Target/usbd_conf.c ****   HAL_StatusTypeDef hal_status = HAL_OK;
 982              		.loc 1 485 1 is_stmt 1 view -0
 983              		.cfi_startproc
 984              		@ args = 0, pretend = 0, frame = 0
 985              		@ frame_needed = 0, uses_anonymous_args = 0
 485:USB_Device/Target/usbd_conf.c ****   HAL_StatusTypeDef hal_status = HAL_OK;
 986              		.loc 1 485 1 is_stmt 0 view .LVU216
 987 0000 10B5     		push	{r4, lr}
 988              	.LCFI18:
 989              		.cfi_def_cfa_offset 8
 990              		.cfi_offset 4, -8
 991              		.cfi_offset 14, -4
 486:USB_Device/Target/usbd_conf.c ****   USBD_StatusTypeDef usb_status = USBD_OK;
 992              		.loc 1 486 3 is_stmt 1 view .LVU217
 993              	.LVL85:
 487:USB_Device/Target/usbd_conf.c **** 
 994              		.loc 1 487 3 view .LVU218
 489:USB_Device/Target/usbd_conf.c **** 
 995              		.loc 1 489 3 view .LVU219
 489:USB_Device/Target/usbd_conf.c **** 
 996              		.loc 1 489 33 is_stmt 0 view .LVU220
 997 0002 B123     		movs	r3, #177
 998 0004 9B00     		lsls	r3, r3, #2
 999 0006 C058     		ldr	r0, [r0, r3]
 1000              	.LVL86:
 489:USB_Device/Target/usbd_conf.c **** 
 1001              		.loc 1 489 16 view .LVU221
 1002 0008 FFF7FEFF 		bl	HAL_PCD_Stop
 1003              	.LVL87:
 491:USB_Device/Target/usbd_conf.c **** 
 1004              		.loc 1 491 3 is_stmt 1 view .LVU222
 491:USB_Device/Target/usbd_conf.c **** 
 1005              		.loc 1 491 17 is_stmt 0 view .LVU223
 1006 000c FFF7FEFF 		bl	USBD_Get_USB_Status
 1007              	.LVL88:
 493:USB_Device/Target/usbd_conf.c **** }
 1008              		.loc 1 493 3 is_stmt 1 view .LVU224
 494:USB_Device/Target/usbd_conf.c **** 
 1009              		.loc 1 494 1 is_stmt 0 view .LVU225
 1010              		@ sp needed
 1011 0010 10BD     		pop	{r4, pc}
 1012              		.cfi_endproc
 1013              	.LFE386:
 1015              		.section	.text.USBD_LL_OpenEP,"ax",%progbits
 1016              		.align	1
 1017              		.global	USBD_LL_OpenEP
 1018              		.syntax unified
 1019              		.code	16
 1020              		.thumb_func
 1022              	USBD_LL_OpenEP:
 1023              	.LVL89:
 1024              	.LFB387:
ARM GAS  /tmp/ccVI1jbG.s 			page 36


 505:USB_Device/Target/usbd_conf.c ****   HAL_StatusTypeDef hal_status = HAL_OK;
 1025              		.loc 1 505 1 is_stmt 1 view -0
 1026              		.cfi_startproc
 1027              		@ args = 0, pretend = 0, frame = 0
 1028              		@ frame_needed = 0, uses_anonymous_args = 0
 505:USB_Device/Target/usbd_conf.c ****   HAL_StatusTypeDef hal_status = HAL_OK;
 1029              		.loc 1 505 1 is_stmt 0 view .LVU227
 1030 0000 10B5     		push	{r4, lr}
 1031              	.LCFI19:
 1032              		.cfi_def_cfa_offset 8
 1033              		.cfi_offset 4, -8
 1034              		.cfi_offset 14, -4
 1035 0002 1400     		movs	r4, r2
 1036 0004 1A00     		movs	r2, r3
 1037              	.LVL90:
 506:USB_Device/Target/usbd_conf.c ****   USBD_StatusTypeDef usb_status = USBD_OK;
 1038              		.loc 1 506 3 is_stmt 1 view .LVU228
 507:USB_Device/Target/usbd_conf.c **** 
 1039              		.loc 1 507 3 view .LVU229
 509:USB_Device/Target/usbd_conf.c **** 
 1040              		.loc 1 509 3 view .LVU230
 509:USB_Device/Target/usbd_conf.c **** 
 1041              		.loc 1 509 36 is_stmt 0 view .LVU231
 1042 0006 B123     		movs	r3, #177
 1043              	.LVL91:
 509:USB_Device/Target/usbd_conf.c **** 
 1044              		.loc 1 509 36 view .LVU232
 1045 0008 9B00     		lsls	r3, r3, #2
 1046 000a C058     		ldr	r0, [r0, r3]
 1047              	.LVL92:
 509:USB_Device/Target/usbd_conf.c **** 
 1048              		.loc 1 509 16 view .LVU233
 1049 000c 2300     		movs	r3, r4
 1050 000e FFF7FEFF 		bl	HAL_PCD_EP_Open
 1051              	.LVL93:
 511:USB_Device/Target/usbd_conf.c **** 
 1052              		.loc 1 511 3 is_stmt 1 view .LVU234
 511:USB_Device/Target/usbd_conf.c **** 
 1053              		.loc 1 511 17 is_stmt 0 view .LVU235
 1054 0012 FFF7FEFF 		bl	USBD_Get_USB_Status
 1055              	.LVL94:
 513:USB_Device/Target/usbd_conf.c **** }
 1056              		.loc 1 513 3 is_stmt 1 view .LVU236
 514:USB_Device/Target/usbd_conf.c **** 
 1057              		.loc 1 514 1 is_stmt 0 view .LVU237
 1058              		@ sp needed
 1059 0016 10BD     		pop	{r4, pc}
 1060              		.cfi_endproc
 1061              	.LFE387:
 1063              		.section	.text.USBD_LL_CloseEP,"ax",%progbits
 1064              		.align	1
 1065              		.global	USBD_LL_CloseEP
 1066              		.syntax unified
 1067              		.code	16
 1068              		.thumb_func
 1070              	USBD_LL_CloseEP:
 1071              	.LVL95:
ARM GAS  /tmp/ccVI1jbG.s 			page 37


 1072              	.LFB388:
 523:USB_Device/Target/usbd_conf.c ****   HAL_StatusTypeDef hal_status = HAL_OK;
 1073              		.loc 1 523 1 is_stmt 1 view -0
 1074              		.cfi_startproc
 1075              		@ args = 0, pretend = 0, frame = 0
 1076              		@ frame_needed = 0, uses_anonymous_args = 0
 523:USB_Device/Target/usbd_conf.c ****   HAL_StatusTypeDef hal_status = HAL_OK;
 1077              		.loc 1 523 1 is_stmt 0 view .LVU239
 1078 0000 10B5     		push	{r4, lr}
 1079              	.LCFI20:
 1080              		.cfi_def_cfa_offset 8
 1081              		.cfi_offset 4, -8
 1082              		.cfi_offset 14, -4
 524:USB_Device/Target/usbd_conf.c ****   USBD_StatusTypeDef usb_status = USBD_OK;
 1083              		.loc 1 524 3 is_stmt 1 view .LVU240
 1084              	.LVL96:
 525:USB_Device/Target/usbd_conf.c **** 
 1085              		.loc 1 525 3 view .LVU241
 527:USB_Device/Target/usbd_conf.c **** 
 1086              		.loc 1 527 3 view .LVU242
 527:USB_Device/Target/usbd_conf.c **** 
 1087              		.loc 1 527 37 is_stmt 0 view .LVU243
 1088 0002 B123     		movs	r3, #177
 1089 0004 9B00     		lsls	r3, r3, #2
 1090 0006 C058     		ldr	r0, [r0, r3]
 1091              	.LVL97:
 527:USB_Device/Target/usbd_conf.c **** 
 1092              		.loc 1 527 16 view .LVU244
 1093 0008 FFF7FEFF 		bl	HAL_PCD_EP_Close
 1094              	.LVL98:
 529:USB_Device/Target/usbd_conf.c **** 
 1095              		.loc 1 529 3 is_stmt 1 view .LVU245
 529:USB_Device/Target/usbd_conf.c **** 
 1096              		.loc 1 529 17 is_stmt 0 view .LVU246
 1097 000c FFF7FEFF 		bl	USBD_Get_USB_Status
 1098              	.LVL99:
 531:USB_Device/Target/usbd_conf.c **** }
 1099              		.loc 1 531 3 is_stmt 1 view .LVU247
 532:USB_Device/Target/usbd_conf.c **** 
 1100              		.loc 1 532 1 is_stmt 0 view .LVU248
 1101              		@ sp needed
 1102 0010 10BD     		pop	{r4, pc}
 1103              		.cfi_endproc
 1104              	.LFE388:
 1106              		.section	.text.USBD_LL_FlushEP,"ax",%progbits
 1107              		.align	1
 1108              		.global	USBD_LL_FlushEP
 1109              		.syntax unified
 1110              		.code	16
 1111              		.thumb_func
 1113              	USBD_LL_FlushEP:
 1114              	.LVL100:
 1115              	.LFB389:
 541:USB_Device/Target/usbd_conf.c ****   HAL_StatusTypeDef hal_status = HAL_OK;
 1116              		.loc 1 541 1 is_stmt 1 view -0
 1117              		.cfi_startproc
 1118              		@ args = 0, pretend = 0, frame = 0
ARM GAS  /tmp/ccVI1jbG.s 			page 38


 1119              		@ frame_needed = 0, uses_anonymous_args = 0
 541:USB_Device/Target/usbd_conf.c ****   HAL_StatusTypeDef hal_status = HAL_OK;
 1120              		.loc 1 541 1 is_stmt 0 view .LVU250
 1121 0000 10B5     		push	{r4, lr}
 1122              	.LCFI21:
 1123              		.cfi_def_cfa_offset 8
 1124              		.cfi_offset 4, -8
 1125              		.cfi_offset 14, -4
 542:USB_Device/Target/usbd_conf.c ****   USBD_StatusTypeDef usb_status = USBD_OK;
 1126              		.loc 1 542 3 is_stmt 1 view .LVU251
 1127              	.LVL101:
 543:USB_Device/Target/usbd_conf.c **** 
 1128              		.loc 1 543 3 view .LVU252
 545:USB_Device/Target/usbd_conf.c **** 
 1129              		.loc 1 545 3 view .LVU253
 545:USB_Device/Target/usbd_conf.c **** 
 1130              		.loc 1 545 37 is_stmt 0 view .LVU254
 1131 0002 B123     		movs	r3, #177
 1132 0004 9B00     		lsls	r3, r3, #2
 1133 0006 C058     		ldr	r0, [r0, r3]
 1134              	.LVL102:
 545:USB_Device/Target/usbd_conf.c **** 
 1135              		.loc 1 545 16 view .LVU255
 1136 0008 FFF7FEFF 		bl	HAL_PCD_EP_Flush
 1137              	.LVL103:
 547:USB_Device/Target/usbd_conf.c **** 
 1138              		.loc 1 547 3 is_stmt 1 view .LVU256
 547:USB_Device/Target/usbd_conf.c **** 
 1139              		.loc 1 547 17 is_stmt 0 view .LVU257
 1140 000c FFF7FEFF 		bl	USBD_Get_USB_Status
 1141              	.LVL104:
 549:USB_Device/Target/usbd_conf.c **** }
 1142              		.loc 1 549 3 is_stmt 1 view .LVU258
 550:USB_Device/Target/usbd_conf.c **** 
 1143              		.loc 1 550 1 is_stmt 0 view .LVU259
 1144              		@ sp needed
 1145 0010 10BD     		pop	{r4, pc}
 1146              		.cfi_endproc
 1147              	.LFE389:
 1149              		.section	.text.USBD_LL_StallEP,"ax",%progbits
 1150              		.align	1
 1151              		.global	USBD_LL_StallEP
 1152              		.syntax unified
 1153              		.code	16
 1154              		.thumb_func
 1156              	USBD_LL_StallEP:
 1157              	.LVL105:
 1158              	.LFB390:
 559:USB_Device/Target/usbd_conf.c ****   HAL_StatusTypeDef hal_status = HAL_OK;
 1159              		.loc 1 559 1 is_stmt 1 view -0
 1160              		.cfi_startproc
 1161              		@ args = 0, pretend = 0, frame = 0
 1162              		@ frame_needed = 0, uses_anonymous_args = 0
 559:USB_Device/Target/usbd_conf.c ****   HAL_StatusTypeDef hal_status = HAL_OK;
 1163              		.loc 1 559 1 is_stmt 0 view .LVU261
 1164 0000 10B5     		push	{r4, lr}
 1165              	.LCFI22:
ARM GAS  /tmp/ccVI1jbG.s 			page 39


 1166              		.cfi_def_cfa_offset 8
 1167              		.cfi_offset 4, -8
 1168              		.cfi_offset 14, -4
 560:USB_Device/Target/usbd_conf.c ****   USBD_StatusTypeDef usb_status = USBD_OK;
 1169              		.loc 1 560 3 is_stmt 1 view .LVU262
 1170              	.LVL106:
 561:USB_Device/Target/usbd_conf.c **** 
 1171              		.loc 1 561 3 view .LVU263
 563:USB_Device/Target/usbd_conf.c **** 
 1172              		.loc 1 563 3 view .LVU264
 563:USB_Device/Target/usbd_conf.c **** 
 1173              		.loc 1 563 40 is_stmt 0 view .LVU265
 1174 0002 B123     		movs	r3, #177
 1175 0004 9B00     		lsls	r3, r3, #2
 1176 0006 C058     		ldr	r0, [r0, r3]
 1177              	.LVL107:
 563:USB_Device/Target/usbd_conf.c **** 
 1178              		.loc 1 563 16 view .LVU266
 1179 0008 FFF7FEFF 		bl	HAL_PCD_EP_SetStall
 1180              	.LVL108:
 565:USB_Device/Target/usbd_conf.c **** 
 1181              		.loc 1 565 3 is_stmt 1 view .LVU267
 565:USB_Device/Target/usbd_conf.c **** 
 1182              		.loc 1 565 17 is_stmt 0 view .LVU268
 1183 000c FFF7FEFF 		bl	USBD_Get_USB_Status
 1184              	.LVL109:
 567:USB_Device/Target/usbd_conf.c **** }
 1185              		.loc 1 567 3 is_stmt 1 view .LVU269
 568:USB_Device/Target/usbd_conf.c **** 
 1186              		.loc 1 568 1 is_stmt 0 view .LVU270
 1187              		@ sp needed
 1188 0010 10BD     		pop	{r4, pc}
 1189              		.cfi_endproc
 1190              	.LFE390:
 1192              		.section	.text.USBD_LL_ClearStallEP,"ax",%progbits
 1193              		.align	1
 1194              		.global	USBD_LL_ClearStallEP
 1195              		.syntax unified
 1196              		.code	16
 1197              		.thumb_func
 1199              	USBD_LL_ClearStallEP:
 1200              	.LVL110:
 1201              	.LFB391:
 577:USB_Device/Target/usbd_conf.c ****   HAL_StatusTypeDef hal_status = HAL_OK;
 1202              		.loc 1 577 1 is_stmt 1 view -0
 1203              		.cfi_startproc
 1204              		@ args = 0, pretend = 0, frame = 0
 1205              		@ frame_needed = 0, uses_anonymous_args = 0
 577:USB_Device/Target/usbd_conf.c ****   HAL_StatusTypeDef hal_status = HAL_OK;
 1206              		.loc 1 577 1 is_stmt 0 view .LVU272
 1207 0000 10B5     		push	{r4, lr}
 1208              	.LCFI23:
 1209              		.cfi_def_cfa_offset 8
 1210              		.cfi_offset 4, -8
 1211              		.cfi_offset 14, -4
 578:USB_Device/Target/usbd_conf.c ****   USBD_StatusTypeDef usb_status = USBD_OK;
 1212              		.loc 1 578 3 is_stmt 1 view .LVU273
ARM GAS  /tmp/ccVI1jbG.s 			page 40


 1213              	.LVL111:
 579:USB_Device/Target/usbd_conf.c **** 
 1214              		.loc 1 579 3 view .LVU274
 581:USB_Device/Target/usbd_conf.c **** 
 1215              		.loc 1 581 3 view .LVU275
 581:USB_Device/Target/usbd_conf.c **** 
 1216              		.loc 1 581 40 is_stmt 0 view .LVU276
 1217 0002 B123     		movs	r3, #177
 1218 0004 9B00     		lsls	r3, r3, #2
 1219 0006 C058     		ldr	r0, [r0, r3]
 1220              	.LVL112:
 581:USB_Device/Target/usbd_conf.c **** 
 1221              		.loc 1 581 16 view .LVU277
 1222 0008 FFF7FEFF 		bl	HAL_PCD_EP_ClrStall
 1223              	.LVL113:
 583:USB_Device/Target/usbd_conf.c **** 
 1224              		.loc 1 583 3 is_stmt 1 view .LVU278
 583:USB_Device/Target/usbd_conf.c **** 
 1225              		.loc 1 583 17 is_stmt 0 view .LVU279
 1226 000c FFF7FEFF 		bl	USBD_Get_USB_Status
 1227              	.LVL114:
 585:USB_Device/Target/usbd_conf.c **** }
 1228              		.loc 1 585 3 is_stmt 1 view .LVU280
 586:USB_Device/Target/usbd_conf.c **** 
 1229              		.loc 1 586 1 is_stmt 0 view .LVU281
 1230              		@ sp needed
 1231 0010 10BD     		pop	{r4, pc}
 1232              		.cfi_endproc
 1233              	.LFE391:
 1235              		.section	.text.USBD_LL_IsStallEP,"ax",%progbits
 1236              		.align	1
 1237              		.global	USBD_LL_IsStallEP
 1238              		.syntax unified
 1239              		.code	16
 1240              		.thumb_func
 1242              	USBD_LL_IsStallEP:
 1243              	.LVL115:
 1244              	.LFB392:
 595:USB_Device/Target/usbd_conf.c ****   PCD_HandleTypeDef *hpcd = (PCD_HandleTypeDef*) pdev->pData;
 1245              		.loc 1 595 1 is_stmt 1 view -0
 1246              		.cfi_startproc
 1247              		@ args = 0, pretend = 0, frame = 0
 1248              		@ frame_needed = 0, uses_anonymous_args = 0
 1249              		@ link register save eliminated.
 596:USB_Device/Target/usbd_conf.c **** 
 1250              		.loc 1 596 3 view .LVU283
 596:USB_Device/Target/usbd_conf.c **** 
 1251              		.loc 1 596 22 is_stmt 0 view .LVU284
 1252 0000 B123     		movs	r3, #177
 1253 0002 9B00     		lsls	r3, r3, #2
 1254 0004 C358     		ldr	r3, [r0, r3]
 1255              	.LVL116:
 598:USB_Device/Target/usbd_conf.c ****   {
 1256              		.loc 1 598 3 is_stmt 1 view .LVU285
 598:USB_Device/Target/usbd_conf.c ****   {
 1257              		.loc 1 598 23 is_stmt 0 view .LVU286
 1258 0006 4AB2     		sxtb	r2, r1
ARM GAS  /tmp/ccVI1jbG.s 			page 41


 598:USB_Device/Target/usbd_conf.c ****   {
 1259              		.loc 1 598 5 view .LVU287
 1260 0008 002A     		cmp	r2, #0
 1261 000a 09DB     		blt	.L55
 604:USB_Device/Target/usbd_conf.c ****   }
 1262              		.loc 1 604 5 is_stmt 1 view .LVU288
 604:USB_Device/Target/usbd_conf.c ****   }
 1263              		.loc 1 604 33 is_stmt 0 view .LVU289
 1264 000c 7F22     		movs	r2, #127
 1265 000e 1140     		ands	r1, r2
 1266              	.LVL117:
 604:USB_Device/Target/usbd_conf.c ****   }
 1267              		.loc 1 604 40 view .LVU290
 1268 0010 8A00     		lsls	r2, r1, #2
 1269 0012 5218     		adds	r2, r2, r1
 1270 0014 D200     		lsls	r2, r2, #3
 1271 0016 9B18     		adds	r3, r3, r2
 1272              	.LVL118:
 604:USB_Device/Target/usbd_conf.c ****   }
 1273              		.loc 1 604 40 view .LVU291
 1274 0018 7F33     		adds	r3, r3, #127
 1275 001a FF33     		adds	r3, r3, #255
 1276 001c 1878     		ldrb	r0, [r3]
 1277              	.LVL119:
 1278              	.L54:
 606:USB_Device/Target/usbd_conf.c **** 
 1279              		.loc 1 606 1 view .LVU292
 1280              		@ sp needed
 1281 001e 7047     		bx	lr
 1282              	.LVL120:
 1283              	.L55:
 600:USB_Device/Target/usbd_conf.c ****   }
 1284              		.loc 1 600 5 is_stmt 1 view .LVU293
 600:USB_Device/Target/usbd_conf.c ****   }
 1285              		.loc 1 600 32 is_stmt 0 view .LVU294
 1286 0020 7F22     		movs	r2, #127
 1287 0022 1140     		ands	r1, r2
 1288              	.LVL121:
 600:USB_Device/Target/usbd_conf.c ****   }
 1289              		.loc 1 600 39 view .LVU295
 1290 0024 8A00     		lsls	r2, r1, #2
 1291 0026 5218     		adds	r2, r2, r1
 1292 0028 D200     		lsls	r2, r2, #3
 1293 002a 9B18     		adds	r3, r3, r2
 1294              	.LVL122:
 600:USB_Device/Target/usbd_conf.c ****   }
 1295              		.loc 1 600 39 view .LVU296
 1296 002c 3E33     		adds	r3, r3, #62
 1297 002e 1878     		ldrb	r0, [r3]
 1298              	.LVL123:
 600:USB_Device/Target/usbd_conf.c ****   }
 1299              		.loc 1 600 39 view .LVU297
 1300 0030 F5E7     		b	.L54
 1301              		.cfi_endproc
 1302              	.LFE392:
 1304              		.section	.text.USBD_LL_SetUSBAddress,"ax",%progbits
 1305              		.align	1
ARM GAS  /tmp/ccVI1jbG.s 			page 42


 1306              		.global	USBD_LL_SetUSBAddress
 1307              		.syntax unified
 1308              		.code	16
 1309              		.thumb_func
 1311              	USBD_LL_SetUSBAddress:
 1312              	.LVL124:
 1313              	.LFB393:
 615:USB_Device/Target/usbd_conf.c ****   HAL_StatusTypeDef hal_status = HAL_OK;
 1314              		.loc 1 615 1 is_stmt 1 view -0
 1315              		.cfi_startproc
 1316              		@ args = 0, pretend = 0, frame = 0
 1317              		@ frame_needed = 0, uses_anonymous_args = 0
 615:USB_Device/Target/usbd_conf.c ****   HAL_StatusTypeDef hal_status = HAL_OK;
 1318              		.loc 1 615 1 is_stmt 0 view .LVU299
 1319 0000 10B5     		push	{r4, lr}
 1320              	.LCFI24:
 1321              		.cfi_def_cfa_offset 8
 1322              		.cfi_offset 4, -8
 1323              		.cfi_offset 14, -4
 616:USB_Device/Target/usbd_conf.c ****   USBD_StatusTypeDef usb_status = USBD_OK;
 1324              		.loc 1 616 3 is_stmt 1 view .LVU300
 1325              	.LVL125:
 617:USB_Device/Target/usbd_conf.c **** 
 1326              		.loc 1 617 3 view .LVU301
 619:USB_Device/Target/usbd_conf.c **** 
 1327              		.loc 1 619 3 view .LVU302
 619:USB_Device/Target/usbd_conf.c **** 
 1328              		.loc 1 619 39 is_stmt 0 view .LVU303
 1329 0002 B123     		movs	r3, #177
 1330 0004 9B00     		lsls	r3, r3, #2
 1331 0006 C058     		ldr	r0, [r0, r3]
 1332              	.LVL126:
 619:USB_Device/Target/usbd_conf.c **** 
 1333              		.loc 1 619 16 view .LVU304
 1334 0008 FFF7FEFF 		bl	HAL_PCD_SetAddress
 1335              	.LVL127:
 621:USB_Device/Target/usbd_conf.c **** 
 1336              		.loc 1 621 3 is_stmt 1 view .LVU305
 621:USB_Device/Target/usbd_conf.c **** 
 1337              		.loc 1 621 17 is_stmt 0 view .LVU306
 1338 000c FFF7FEFF 		bl	USBD_Get_USB_Status
 1339              	.LVL128:
 623:USB_Device/Target/usbd_conf.c **** }
 1340              		.loc 1 623 3 is_stmt 1 view .LVU307
 624:USB_Device/Target/usbd_conf.c **** 
 1341              		.loc 1 624 1 is_stmt 0 view .LVU308
 1342              		@ sp needed
 1343 0010 10BD     		pop	{r4, pc}
 1344              		.cfi_endproc
 1345              	.LFE393:
 1347              		.section	.text.USBD_LL_Transmit,"ax",%progbits
 1348              		.align	1
 1349              		.global	USBD_LL_Transmit
 1350              		.syntax unified
 1351              		.code	16
 1352              		.thumb_func
 1354              	USBD_LL_Transmit:
ARM GAS  /tmp/ccVI1jbG.s 			page 43


 1355              	.LVL129:
 1356              	.LFB394:
 635:USB_Device/Target/usbd_conf.c ****   HAL_StatusTypeDef hal_status = HAL_OK;
 1357              		.loc 1 635 1 is_stmt 1 view -0
 1358              		.cfi_startproc
 1359              		@ args = 0, pretend = 0, frame = 0
 1360              		@ frame_needed = 0, uses_anonymous_args = 0
 635:USB_Device/Target/usbd_conf.c ****   HAL_StatusTypeDef hal_status = HAL_OK;
 1361              		.loc 1 635 1 is_stmt 0 view .LVU310
 1362 0000 10B5     		push	{r4, lr}
 1363              	.LCFI25:
 1364              		.cfi_def_cfa_offset 8
 1365              		.cfi_offset 4, -8
 1366              		.cfi_offset 14, -4
 636:USB_Device/Target/usbd_conf.c ****   USBD_StatusTypeDef usb_status = USBD_OK;
 1367              		.loc 1 636 3 is_stmt 1 view .LVU311
 1368              	.LVL130:
 637:USB_Device/Target/usbd_conf.c **** 
 1369              		.loc 1 637 3 view .LVU312
 639:USB_Device/Target/usbd_conf.c **** 
 1370              		.loc 1 639 3 view .LVU313
 639:USB_Device/Target/usbd_conf.c **** 
 1371              		.loc 1 639 40 is_stmt 0 view .LVU314
 1372 0002 B124     		movs	r4, #177
 1373 0004 A400     		lsls	r4, r4, #2
 1374 0006 0059     		ldr	r0, [r0, r4]
 1375              	.LVL131:
 639:USB_Device/Target/usbd_conf.c **** 
 1376              		.loc 1 639 16 view .LVU315
 1377 0008 FFF7FEFF 		bl	HAL_PCD_EP_Transmit
 1378              	.LVL132:
 641:USB_Device/Target/usbd_conf.c **** 
 1379              		.loc 1 641 3 is_stmt 1 view .LVU316
 641:USB_Device/Target/usbd_conf.c **** 
 1380              		.loc 1 641 17 is_stmt 0 view .LVU317
 1381 000c FFF7FEFF 		bl	USBD_Get_USB_Status
 1382              	.LVL133:
 643:USB_Device/Target/usbd_conf.c **** }
 1383              		.loc 1 643 3 is_stmt 1 view .LVU318
 644:USB_Device/Target/usbd_conf.c **** 
 1384              		.loc 1 644 1 is_stmt 0 view .LVU319
 1385              		@ sp needed
 1386 0010 10BD     		pop	{r4, pc}
 1387              		.cfi_endproc
 1388              	.LFE394:
 1390              		.section	.text.USBD_LL_PrepareReceive,"ax",%progbits
 1391              		.align	1
 1392              		.global	USBD_LL_PrepareReceive
 1393              		.syntax unified
 1394              		.code	16
 1395              		.thumb_func
 1397              	USBD_LL_PrepareReceive:
 1398              	.LVL134:
 1399              	.LFB395:
 655:USB_Device/Target/usbd_conf.c ****   HAL_StatusTypeDef hal_status = HAL_OK;
 1400              		.loc 1 655 1 is_stmt 1 view -0
 1401              		.cfi_startproc
ARM GAS  /tmp/ccVI1jbG.s 			page 44


 1402              		@ args = 0, pretend = 0, frame = 0
 1403              		@ frame_needed = 0, uses_anonymous_args = 0
 655:USB_Device/Target/usbd_conf.c ****   HAL_StatusTypeDef hal_status = HAL_OK;
 1404              		.loc 1 655 1 is_stmt 0 view .LVU321
 1405 0000 10B5     		push	{r4, lr}
 1406              	.LCFI26:
 1407              		.cfi_def_cfa_offset 8
 1408              		.cfi_offset 4, -8
 1409              		.cfi_offset 14, -4
 656:USB_Device/Target/usbd_conf.c ****   USBD_StatusTypeDef usb_status = USBD_OK;
 1410              		.loc 1 656 3 is_stmt 1 view .LVU322
 1411              	.LVL135:
 657:USB_Device/Target/usbd_conf.c **** 
 1412              		.loc 1 657 3 view .LVU323
 659:USB_Device/Target/usbd_conf.c **** 
 1413              		.loc 1 659 3 view .LVU324
 659:USB_Device/Target/usbd_conf.c **** 
 1414              		.loc 1 659 39 is_stmt 0 view .LVU325
 1415 0002 B124     		movs	r4, #177
 1416 0004 A400     		lsls	r4, r4, #2
 1417 0006 0059     		ldr	r0, [r0, r4]
 1418              	.LVL136:
 659:USB_Device/Target/usbd_conf.c **** 
 1419              		.loc 1 659 16 view .LVU326
 1420 0008 FFF7FEFF 		bl	HAL_PCD_EP_Receive
 1421              	.LVL137:
 661:USB_Device/Target/usbd_conf.c **** 
 1422              		.loc 1 661 3 is_stmt 1 view .LVU327
 661:USB_Device/Target/usbd_conf.c **** 
 1423              		.loc 1 661 17 is_stmt 0 view .LVU328
 1424 000c FFF7FEFF 		bl	USBD_Get_USB_Status
 1425              	.LVL138:
 663:USB_Device/Target/usbd_conf.c **** }
 1426              		.loc 1 663 3 is_stmt 1 view .LVU329
 664:USB_Device/Target/usbd_conf.c **** 
 1427              		.loc 1 664 1 is_stmt 0 view .LVU330
 1428              		@ sp needed
 1429 0010 10BD     		pop	{r4, pc}
 1430              		.cfi_endproc
 1431              	.LFE395:
 1433              		.section	.text.USBD_LL_GetRxDataSize,"ax",%progbits
 1434              		.align	1
 1435              		.global	USBD_LL_GetRxDataSize
 1436              		.syntax unified
 1437              		.code	16
 1438              		.thumb_func
 1440              	USBD_LL_GetRxDataSize:
 1441              	.LVL139:
 1442              	.LFB396:
 673:USB_Device/Target/usbd_conf.c ****   return HAL_PCD_EP_GetRxCount((PCD_HandleTypeDef*) pdev->pData, ep_addr);
 1443              		.loc 1 673 1 is_stmt 1 view -0
 1444              		.cfi_startproc
 1445              		@ args = 0, pretend = 0, frame = 0
 1446              		@ frame_needed = 0, uses_anonymous_args = 0
 673:USB_Device/Target/usbd_conf.c ****   return HAL_PCD_EP_GetRxCount((PCD_HandleTypeDef*) pdev->pData, ep_addr);
 1447              		.loc 1 673 1 is_stmt 0 view .LVU332
 1448 0000 10B5     		push	{r4, lr}
ARM GAS  /tmp/ccVI1jbG.s 			page 45


 1449              	.LCFI27:
 1450              		.cfi_def_cfa_offset 8
 1451              		.cfi_offset 4, -8
 1452              		.cfi_offset 14, -4
 674:USB_Device/Target/usbd_conf.c **** }
 1453              		.loc 1 674 3 is_stmt 1 view .LVU333
 674:USB_Device/Target/usbd_conf.c **** }
 1454              		.loc 1 674 57 is_stmt 0 view .LVU334
 1455 0002 B123     		movs	r3, #177
 1456 0004 9B00     		lsls	r3, r3, #2
 1457 0006 C058     		ldr	r0, [r0, r3]
 1458              	.LVL140:
 674:USB_Device/Target/usbd_conf.c **** }
 1459              		.loc 1 674 10 view .LVU335
 1460 0008 FFF7FEFF 		bl	HAL_PCD_EP_GetRxCount
 1461              	.LVL141:
 675:USB_Device/Target/usbd_conf.c **** 
 1462              		.loc 1 675 1 view .LVU336
 1463              		@ sp needed
 1464 000c 10BD     		pop	{r4, pc}
 1465              		.cfi_endproc
 1466              	.LFE396:
 1468              		.section	.text.HAL_PCDEx_LPM_Callback,"ax",%progbits
 1469              		.align	1
 1470              		.global	HAL_PCDEx_LPM_Callback
 1471              		.syntax unified
 1472              		.code	16
 1473              		.thumb_func
 1475              	HAL_PCDEx_LPM_Callback:
 1476              	.LVL142:
 1477              	.LFB397:
 688:USB_Device/Target/usbd_conf.c ****   /* USER CODE BEGIN LPM_Callback */
 1478              		.loc 1 688 1 is_stmt 1 view -0
 1479              		.cfi_startproc
 1480              		@ args = 0, pretend = 0, frame = 0
 1481              		@ frame_needed = 0, uses_anonymous_args = 0
 688:USB_Device/Target/usbd_conf.c ****   /* USER CODE BEGIN LPM_Callback */
 1482              		.loc 1 688 1 is_stmt 0 view .LVU338
 1483 0000 10B5     		push	{r4, lr}
 1484              	.LCFI28:
 1485              		.cfi_def_cfa_offset 8
 1486              		.cfi_offset 4, -8
 1487              		.cfi_offset 14, -4
 1488 0002 0400     		movs	r4, r0
 690:USB_Device/Target/usbd_conf.c ****   {
 1489              		.loc 1 690 3 is_stmt 1 view .LVU339
 1490 0004 0029     		cmp	r1, #0
 1491 0006 02D0     		beq	.L61
 1492 0008 0129     		cmp	r1, #1
 1493 000a 11D0     		beq	.L62
 1494              	.LVL143:
 1495              	.L60:
 717:USB_Device/Target/usbd_conf.c **** 
 1496              		.loc 1 717 1 is_stmt 0 view .LVU340
 1497              		@ sp needed
 1498              	.LVL144:
 717:USB_Device/Target/usbd_conf.c **** 
ARM GAS  /tmp/ccVI1jbG.s 			page 46


 1499              		.loc 1 717 1 view .LVU341
 1500 000c 10BD     		pop	{r4, pc}
 1501              	.LVL145:
 1502              	.L61:
 693:USB_Device/Target/usbd_conf.c ****     {
 1503              		.loc 1 693 5 is_stmt 1 view .LVU342
 693:USB_Device/Target/usbd_conf.c ****     {
 1504              		.loc 1 693 19 is_stmt 0 view .LVU343
 1505 000e 036A     		ldr	r3, [r0, #32]
 693:USB_Device/Target/usbd_conf.c ****     {
 1506              		.loc 1 693 8 view .LVU344
 1507 0010 002B     		cmp	r3, #0
 1508 0012 05D1     		bne	.L65
 1509              	.LVL146:
 1510              	.L64:
 701:USB_Device/Target/usbd_conf.c ****     break;
 1511              		.loc 1 701 5 is_stmt 1 view .LVU345
 701:USB_Device/Target/usbd_conf.c ****     break;
 1512              		.loc 1 701 24 is_stmt 0 view .LVU346
 1513 0014 C123     		movs	r3, #193
 1514 0016 9B00     		lsls	r3, r3, #2
 1515 0018 E058     		ldr	r0, [r4, r3]
 701:USB_Device/Target/usbd_conf.c ****     break;
 1516              		.loc 1 701 5 view .LVU347
 1517 001a FFF7FEFF 		bl	USBD_LL_Resume
 1518              	.LVL147:
 702:USB_Device/Target/usbd_conf.c **** 
 1519              		.loc 1 702 5 is_stmt 1 view .LVU348
 1520 001e F5E7     		b	.L60
 1521              	.LVL148:
 1522              	.L65:
 695:USB_Device/Target/usbd_conf.c **** 
 1523              		.loc 1 695 7 view .LVU349
 1524 0020 FFF7FEFF 		bl	SystemClockConfig_Resume
 1525              	.LVL149:
 698:USB_Device/Target/usbd_conf.c ****     }
 1526              		.loc 1 698 7 view .LVU350
 698:USB_Device/Target/usbd_conf.c ****     }
 1527              		.loc 1 698 10 is_stmt 0 view .LVU351
 1528 0024 094A     		ldr	r2, .L66
 1529 0026 1369     		ldr	r3, [r2, #16]
 698:USB_Device/Target/usbd_conf.c ****     }
 1530              		.loc 1 698 16 view .LVU352
 1531 0028 0621     		movs	r1, #6
 1532 002a 8B43     		bics	r3, r1
 1533 002c 1361     		str	r3, [r2, #16]
 1534 002e F1E7     		b	.L64
 1535              	.LVL150:
 1536              	.L62:
 706:USB_Device/Target/usbd_conf.c **** 
 1537              		.loc 1 706 5 is_stmt 1 view .LVU353
 706:USB_Device/Target/usbd_conf.c **** 
 1538              		.loc 1 706 25 is_stmt 0 view .LVU354
 1539 0030 C123     		movs	r3, #193
 1540 0032 9B00     		lsls	r3, r3, #2
 1541 0034 C058     		ldr	r0, [r0, r3]
 1542              	.LVL151:
ARM GAS  /tmp/ccVI1jbG.s 			page 47


 706:USB_Device/Target/usbd_conf.c **** 
 1543              		.loc 1 706 5 view .LVU355
 1544 0036 FFF7FEFF 		bl	USBD_LL_Suspend
 1545              	.LVL152:
 709:USB_Device/Target/usbd_conf.c ****     {
 1546              		.loc 1 709 5 is_stmt 1 view .LVU356
 709:USB_Device/Target/usbd_conf.c ****     {
 1547              		.loc 1 709 19 is_stmt 0 view .LVU357
 1548 003a 236A     		ldr	r3, [r4, #32]
 709:USB_Device/Target/usbd_conf.c ****     {
 1549              		.loc 1 709 8 view .LVU358
 1550 003c 002B     		cmp	r3, #0
 1551 003e E5D0     		beq	.L60
 712:USB_Device/Target/usbd_conf.c ****     }
 1552              		.loc 1 712 7 is_stmt 1 view .LVU359
 712:USB_Device/Target/usbd_conf.c ****     }
 1553              		.loc 1 712 10 is_stmt 0 view .LVU360
 1554 0040 024A     		ldr	r2, .L66
 1555 0042 1369     		ldr	r3, [r2, #16]
 712:USB_Device/Target/usbd_conf.c ****     }
 1556              		.loc 1 712 16 view .LVU361
 1557 0044 0621     		movs	r1, #6
 1558 0046 0B43     		orrs	r3, r1
 1559 0048 1361     		str	r3, [r2, #16]
 717:USB_Device/Target/usbd_conf.c **** 
 1560              		.loc 1 717 1 view .LVU362
 1561 004a DFE7     		b	.L60
 1562              	.L67:
 1563              		.align	2
 1564              	.L66:
 1565 004c 00ED00E0 		.word	-536810240
 1566              		.cfi_endproc
 1567              	.LFE397:
 1569              		.section	.text.USBD_static_malloc,"ax",%progbits
 1570              		.align	1
 1571              		.global	USBD_static_malloc
 1572              		.syntax unified
 1573              		.code	16
 1574              		.thumb_func
 1576              	USBD_static_malloc:
 1577              	.LVL153:
 1578              	.LFB398:
 725:USB_Device/Target/usbd_conf.c ****   static uint32_t mem[(sizeof(USBD_HID_HandleTypeDef)/4)+1];/* On 32-bit boundary */
 1579              		.loc 1 725 1 is_stmt 1 view -0
 1580              		.cfi_startproc
 1581              		@ args = 0, pretend = 0, frame = 0
 1582              		@ frame_needed = 0, uses_anonymous_args = 0
 1583              		@ link register save eliminated.
 726:USB_Device/Target/usbd_conf.c ****   return mem;
 1584              		.loc 1 726 3 view .LVU364
 727:USB_Device/Target/usbd_conf.c **** }
 1585              		.loc 1 727 3 view .LVU365
 727:USB_Device/Target/usbd_conf.c **** }
 1586              		.loc 1 727 10 is_stmt 0 view .LVU366
 1587 0000 0048     		ldr	r0, .L69
 1588              	.LVL154:
 728:USB_Device/Target/usbd_conf.c **** 
ARM GAS  /tmp/ccVI1jbG.s 			page 48


 1589              		.loc 1 728 1 view .LVU367
 1590              		@ sp needed
 1591 0002 7047     		bx	lr
 1592              	.L70:
 1593              		.align	2
 1594              	.L69:
 1595 0004 00000000 		.word	mem.0
 1596              		.cfi_endproc
 1597              	.LFE398:
 1599              		.section	.text.USBD_static_free,"ax",%progbits
 1600              		.align	1
 1601              		.global	USBD_static_free
 1602              		.syntax unified
 1603              		.code	16
 1604              		.thumb_func
 1606              	USBD_static_free:
 1607              	.LVL155:
 1608              	.LFB399:
 736:USB_Device/Target/usbd_conf.c **** 
 1609              		.loc 1 736 1 is_stmt 1 view -0
 1610              		.cfi_startproc
 1611              		@ args = 0, pretend = 0, frame = 0
 1612              		@ frame_needed = 0, uses_anonymous_args = 0
 1613              		@ link register save eliminated.
 738:USB_Device/Target/usbd_conf.c **** 
 1614              		.loc 1 738 1 view .LVU369
 1615              		@ sp needed
 1616 0000 7047     		bx	lr
 1617              		.cfi_endproc
 1618              	.LFE399:
 1620              		.section	.text.USBD_LL_Delay,"ax",%progbits
 1621              		.align	1
 1622              		.global	USBD_LL_Delay
 1623              		.syntax unified
 1624              		.code	16
 1625              		.thumb_func
 1627              	USBD_LL_Delay:
 1628              	.LVL156:
 1629              	.LFB400:
 746:USB_Device/Target/usbd_conf.c ****   HAL_Delay(Delay);
 1630              		.loc 1 746 1 view -0
 1631              		.cfi_startproc
 1632              		@ args = 0, pretend = 0, frame = 0
 1633              		@ frame_needed = 0, uses_anonymous_args = 0
 746:USB_Device/Target/usbd_conf.c ****   HAL_Delay(Delay);
 1634              		.loc 1 746 1 is_stmt 0 view .LVU371
 1635 0000 10B5     		push	{r4, lr}
 1636              	.LCFI29:
 1637              		.cfi_def_cfa_offset 8
 1638              		.cfi_offset 4, -8
 1639              		.cfi_offset 14, -4
 747:USB_Device/Target/usbd_conf.c **** }
 1640              		.loc 1 747 3 is_stmt 1 view .LVU372
 1641 0002 FFF7FEFF 		bl	HAL_Delay
 1642              	.LVL157:
 748:USB_Device/Target/usbd_conf.c **** 
 1643              		.loc 1 748 1 is_stmt 0 view .LVU373
ARM GAS  /tmp/ccVI1jbG.s 			page 49


 1644              		@ sp needed
 1645 0006 10BD     		pop	{r4, pc}
 1646              		.cfi_endproc
 1647              	.LFE400:
 1649              		.section	.bss.mem.0,"aw",%nobits
 1650              		.align	2
 1653              	mem.0:
 1654 0000 00000000 		.space	20
 1654      00000000 
 1654      00000000 
 1654      00000000 
 1654      00000000 
 1655              		.global	hpcd_USB_DRD_FS
 1656              		.section	.bss.hpcd_USB_DRD_FS,"aw",%nobits
 1657              		.align	2
 1660              	hpcd_USB_DRD_FS:
 1661 0000 00000000 		.space	776
 1661      00000000 
 1661      00000000 
 1661      00000000 
 1661      00000000 
 1662              		.text
 1663              	.Letext0:
 1664              		.file 2 "Drivers/CMSIS/Device/ST/STM32G0xx/Include/stm32g0b1xx.h"
 1665              		.file 3 "/usr/arm-none-eabi/include/machine/_default_types.h"
 1666              		.file 4 "/usr/arm-none-eabi/include/sys/_stdint.h"
 1667              		.file 5 "Drivers/CMSIS/Include/core_cm0plus.h"
 1668              		.file 6 "Drivers/CMSIS/Device/ST/STM32G0xx/Include/stm32g0xx.h"
 1669              		.file 7 "Drivers/STM32G0xx_HAL_Driver/Inc/stm32g0xx_hal_def.h"
 1670              		.file 8 "Drivers/STM32G0xx_HAL_Driver/Inc/stm32g0xx_ll_usb.h"
 1671              		.file 9 "Drivers/STM32G0xx_HAL_Driver/Inc/stm32g0xx_hal_pcd.h"
 1672              		.file 10 "Middlewares/ST/STM32_USB_Device_Library/Core/Inc/usbd_def.h"
 1673              		.file 11 "Drivers/STM32G0xx_HAL_Driver/Inc/stm32g0xx_hal_pcd_ex.h"
 1674              		.file 12 "Middlewares/ST/STM32_USB_Device_Library/Core/Inc/usbd_core.h"
 1675              		.file 13 "Drivers/STM32G0xx_HAL_Driver/Inc/stm32g0xx_hal.h"
 1676              		.file 14 "Drivers/STM32G0xx_HAL_Driver/Inc/stm32g0xx_hal_cortex.h"
 1677              		.file 15 "Drivers/STM32G0xx_HAL_Driver/Inc/stm32g0xx_hal_pwr_ex.h"
 1678              		.file 16 "Drivers/STM32G0xx_HAL_Driver/Inc/stm32g0xx_ll_dma.h"
ARM GAS  /tmp/ccVI1jbG.s 			page 50

